ARM GAS  /var/folders/4k/6h5l9jl178sb4hslwv3xp1mr0000gn/T//ccSshiDb.s 			page 1


   1              		.syntax unified
   2              		.cpu cortex-m4
   3              		.fpu softvfp
   4              		.eabi_attribute 20, 1
   5              		.eabi_attribute 21, 1
   6              		.eabi_attribute 23, 3
   7              		.eabi_attribute 24, 1
   8              		.eabi_attribute 25, 1
   9              		.eabi_attribute 26, 1
  10              		.eabi_attribute 30, 2
  11              		.eabi_attribute 34, 1
  12              		.eabi_attribute 18, 4
  13              		.thumb
  14              		.file	"board.c"
  15              		.text
  16              	.Ltext0:
  17              		.cfi_sections	.debug_frame
  18              		.section	.text.__early_init,"ax",%progbits
  19              		.align	2
  20              		.p2align 4,,15
  21              		.global	__early_init
  22              		.thumb
  23              		.thumb_func
  24              		.type	__early_init, %function
  25              	__early_init:
  26              	.LFB118:
  27              		.file 1 "../ChibiStudio/ChibiOS/boards/ST_STM32F4_DISCOVERY/board.c"
  28              		.loc 1 54 0
  29              		.cfi_startproc
  30              		@ args = 0, pretend = 0, frame = 0
  31              		@ frame_needed = 0, uses_anonymous_args = 0
  32              		@ link register save eliminated.
  33              		.loc 1 56 0
  34 0000 FFF7FEBF 		b	stm32_clock_init
  35              	.LVL0:
  36              		.cfi_endproc
  37              	.LFE118:
  38              		.size	__early_init, .-__early_init
  39 0004 AFF30080 		.section	.text.mmc_lld_is_card_inserted,"ax",%progbits
  39      AFF30080 
  39      AFF30080 
  40              		.align	2
  41              		.p2align 4,,15
  42              		.global	mmc_lld_is_card_inserted
  43              		.thumb
  44              		.thumb_func
  45              		.type	mmc_lld_is_card_inserted, %function
  46              	mmc_lld_is_card_inserted:
  47              	.LFB119:
  48              		.loc 1 85 0
  49              		.cfi_startproc
  50              		@ args = 0, pretend = 0, frame = 0
  51              		@ frame_needed = 0, uses_anonymous_args = 0
  52              		@ link register save eliminated.
  53              	.LVL1:
  54              		.loc 1 90 0
  55 0000 0120     		movs	r0, #1
ARM GAS  /var/folders/4k/6h5l9jl178sb4hslwv3xp1mr0000gn/T//ccSshiDb.s 			page 2


  56              	.LVL2:
  57 0002 7047     		bx	lr
  58              		.cfi_endproc
  59              	.LFE119:
  60              		.size	mmc_lld_is_card_inserted, .-mmc_lld_is_card_inserted
  61 0004 AFF30080 		.section	.text.mmc_lld_is_write_protected,"ax",%progbits
  61      AFF30080 
  61      AFF30080 
  62              		.align	2
  63              		.p2align 4,,15
  64              		.global	mmc_lld_is_write_protected
  65              		.thumb
  66              		.thumb_func
  67              		.type	mmc_lld_is_write_protected, %function
  68              	mmc_lld_is_write_protected:
  69              	.LFB120:
  70              		.loc 1 95 0
  71              		.cfi_startproc
  72              		@ args = 0, pretend = 0, frame = 0
  73              		@ frame_needed = 0, uses_anonymous_args = 0
  74              		@ link register save eliminated.
  75              	.LVL3:
  76              		.loc 1 100 0
  77 0000 0020     		movs	r0, #0
  78              	.LVL4:
  79 0002 7047     		bx	lr
  80              		.cfi_endproc
  81              	.LFE120:
  82              		.size	mmc_lld_is_write_protected, .-mmc_lld_is_write_protected
  83 0004 AFF30080 		.section	.text.boardInit,"ax",%progbits
  83      AFF30080 
  83      AFF30080 
  84              		.align	2
  85              		.p2align 4,,15
  86              		.global	boardInit
  87              		.thumb
  88              		.thumb_func
  89              		.type	boardInit, %function
  90              	boardInit:
  91              	.LFB121:
  92              		.loc 1 107 0
  93              		.cfi_startproc
  94              		@ args = 0, pretend = 0, frame = 0
  95              		@ frame_needed = 0, uses_anonymous_args = 0
  96              		@ link register save eliminated.
  97 0000 7047     		bx	lr
  98              		.cfi_endproc
  99              	.LFE121:
 100              		.size	boardInit, .-boardInit
 101              		.global	pal_default_config
 102 0002 00BFAFF3 		.section	.rodata.pal_default_config,"a",%progbits
 102      0080AFF3 
 102      0080AFF3 
 102      0080
 103              		.align	2
 104              		.type	pal_default_config, %object
 105              		.size	pal_default_config, 252
ARM GAS  /var/folders/4k/6h5l9jl178sb4hslwv3xp1mr0000gn/T//ccSshiDb.s 			page 3


 106              	pal_default_config:
 107 0000 00AAA02A 		.word	715172352
 108 0004 00000000 		.word	0
 109 0008 FFABFFFF 		.word	-21505
 110 000c 54000140 		.word	1073807444
 111 0010 FFFF0000 		.word	65535
 112 0014 00005655 		.word	1431699456
 113 0018 00AA0A00 		.word	698880
 114 001c 80200800 		.word	532608
 115 0020 40020000 		.word	576
 116 0024 FFFFFFFF 		.word	-1
 117 0028 15455155 		.word	1431389461
 118 002c FFFF0000 		.word	65535
 119 0030 00000004 		.word	67108864
 120 0034 40000000 		.word	64
 121 0038 01802002 		.word	35684353
 122 003c 00000000 		.word	0
 123 0040 FFFFFFFF 		.word	-1
 124 0044 54154554 		.word	1413813588
 125 0048 FFFF0000 		.word	65535
 126 004c 00000060 		.word	1610612736
 127 0050 00060600 		.word	394752
 128 0054 00010055 		.word	1426063616
 129 0058 00000000 		.word	0
 130 005c FFFFFFFF 		.word	-1
 131 0060 55505500 		.word	5591125
 132 0064 FF0F0000 		.word	4095
 133 0068 00000000 		.word	0
 134 006c 00000000 		.word	0
 135 0070 40000000 		.word	64
 136 0074 00000000 		.word	0
 137 0078 FFFFFFFF 		.word	-1
 138 007c 00000000 		.word	0
 139 0080 FFFF0000 		.word	65535
 140 0084 00000000 		.word	0
 141 0088 00000000 		.word	0
 142 008c 00000000 		.word	0
 143 0090 00000000 		.word	0
 144 0094 FFFFFFFF 		.word	-1
 145 0098 00000000 		.word	0
 146 009c FFFF0000 		.word	65535
 147 00a0 00000000 		.word	0
 148 00a4 00000000 		.word	0
 149 00a8 00000000 		.word	0
 150 00ac 00000000 		.word	0
 151 00b0 FFFFFFFF 		.word	-1
 152 00b4 00000000 		.word	0
 153 00b8 FFFF0000 		.word	65535
 154 00bc 00000000 		.word	0
 155 00c0 00000000 		.word	0
 156 00c4 00000000 		.word	0
 157 00c8 00000000 		.word	0
 158 00cc FFFFFFFF 		.word	-1
 159 00d0 00000000 		.word	0
 160 00d4 FFFF0000 		.word	65535
 161 00d8 00000000 		.word	0
 162 00dc 00000000 		.word	0
ARM GAS  /var/folders/4k/6h5l9jl178sb4hslwv3xp1mr0000gn/T//ccSshiDb.s 			page 4


 163 00e0 00000000 		.word	0
 164 00e4 00000000 		.word	0
 165 00e8 FFFFFFFF 		.word	-1
 166 00ec 00000000 		.word	0
 167 00f0 FFFF0000 		.word	65535
 168 00f4 00000000 		.word	0
 169 00f8 00000000 		.word	0
 170              		.text
 171              	.Letext0:
 172              		.file 2 "/Users/mikevanis/Documents/workspace/gcc-arm-none-eabi-4_8-2014q1/arm-none-eabi/include/m
 173              		.file 3 "/Users/mikevanis/Documents/workspace/gcc-arm-none-eabi-4_8-2014q1/arm-none-eabi/include/s
 174              		.file 4 "../ChibiStudio/ChibiOS/os/ports/GCC/ARMCMx/chtypes.h"
 175              		.file 5 "../ChibiStudio/ChibiOS/os/kernel/include/chlists.h"
 176              		.file 6 "../ChibiStudio/ChibiOS/os/kernel/include/chthreads.h"
 177              		.file 7 "../ChibiStudio/ChibiOS/os/ports/GCC/ARMCMx/chcore_v7m.h"
 178              		.file 8 "../ChibiStudio/ChibiOS/os/kernel/include/chmtx.h"
 179              		.file 9 "../ChibiStudio/ChibiOS/os/hal/platforms/STM32F4xx/stm32f4xx.h"
 180              		.file 10 "../ChibiStudio/ChibiOS/os/hal/platforms/STM32F4xx/stm32_dma.h"
 181              		.file 11 "../ChibiStudio/ChibiOS/os/hal/include/io_block.h"
 182              		.file 12 "../ChibiStudio/ChibiOS/os/hal/platforms/STM32/GPIOv2/pal_lld.h"
 183              		.file 13 "../ChibiStudio/ChibiOS/os/hal/include/spi.h"
 184              		.file 14 "../ChibiStudio/ChibiOS/os/hal/platforms/STM32/SPIv1/spi_lld.h"
 185              		.file 15 "../ChibiStudio/ChibiOS/os/hal/include/mmc_spi.h"
 186              		.file 16 "../ChibiStudio/ChibiOS/os/ports/common/ARMCMx/CMSIS/include/core_cm4.h"
 187              		.file 17 "../ChibiStudio/ChibiOS/os/hal/platforms/STM32F4xx/hal_lld.h"
 188              		.section	.debug_info,"",%progbits
 189              	.Ldebug_info0:
 190 0000 8E0B0000 		.4byte	0xb8e
 191 0004 0400     		.2byte	0x4
 192 0006 00000000 		.4byte	.Ldebug_abbrev0
 193 000a 04       		.byte	0x4
 194 000b 01       		.uleb128 0x1
 195 000c 2F040000 		.4byte	.LASF169
 196 0010 01       		.byte	0x1
 197 0011 DB060000 		.4byte	.LASF170
 198 0015 7D050000 		.4byte	.LASF171
 199 0019 00000000 		.4byte	.Ldebug_ranges0+0
 200 001d 00000000 		.4byte	0
 201 0021 00000000 		.4byte	.Ldebug_line0
 202 0025 02       		.uleb128 0x2
 203 0026 04       		.byte	0x4
 204 0027 05       		.byte	0x5
 205 0028 696E7400 		.ascii	"int\000"
 206 002c 03       		.uleb128 0x3
 207 002d 04       		.byte	0x4
 208 002e 07       		.byte	0x7
 209 002f 5D020000 		.4byte	.LASF0
 210 0033 03       		.uleb128 0x3
 211 0034 01       		.byte	0x1
 212 0035 06       		.byte	0x6
 213 0036 1F010000 		.4byte	.LASF1
 214 003a 04       		.uleb128 0x4
 215 003b 58000000 		.4byte	.LASF4
 216 003f 02       		.byte	0x2
 217 0040 1C       		.byte	0x1c
 218 0041 45000000 		.4byte	0x45
 219 0045 03       		.uleb128 0x3
ARM GAS  /var/folders/4k/6h5l9jl178sb4hslwv3xp1mr0000gn/T//ccSshiDb.s 			page 5


 220 0046 01       		.byte	0x1
 221 0047 08       		.byte	0x8
 222 0048 0E040000 		.4byte	.LASF2
 223 004c 03       		.uleb128 0x3
 224 004d 02       		.byte	0x2
 225 004e 05       		.byte	0x5
 226 004f 18050000 		.4byte	.LASF3
 227 0053 04       		.uleb128 0x4
 228 0054 3B060000 		.4byte	.LASF5
 229 0058 02       		.byte	0x2
 230 0059 26       		.byte	0x26
 231 005a 5E000000 		.4byte	0x5e
 232 005e 03       		.uleb128 0x3
 233 005f 02       		.byte	0x2
 234 0060 07       		.byte	0x7
 235 0061 96020000 		.4byte	.LASF6
 236 0065 04       		.uleb128 0x4
 237 0066 6D060000 		.4byte	.LASF7
 238 006a 02       		.byte	0x2
 239 006b 37       		.byte	0x37
 240 006c 70000000 		.4byte	0x70
 241 0070 03       		.uleb128 0x3
 242 0071 04       		.byte	0x4
 243 0072 05       		.byte	0x5
 244 0073 77010000 		.4byte	.LASF8
 245 0077 04       		.uleb128 0x4
 246 0078 08020000 		.4byte	.LASF9
 247 007c 02       		.byte	0x2
 248 007d 38       		.byte	0x38
 249 007e 82000000 		.4byte	0x82
 250 0082 03       		.uleb128 0x3
 251 0083 04       		.byte	0x4
 252 0084 07       		.byte	0x7
 253 0085 ED050000 		.4byte	.LASF10
 254 0089 03       		.uleb128 0x3
 255 008a 08       		.byte	0x8
 256 008b 05       		.byte	0x5
 257 008c 11010000 		.4byte	.LASF11
 258 0090 03       		.uleb128 0x3
 259 0091 08       		.byte	0x8
 260 0092 07       		.byte	0x7
 261 0093 9E000000 		.4byte	.LASF12
 262 0097 04       		.uleb128 0x4
 263 0098 2D070000 		.4byte	.LASF13
 264 009c 03       		.byte	0x3
 265 009d 2A       		.byte	0x2a
 266 009e 3A000000 		.4byte	0x3a
 267 00a2 04       		.uleb128 0x4
 268 00a3 BB010000 		.4byte	.LASF14
 269 00a7 03       		.byte	0x3
 270 00a8 36       		.byte	0x36
 271 00a9 53000000 		.4byte	0x53
 272 00ad 04       		.uleb128 0x4
 273 00ae 06040000 		.4byte	.LASF15
 274 00b2 03       		.byte	0x3
 275 00b3 41       		.byte	0x41
 276 00b4 65000000 		.4byte	0x65
ARM GAS  /var/folders/4k/6h5l9jl178sb4hslwv3xp1mr0000gn/T//ccSshiDb.s 			page 6


 277 00b8 04       		.uleb128 0x4
 278 00b9 D7050000 		.4byte	.LASF16
 279 00bd 03       		.byte	0x3
 280 00be 42       		.byte	0x42
 281 00bf 77000000 		.4byte	0x77
 282 00c3 04       		.uleb128 0x4
 283 00c4 3C010000 		.4byte	.LASF17
 284 00c8 04       		.byte	0x4
 285 00c9 2B       		.byte	0x2b
 286 00ca CE000000 		.4byte	0xce
 287 00ce 03       		.uleb128 0x3
 288 00cf 01       		.byte	0x1
 289 00d0 02       		.byte	0x2
 290 00d1 00040000 		.4byte	.LASF18
 291 00d5 04       		.uleb128 0x4
 292 00d6 E6020000 		.4byte	.LASF19
 293 00da 04       		.byte	0x4
 294 00db 2C       		.byte	0x2c
 295 00dc 97000000 		.4byte	0x97
 296 00e0 04       		.uleb128 0x4
 297 00e1 87010000 		.4byte	.LASF20
 298 00e5 04       		.byte	0x4
 299 00e6 2D       		.byte	0x2d
 300 00e7 97000000 		.4byte	0x97
 301 00eb 04       		.uleb128 0x4
 302 00ec E0050000 		.4byte	.LASF21
 303 00f0 04       		.byte	0x4
 304 00f1 2E       		.byte	0x2e
 305 00f2 97000000 		.4byte	0x97
 306 00f6 04       		.uleb128 0x4
 307 00f7 5C010000 		.4byte	.LASF22
 308 00fb 04       		.byte	0x4
 309 00fc 2F       		.byte	0x2f
 310 00fd 97000000 		.4byte	0x97
 311 0101 04       		.uleb128 0x4
 312 0102 F2030000 		.4byte	.LASF23
 313 0106 04       		.byte	0x4
 314 0107 30       		.byte	0x30
 315 0108 B8000000 		.4byte	0xb8
 316 010c 04       		.uleb128 0x4
 317 010d D1020000 		.4byte	.LASF24
 318 0111 04       		.byte	0x4
 319 0112 31       		.byte	0x31
 320 0113 AD000000 		.4byte	0xad
 321 0117 04       		.uleb128 0x4
 322 0118 FF020000 		.4byte	.LASF25
 323 011c 04       		.byte	0x4
 324 011d 33       		.byte	0x33
 325 011e B8000000 		.4byte	0xb8
 326 0122 04       		.uleb128 0x4
 327 0123 58060000 		.4byte	.LASF26
 328 0127 04       		.byte	0x4
 329 0128 35       		.byte	0x35
 330 0129 B8000000 		.4byte	0xb8
 331 012d 04       		.uleb128 0x4
 332 012e 1C070000 		.4byte	.LASF27
 333 0132 05       		.byte	0x5
ARM GAS  /var/folders/4k/6h5l9jl178sb4hslwv3xp1mr0000gn/T//ccSshiDb.s 			page 7


 334 0133 2A       		.byte	0x2a
 335 0134 38010000 		.4byte	0x138
 336 0138 05       		.uleb128 0x5
 337 0139 1C070000 		.4byte	.LASF27
 338 013d 48       		.byte	0x48
 339 013e 06       		.byte	0x6
 340 013f 5E       		.byte	0x5e
 341 0140 35020000 		.4byte	0x235
 342 0144 06       		.uleb128 0x6
 343 0145 67050000 		.4byte	.LASF28
 344 0149 06       		.byte	0x6
 345 014a 5F       		.byte	0x5f
 346 014b 56020000 		.4byte	0x256
 347 014f 00       		.byte	0
 348 0150 06       		.uleb128 0x6
 349 0151 CD030000 		.4byte	.LASF29
 350 0155 06       		.byte	0x6
 351 0156 61       		.byte	0x61
 352 0157 56020000 		.4byte	0x256
 353 015b 04       		.byte	0x4
 354 015c 06       		.uleb128 0x6
 355 015d 04010000 		.4byte	.LASF30
 356 0161 06       		.byte	0x6
 357 0162 63       		.byte	0x63
 358 0163 01010000 		.4byte	0x101
 359 0167 08       		.byte	0x8
 360 0168 06       		.uleb128 0x6
 361 0169 8A070000 		.4byte	.LASF31
 362 016d 06       		.byte	0x6
 363 016e 64       		.byte	0x64
 364 016f 10030000 		.4byte	0x310
 365 0173 0C       		.byte	0xc
 366 0174 06       		.uleb128 0x6
 367 0175 CB010000 		.4byte	.LASF32
 368 0179 06       		.byte	0x6
 369 017a 66       		.byte	0x66
 370 017b 56020000 		.4byte	0x256
 371 017f 10       		.byte	0x10
 372 0180 06       		.uleb128 0x6
 373 0181 3F030000 		.4byte	.LASF33
 374 0185 06       		.byte	0x6
 375 0186 67       		.byte	0x67
 376 0187 56020000 		.4byte	0x256
 377 018b 14       		.byte	0x14
 378 018c 06       		.uleb128 0x6
 379 018d 47070000 		.4byte	.LASF34
 380 0191 06       		.byte	0x6
 381 0192 6E       		.byte	0x6e
 382 0193 B9030000 		.4byte	0x3b9
 383 0197 18       		.byte	0x18
 384 0198 06       		.uleb128 0x6
 385 0199 22050000 		.4byte	.LASF35
 386 019d 06       		.byte	0x6
 387 019e 79       		.byte	0x79
 388 019f E0000000 		.4byte	0xe0
 389 01a3 1C       		.byte	0x1c
 390 01a4 06       		.uleb128 0x6
ARM GAS  /var/folders/4k/6h5l9jl178sb4hslwv3xp1mr0000gn/T//ccSshiDb.s 			page 8


 391 01a5 6E050000 		.4byte	.LASF36
 392 01a9 06       		.byte	0x6
 393 01aa 7D       		.byte	0x7d
 394 01ab D5000000 		.4byte	0xd5
 395 01af 1D       		.byte	0x1d
 396 01b0 06       		.uleb128 0x6
 397 01b1 CF060000 		.4byte	.LASF37
 398 01b5 06       		.byte	0x6
 399 01b6 82       		.byte	0x82
 400 01b7 EB000000 		.4byte	0xeb
 401 01bb 1E       		.byte	0x1e
 402 01bc 06       		.uleb128 0x6
 403 01bd 36050000 		.4byte	.LASF38
 404 01c1 06       		.byte	0x6
 405 01c2 88       		.byte	0x88
 406 01c3 F6000000 		.4byte	0xf6
 407 01c7 1F       		.byte	0x1f
 408 01c8 06       		.uleb128 0x6
 409 01c9 C4010000 		.4byte	.LASF39
 410 01cd 06       		.byte	0x6
 411 01ce 8F       		.byte	0x8f
 412 01cf 3D030000 		.4byte	0x33d
 413 01d3 20       		.byte	0x20
 414 01d4 07       		.uleb128 0x7
 415 01d5 705F7500 		.ascii	"p_u\000"
 416 01d9 06       		.byte	0x6
 417 01da B4       		.byte	0xb4
 418 01db 84030000 		.4byte	0x384
 419 01df 24       		.byte	0x24
 420 01e0 06       		.uleb128 0x6
 421 01e1 90070000 		.4byte	.LASF40
 422 01e5 06       		.byte	0x6
 423 01e6 B9       		.byte	0xb9
 424 01e7 7C020000 		.4byte	0x27c
 425 01eb 28       		.byte	0x28
 426 01ec 06       		.uleb128 0x6
 427 01ed 6A020000 		.4byte	.LASF41
 428 01f1 06       		.byte	0x6
 429 01f2 BF       		.byte	0xbf
 430 01f3 5C020000 		.4byte	0x25c
 431 01f7 2C       		.byte	0x2c
 432 01f8 06       		.uleb128 0x6
 433 01f9 5F070000 		.4byte	.LASF42
 434 01fd 06       		.byte	0x6
 435 01fe C3       		.byte	0xc3
 436 01ff 0C010000 		.4byte	0x10c
 437 0203 34       		.byte	0x34
 438 0204 06       		.uleb128 0x6
 439 0205 BD050000 		.4byte	.LASF43
 440 0209 06       		.byte	0x6
 441 020a C9       		.byte	0xc9
 442 020b 17010000 		.4byte	0x117
 443 020f 38       		.byte	0x38
 444 0210 06       		.uleb128 0x6
 445 0211 0E050000 		.4byte	.LASF44
 446 0215 06       		.byte	0x6
 447 0216 D0       		.byte	0xd0
ARM GAS  /var/folders/4k/6h5l9jl178sb4hslwv3xp1mr0000gn/T//ccSshiDb.s 			page 9


 448 0217 CB030000 		.4byte	0x3cb
 449 021b 3C       		.byte	0x3c
 450 021c 06       		.uleb128 0x6
 451 021d 62060000 		.4byte	.LASF45
 452 0221 06       		.byte	0x6
 453 0222 D4       		.byte	0xd4
 454 0223 01010000 		.4byte	0x101
 455 0227 40       		.byte	0x40
 456 0228 06       		.uleb128 0x6
 457 0229 13020000 		.4byte	.LASF46
 458 022d 06       		.byte	0x6
 459 022e DA       		.byte	0xda
 460 022f 92020000 		.4byte	0x292
 461 0233 44       		.byte	0x44
 462 0234 00       		.byte	0
 463 0235 08       		.uleb128 0x8
 464 0236 08       		.byte	0x8
 465 0237 05       		.byte	0x5
 466 0238 61       		.byte	0x61
 467 0239 56020000 		.4byte	0x256
 468 023d 06       		.uleb128 0x6
 469 023e 67050000 		.4byte	.LASF28
 470 0242 05       		.byte	0x5
 471 0243 62       		.byte	0x62
 472 0244 56020000 		.4byte	0x256
 473 0248 00       		.byte	0
 474 0249 06       		.uleb128 0x6
 475 024a CD030000 		.4byte	.LASF29
 476 024e 05       		.byte	0x5
 477 024f 64       		.byte	0x64
 478 0250 56020000 		.4byte	0x256
 479 0254 04       		.byte	0x4
 480 0255 00       		.byte	0
 481 0256 09       		.uleb128 0x9
 482 0257 04       		.byte	0x4
 483 0258 2D010000 		.4byte	0x12d
 484 025c 04       		.uleb128 0x4
 485 025d 5D030000 		.4byte	.LASF47
 486 0261 05       		.byte	0x5
 487 0262 66       		.byte	0x66
 488 0263 35020000 		.4byte	0x235
 489 0267 08       		.uleb128 0x8
 490 0268 04       		.byte	0x4
 491 0269 05       		.byte	0x5
 492 026a 6B       		.byte	0x6b
 493 026b 7C020000 		.4byte	0x27c
 494 026f 06       		.uleb128 0x6
 495 0270 67050000 		.4byte	.LASF28
 496 0274 05       		.byte	0x5
 497 0275 6D       		.byte	0x6d
 498 0276 56020000 		.4byte	0x256
 499 027a 00       		.byte	0
 500 027b 00       		.byte	0
 501 027c 04       		.uleb128 0x4
 502 027d F3020000 		.4byte	.LASF48
 503 0281 05       		.byte	0x5
 504 0282 70       		.byte	0x70
ARM GAS  /var/folders/4k/6h5l9jl178sb4hslwv3xp1mr0000gn/T//ccSshiDb.s 			page 10


 505 0283 67020000 		.4byte	0x267
 506 0287 04       		.uleb128 0x4
 507 0288 1B020000 		.4byte	.LASF49
 508 028c 07       		.byte	0x7
 509 028d E5       		.byte	0xe5
 510 028e 92020000 		.4byte	0x292
 511 0292 0A       		.uleb128 0xa
 512 0293 04       		.byte	0x4
 513 0294 0B       		.uleb128 0xb
 514 0295 A2060000 		.4byte	.LASF50
 515 0299 24       		.byte	0x24
 516 029a 07       		.byte	0x7
 517 029b 0C01     		.2byte	0x10c
 518 029d 10030000 		.4byte	0x310
 519 02a1 0C       		.uleb128 0xc
 520 02a2 723400   		.ascii	"r4\000"
 521 02a5 07       		.byte	0x7
 522 02a6 1F01     		.2byte	0x11f
 523 02a8 87020000 		.4byte	0x287
 524 02ac 00       		.byte	0
 525 02ad 0C       		.uleb128 0xc
 526 02ae 723500   		.ascii	"r5\000"
 527 02b1 07       		.byte	0x7
 528 02b2 2001     		.2byte	0x120
 529 02b4 87020000 		.4byte	0x287
 530 02b8 04       		.byte	0x4
 531 02b9 0C       		.uleb128 0xc
 532 02ba 723600   		.ascii	"r6\000"
 533 02bd 07       		.byte	0x7
 534 02be 2101     		.2byte	0x121
 535 02c0 87020000 		.4byte	0x287
 536 02c4 08       		.byte	0x8
 537 02c5 0C       		.uleb128 0xc
 538 02c6 723700   		.ascii	"r7\000"
 539 02c9 07       		.byte	0x7
 540 02ca 2201     		.2byte	0x122
 541 02cc 87020000 		.4byte	0x287
 542 02d0 0C       		.byte	0xc
 543 02d1 0C       		.uleb128 0xc
 544 02d2 723800   		.ascii	"r8\000"
 545 02d5 07       		.byte	0x7
 546 02d6 2301     		.2byte	0x123
 547 02d8 87020000 		.4byte	0x287
 548 02dc 10       		.byte	0x10
 549 02dd 0C       		.uleb128 0xc
 550 02de 723900   		.ascii	"r9\000"
 551 02e1 07       		.byte	0x7
 552 02e2 2401     		.2byte	0x124
 553 02e4 87020000 		.4byte	0x287
 554 02e8 14       		.byte	0x14
 555 02e9 0C       		.uleb128 0xc
 556 02ea 72313000 		.ascii	"r10\000"
 557 02ee 07       		.byte	0x7
 558 02ef 2501     		.2byte	0x125
 559 02f1 87020000 		.4byte	0x287
 560 02f5 18       		.byte	0x18
 561 02f6 0C       		.uleb128 0xc
ARM GAS  /var/folders/4k/6h5l9jl178sb4hslwv3xp1mr0000gn/T//ccSshiDb.s 			page 11


 562 02f7 72313100 		.ascii	"r11\000"
 563 02fb 07       		.byte	0x7
 564 02fc 2601     		.2byte	0x126
 565 02fe 87020000 		.4byte	0x287
 566 0302 1C       		.byte	0x1c
 567 0303 0C       		.uleb128 0xc
 568 0304 6C7200   		.ascii	"lr\000"
 569 0307 07       		.byte	0x7
 570 0308 2701     		.2byte	0x127
 571 030a 87020000 		.4byte	0x287
 572 030e 20       		.byte	0x20
 573 030f 00       		.byte	0
 574 0310 0B       		.uleb128 0xb
 575 0311 9A060000 		.4byte	.LASF51
 576 0315 04       		.byte	0x4
 577 0316 07       		.byte	0x7
 578 0317 3101     		.2byte	0x131
 579 0319 2B030000 		.4byte	0x32b
 580 031d 0C       		.uleb128 0xc
 581 031e 72313300 		.ascii	"r13\000"
 582 0322 07       		.byte	0x7
 583 0323 3201     		.2byte	0x132
 584 0325 2B030000 		.4byte	0x32b
 585 0329 00       		.byte	0
 586 032a 00       		.byte	0
 587 032b 09       		.uleb128 0x9
 588 032c 04       		.byte	0x4
 589 032d 94020000 		.4byte	0x294
 590 0331 0D       		.uleb128 0xd
 591 0332 B8000000 		.4byte	0xb8
 592 0336 03       		.uleb128 0x3
 593 0337 04       		.byte	0x4
 594 0338 07       		.byte	0x7
 595 0339 2A030000 		.4byte	.LASF52
 596 033d 0D       		.uleb128 0xd
 597 033e 22010000 		.4byte	0x122
 598 0342 05       		.uleb128 0x5
 599 0343 39030000 		.4byte	.LASF53
 600 0347 10       		.byte	0x10
 601 0348 08       		.byte	0x8
 602 0349 2C       		.byte	0x2c
 603 034a 73030000 		.4byte	0x373
 604 034e 06       		.uleb128 0x6
 605 034f 43010000 		.4byte	.LASF54
 606 0353 08       		.byte	0x8
 607 0354 2D       		.byte	0x2d
 608 0355 5C020000 		.4byte	0x25c
 609 0359 00       		.byte	0
 610 035a 06       		.uleb128 0x6
 611 035b 6F070000 		.4byte	.LASF55
 612 035f 08       		.byte	0x8
 613 0360 2F       		.byte	0x2f
 614 0361 56020000 		.4byte	0x256
 615 0365 08       		.byte	0x8
 616 0366 06       		.uleb128 0x6
 617 0367 51060000 		.4byte	.LASF56
 618 036b 08       		.byte	0x8
ARM GAS  /var/folders/4k/6h5l9jl178sb4hslwv3xp1mr0000gn/T//ccSshiDb.s 			page 12


 619 036c 31       		.byte	0x31
 620 036d 73030000 		.4byte	0x373
 621 0371 0C       		.byte	0xc
 622 0372 00       		.byte	0
 623 0373 09       		.uleb128 0x9
 624 0374 04       		.byte	0x4
 625 0375 42030000 		.4byte	0x342
 626 0379 04       		.uleb128 0x4
 627 037a 39030000 		.4byte	.LASF53
 628 037e 08       		.byte	0x8
 629 037f 33       		.byte	0x33
 630 0380 42030000 		.4byte	0x342
 631 0384 0E       		.uleb128 0xe
 632 0385 04       		.byte	0x4
 633 0386 06       		.byte	0x6
 634 0387 96       		.byte	0x96
 635 0388 B9030000 		.4byte	0x3b9
 636 038c 0F       		.uleb128 0xf
 637 038d 3D000000 		.4byte	.LASF57
 638 0391 06       		.byte	0x6
 639 0392 9D       		.byte	0x9d
 640 0393 0C010000 		.4byte	0x10c
 641 0397 0F       		.uleb128 0xf
 642 0398 CB000000 		.4byte	.LASF58
 643 039c 06       		.byte	0x6
 644 039d A4       		.byte	0xa4
 645 039e 0C010000 		.4byte	0x10c
 646 03a2 0F       		.uleb128 0xf
 647 03a3 40070000 		.4byte	.LASF59
 648 03a7 06       		.byte	0x6
 649 03a8 AB       		.byte	0xab
 650 03a9 92020000 		.4byte	0x292
 651 03ad 0F       		.uleb128 0xf
 652 03ae 60050000 		.4byte	.LASF60
 653 03b2 06       		.byte	0x6
 654 03b3 B2       		.byte	0xb2
 655 03b4 17010000 		.4byte	0x117
 656 03b8 00       		.byte	0
 657 03b9 09       		.uleb128 0x9
 658 03ba 04       		.byte	0x4
 659 03bb BF030000 		.4byte	0x3bf
 660 03bf 10       		.uleb128 0x10
 661 03c0 C4030000 		.4byte	0x3c4
 662 03c4 03       		.uleb128 0x3
 663 03c5 01       		.byte	0x1
 664 03c6 08       		.byte	0x8
 665 03c7 10060000 		.4byte	.LASF61
 666 03cb 09       		.uleb128 0x9
 667 03cc 04       		.byte	0x4
 668 03cd 79030000 		.4byte	0x379
 669 03d1 09       		.uleb128 0x9
 670 03d2 04       		.byte	0x4
 671 03d3 97000000 		.4byte	0x97
 672 03d7 09       		.uleb128 0x9
 673 03d8 04       		.byte	0x4
 674 03d9 DD030000 		.4byte	0x3dd
 675 03dd 10       		.uleb128 0x10
ARM GAS  /var/folders/4k/6h5l9jl178sb4hslwv3xp1mr0000gn/T//ccSshiDb.s 			page 13


 676 03de 97000000 		.4byte	0x97
 677 03e2 11       		.uleb128 0x11
 678 03e3 B8000000 		.4byte	0xb8
 679 03e7 F2030000 		.4byte	0x3f2
 680 03eb 12       		.uleb128 0x12
 681 03ec 36030000 		.4byte	0x336
 682 03f0 03       		.byte	0x3
 683 03f1 00       		.byte	0
 684 03f2 0D       		.uleb128 0xd
 685 03f3 A2000000 		.4byte	0xa2
 686 03f7 0D       		.uleb128 0xd
 687 03f8 AD000000 		.4byte	0xad
 688 03fc 13       		.uleb128 0x13
 689 03fd 18       		.byte	0x18
 690 03fe 09       		.byte	0x9
 691 03ff B102     		.2byte	0x2b1
 692 0401 53040000 		.4byte	0x453
 693 0405 0C       		.uleb128 0xc
 694 0406 435200   		.ascii	"CR\000"
 695 0409 09       		.byte	0x9
 696 040a B302     		.2byte	0x2b3
 697 040c 31030000 		.4byte	0x331
 698 0410 00       		.byte	0
 699 0411 14       		.uleb128 0x14
 700 0412 77060000 		.4byte	.LASF62
 701 0416 09       		.byte	0x9
 702 0417 B402     		.2byte	0x2b4
 703 0419 31030000 		.4byte	0x331
 704 041d 04       		.byte	0x4
 705 041e 0C       		.uleb128 0xc
 706 041f 50415200 		.ascii	"PAR\000"
 707 0423 09       		.byte	0x9
 708 0424 B502     		.2byte	0x2b5
 709 0426 31030000 		.4byte	0x331
 710 042a 08       		.byte	0x8
 711 042b 14       		.uleb128 0x14
 712 042c 29000000 		.4byte	.LASF63
 713 0430 09       		.byte	0x9
 714 0431 B602     		.2byte	0x2b6
 715 0433 31030000 		.4byte	0x331
 716 0437 0C       		.byte	0xc
 717 0438 14       		.uleb128 0x14
 718 0439 B5060000 		.4byte	.LASF64
 719 043d 09       		.byte	0x9
 720 043e B702     		.2byte	0x2b7
 721 0440 31030000 		.4byte	0x331
 722 0444 10       		.byte	0x10
 723 0445 0C       		.uleb128 0xc
 724 0446 46435200 		.ascii	"FCR\000"
 725 044a 09       		.byte	0x9
 726 044b B802     		.2byte	0x2b8
 727 044d 31030000 		.4byte	0x331
 728 0451 14       		.byte	0x14
 729 0452 00       		.byte	0
 730 0453 15       		.uleb128 0x15
 731 0454 7C060000 		.4byte	.LASF65
 732 0458 09       		.byte	0x9
ARM GAS  /var/folders/4k/6h5l9jl178sb4hslwv3xp1mr0000gn/T//ccSshiDb.s 			page 14


 733 0459 B902     		.2byte	0x2b9
 734 045b FC030000 		.4byte	0x3fc
 735 045f 13       		.uleb128 0x13
 736 0460 24       		.byte	0x24
 737 0461 09       		.byte	0x9
 738 0462 E304     		.2byte	0x4e3
 739 0464 51050000 		.4byte	0x551
 740 0468 0C       		.uleb128 0xc
 741 0469 43523100 		.ascii	"CR1\000"
 742 046d 09       		.byte	0x9
 743 046e E504     		.2byte	0x4e5
 744 0470 F2030000 		.4byte	0x3f2
 745 0474 00       		.byte	0
 746 0475 14       		.uleb128 0x14
 747 0476 9B030000 		.4byte	.LASF66
 748 047a 09       		.byte	0x9
 749 047b E604     		.2byte	0x4e6
 750 047d A2000000 		.4byte	0xa2
 751 0481 02       		.byte	0x2
 752 0482 0C       		.uleb128 0xc
 753 0483 43523200 		.ascii	"CR2\000"
 754 0487 09       		.byte	0x9
 755 0488 E704     		.2byte	0x4e7
 756 048a F2030000 		.4byte	0x3f2
 757 048e 04       		.byte	0x4
 758 048f 14       		.uleb128 0x14
 759 0490 A5030000 		.4byte	.LASF67
 760 0494 09       		.byte	0x9
 761 0495 E804     		.2byte	0x4e8
 762 0497 A2000000 		.4byte	0xa2
 763 049b 06       		.byte	0x6
 764 049c 0C       		.uleb128 0xc
 765 049d 535200   		.ascii	"SR\000"
 766 04a0 09       		.byte	0x9
 767 04a1 E904     		.2byte	0x4e9
 768 04a3 F2030000 		.4byte	0x3f2
 769 04a7 08       		.byte	0x8
 770 04a8 14       		.uleb128 0x14
 771 04a9 AF030000 		.4byte	.LASF68
 772 04ad 09       		.byte	0x9
 773 04ae EA04     		.2byte	0x4ea
 774 04b0 A2000000 		.4byte	0xa2
 775 04b4 0A       		.byte	0xa
 776 04b5 0C       		.uleb128 0xc
 777 04b6 445200   		.ascii	"DR\000"
 778 04b9 09       		.byte	0x9
 779 04ba EB04     		.2byte	0x4eb
 780 04bc F2030000 		.4byte	0x3f2
 781 04c0 0C       		.byte	0xc
 782 04c1 14       		.uleb128 0x14
 783 04c2 B9030000 		.4byte	.LASF69
 784 04c6 09       		.byte	0x9
 785 04c7 EC04     		.2byte	0x4ec
 786 04c9 A2000000 		.4byte	0xa2
 787 04cd 0E       		.byte	0xe
 788 04ce 14       		.uleb128 0x14
 789 04cf BF000000 		.4byte	.LASF70
ARM GAS  /var/folders/4k/6h5l9jl178sb4hslwv3xp1mr0000gn/T//ccSshiDb.s 			page 15


 790 04d3 09       		.byte	0x9
 791 04d4 ED04     		.2byte	0x4ed
 792 04d6 F2030000 		.4byte	0x3f2
 793 04da 10       		.byte	0x10
 794 04db 14       		.uleb128 0x14
 795 04dc C3030000 		.4byte	.LASF71
 796 04e0 09       		.byte	0x9
 797 04e1 EE04     		.2byte	0x4ee
 798 04e3 A2000000 		.4byte	0xa2
 799 04e7 12       		.byte	0x12
 800 04e8 14       		.uleb128 0x14
 801 04e9 2E000000 		.4byte	.LASF72
 802 04ed 09       		.byte	0x9
 803 04ee EF04     		.2byte	0x4ef
 804 04f0 F2030000 		.4byte	0x3f2
 805 04f4 14       		.byte	0x14
 806 04f5 14       		.uleb128 0x14
 807 04f6 CD050000 		.4byte	.LASF73
 808 04fa 09       		.byte	0x9
 809 04fb F004     		.2byte	0x4f0
 810 04fd A2000000 		.4byte	0xa2
 811 0501 16       		.byte	0x16
 812 0502 14       		.uleb128 0x14
 813 0503 94030000 		.4byte	.LASF74
 814 0507 09       		.byte	0x9
 815 0508 F104     		.2byte	0x4f1
 816 050a F2030000 		.4byte	0x3f2
 817 050e 18       		.byte	0x18
 818 050f 14       		.uleb128 0x14
 819 0510 D4030000 		.4byte	.LASF75
 820 0514 09       		.byte	0x9
 821 0515 F204     		.2byte	0x4f2
 822 0517 A2000000 		.4byte	0xa2
 823 051b 1A       		.byte	0x1a
 824 051c 14       		.uleb128 0x14
 825 051d 34010000 		.4byte	.LASF76
 826 0521 09       		.byte	0x9
 827 0522 F304     		.2byte	0x4f3
 828 0524 F2030000 		.4byte	0x3f2
 829 0528 1C       		.byte	0x1c
 830 0529 14       		.uleb128 0x14
 831 052a DE030000 		.4byte	.LASF77
 832 052e 09       		.byte	0x9
 833 052f F404     		.2byte	0x4f4
 834 0531 A2000000 		.4byte	0xa2
 835 0535 1E       		.byte	0x1e
 836 0536 14       		.uleb128 0x14
 837 0537 24030000 		.4byte	.LASF78
 838 053b 09       		.byte	0x9
 839 053c F504     		.2byte	0x4f5
 840 053e F2030000 		.4byte	0x3f2
 841 0542 20       		.byte	0x20
 842 0543 14       		.uleb128 0x14
 843 0544 E8030000 		.4byte	.LASF79
 844 0548 09       		.byte	0x9
 845 0549 F604     		.2byte	0x4f6
 846 054b A2000000 		.4byte	0xa2
ARM GAS  /var/folders/4k/6h5l9jl178sb4hslwv3xp1mr0000gn/T//ccSshiDb.s 			page 16


 847 054f 22       		.byte	0x22
 848 0550 00       		.byte	0
 849 0551 15       		.uleb128 0x15
 850 0552 FF050000 		.4byte	.LASF80
 851 0556 09       		.byte	0x9
 852 0557 F704     		.2byte	0x4f7
 853 0559 5F040000 		.4byte	0x45f
 854 055d 08       		.uleb128 0x8
 855 055e 0C       		.byte	0xc
 856 055f 0A       		.byte	0xa
 857 0560 DA       		.byte	0xda
 858 0561 A2050000 		.4byte	0x5a2
 859 0565 06       		.uleb128 0x6
 860 0566 8A000000 		.4byte	.LASF81
 861 056a 0A       		.byte	0xa
 862 056b DB       		.byte	0xdb
 863 056c A2050000 		.4byte	0x5a2
 864 0570 00       		.byte	0
 865 0571 06       		.uleb128 0x6
 866 0572 C8050000 		.4byte	.LASF82
 867 0576 0A       		.byte	0xa
 868 0577 DC       		.byte	0xdc
 869 0578 A8050000 		.4byte	0x5a8
 870 057c 04       		.byte	0x4
 871 057d 06       		.uleb128 0x6
 872 057e 82020000 		.4byte	.LASF83
 873 0582 0A       		.byte	0xa
 874 0583 DD       		.byte	0xdd
 875 0584 97000000 		.4byte	0x97
 876 0588 08       		.byte	0x8
 877 0589 06       		.uleb128 0x6
 878 058a 24020000 		.4byte	.LASF84
 879 058e 0A       		.byte	0xa
 880 058f DF       		.byte	0xdf
 881 0590 97000000 		.4byte	0x97
 882 0594 09       		.byte	0x9
 883 0595 06       		.uleb128 0x6
 884 0596 D4000000 		.4byte	.LASF85
 885 059a 0A       		.byte	0xa
 886 059b E0       		.byte	0xe0
 887 059c 97000000 		.4byte	0x97
 888 05a0 0A       		.byte	0xa
 889 05a1 00       		.byte	0
 890 05a2 09       		.uleb128 0x9
 891 05a3 04       		.byte	0x4
 892 05a4 53040000 		.4byte	0x453
 893 05a8 09       		.uleb128 0x9
 894 05a9 04       		.byte	0x4
 895 05aa 31030000 		.4byte	0x331
 896 05ae 04       		.uleb128 0x4
 897 05af 1C040000 		.4byte	.LASF86
 898 05b3 0A       		.byte	0xa
 899 05b4 E1       		.byte	0xe1
 900 05b5 5D050000 		.4byte	0x55d
 901 05b9 16       		.uleb128 0x16
 902 05ba 01       		.byte	0x1
 903 05bb 0B       		.byte	0xb
ARM GAS  /var/folders/4k/6h5l9jl178sb4hslwv3xp1mr0000gn/T//ccSshiDb.s 			page 17


 904 05bc 33       		.byte	0x33
 905 05bd F8050000 		.4byte	0x5f8
 906 05c1 17       		.uleb128 0x17
 907 05c2 66010000 		.4byte	.LASF87
 908 05c6 00       		.sleb128 0
 909 05c7 17       		.uleb128 0x17
 910 05c8 B2010000 		.4byte	.LASF88
 911 05cc 01       		.sleb128 1
 912 05cd 17       		.uleb128 0x17
 913 05ce B0020000 		.4byte	.LASF89
 914 05d2 02       		.sleb128 2
 915 05d3 17       		.uleb128 0x17
 916 05d4 D7020000 		.4byte	.LASF90
 917 05d8 03       		.sleb128 3
 918 05d9 17       		.uleb128 0x17
 919 05da 22060000 		.4byte	.LASF91
 920 05de 04       		.sleb128 4
 921 05df 17       		.uleb128 0x17
 922 05e0 53030000 		.4byte	.LASF92
 923 05e4 05       		.sleb128 5
 924 05e5 17       		.uleb128 0x17
 925 05e6 18030000 		.4byte	.LASF93
 926 05ea 06       		.sleb128 6
 927 05eb 17       		.uleb128 0x17
 928 05ec 2A050000 		.4byte	.LASF94
 929 05f0 07       		.sleb128 7
 930 05f1 17       		.uleb128 0x17
 931 05f2 47030000 		.4byte	.LASF95
 932 05f6 08       		.sleb128 8
 933 05f7 00       		.byte	0
 934 05f8 04       		.uleb128 0x4
 935 05f9 F9000000 		.4byte	.LASF96
 936 05fd 0B       		.byte	0xb
 937 05fe 3D       		.byte	0x3d
 938 05ff B9050000 		.4byte	0x5b9
 939 0603 08       		.uleb128 0x8
 940 0604 08       		.byte	0x8
 941 0605 0B       		.byte	0xb
 942 0606 42       		.byte	0x42
 943 0607 24060000 		.4byte	0x624
 944 060b 06       		.uleb128 0x6
 945 060c 3C020000 		.4byte	.LASF97
 946 0610 0B       		.byte	0xb
 947 0611 43       		.byte	0x43
 948 0612 B8000000 		.4byte	0xb8
 949 0616 00       		.byte	0
 950 0617 06       		.uleb128 0x6
 951 0618 35000000 		.4byte	.LASF98
 952 061c 0B       		.byte	0xb
 953 061d 44       		.byte	0x44
 954 061e B8000000 		.4byte	0xb8
 955 0622 04       		.byte	0x4
 956 0623 00       		.byte	0
 957 0624 04       		.uleb128 0x4
 958 0625 00000000 		.4byte	.LASF99
 959 0629 0B       		.byte	0xb
 960 062a 45       		.byte	0x45
ARM GAS  /var/folders/4k/6h5l9jl178sb4hslwv3xp1mr0000gn/T//ccSshiDb.s 			page 18


 961 062b 03060000 		.4byte	0x603
 962 062f 18       		.uleb128 0x18
 963 0630 C3000000 		.4byte	0xc3
 964 0634 3E060000 		.4byte	0x63e
 965 0638 19       		.uleb128 0x19
 966 0639 92020000 		.4byte	0x292
 967 063d 00       		.byte	0
 968 063e 09       		.uleb128 0x9
 969 063f 04       		.byte	0x4
 970 0640 2F060000 		.4byte	0x62f
 971 0644 18       		.uleb128 0x18
 972 0645 C3000000 		.4byte	0xc3
 973 0649 62060000 		.4byte	0x662
 974 064d 19       		.uleb128 0x19
 975 064e 92020000 		.4byte	0x292
 976 0652 19       		.uleb128 0x19
 977 0653 B8000000 		.4byte	0xb8
 978 0657 19       		.uleb128 0x19
 979 0658 D1030000 		.4byte	0x3d1
 980 065c 19       		.uleb128 0x19
 981 065d B8000000 		.4byte	0xb8
 982 0661 00       		.byte	0
 983 0662 09       		.uleb128 0x9
 984 0663 04       		.byte	0x4
 985 0664 44060000 		.4byte	0x644
 986 0668 18       		.uleb128 0x18
 987 0669 C3000000 		.4byte	0xc3
 988 066d 86060000 		.4byte	0x686
 989 0671 19       		.uleb128 0x19
 990 0672 92020000 		.4byte	0x292
 991 0676 19       		.uleb128 0x19
 992 0677 B8000000 		.4byte	0xb8
 993 067b 19       		.uleb128 0x19
 994 067c D7030000 		.4byte	0x3d7
 995 0680 19       		.uleb128 0x19
 996 0681 B8000000 		.4byte	0xb8
 997 0685 00       		.byte	0
 998 0686 09       		.uleb128 0x9
 999 0687 04       		.byte	0x4
 1000 0688 68060000 		.4byte	0x668
 1001 068c 18       		.uleb128 0x18
 1002 068d C3000000 		.4byte	0xc3
 1003 0691 A0060000 		.4byte	0x6a0
 1004 0695 19       		.uleb128 0x19
 1005 0696 92020000 		.4byte	0x292
 1006 069a 19       		.uleb128 0x19
 1007 069b A0060000 		.4byte	0x6a0
 1008 069f 00       		.byte	0
 1009 06a0 09       		.uleb128 0x9
 1010 06a1 04       		.byte	0x4
 1011 06a2 24060000 		.4byte	0x624
 1012 06a6 09       		.uleb128 0x9
 1013 06a7 04       		.byte	0x4
 1014 06a8 8C060000 		.4byte	0x68c
 1015 06ac 08       		.uleb128 0x8
 1016 06ad 04       		.byte	0x4
 1017 06ae 0C       		.byte	0xc
ARM GAS  /var/folders/4k/6h5l9jl178sb4hslwv3xp1mr0000gn/T//ccSshiDb.s 			page 19


 1018 06af 96       		.byte	0x96
 1019 06b0 CD060000 		.4byte	0x6cd
 1020 06b4 07       		.uleb128 0x7
 1021 06b5 73657400 		.ascii	"set\000"
 1022 06b9 0C       		.byte	0xc
 1023 06ba 97       		.byte	0x97
 1024 06bb A2000000 		.4byte	0xa2
 1025 06bf 00       		.byte	0
 1026 06c0 06       		.uleb128 0x6
 1027 06c1 33030000 		.4byte	.LASF100
 1028 06c5 0C       		.byte	0xc
 1029 06c6 98       		.byte	0x98
 1030 06c7 A2000000 		.4byte	0xa2
 1031 06cb 02       		.byte	0x2
 1032 06cc 00       		.byte	0
 1033 06cd 0E       		.uleb128 0xe
 1034 06ce 04       		.byte	0x4
 1035 06cf 0C       		.byte	0xc
 1036 06d0 94       		.byte	0x94
 1037 06d1 E8060000 		.4byte	0x6e8
 1038 06d5 1A       		.uleb128 0x1a
 1039 06d6 5700     		.ascii	"W\000"
 1040 06d8 0C       		.byte	0xc
 1041 06d9 95       		.byte	0x95
 1042 06da B8000000 		.4byte	0xb8
 1043 06de 1A       		.uleb128 0x1a
 1044 06df 4800     		.ascii	"H\000"
 1045 06e1 0C       		.byte	0xc
 1046 06e2 99       		.byte	0x99
 1047 06e3 AC060000 		.4byte	0x6ac
 1048 06e7 00       		.byte	0
 1049 06e8 08       		.uleb128 0x8
 1050 06e9 28       		.byte	0x28
 1051 06ea 0C       		.byte	0xc
 1052 06eb 8C       		.byte	0x8c
 1053 06ec 69070000 		.4byte	0x769
 1054 06f0 06       		.uleb128 0x6
 1055 06f1 98000000 		.4byte	.LASF101
 1056 06f5 0C       		.byte	0xc
 1057 06f6 8E       		.byte	0x8e
 1058 06f7 31030000 		.4byte	0x331
 1059 06fb 00       		.byte	0
 1060 06fc 06       		.uleb128 0x6
 1061 06fd 51000000 		.4byte	.LASF102
 1062 0701 0C       		.byte	0xc
 1063 0702 8F       		.byte	0x8f
 1064 0703 31030000 		.4byte	0x331
 1065 0707 04       		.byte	0x4
 1066 0708 06       		.uleb128 0x6
 1067 0709 00020000 		.4byte	.LASF103
 1068 070d 0C       		.byte	0xc
 1069 070e 90       		.byte	0x90
 1070 070f 31030000 		.4byte	0x331
 1071 0713 08       		.byte	0x8
 1072 0714 06       		.uleb128 0x6
 1073 0715 C5000000 		.4byte	.LASF104
 1074 0719 0C       		.byte	0xc
ARM GAS  /var/folders/4k/6h5l9jl178sb4hslwv3xp1mr0000gn/T//ccSshiDb.s 			page 20


 1075 071a 91       		.byte	0x91
 1076 071b 31030000 		.4byte	0x331
 1077 071f 0C       		.byte	0xc
 1078 0720 07       		.uleb128 0x7
 1079 0721 49445200 		.ascii	"IDR\000"
 1080 0725 0C       		.byte	0xc
 1081 0726 92       		.byte	0x92
 1082 0727 31030000 		.4byte	0x331
 1083 072b 10       		.byte	0x10
 1084 072c 07       		.uleb128 0x7
 1085 072d 4F445200 		.ascii	"ODR\000"
 1086 0731 0C       		.byte	0xc
 1087 0732 93       		.byte	0x93
 1088 0733 31030000 		.4byte	0x331
 1089 0737 14       		.byte	0x14
 1090 0738 06       		.uleb128 0x6
 1091 0739 D6060000 		.4byte	.LASF105
 1092 073d 0C       		.byte	0xc
 1093 073e 9A       		.byte	0x9a
 1094 073f 69070000 		.4byte	0x769
 1095 0743 18       		.byte	0x18
 1096 0744 06       		.uleb128 0x6
 1097 0745 7D020000 		.4byte	.LASF106
 1098 0749 0C       		.byte	0xc
 1099 074a 9B       		.byte	0x9b
 1100 074b 31030000 		.4byte	0x331
 1101 074f 1C       		.byte	0x1c
 1102 0750 06       		.uleb128 0x6
 1103 0751 8F030000 		.4byte	.LASF107
 1104 0755 0C       		.byte	0xc
 1105 0756 9C       		.byte	0x9c
 1106 0757 31030000 		.4byte	0x331
 1107 075b 20       		.byte	0x20
 1108 075c 06       		.uleb128 0x6
 1109 075d 80030000 		.4byte	.LASF108
 1110 0761 0C       		.byte	0xc
 1111 0762 9D       		.byte	0x9d
 1112 0763 31030000 		.4byte	0x331
 1113 0767 24       		.byte	0x24
 1114 0768 00       		.byte	0
 1115 0769 0D       		.uleb128 0xd
 1116 076a CD060000 		.4byte	0x6cd
 1117 076e 04       		.uleb128 0x4
 1118 076f E4010000 		.4byte	.LASF109
 1119 0773 0C       		.byte	0xc
 1120 0774 9E       		.byte	0x9e
 1121 0775 E8060000 		.4byte	0x6e8
 1122 0779 08       		.uleb128 0x8
 1123 077a 1C       		.byte	0x1c
 1124 077b 0C       		.byte	0xc
 1125 077c A3       		.byte	0xa3
 1126 077d D6070000 		.4byte	0x7d6
 1127 0781 06       		.uleb128 0x6
 1128 0782 56010000 		.4byte	.LASF110
 1129 0786 0C       		.byte	0xc
 1130 0787 A5       		.byte	0xa5
 1131 0788 B8000000 		.4byte	0xb8
ARM GAS  /var/folders/4k/6h5l9jl178sb4hslwv3xp1mr0000gn/T//ccSshiDb.s 			page 21


 1132 078c 00       		.byte	0
 1133 078d 06       		.uleb128 0x6
 1134 078e 7A000000 		.4byte	.LASF111
 1135 0792 0C       		.byte	0xc
 1136 0793 A7       		.byte	0xa7
 1137 0794 B8000000 		.4byte	0xb8
 1138 0798 04       		.byte	0x4
 1139 0799 06       		.uleb128 0x6
 1140 079a 75020000 		.4byte	.LASF112
 1141 079e 0C       		.byte	0xc
 1142 079f A9       		.byte	0xa9
 1143 07a0 B8000000 		.4byte	0xb8
 1144 07a4 08       		.byte	0x8
 1145 07a5 06       		.uleb128 0x6
 1146 07a6 35070000 		.4byte	.LASF113
 1147 07aa 0C       		.byte	0xc
 1148 07ab AB       		.byte	0xab
 1149 07ac B8000000 		.4byte	0xb8
 1150 07b0 0C       		.byte	0xc
 1151 07b1 07       		.uleb128 0x7
 1152 07b2 6F647200 		.ascii	"odr\000"
 1153 07b6 0C       		.byte	0xc
 1154 07b7 AD       		.byte	0xad
 1155 07b8 B8000000 		.4byte	0xb8
 1156 07bc 10       		.byte	0x10
 1157 07bd 06       		.uleb128 0x6
 1158 07be 09050000 		.4byte	.LASF114
 1159 07c2 0C       		.byte	0xc
 1160 07c3 AF       		.byte	0xaf
 1161 07c4 B8000000 		.4byte	0xb8
 1162 07c8 14       		.byte	0x14
 1163 07c9 06       		.uleb128 0x6
 1164 07ca 74030000 		.4byte	.LASF115
 1165 07ce 0C       		.byte	0xc
 1166 07cf B1       		.byte	0xb1
 1167 07d0 B8000000 		.4byte	0xb8
 1168 07d4 18       		.byte	0x18
 1169 07d5 00       		.byte	0
 1170 07d6 04       		.uleb128 0x4
 1171 07d7 16000000 		.4byte	.LASF116
 1172 07db 0C       		.byte	0xc
 1173 07dc B2       		.byte	0xb2
 1174 07dd 79070000 		.4byte	0x779
 1175 07e1 08       		.uleb128 0x8
 1176 07e2 FC       		.byte	0xfc
 1177 07e3 0C       		.byte	0xc
 1178 07e4 BB       		.byte	0xbb
 1179 07e5 56080000 		.4byte	0x856
 1180 07e9 06       		.uleb128 0x6
 1181 07ea 59050000 		.4byte	.LASF117
 1182 07ee 0C       		.byte	0xc
 1183 07ef BE       		.byte	0xbe
 1184 07f0 D6070000 		.4byte	0x7d6
 1185 07f4 00       		.byte	0
 1186 07f5 06       		.uleb128 0x6
 1187 07f6 56020000 		.4byte	.LASF118
 1188 07fa 0C       		.byte	0xc
ARM GAS  /var/folders/4k/6h5l9jl178sb4hslwv3xp1mr0000gn/T//ccSshiDb.s 			page 22


 1189 07fb C2       		.byte	0xc2
 1190 07fc D6070000 		.4byte	0x7d6
 1191 0800 1C       		.byte	0x1c
 1192 0801 06       		.uleb128 0x6
 1193 0802 4E070000 		.4byte	.LASF119
 1194 0806 0C       		.byte	0xc
 1195 0807 C6       		.byte	0xc6
 1196 0808 D6070000 		.4byte	0x7d6
 1197 080c 38       		.byte	0x38
 1198 080d 06       		.uleb128 0x6
 1199 080e 79030000 		.4byte	.LASF120
 1200 0812 0C       		.byte	0xc
 1201 0813 CA       		.byte	0xca
 1202 0814 D6070000 		.4byte	0x7d6
 1203 0818 54       		.byte	0x54
 1204 0819 06       		.uleb128 0x6
 1205 081a 80010000 		.4byte	.LASF121
 1206 081e 0C       		.byte	0xc
 1207 081f CE       		.byte	0xce
 1208 0820 D6070000 		.4byte	0x7d6
 1209 0824 70       		.byte	0x70
 1210 0825 06       		.uleb128 0x6
 1211 0826 A9020000 		.4byte	.LASF122
 1212 082a 0C       		.byte	0xc
 1213 082b D2       		.byte	0xd2
 1214 082c D6070000 		.4byte	0x7d6
 1215 0830 8C       		.byte	0x8c
 1216 0831 06       		.uleb128 0x6
 1217 0832 0B030000 		.4byte	.LASF123
 1218 0836 0C       		.byte	0xc
 1219 0837 D6       		.byte	0xd6
 1220 0838 D6070000 		.4byte	0x7d6
 1221 083c A8       		.byte	0xa8
 1222 083d 06       		.uleb128 0x6
 1223 083e 91000000 		.4byte	.LASF124
 1224 0842 0C       		.byte	0xc
 1225 0843 DA       		.byte	0xda
 1226 0844 D6070000 		.4byte	0x7d6
 1227 0848 C4       		.byte	0xc4
 1228 0849 06       		.uleb128 0x6
 1229 084a 76050000 		.4byte	.LASF125
 1230 084e 0C       		.byte	0xc
 1231 084f DE       		.byte	0xde
 1232 0850 D6070000 		.4byte	0x7d6
 1233 0854 E0       		.byte	0xe0
 1234 0855 00       		.byte	0
 1235 0856 04       		.uleb128 0x4
 1236 0857 65070000 		.4byte	.LASF126
 1237 085b 0C       		.byte	0xc
 1238 085c E0       		.byte	0xe0
 1239 085d E1070000 		.4byte	0x7e1
 1240 0861 04       		.uleb128 0x4
 1241 0862 8F060000 		.4byte	.LASF127
 1242 0866 0C       		.byte	0xc
 1243 0867 FD       		.byte	0xfd
 1244 0868 6C080000 		.4byte	0x86c
 1245 086c 09       		.uleb128 0x9
ARM GAS  /var/folders/4k/6h5l9jl178sb4hslwv3xp1mr0000gn/T//ccSshiDb.s 			page 23


 1246 086d 04       		.byte	0x4
 1247 086e 6E070000 		.4byte	0x76e
 1248 0872 09       		.uleb128 0x9
 1249 0873 04       		.byte	0x4
 1250 0874 78080000 		.4byte	0x878
 1251 0878 10       		.uleb128 0x10
 1252 0879 AE050000 		.4byte	0x5ae
 1253 087d 16       		.uleb128 0x16
 1254 087e 01       		.byte	0x1
 1255 087f 0D       		.byte	0xd
 1256 0880 55       		.byte	0x55
 1257 0881 A4080000 		.4byte	0x8a4
 1258 0885 17       		.uleb128 0x17
 1259 0886 BA060000 		.4byte	.LASF128
 1260 088a 00       		.sleb128 0
 1261 088b 17       		.uleb128 0x17
 1262 088c 2B010000 		.4byte	.LASF129
 1263 0890 01       		.sleb128 1
 1264 0891 17       		.uleb128 0x17
 1265 0892 B5000000 		.4byte	.LASF130
 1266 0896 02       		.sleb128 2
 1267 0897 17       		.uleb128 0x17
 1268 0898 62000000 		.4byte	.LASF131
 1269 089c 03       		.sleb128 3
 1270 089d 17       		.uleb128 0x17
 1271 089e 15060000 		.4byte	.LASF132
 1272 08a2 04       		.sleb128 4
 1273 08a3 00       		.byte	0
 1274 08a4 04       		.uleb128 0x4
 1275 08a5 46060000 		.4byte	.LASF133
 1276 08a9 0D       		.byte	0xd
 1277 08aa 5B       		.byte	0x5b
 1278 08ab 7D080000 		.4byte	0x87d
 1279 08af 15       		.uleb128 0x15
 1280 08b0 DB000000 		.4byte	.LASF134
 1281 08b4 0E       		.byte	0xe
 1282 08b5 E701     		.2byte	0x1e7
 1283 08b7 BB080000 		.4byte	0x8bb
 1284 08bb 0B       		.uleb128 0xb
 1285 08bc DB000000 		.4byte	.LASF134
 1286 08c0 30       		.byte	0x30
 1287 08c1 0E       		.byte	0xe
 1288 08c2 0B02     		.2byte	0x20b
 1289 08c4 3E090000 		.4byte	0x93e
 1290 08c8 14       		.uleb128 0x14
 1291 08c9 71010000 		.4byte	.LASF135
 1292 08cd 0E       		.byte	0xe
 1293 08ce 0F02     		.2byte	0x20f
 1294 08d0 A4080000 		.4byte	0x8a4
 1295 08d4 00       		.byte	0
 1296 08d5 14       		.uleb128 0x14
 1297 08d6 34060000 		.4byte	.LASF136
 1298 08da 0E       		.byte	0xe
 1299 08db 1302     		.2byte	0x213
 1300 08dd AB090000 		.4byte	0x9ab
 1301 08e1 04       		.byte	0x4
 1302 08e2 14       		.uleb128 0x14
ARM GAS  /var/folders/4k/6h5l9jl178sb4hslwv3xp1mr0000gn/T//ccSshiDb.s 			page 24


 1303 08e3 AB010000 		.4byte	.LASF137
 1304 08e7 0E       		.byte	0xe
 1305 08e8 1802     		.2byte	0x218
 1306 08ea 56020000 		.4byte	0x256
 1307 08ee 08       		.byte	0x8
 1308 08ef 14       		.uleb128 0x14
 1309 08f0 FA030000 		.4byte	.LASF138
 1310 08f4 0E       		.byte	0xe
 1311 08f5 1F02     		.2byte	0x21f
 1312 08f7 79030000 		.4byte	0x379
 1313 08fb 0C       		.byte	0xc
 1314 08fc 0C       		.uleb128 0xc
 1315 08fd 73706900 		.ascii	"spi\000"
 1316 0901 0E       		.byte	0xe
 1317 0902 2B02     		.2byte	0x22b
 1318 0904 B6090000 		.4byte	0x9b6
 1319 0908 1C       		.byte	0x1c
 1320 0909 14       		.uleb128 0x14
 1321 090a 10000000 		.4byte	.LASF139
 1322 090e 0E       		.byte	0xe
 1323 090f 2F02     		.2byte	0x22f
 1324 0911 72080000 		.4byte	0x872
 1325 0915 20       		.byte	0x20
 1326 0916 14       		.uleb128 0x14
 1327 0917 FA010000 		.4byte	.LASF140
 1328 091b 0E       		.byte	0xe
 1329 091c 3302     		.2byte	0x233
 1330 091e 72080000 		.4byte	0x872
 1331 0922 24       		.byte	0x24
 1332 0923 14       		.uleb128 0x14
 1333 0924 DA010000 		.4byte	.LASF141
 1334 0928 0E       		.byte	0xe
 1335 0929 3702     		.2byte	0x237
 1336 092b B8000000 		.4byte	0xb8
 1337 092f 28       		.byte	0x28
 1338 0930 14       		.uleb128 0x14
 1339 0931 6A030000 		.4byte	.LASF142
 1340 0935 0E       		.byte	0xe
 1341 0936 3B02     		.2byte	0x23b
 1342 0938 B8000000 		.4byte	0xb8
 1343 093c 2C       		.byte	0x2c
 1344 093d 00       		.byte	0
 1345 093e 15       		.uleb128 0x15
 1346 093f 2E020000 		.4byte	.LASF143
 1347 0943 0E       		.byte	0xe
 1348 0944 EF01     		.2byte	0x1ef
 1349 0946 4A090000 		.4byte	0x94a
 1350 094a 09       		.uleb128 0x9
 1351 094b 04       		.byte	0x4
 1352 094c 50090000 		.4byte	0x950
 1353 0950 1B       		.uleb128 0x1b
 1354 0951 5B090000 		.4byte	0x95b
 1355 0955 19       		.uleb128 0x19
 1356 0956 5B090000 		.4byte	0x95b
 1357 095a 00       		.byte	0
 1358 095b 09       		.uleb128 0x9
 1359 095c 04       		.byte	0x4
ARM GAS  /var/folders/4k/6h5l9jl178sb4hslwv3xp1mr0000gn/T//ccSshiDb.s 			page 25


 1360 095d AF080000 		.4byte	0x8af
 1361 0961 13       		.uleb128 0x13
 1362 0962 0C       		.byte	0xc
 1363 0963 0E       		.byte	0xe
 1364 0964 F401     		.2byte	0x1f4
 1365 0966 9F090000 		.4byte	0x99f
 1366 096a 14       		.uleb128 0x14
 1367 096b D3010000 		.4byte	.LASF144
 1368 096f 0E       		.byte	0xe
 1369 0970 F801     		.2byte	0x1f8
 1370 0972 3E090000 		.4byte	0x93e
 1371 0976 00       		.byte	0
 1372 0977 14       		.uleb128 0x14
 1373 0978 E5000000 		.4byte	.LASF145
 1374 097c 0E       		.byte	0xe
 1375 097d FD01     		.2byte	0x1fd
 1376 097f 61080000 		.4byte	0x861
 1377 0983 04       		.byte	0x4
 1378 0984 14       		.uleb128 0x14
 1379 0985 0B010000 		.4byte	.LASF146
 1380 0989 0E       		.byte	0xe
 1381 098a 0102     		.2byte	0x201
 1382 098c A2000000 		.4byte	0xa2
 1383 0990 08       		.byte	0x8
 1384 0991 0C       		.uleb128 0xc
 1385 0992 63723100 		.ascii	"cr1\000"
 1386 0996 0E       		.byte	0xe
 1387 0997 0502     		.2byte	0x205
 1388 0999 A2000000 		.4byte	0xa2
 1389 099d 0A       		.byte	0xa
 1390 099e 00       		.byte	0
 1391 099f 15       		.uleb128 0x15
 1392 09a0 55070000 		.4byte	.LASF147
 1393 09a4 0E       		.byte	0xe
 1394 09a5 0602     		.2byte	0x206
 1395 09a7 61090000 		.4byte	0x961
 1396 09ab 09       		.uleb128 0x9
 1397 09ac 04       		.byte	0x4
 1398 09ad B1090000 		.4byte	0x9b1
 1399 09b1 10       		.uleb128 0x10
 1400 09b2 9F090000 		.4byte	0x99f
 1401 09b6 09       		.uleb128 0x9
 1402 09b7 04       		.byte	0x4
 1403 09b8 51050000 		.4byte	0x551
 1404 09bc 08       		.uleb128 0x8
 1405 09bd 0C       		.byte	0xc
 1406 09be 0F       		.byte	0xf
 1407 09bf 56       		.byte	0x56
 1408 09c0 E9090000 		.4byte	0x9e9
 1409 09c4 06       		.uleb128 0x6
 1410 09c5 EE020000 		.4byte	.LASF148
 1411 09c9 0F       		.byte	0xf
 1412 09ca 5A       		.byte	0x5a
 1413 09cb 5B090000 		.4byte	0x95b
 1414 09cf 00       		.byte	0
 1415 09d0 06       		.uleb128 0x6
 1416 09d1 BB020000 		.4byte	.LASF149
ARM GAS  /var/folders/4k/6h5l9jl178sb4hslwv3xp1mr0000gn/T//ccSshiDb.s 			page 26


 1417 09d5 0F       		.byte	0xf
 1418 09d6 5E       		.byte	0x5e
 1419 09d7 AB090000 		.4byte	0x9ab
 1420 09db 04       		.byte	0x4
 1421 09dc 06       		.uleb128 0x6
 1422 09dd 16070000 		.4byte	.LASF150
 1423 09e1 0F       		.byte	0xf
 1424 09e2 62       		.byte	0x62
 1425 09e3 AB090000 		.4byte	0x9ab
 1426 09e7 08       		.byte	0x8
 1427 09e8 00       		.byte	0
 1428 09e9 04       		.uleb128 0x4
 1429 09ea 85030000 		.4byte	.LASF151
 1430 09ee 0F       		.byte	0xf
 1431 09ef 63       		.byte	0x63
 1432 09f0 BC090000 		.4byte	0x9bc
 1433 09f4 05       		.uleb128 0x5
 1434 09f5 6D000000 		.4byte	.LASF152
 1435 09f9 20       		.byte	0x20
 1436 09fa 0F       		.byte	0xf
 1437 09fb 70       		.byte	0x70
 1438 09fc 610A0000 		.4byte	0xa61
 1439 0a00 06       		.uleb128 0x6
 1440 0a01 A9060000 		.4byte	.LASF153
 1441 0a05 0F       		.byte	0xf
 1442 0a06 71       		.byte	0x71
 1443 0a07 3E060000 		.4byte	0x63e
 1444 0a0b 00       		.byte	0
 1445 0a0c 06       		.uleb128 0x6
 1446 0a0d 44000000 		.4byte	.LASF154
 1447 0a11 0F       		.byte	0xf
 1448 0a12 71       		.byte	0x71
 1449 0a13 3E060000 		.4byte	0x63e
 1450 0a17 04       		.byte	0x4
 1451 0a18 06       		.uleb128 0x6
 1452 0a19 B5050000 		.4byte	.LASF155
 1453 0a1d 0F       		.byte	0xf
 1454 0a1e 71       		.byte	0x71
 1455 0a1f 3E060000 		.4byte	0x63e
 1456 0a23 08       		.byte	0x8
 1457 0a24 06       		.uleb128 0x6
 1458 0a25 4B010000 		.4byte	.LASF156
 1459 0a29 0F       		.byte	0xf
 1460 0a2a 71       		.byte	0x71
 1461 0a2b 3E060000 		.4byte	0x63e
 1462 0a2f 0C       		.byte	0xc
 1463 0a30 06       		.uleb128 0x6
 1464 0a31 0B060000 		.4byte	.LASF157
 1465 0a35 0F       		.byte	0xf
 1466 0a36 71       		.byte	0x71
 1467 0a37 62060000 		.4byte	0x662
 1468 0a3b 10       		.byte	0x10
 1469 0a3c 06       		.uleb128 0x6
 1470 0a3d 12030000 		.4byte	.LASF158
 1471 0a41 0F       		.byte	0xf
 1472 0a42 71       		.byte	0x71
 1473 0a43 86060000 		.4byte	0x686
ARM GAS  /var/folders/4k/6h5l9jl178sb4hslwv3xp1mr0000gn/T//ccSshiDb.s 			page 27


 1474 0a47 14       		.byte	0x14
 1475 0a48 06       		.uleb128 0x6
 1476 0a49 3B070000 		.4byte	.LASF159
 1477 0a4d 0F       		.byte	0xf
 1478 0a4e 71       		.byte	0x71
 1479 0a4f 3E060000 		.4byte	0x63e
 1480 0a53 18       		.byte	0x18
 1481 0a54 06       		.uleb128 0x6
 1482 0a55 F1010000 		.4byte	.LASF160
 1483 0a59 0F       		.byte	0xf
 1484 0a5a 71       		.byte	0x71
 1485 0a5b A6060000 		.4byte	0x6a6
 1486 0a5f 1C       		.byte	0x1c
 1487 0a60 00       		.byte	0
 1488 0a61 08       		.uleb128 0x8
 1489 0a62 34       		.byte	0x34
 1490 0a63 0F       		.byte	0xf
 1491 0a64 79       		.byte	0x79
 1492 0a65 BE0A0000 		.4byte	0xabe
 1493 0a69 07       		.uleb128 0x7
 1494 0a6a 766D7400 		.ascii	"vmt\000"
 1495 0a6e 0F       		.byte	0xf
 1496 0a6f 7D       		.byte	0x7d
 1497 0a70 BE0A0000 		.4byte	0xabe
 1498 0a74 00       		.byte	0
 1499 0a75 06       		.uleb128 0x6
 1500 0a76 71010000 		.4byte	.LASF135
 1501 0a7a 0F       		.byte	0xf
 1502 0a7b 7E       		.byte	0x7e
 1503 0a7c F8050000 		.4byte	0x5f8
 1504 0a80 04       		.byte	0x4
 1505 0a81 07       		.uleb128 0x7
 1506 0a82 63696400 		.ascii	"cid\000"
 1507 0a86 0F       		.byte	0xf
 1508 0a87 7E       		.byte	0x7e
 1509 0a88 E2030000 		.4byte	0x3e2
 1510 0a8c 08       		.byte	0x8
 1511 0a8d 07       		.uleb128 0x7
 1512 0a8e 63736400 		.ascii	"csd\000"
 1513 0a92 0F       		.byte	0xf
 1514 0a93 7E       		.byte	0x7e
 1515 0a94 E2030000 		.4byte	0x3e2
 1516 0a98 18       		.byte	0x18
 1517 0a99 06       		.uleb128 0x6
 1518 0a9a 81000000 		.4byte	.LASF161
 1519 0a9e 0F       		.byte	0xf
 1520 0a9f 7E       		.byte	0x7e
 1521 0aa0 B8000000 		.4byte	0xb8
 1522 0aa4 28       		.byte	0x28
 1523 0aa5 06       		.uleb128 0x6
 1524 0aa6 34060000 		.4byte	.LASF136
 1525 0aaa 0F       		.byte	0xf
 1526 0aab 82       		.byte	0x82
 1527 0aac C90A0000 		.4byte	0xac9
 1528 0ab0 2C       		.byte	0x2c
 1529 0ab1 06       		.uleb128 0x6
 1530 0ab2 C1020000 		.4byte	.LASF162
ARM GAS  /var/folders/4k/6h5l9jl178sb4hslwv3xp1mr0000gn/T//ccSshiDb.s 			page 28


 1531 0ab6 0F       		.byte	0xf
 1532 0ab7 86       		.byte	0x86
 1533 0ab8 C3000000 		.4byte	0xc3
 1534 0abc 30       		.byte	0x30
 1535 0abd 00       		.byte	0
 1536 0abe 09       		.uleb128 0x9
 1537 0abf 04       		.byte	0x4
 1538 0ac0 C40A0000 		.4byte	0xac4
 1539 0ac4 10       		.uleb128 0x10
 1540 0ac5 F4090000 		.4byte	0x9f4
 1541 0ac9 09       		.uleb128 0x9
 1542 0aca 04       		.byte	0x4
 1543 0acb CF0A0000 		.4byte	0xacf
 1544 0acf 10       		.uleb128 0x10
 1545 0ad0 E9090000 		.4byte	0x9e9
 1546 0ad4 04       		.uleb128 0x4
 1547 0ad5 C5060000 		.4byte	.LASF163
 1548 0ad9 0F       		.byte	0xf
 1549 0ada 87       		.byte	0x87
 1550 0adb 610A0000 		.4byte	0xa61
 1551 0adf 1C       		.uleb128 0x1c
 1552 0ae0 89020000 		.4byte	.LASF172
 1553 0ae4 01       		.byte	0x1
 1554 0ae5 36       		.byte	0x36
 1555 0ae6 00000000 		.4byte	.LFB118
 1556 0aea 04000000 		.4byte	.LFE118-.LFB118
 1557 0aee 01       		.uleb128 0x1
 1558 0aef 9C       		.byte	0x9c
 1559 0af0 FE0A0000 		.4byte	0xafe
 1560 0af4 1D       		.uleb128 0x1d
 1561 0af5 04000000 		.4byte	.LVL0
 1562 0af9 890B0000 		.4byte	0xb89
 1563 0afd 00       		.byte	0
 1564 0afe 1E       		.uleb128 0x1e
 1565 0aff 40050000 		.4byte	.LASF164
 1566 0b03 01       		.byte	0x1
 1567 0b04 55       		.byte	0x55
 1568 0b05 C3000000 		.4byte	0xc3
 1569 0b09 00000000 		.4byte	.LFB119
 1570 0b0d 04000000 		.4byte	.LFE119-.LFB119
 1571 0b11 01       		.uleb128 0x1
 1572 0b12 9C       		.byte	0x9c
 1573 0b13 270B0000 		.4byte	0xb27
 1574 0b17 1F       		.uleb128 0x1f
 1575 0b18 E8050000 		.4byte	.LASF166
 1576 0b1c 01       		.byte	0x1
 1577 0b1d 55       		.byte	0x55
 1578 0b1e 270B0000 		.4byte	0xb27
 1579 0b22 00000000 		.4byte	.LLST0
 1580 0b26 00       		.byte	0
 1581 0b27 09       		.uleb128 0x9
 1582 0b28 04       		.byte	0x4
 1583 0b29 D40A0000 		.4byte	0xad4
 1584 0b2d 1E       		.uleb128 0x1e
 1585 0b2e 90010000 		.4byte	.LASF165
 1586 0b32 01       		.byte	0x1
 1587 0b33 5F       		.byte	0x5f
ARM GAS  /var/folders/4k/6h5l9jl178sb4hslwv3xp1mr0000gn/T//ccSshiDb.s 			page 29


 1588 0b34 C3000000 		.4byte	0xc3
 1589 0b38 00000000 		.4byte	.LFB120
 1590 0b3c 04000000 		.4byte	.LFE120-.LFB120
 1591 0b40 01       		.uleb128 0x1
 1592 0b41 9C       		.byte	0x9c
 1593 0b42 560B0000 		.4byte	0xb56
 1594 0b46 1F       		.uleb128 0x1f
 1595 0b47 E8050000 		.4byte	.LASF166
 1596 0b4b 01       		.byte	0x1
 1597 0b4c 5F       		.byte	0x5f
 1598 0b4d 270B0000 		.4byte	0xb27
 1599 0b51 21000000 		.4byte	.LLST1
 1600 0b55 00       		.byte	0
 1601 0b56 20       		.uleb128 0x20
 1602 0b57 23070000 		.4byte	.LASF173
 1603 0b5b 01       		.byte	0x1
 1604 0b5c 6B       		.byte	0x6b
 1605 0b5d 00000000 		.4byte	.LFB121
 1606 0b61 02000000 		.4byte	.LFE121-.LFB121
 1607 0b65 01       		.uleb128 0x1
 1608 0b66 9C       		.byte	0x9c
 1609 0b67 21       		.uleb128 0x21
 1610 0b68 EC000000 		.4byte	.LASF167
 1611 0b6c 10       		.byte	0x10
 1612 0b6d 9806     		.2byte	0x698
 1613 0b6f F7030000 		.4byte	0x3f7
 1614 0b73 22       		.uleb128 0x22
 1615 0b74 77070000 		.4byte	.LASF168
 1616 0b78 01       		.byte	0x1
 1617 0b79 1A       		.byte	0x1a
 1618 0b7a 840B0000 		.4byte	0xb84
 1619 0b7e 05       		.uleb128 0x5
 1620 0b7f 03       		.byte	0x3
 1621 0b80 00000000 		.4byte	pal_default_config
 1622 0b84 10       		.uleb128 0x10
 1623 0b85 56080000 		.4byte	0x856
 1624 0b89 23       		.uleb128 0x23
 1625 0b8a 45020000 		.4byte	.LASF174
 1626 0b8e 11       		.byte	0x11
 1627 0b8f F106     		.2byte	0x6f1
 1628 0b91 00       		.byte	0
 1629              		.section	.debug_abbrev,"",%progbits
 1630              	.Ldebug_abbrev0:
 1631 0000 01       		.uleb128 0x1
 1632 0001 11       		.uleb128 0x11
 1633 0002 01       		.byte	0x1
 1634 0003 25       		.uleb128 0x25
 1635 0004 0E       		.uleb128 0xe
 1636 0005 13       		.uleb128 0x13
 1637 0006 0B       		.uleb128 0xb
 1638 0007 03       		.uleb128 0x3
 1639 0008 0E       		.uleb128 0xe
 1640 0009 1B       		.uleb128 0x1b
 1641 000a 0E       		.uleb128 0xe
 1642 000b 55       		.uleb128 0x55
 1643 000c 17       		.uleb128 0x17
 1644 000d 11       		.uleb128 0x11
ARM GAS  /var/folders/4k/6h5l9jl178sb4hslwv3xp1mr0000gn/T//ccSshiDb.s 			page 30


 1645 000e 01       		.uleb128 0x1
 1646 000f 10       		.uleb128 0x10
 1647 0010 17       		.uleb128 0x17
 1648 0011 00       		.byte	0
 1649 0012 00       		.byte	0
 1650 0013 02       		.uleb128 0x2
 1651 0014 24       		.uleb128 0x24
 1652 0015 00       		.byte	0
 1653 0016 0B       		.uleb128 0xb
 1654 0017 0B       		.uleb128 0xb
 1655 0018 3E       		.uleb128 0x3e
 1656 0019 0B       		.uleb128 0xb
 1657 001a 03       		.uleb128 0x3
 1658 001b 08       		.uleb128 0x8
 1659 001c 00       		.byte	0
 1660 001d 00       		.byte	0
 1661 001e 03       		.uleb128 0x3
 1662 001f 24       		.uleb128 0x24
 1663 0020 00       		.byte	0
 1664 0021 0B       		.uleb128 0xb
 1665 0022 0B       		.uleb128 0xb
 1666 0023 3E       		.uleb128 0x3e
 1667 0024 0B       		.uleb128 0xb
 1668 0025 03       		.uleb128 0x3
 1669 0026 0E       		.uleb128 0xe
 1670 0027 00       		.byte	0
 1671 0028 00       		.byte	0
 1672 0029 04       		.uleb128 0x4
 1673 002a 16       		.uleb128 0x16
 1674 002b 00       		.byte	0
 1675 002c 03       		.uleb128 0x3
 1676 002d 0E       		.uleb128 0xe
 1677 002e 3A       		.uleb128 0x3a
 1678 002f 0B       		.uleb128 0xb
 1679 0030 3B       		.uleb128 0x3b
 1680 0031 0B       		.uleb128 0xb
 1681 0032 49       		.uleb128 0x49
 1682 0033 13       		.uleb128 0x13
 1683 0034 00       		.byte	0
 1684 0035 00       		.byte	0
 1685 0036 05       		.uleb128 0x5
 1686 0037 13       		.uleb128 0x13
 1687 0038 01       		.byte	0x1
 1688 0039 03       		.uleb128 0x3
 1689 003a 0E       		.uleb128 0xe
 1690 003b 0B       		.uleb128 0xb
 1691 003c 0B       		.uleb128 0xb
 1692 003d 3A       		.uleb128 0x3a
 1693 003e 0B       		.uleb128 0xb
 1694 003f 3B       		.uleb128 0x3b
 1695 0040 0B       		.uleb128 0xb
 1696 0041 01       		.uleb128 0x1
 1697 0042 13       		.uleb128 0x13
 1698 0043 00       		.byte	0
 1699 0044 00       		.byte	0
 1700 0045 06       		.uleb128 0x6
 1701 0046 0D       		.uleb128 0xd
ARM GAS  /var/folders/4k/6h5l9jl178sb4hslwv3xp1mr0000gn/T//ccSshiDb.s 			page 31


 1702 0047 00       		.byte	0
 1703 0048 03       		.uleb128 0x3
 1704 0049 0E       		.uleb128 0xe
 1705 004a 3A       		.uleb128 0x3a
 1706 004b 0B       		.uleb128 0xb
 1707 004c 3B       		.uleb128 0x3b
 1708 004d 0B       		.uleb128 0xb
 1709 004e 49       		.uleb128 0x49
 1710 004f 13       		.uleb128 0x13
 1711 0050 38       		.uleb128 0x38
 1712 0051 0B       		.uleb128 0xb
 1713 0052 00       		.byte	0
 1714 0053 00       		.byte	0
 1715 0054 07       		.uleb128 0x7
 1716 0055 0D       		.uleb128 0xd
 1717 0056 00       		.byte	0
 1718 0057 03       		.uleb128 0x3
 1719 0058 08       		.uleb128 0x8
 1720 0059 3A       		.uleb128 0x3a
 1721 005a 0B       		.uleb128 0xb
 1722 005b 3B       		.uleb128 0x3b
 1723 005c 0B       		.uleb128 0xb
 1724 005d 49       		.uleb128 0x49
 1725 005e 13       		.uleb128 0x13
 1726 005f 38       		.uleb128 0x38
 1727 0060 0B       		.uleb128 0xb
 1728 0061 00       		.byte	0
 1729 0062 00       		.byte	0
 1730 0063 08       		.uleb128 0x8
 1731 0064 13       		.uleb128 0x13
 1732 0065 01       		.byte	0x1
 1733 0066 0B       		.uleb128 0xb
 1734 0067 0B       		.uleb128 0xb
 1735 0068 3A       		.uleb128 0x3a
 1736 0069 0B       		.uleb128 0xb
 1737 006a 3B       		.uleb128 0x3b
 1738 006b 0B       		.uleb128 0xb
 1739 006c 01       		.uleb128 0x1
 1740 006d 13       		.uleb128 0x13
 1741 006e 00       		.byte	0
 1742 006f 00       		.byte	0
 1743 0070 09       		.uleb128 0x9
 1744 0071 0F       		.uleb128 0xf
 1745 0072 00       		.byte	0
 1746 0073 0B       		.uleb128 0xb
 1747 0074 0B       		.uleb128 0xb
 1748 0075 49       		.uleb128 0x49
 1749 0076 13       		.uleb128 0x13
 1750 0077 00       		.byte	0
 1751 0078 00       		.byte	0
 1752 0079 0A       		.uleb128 0xa
 1753 007a 0F       		.uleb128 0xf
 1754 007b 00       		.byte	0
 1755 007c 0B       		.uleb128 0xb
 1756 007d 0B       		.uleb128 0xb
 1757 007e 00       		.byte	0
 1758 007f 00       		.byte	0
ARM GAS  /var/folders/4k/6h5l9jl178sb4hslwv3xp1mr0000gn/T//ccSshiDb.s 			page 32


 1759 0080 0B       		.uleb128 0xb
 1760 0081 13       		.uleb128 0x13
 1761 0082 01       		.byte	0x1
 1762 0083 03       		.uleb128 0x3
 1763 0084 0E       		.uleb128 0xe
 1764 0085 0B       		.uleb128 0xb
 1765 0086 0B       		.uleb128 0xb
 1766 0087 3A       		.uleb128 0x3a
 1767 0088 0B       		.uleb128 0xb
 1768 0089 3B       		.uleb128 0x3b
 1769 008a 05       		.uleb128 0x5
 1770 008b 01       		.uleb128 0x1
 1771 008c 13       		.uleb128 0x13
 1772 008d 00       		.byte	0
 1773 008e 00       		.byte	0
 1774 008f 0C       		.uleb128 0xc
 1775 0090 0D       		.uleb128 0xd
 1776 0091 00       		.byte	0
 1777 0092 03       		.uleb128 0x3
 1778 0093 08       		.uleb128 0x8
 1779 0094 3A       		.uleb128 0x3a
 1780 0095 0B       		.uleb128 0xb
 1781 0096 3B       		.uleb128 0x3b
 1782 0097 05       		.uleb128 0x5
 1783 0098 49       		.uleb128 0x49
 1784 0099 13       		.uleb128 0x13
 1785 009a 38       		.uleb128 0x38
 1786 009b 0B       		.uleb128 0xb
 1787 009c 00       		.byte	0
 1788 009d 00       		.byte	0
 1789 009e 0D       		.uleb128 0xd
 1790 009f 35       		.uleb128 0x35
 1791 00a0 00       		.byte	0
 1792 00a1 49       		.uleb128 0x49
 1793 00a2 13       		.uleb128 0x13
 1794 00a3 00       		.byte	0
 1795 00a4 00       		.byte	0
 1796 00a5 0E       		.uleb128 0xe
 1797 00a6 17       		.uleb128 0x17
 1798 00a7 01       		.byte	0x1
 1799 00a8 0B       		.uleb128 0xb
 1800 00a9 0B       		.uleb128 0xb
 1801 00aa 3A       		.uleb128 0x3a
 1802 00ab 0B       		.uleb128 0xb
 1803 00ac 3B       		.uleb128 0x3b
 1804 00ad 0B       		.uleb128 0xb
 1805 00ae 01       		.uleb128 0x1
 1806 00af 13       		.uleb128 0x13
 1807 00b0 00       		.byte	0
 1808 00b1 00       		.byte	0
 1809 00b2 0F       		.uleb128 0xf
 1810 00b3 0D       		.uleb128 0xd
 1811 00b4 00       		.byte	0
 1812 00b5 03       		.uleb128 0x3
 1813 00b6 0E       		.uleb128 0xe
 1814 00b7 3A       		.uleb128 0x3a
 1815 00b8 0B       		.uleb128 0xb
ARM GAS  /var/folders/4k/6h5l9jl178sb4hslwv3xp1mr0000gn/T//ccSshiDb.s 			page 33


 1816 00b9 3B       		.uleb128 0x3b
 1817 00ba 0B       		.uleb128 0xb
 1818 00bb 49       		.uleb128 0x49
 1819 00bc 13       		.uleb128 0x13
 1820 00bd 00       		.byte	0
 1821 00be 00       		.byte	0
 1822 00bf 10       		.uleb128 0x10
 1823 00c0 26       		.uleb128 0x26
 1824 00c1 00       		.byte	0
 1825 00c2 49       		.uleb128 0x49
 1826 00c3 13       		.uleb128 0x13
 1827 00c4 00       		.byte	0
 1828 00c5 00       		.byte	0
 1829 00c6 11       		.uleb128 0x11
 1830 00c7 01       		.uleb128 0x1
 1831 00c8 01       		.byte	0x1
 1832 00c9 49       		.uleb128 0x49
 1833 00ca 13       		.uleb128 0x13
 1834 00cb 01       		.uleb128 0x1
 1835 00cc 13       		.uleb128 0x13
 1836 00cd 00       		.byte	0
 1837 00ce 00       		.byte	0
 1838 00cf 12       		.uleb128 0x12
 1839 00d0 21       		.uleb128 0x21
 1840 00d1 00       		.byte	0
 1841 00d2 49       		.uleb128 0x49
 1842 00d3 13       		.uleb128 0x13
 1843 00d4 2F       		.uleb128 0x2f
 1844 00d5 0B       		.uleb128 0xb
 1845 00d6 00       		.byte	0
 1846 00d7 00       		.byte	0
 1847 00d8 13       		.uleb128 0x13
 1848 00d9 13       		.uleb128 0x13
 1849 00da 01       		.byte	0x1
 1850 00db 0B       		.uleb128 0xb
 1851 00dc 0B       		.uleb128 0xb
 1852 00dd 3A       		.uleb128 0x3a
 1853 00de 0B       		.uleb128 0xb
 1854 00df 3B       		.uleb128 0x3b
 1855 00e0 05       		.uleb128 0x5
 1856 00e1 01       		.uleb128 0x1
 1857 00e2 13       		.uleb128 0x13
 1858 00e3 00       		.byte	0
 1859 00e4 00       		.byte	0
 1860 00e5 14       		.uleb128 0x14
 1861 00e6 0D       		.uleb128 0xd
 1862 00e7 00       		.byte	0
 1863 00e8 03       		.uleb128 0x3
 1864 00e9 0E       		.uleb128 0xe
 1865 00ea 3A       		.uleb128 0x3a
 1866 00eb 0B       		.uleb128 0xb
 1867 00ec 3B       		.uleb128 0x3b
 1868 00ed 05       		.uleb128 0x5
 1869 00ee 49       		.uleb128 0x49
 1870 00ef 13       		.uleb128 0x13
 1871 00f0 38       		.uleb128 0x38
 1872 00f1 0B       		.uleb128 0xb
ARM GAS  /var/folders/4k/6h5l9jl178sb4hslwv3xp1mr0000gn/T//ccSshiDb.s 			page 34


 1873 00f2 00       		.byte	0
 1874 00f3 00       		.byte	0
 1875 00f4 15       		.uleb128 0x15
 1876 00f5 16       		.uleb128 0x16
 1877 00f6 00       		.byte	0
 1878 00f7 03       		.uleb128 0x3
 1879 00f8 0E       		.uleb128 0xe
 1880 00f9 3A       		.uleb128 0x3a
 1881 00fa 0B       		.uleb128 0xb
 1882 00fb 3B       		.uleb128 0x3b
 1883 00fc 05       		.uleb128 0x5
 1884 00fd 49       		.uleb128 0x49
 1885 00fe 13       		.uleb128 0x13
 1886 00ff 00       		.byte	0
 1887 0100 00       		.byte	0
 1888 0101 16       		.uleb128 0x16
 1889 0102 04       		.uleb128 0x4
 1890 0103 01       		.byte	0x1
 1891 0104 0B       		.uleb128 0xb
 1892 0105 0B       		.uleb128 0xb
 1893 0106 3A       		.uleb128 0x3a
 1894 0107 0B       		.uleb128 0xb
 1895 0108 3B       		.uleb128 0x3b
 1896 0109 0B       		.uleb128 0xb
 1897 010a 01       		.uleb128 0x1
 1898 010b 13       		.uleb128 0x13
 1899 010c 00       		.byte	0
 1900 010d 00       		.byte	0
 1901 010e 17       		.uleb128 0x17
 1902 010f 28       		.uleb128 0x28
 1903 0110 00       		.byte	0
 1904 0111 03       		.uleb128 0x3
 1905 0112 0E       		.uleb128 0xe
 1906 0113 1C       		.uleb128 0x1c
 1907 0114 0D       		.uleb128 0xd
 1908 0115 00       		.byte	0
 1909 0116 00       		.byte	0
 1910 0117 18       		.uleb128 0x18
 1911 0118 15       		.uleb128 0x15
 1912 0119 01       		.byte	0x1
 1913 011a 27       		.uleb128 0x27
 1914 011b 19       		.uleb128 0x19
 1915 011c 49       		.uleb128 0x49
 1916 011d 13       		.uleb128 0x13
 1917 011e 01       		.uleb128 0x1
 1918 011f 13       		.uleb128 0x13
 1919 0120 00       		.byte	0
 1920 0121 00       		.byte	0
 1921 0122 19       		.uleb128 0x19
 1922 0123 05       		.uleb128 0x5
 1923 0124 00       		.byte	0
 1924 0125 49       		.uleb128 0x49
 1925 0126 13       		.uleb128 0x13
 1926 0127 00       		.byte	0
 1927 0128 00       		.byte	0
 1928 0129 1A       		.uleb128 0x1a
 1929 012a 0D       		.uleb128 0xd
ARM GAS  /var/folders/4k/6h5l9jl178sb4hslwv3xp1mr0000gn/T//ccSshiDb.s 			page 35


 1930 012b 00       		.byte	0
 1931 012c 03       		.uleb128 0x3
 1932 012d 08       		.uleb128 0x8
 1933 012e 3A       		.uleb128 0x3a
 1934 012f 0B       		.uleb128 0xb
 1935 0130 3B       		.uleb128 0x3b
 1936 0131 0B       		.uleb128 0xb
 1937 0132 49       		.uleb128 0x49
 1938 0133 13       		.uleb128 0x13
 1939 0134 00       		.byte	0
 1940 0135 00       		.byte	0
 1941 0136 1B       		.uleb128 0x1b
 1942 0137 15       		.uleb128 0x15
 1943 0138 01       		.byte	0x1
 1944 0139 27       		.uleb128 0x27
 1945 013a 19       		.uleb128 0x19
 1946 013b 01       		.uleb128 0x1
 1947 013c 13       		.uleb128 0x13
 1948 013d 00       		.byte	0
 1949 013e 00       		.byte	0
 1950 013f 1C       		.uleb128 0x1c
 1951 0140 2E       		.uleb128 0x2e
 1952 0141 01       		.byte	0x1
 1953 0142 3F       		.uleb128 0x3f
 1954 0143 19       		.uleb128 0x19
 1955 0144 03       		.uleb128 0x3
 1956 0145 0E       		.uleb128 0xe
 1957 0146 3A       		.uleb128 0x3a
 1958 0147 0B       		.uleb128 0xb
 1959 0148 3B       		.uleb128 0x3b
 1960 0149 0B       		.uleb128 0xb
 1961 014a 27       		.uleb128 0x27
 1962 014b 19       		.uleb128 0x19
 1963 014c 11       		.uleb128 0x11
 1964 014d 01       		.uleb128 0x1
 1965 014e 12       		.uleb128 0x12
 1966 014f 06       		.uleb128 0x6
 1967 0150 40       		.uleb128 0x40
 1968 0151 18       		.uleb128 0x18
 1969 0152 9742     		.uleb128 0x2117
 1970 0154 19       		.uleb128 0x19
 1971 0155 01       		.uleb128 0x1
 1972 0156 13       		.uleb128 0x13
 1973 0157 00       		.byte	0
 1974 0158 00       		.byte	0
 1975 0159 1D       		.uleb128 0x1d
 1976 015a 898201   		.uleb128 0x4109
 1977 015d 00       		.byte	0
 1978 015e 11       		.uleb128 0x11
 1979 015f 01       		.uleb128 0x1
 1980 0160 9542     		.uleb128 0x2115
 1981 0162 19       		.uleb128 0x19
 1982 0163 31       		.uleb128 0x31
 1983 0164 13       		.uleb128 0x13
 1984 0165 00       		.byte	0
 1985 0166 00       		.byte	0
 1986 0167 1E       		.uleb128 0x1e
ARM GAS  /var/folders/4k/6h5l9jl178sb4hslwv3xp1mr0000gn/T//ccSshiDb.s 			page 36


 1987 0168 2E       		.uleb128 0x2e
 1988 0169 01       		.byte	0x1
 1989 016a 3F       		.uleb128 0x3f
 1990 016b 19       		.uleb128 0x19
 1991 016c 03       		.uleb128 0x3
 1992 016d 0E       		.uleb128 0xe
 1993 016e 3A       		.uleb128 0x3a
 1994 016f 0B       		.uleb128 0xb
 1995 0170 3B       		.uleb128 0x3b
 1996 0171 0B       		.uleb128 0xb
 1997 0172 27       		.uleb128 0x27
 1998 0173 19       		.uleb128 0x19
 1999 0174 49       		.uleb128 0x49
 2000 0175 13       		.uleb128 0x13
 2001 0176 11       		.uleb128 0x11
 2002 0177 01       		.uleb128 0x1
 2003 0178 12       		.uleb128 0x12
 2004 0179 06       		.uleb128 0x6
 2005 017a 40       		.uleb128 0x40
 2006 017b 18       		.uleb128 0x18
 2007 017c 9742     		.uleb128 0x2117
 2008 017e 19       		.uleb128 0x19
 2009 017f 01       		.uleb128 0x1
 2010 0180 13       		.uleb128 0x13
 2011 0181 00       		.byte	0
 2012 0182 00       		.byte	0
 2013 0183 1F       		.uleb128 0x1f
 2014 0184 05       		.uleb128 0x5
 2015 0185 00       		.byte	0
 2016 0186 03       		.uleb128 0x3
 2017 0187 0E       		.uleb128 0xe
 2018 0188 3A       		.uleb128 0x3a
 2019 0189 0B       		.uleb128 0xb
 2020 018a 3B       		.uleb128 0x3b
 2021 018b 0B       		.uleb128 0xb
 2022 018c 49       		.uleb128 0x49
 2023 018d 13       		.uleb128 0x13
 2024 018e 02       		.uleb128 0x2
 2025 018f 17       		.uleb128 0x17
 2026 0190 00       		.byte	0
 2027 0191 00       		.byte	0
 2028 0192 20       		.uleb128 0x20
 2029 0193 2E       		.uleb128 0x2e
 2030 0194 00       		.byte	0
 2031 0195 3F       		.uleb128 0x3f
 2032 0196 19       		.uleb128 0x19
 2033 0197 03       		.uleb128 0x3
 2034 0198 0E       		.uleb128 0xe
 2035 0199 3A       		.uleb128 0x3a
 2036 019a 0B       		.uleb128 0xb
 2037 019b 3B       		.uleb128 0x3b
 2038 019c 0B       		.uleb128 0xb
 2039 019d 27       		.uleb128 0x27
 2040 019e 19       		.uleb128 0x19
 2041 019f 11       		.uleb128 0x11
 2042 01a0 01       		.uleb128 0x1
 2043 01a1 12       		.uleb128 0x12
ARM GAS  /var/folders/4k/6h5l9jl178sb4hslwv3xp1mr0000gn/T//ccSshiDb.s 			page 37


 2044 01a2 06       		.uleb128 0x6
 2045 01a3 40       		.uleb128 0x40
 2046 01a4 18       		.uleb128 0x18
 2047 01a5 9742     		.uleb128 0x2117
 2048 01a7 19       		.uleb128 0x19
 2049 01a8 00       		.byte	0
 2050 01a9 00       		.byte	0
 2051 01aa 21       		.uleb128 0x21
 2052 01ab 34       		.uleb128 0x34
 2053 01ac 00       		.byte	0
 2054 01ad 03       		.uleb128 0x3
 2055 01ae 0E       		.uleb128 0xe
 2056 01af 3A       		.uleb128 0x3a
 2057 01b0 0B       		.uleb128 0xb
 2058 01b1 3B       		.uleb128 0x3b
 2059 01b2 05       		.uleb128 0x5
 2060 01b3 49       		.uleb128 0x49
 2061 01b4 13       		.uleb128 0x13
 2062 01b5 3F       		.uleb128 0x3f
 2063 01b6 19       		.uleb128 0x19
 2064 01b7 3C       		.uleb128 0x3c
 2065 01b8 19       		.uleb128 0x19
 2066 01b9 00       		.byte	0
 2067 01ba 00       		.byte	0
 2068 01bb 22       		.uleb128 0x22
 2069 01bc 34       		.uleb128 0x34
 2070 01bd 00       		.byte	0
 2071 01be 03       		.uleb128 0x3
 2072 01bf 0E       		.uleb128 0xe
 2073 01c0 3A       		.uleb128 0x3a
 2074 01c1 0B       		.uleb128 0xb
 2075 01c2 3B       		.uleb128 0x3b
 2076 01c3 0B       		.uleb128 0xb
 2077 01c4 49       		.uleb128 0x49
 2078 01c5 13       		.uleb128 0x13
 2079 01c6 3F       		.uleb128 0x3f
 2080 01c7 19       		.uleb128 0x19
 2081 01c8 02       		.uleb128 0x2
 2082 01c9 18       		.uleb128 0x18
 2083 01ca 00       		.byte	0
 2084 01cb 00       		.byte	0
 2085 01cc 23       		.uleb128 0x23
 2086 01cd 2E       		.uleb128 0x2e
 2087 01ce 00       		.byte	0
 2088 01cf 3F       		.uleb128 0x3f
 2089 01d0 19       		.uleb128 0x19
 2090 01d1 03       		.uleb128 0x3
 2091 01d2 0E       		.uleb128 0xe
 2092 01d3 3A       		.uleb128 0x3a
 2093 01d4 0B       		.uleb128 0xb
 2094 01d5 3B       		.uleb128 0x3b
 2095 01d6 05       		.uleb128 0x5
 2096 01d7 27       		.uleb128 0x27
 2097 01d8 19       		.uleb128 0x19
 2098 01d9 3C       		.uleb128 0x3c
 2099 01da 19       		.uleb128 0x19
 2100 01db 00       		.byte	0
ARM GAS  /var/folders/4k/6h5l9jl178sb4hslwv3xp1mr0000gn/T//ccSshiDb.s 			page 38


 2101 01dc 00       		.byte	0
 2102 01dd 00       		.byte	0
 2103              		.section	.debug_loc,"",%progbits
 2104              	.Ldebug_loc0:
 2105              	.LLST0:
 2106 0000 00000000 		.4byte	.LVL1
 2107 0004 02000000 		.4byte	.LVL2
 2108 0008 0100     		.2byte	0x1
 2109 000a 50       		.byte	0x50
 2110 000b 02000000 		.4byte	.LVL2
 2111 000f 04000000 		.4byte	.LFE119
 2112 0013 0400     		.2byte	0x4
 2113 0015 F3       		.byte	0xf3
 2114 0016 01       		.uleb128 0x1
 2115 0017 50       		.byte	0x50
 2116 0018 9F       		.byte	0x9f
 2117 0019 00000000 		.4byte	0
 2118 001d 00000000 		.4byte	0
 2119              	.LLST1:
 2120 0021 00000000 		.4byte	.LVL3
 2121 0025 02000000 		.4byte	.LVL4
 2122 0029 0100     		.2byte	0x1
 2123 002b 50       		.byte	0x50
 2124 002c 02000000 		.4byte	.LVL4
 2125 0030 04000000 		.4byte	.LFE120
 2126 0034 0400     		.2byte	0x4
 2127 0036 F3       		.byte	0xf3
 2128 0037 01       		.uleb128 0x1
 2129 0038 50       		.byte	0x50
 2130 0039 9F       		.byte	0x9f
 2131 003a 00000000 		.4byte	0
 2132 003e 00000000 		.4byte	0
 2133              		.section	.debug_aranges,"",%progbits
 2134 0000 34000000 		.4byte	0x34
 2135 0004 0200     		.2byte	0x2
 2136 0006 00000000 		.4byte	.Ldebug_info0
 2137 000a 04       		.byte	0x4
 2138 000b 00       		.byte	0
 2139 000c 0000     		.2byte	0
 2140 000e 0000     		.2byte	0
 2141 0010 00000000 		.4byte	.LFB118
 2142 0014 04000000 		.4byte	.LFE118-.LFB118
 2143 0018 00000000 		.4byte	.LFB119
 2144 001c 04000000 		.4byte	.LFE119-.LFB119
 2145 0020 00000000 		.4byte	.LFB120
 2146 0024 04000000 		.4byte	.LFE120-.LFB120
 2147 0028 00000000 		.4byte	.LFB121
 2148 002c 02000000 		.4byte	.LFE121-.LFB121
 2149 0030 00000000 		.4byte	0
 2150 0034 00000000 		.4byte	0
 2151              		.section	.debug_ranges,"",%progbits
 2152              	.Ldebug_ranges0:
 2153 0000 00000000 		.4byte	.LFB118
 2154 0004 04000000 		.4byte	.LFE118
 2155 0008 00000000 		.4byte	.LFB119
 2156 000c 04000000 		.4byte	.LFE119
 2157 0010 00000000 		.4byte	.LFB120
ARM GAS  /var/folders/4k/6h5l9jl178sb4hslwv3xp1mr0000gn/T//ccSshiDb.s 			page 39


 2158 0014 04000000 		.4byte	.LFE120
 2159 0018 00000000 		.4byte	.LFB121
 2160 001c 02000000 		.4byte	.LFE121
 2161 0020 00000000 		.4byte	0
 2162 0024 00000000 		.4byte	0
 2163              		.section	.debug_line,"",%progbits
 2164              	.Ldebug_line0:
 2165 0000 7D030000 		.section	.debug_str,"MS",%progbits,1
 2165      02003503 
 2165      00000201 
 2165      FB0E0D00 
 2165      01010101 
 2166              	.LASF99:
 2167 0000 426C6F63 		.ascii	"BlockDeviceInfo\000"
 2167      6B446576 
 2167      69636549 
 2167      6E666F00 
 2168              	.LASF139:
 2169 0010 646D6172 		.ascii	"dmarx\000"
 2169      7800
 2170              	.LASF116:
 2171 0016 73746D33 		.ascii	"stm32_gpio_setup_t\000"
 2171      325F6770 
 2171      696F5F73 
 2171      65747570 
 2171      5F7400
 2172              	.LASF63:
 2173 0029 4D304152 		.ascii	"M0AR\000"
 2173      00
 2174              	.LASF72:
 2175 002e 52584352 		.ascii	"RXCRCR\000"
 2175      435200
 2176              	.LASF98:
 2177 0035 626C6B5F 		.ascii	"blk_num\000"
 2177      6E756D00 
 2178              	.LASF57:
 2179 003d 7264796D 		.ascii	"rdymsg\000"
 2179      736700
 2180              	.LASF154:
 2181 0044 69735F70 		.ascii	"is_protected\000"
 2181      726F7465 
 2181      63746564 
 2181      00
 2182              	.LASF102:
 2183 0051 4F545950 		.ascii	"OTYPER\000"
 2183      455200
 2184              	.LASF4:
 2185 0058 5F5F7569 		.ascii	"__uint8_t\000"
 2185      6E74385F 
 2185      7400
 2186              	.LASF131:
 2187 0062 5350495F 		.ascii	"SPI_ACTIVE\000"
 2187      41435449 
 2187      564500
 2188              	.LASF152:
 2189 006d 4D4D4344 		.ascii	"MMCDriverVMT\000"
 2189      72697665 
ARM GAS  /var/folders/4k/6h5l9jl178sb4hslwv3xp1mr0000gn/T//ccSshiDb.s 			page 40


 2189      72564D54 
 2189      00
 2190              	.LASF111:
 2191 007a 6F747970 		.ascii	"otyper\000"
 2191      657200
 2192              	.LASF161:
 2193 0081 63617061 		.ascii	"capacity\000"
 2193      63697479 
 2193      00
 2194              	.LASF81:
 2195 008a 73747265 		.ascii	"stream\000"
 2195      616D00
 2196              	.LASF124:
 2197 0091 50484461 		.ascii	"PHData\000"
 2197      746100
 2198              	.LASF101:
 2199 0098 4D4F4445 		.ascii	"MODER\000"
 2199      5200
 2200              	.LASF12:
 2201 009e 6C6F6E67 		.ascii	"long long unsigned int\000"
 2201      206C6F6E 
 2201      6720756E 
 2201      7369676E 
 2201      65642069 
 2202              	.LASF130:
 2203 00b5 5350495F 		.ascii	"SPI_READY\000"
 2203      52454144 
 2203      5900
 2204              	.LASF70:
 2205 00bf 43524350 		.ascii	"CRCPR\000"
 2205      5200
 2206              	.LASF104:
 2207 00c5 50555044 		.ascii	"PUPDR\000"
 2207      5200
 2208              	.LASF58:
 2209 00cb 65786974 		.ascii	"exitcode\000"
 2209      636F6465 
 2209      00
 2210              	.LASF85:
 2211 00d4 76656374 		.ascii	"vector\000"
 2211      6F7200
 2212              	.LASF134:
 2213 00db 53504944 		.ascii	"SPIDriver\000"
 2213      72697665 
 2213      7200
 2214              	.LASF145:
 2215 00e5 7373706F 		.ascii	"ssport\000"
 2215      727400
 2216              	.LASF167:
 2217 00ec 49544D5F 		.ascii	"ITM_RxBuffer\000"
 2217      52784275 
 2217      66666572 
 2217      00
 2218              	.LASF96:
 2219 00f9 626C6B73 		.ascii	"blkstate_t\000"
 2219      74617465 
 2219      5F7400
ARM GAS  /var/folders/4k/6h5l9jl178sb4hslwv3xp1mr0000gn/T//ccSshiDb.s 			page 41


 2220              	.LASF30:
 2221 0104 705F7072 		.ascii	"p_prio\000"
 2221      696F00
 2222              	.LASF146:
 2223 010b 73737061 		.ascii	"sspad\000"
 2223      6400
 2224              	.LASF11:
 2225 0111 6C6F6E67 		.ascii	"long long int\000"
 2225      206C6F6E 
 2225      6720696E 
 2225      7400
 2226              	.LASF1:
 2227 011f 7369676E 		.ascii	"signed char\000"
 2227      65642063 
 2227      68617200 
 2228              	.LASF129:
 2229 012b 5350495F 		.ascii	"SPI_STOP\000"
 2229      53544F50 
 2229      00
 2230              	.LASF76:
 2231 0134 49325343 		.ascii	"I2SCFGR\000"
 2231      46475200 
 2232              	.LASF17:
 2233 013c 626F6F6C 		.ascii	"bool_t\000"
 2233      5F7400
 2234              	.LASF54:
 2235 0143 6D5F7175 		.ascii	"m_queue\000"
 2235      65756500 
 2236              	.LASF156:
 2237 014b 64697363 		.ascii	"disconnect\000"
 2237      6F6E6E65 
 2237      637400
 2238              	.LASF110:
 2239 0156 6D6F6465 		.ascii	"moder\000"
 2239      7200
 2240              	.LASF22:
 2241 015c 74736C69 		.ascii	"tslices_t\000"
 2241      6365735F 
 2241      7400
 2242              	.LASF87:
 2243 0166 424C4B5F 		.ascii	"BLK_UNINIT\000"
 2243      554E494E 
 2243      495400
 2244              	.LASF135:
 2245 0171 73746174 		.ascii	"state\000"
 2245      6500
 2246              	.LASF8:
 2247 0177 6C6F6E67 		.ascii	"long int\000"
 2247      20696E74 
 2247      00
 2248              	.LASF121:
 2249 0180 50454461 		.ascii	"PEData\000"
 2249      746100
 2250              	.LASF20:
 2251 0187 74737461 		.ascii	"tstate_t\000"
 2251      74655F74 
 2251      00
ARM GAS  /var/folders/4k/6h5l9jl178sb4hslwv3xp1mr0000gn/T//ccSshiDb.s 			page 42


 2252              	.LASF165:
 2253 0190 6D6D635F 		.ascii	"mmc_lld_is_write_protected\000"
 2253      6C6C645F 
 2253      69735F77 
 2253      72697465 
 2253      5F70726F 
 2254              	.LASF137:
 2255 01ab 74687265 		.ascii	"thread\000"
 2255      616400
 2256              	.LASF88:
 2257 01b2 424C4B5F 		.ascii	"BLK_STOP\000"
 2257      53544F50 
 2257      00
 2258              	.LASF14:
 2259 01bb 75696E74 		.ascii	"uint16_t\000"
 2259      31365F74 
 2259      00
 2260              	.LASF39:
 2261 01c4 705F7469 		.ascii	"p_time\000"
 2261      6D6500
 2262              	.LASF32:
 2263 01cb 705F6E65 		.ascii	"p_newer\000"
 2263      77657200 
 2264              	.LASF144:
 2265 01d3 656E645F 		.ascii	"end_cb\000"
 2265      636200
 2266              	.LASF141:
 2267 01da 7278646D 		.ascii	"rxdmamode\000"
 2267      616D6F64 
 2267      6500
 2268              	.LASF109:
 2269 01e4 4750494F 		.ascii	"GPIO_TypeDef\000"
 2269      5F547970 
 2269      65446566 
 2269      00
 2270              	.LASF160:
 2271 01f1 6765745F 		.ascii	"get_info\000"
 2271      696E666F 
 2271      00
 2272              	.LASF140:
 2273 01fa 646D6174 		.ascii	"dmatx\000"
 2273      7800
 2274              	.LASF103:
 2275 0200 4F535045 		.ascii	"OSPEEDR\000"
 2275      45445200 
 2276              	.LASF9:
 2277 0208 5F5F7569 		.ascii	"__uint32_t\000"
 2277      6E743332 
 2277      5F7400
 2278              	.LASF46:
 2279 0213 705F6D70 		.ascii	"p_mpool\000"
 2279      6F6F6C00 
 2280              	.LASF49:
 2281 021b 72656761 		.ascii	"regarm_t\000"
 2281      726D5F74 
 2281      00
 2282              	.LASF84:
ARM GAS  /var/folders/4k/6h5l9jl178sb4hslwv3xp1mr0000gn/T//ccSshiDb.s 			page 43


 2283 0224 73656C66 		.ascii	"selfindex\000"
 2283      696E6465 
 2283      7800
 2284              	.LASF143:
 2285 022e 73706963 		.ascii	"spicallback_t\000"
 2285      616C6C62 
 2285      61636B5F 
 2285      7400
 2286              	.LASF97:
 2287 023c 626C6B5F 		.ascii	"blk_size\000"
 2287      73697A65 
 2287      00
 2288              	.LASF174:
 2289 0245 73746D33 		.ascii	"stm32_clock_init\000"
 2289      325F636C 
 2289      6F636B5F 
 2289      696E6974 
 2289      00
 2290              	.LASF118:
 2291 0256 50424461 		.ascii	"PBData\000"
 2291      746100
 2292              	.LASF0:
 2293 025d 756E7369 		.ascii	"unsigned int\000"
 2293      676E6564 
 2293      20696E74 
 2293      00
 2294              	.LASF41:
 2295 026a 705F6D73 		.ascii	"p_msgqueue\000"
 2295      67717565 
 2295      756500
 2296              	.LASF112:
 2297 0275 6F737065 		.ascii	"ospeedr\000"
 2297      65647200 
 2298              	.LASF106:
 2299 027d 4C434B52 		.ascii	"LCKR\000"
 2299      00
 2300              	.LASF83:
 2301 0282 69736869 		.ascii	"ishift\000"
 2301      667400
 2302              	.LASF172:
 2303 0289 5F5F6561 		.ascii	"__early_init\000"
 2303      726C795F 
 2303      696E6974 
 2303      00
 2304              	.LASF6:
 2305 0296 73686F72 		.ascii	"short unsigned int\000"
 2305      7420756E 
 2305      7369676E 
 2305      65642069 
 2305      6E7400
 2306              	.LASF122:
 2307 02a9 50464461 		.ascii	"PFData\000"
 2307      746100
 2308              	.LASF89:
 2309 02b0 424C4B5F 		.ascii	"BLK_ACTIVE\000"
 2309      41435449 
 2309      564500
ARM GAS  /var/folders/4k/6h5l9jl178sb4hslwv3xp1mr0000gn/T//ccSshiDb.s 			page 44


 2310              	.LASF149:
 2311 02bb 6C736366 		.ascii	"lscfg\000"
 2311      6700
 2312              	.LASF162:
 2313 02c1 626C6F63 		.ascii	"block_addresses\000"
 2313      6B5F6164 
 2313      64726573 
 2313      73657300 
 2314              	.LASF24:
 2315 02d1 6D73675F 		.ascii	"msg_t\000"
 2315      7400
 2316              	.LASF90:
 2317 02d7 424C4B5F 		.ascii	"BLK_CONNECTING\000"
 2317      434F4E4E 
 2317      45435449 
 2317      4E4700
 2318              	.LASF19:
 2319 02e6 746D6F64 		.ascii	"tmode_t\000"
 2319      655F7400 
 2320              	.LASF148:
 2321 02ee 73706970 		.ascii	"spip\000"
 2321      00
 2322              	.LASF48:
 2323 02f3 54687265 		.ascii	"ThreadsList\000"
 2323      6164734C 
 2323      69737400 
 2324              	.LASF25:
 2325 02ff 6576656E 		.ascii	"eventmask_t\000"
 2325      746D6173 
 2325      6B5F7400 
 2326              	.LASF123:
 2327 030b 50474461 		.ascii	"PGData\000"
 2327      746100
 2328              	.LASF158:
 2329 0312 77726974 		.ascii	"write\000"
 2329      6500
 2330              	.LASF93:
 2331 0318 424C4B5F 		.ascii	"BLK_READING\000"
 2331      52454144 
 2331      494E4700 
 2332              	.LASF78:
 2333 0324 49325350 		.ascii	"I2SPR\000"
 2333      5200
 2334              	.LASF52:
 2335 032a 73697A65 		.ascii	"sizetype\000"
 2335      74797065 
 2335      00
 2336              	.LASF100:
 2337 0333 636C6561 		.ascii	"clear\000"
 2337      7200
 2338              	.LASF53:
 2339 0339 4D757465 		.ascii	"Mutex\000"
 2339      7800
 2340              	.LASF33:
 2341 033f 705F6F6C 		.ascii	"p_older\000"
 2341      64657200 
 2342              	.LASF95:
ARM GAS  /var/folders/4k/6h5l9jl178sb4hslwv3xp1mr0000gn/T//ccSshiDb.s 			page 45


 2343 0347 424C4B5F 		.ascii	"BLK_SYNCING\000"
 2343      53594E43 
 2343      494E4700 
 2344              	.LASF92:
 2345 0353 424C4B5F 		.ascii	"BLK_READY\000"
 2345      52454144 
 2345      5900
 2346              	.LASF47:
 2347 035d 54687265 		.ascii	"ThreadsQueue\000"
 2347      61647351 
 2347      75657565 
 2347      00
 2348              	.LASF142:
 2349 036a 7478646D 		.ascii	"txdmamode\000"
 2349      616D6F64 
 2349      6500
 2350              	.LASF115:
 2351 0374 61667268 		.ascii	"afrh\000"
 2351      00
 2352              	.LASF120:
 2353 0379 50444461 		.ascii	"PDData\000"
 2353      746100
 2354              	.LASF108:
 2355 0380 41465248 		.ascii	"AFRH\000"
 2355      00
 2356              	.LASF151:
 2357 0385 4D4D4343 		.ascii	"MMCConfig\000"
 2357      6F6E6669 
 2357      6700
 2358              	.LASF107:
 2359 038f 4146524C 		.ascii	"AFRL\000"
 2359      00
 2360              	.LASF74:
 2361 0394 54584352 		.ascii	"TXCRCR\000"
 2361      435200
 2362              	.LASF66:
 2363 039b 52455345 		.ascii	"RESERVED0\000"
 2363      52564544 
 2363      3000
 2364              	.LASF67:
 2365 03a5 52455345 		.ascii	"RESERVED1\000"
 2365      52564544 
 2365      3100
 2366              	.LASF68:
 2367 03af 52455345 		.ascii	"RESERVED2\000"
 2367      52564544 
 2367      3200
 2368              	.LASF69:
 2369 03b9 52455345 		.ascii	"RESERVED3\000"
 2369      52564544 
 2369      3300
 2370              	.LASF71:
 2371 03c3 52455345 		.ascii	"RESERVED4\000"
 2371      52564544 
 2371      3400
 2372              	.LASF29:
 2373 03cd 705F7072 		.ascii	"p_prev\000"
ARM GAS  /var/folders/4k/6h5l9jl178sb4hslwv3xp1mr0000gn/T//ccSshiDb.s 			page 46


 2373      657600
 2374              	.LASF75:
 2375 03d4 52455345 		.ascii	"RESERVED6\000"
 2375      52564544 
 2375      3600
 2376              	.LASF77:
 2377 03de 52455345 		.ascii	"RESERVED7\000"
 2377      52564544 
 2377      3700
 2378              	.LASF79:
 2379 03e8 52455345 		.ascii	"RESERVED8\000"
 2379      52564544 
 2379      3800
 2380              	.LASF23:
 2381 03f2 74707269 		.ascii	"tprio_t\000"
 2381      6F5F7400 
 2382              	.LASF138:
 2383 03fa 6D757465 		.ascii	"mutex\000"
 2383      7800
 2384              	.LASF18:
 2385 0400 5F426F6F 		.ascii	"_Bool\000"
 2385      6C00
 2386              	.LASF15:
 2387 0406 696E7433 		.ascii	"int32_t\000"
 2387      325F7400 
 2388              	.LASF2:
 2389 040e 756E7369 		.ascii	"unsigned char\000"
 2389      676E6564 
 2389      20636861 
 2389      7200
 2390              	.LASF86:
 2391 041c 73746D33 		.ascii	"stm32_dma_stream_t\000"
 2391      325F646D 
 2391      615F7374 
 2391      7265616D 
 2391      5F7400
 2392              	.LASF169:
 2393 042f 474E5520 		.ascii	"GNU C 4.8.3 20140228 (release) [ARM/embedded-4_8-br"
 2393      4320342E 
 2393      382E3320 
 2393      32303134 
 2393      30323238 
 2394 0462 616E6368 		.ascii	"anch revision 208322] -mcpu=cortex-m4 -mno-thumb-in"
 2394      20726576 
 2394      6973696F 
 2394      6E203230 
 2394      38333232 
 2395 0495 74657277 		.ascii	"terwork -mthumb -ggdb -O2 -fomit-frame-pointer -fal"
 2395      6F726B20 
 2395      2D6D7468 
 2395      756D6220 
 2395      2D676764 
 2396 04c8 69676E2D 		.ascii	"ign-functions=16 -ffunction-sections -fdata-section"
 2396      66756E63 
 2396      74696F6E 
 2396      733D3136 
 2396      202D6666 
ARM GAS  /var/folders/4k/6h5l9jl178sb4hslwv3xp1mr0000gn/T//ccSshiDb.s 			page 47


 2397 04fb 73202D66 		.ascii	"s -fno-common\000"
 2397      6E6F2D63 
 2397      6F6D6D6F 
 2397      6E00
 2398              	.LASF114:
 2399 0509 6166726C 		.ascii	"afrl\000"
 2399      00
 2400              	.LASF44:
 2401 050e 705F6D74 		.ascii	"p_mtxlist\000"
 2401      786C6973 
 2401      7400
 2402              	.LASF3:
 2403 0518 73686F72 		.ascii	"short int\000"
 2403      7420696E 
 2403      7400
 2404              	.LASF35:
 2405 0522 705F7374 		.ascii	"p_state\000"
 2405      61746500 
 2406              	.LASF94:
 2407 052a 424C4B5F 		.ascii	"BLK_WRITING\000"
 2407      57524954 
 2407      494E4700 
 2408              	.LASF38:
 2409 0536 705F7072 		.ascii	"p_preempt\000"
 2409      65656D70 
 2409      7400
 2410              	.LASF164:
 2411 0540 6D6D635F 		.ascii	"mmc_lld_is_card_inserted\000"
 2411      6C6C645F 
 2411      69735F63 
 2411      6172645F 
 2411      696E7365 
 2412              	.LASF117:
 2413 0559 50414461 		.ascii	"PAData\000"
 2413      746100
 2414              	.LASF60:
 2415 0560 65776D61 		.ascii	"ewmask\000"
 2415      736B00
 2416              	.LASF28:
 2417 0567 705F6E65 		.ascii	"p_next\000"
 2417      787400
 2418              	.LASF36:
 2419 056e 705F666C 		.ascii	"p_flags\000"
 2419      61677300 
 2420              	.LASF125:
 2421 0576 50494461 		.ascii	"PIData\000"
 2421      746100
 2422              	.LASF171:
 2423 057d 2F557365 		.ascii	"/Users/mikevanis/Documents/workspace/STM32_DCMI_CAM"
 2423      72732F6D 
 2423      696B6576 
 2423      616E6973 
 2423      2F446F63 
 2424 05b0 4552412F 		.ascii	"ERA/\000"
 2424      00
 2425              	.LASF155:
 2426 05b5 636F6E6E 		.ascii	"connect\000"
ARM GAS  /var/folders/4k/6h5l9jl178sb4hslwv3xp1mr0000gn/T//ccSshiDb.s 			page 48


 2426      65637400 
 2427              	.LASF43:
 2428 05bd 705F6570 		.ascii	"p_epending\000"
 2428      656E6469 
 2428      6E6700
 2429              	.LASF82:
 2430 05c8 69666372 		.ascii	"ifcr\000"
 2430      00
 2431              	.LASF73:
 2432 05cd 52455345 		.ascii	"RESERVED5\000"
 2432      52564544 
 2432      3500
 2433              	.LASF16:
 2434 05d7 75696E74 		.ascii	"uint32_t\000"
 2434      33325F74 
 2434      00
 2435              	.LASF21:
 2436 05e0 74726566 		.ascii	"trefs_t\000"
 2436      735F7400 
 2437              	.LASF166:
 2438 05e8 6D6D6370 		.ascii	"mmcp\000"
 2438      00
 2439              	.LASF10:
 2440 05ed 6C6F6E67 		.ascii	"long unsigned int\000"
 2440      20756E73 
 2440      69676E65 
 2440      6420696E 
 2440      7400
 2441              	.LASF80:
 2442 05ff 5350495F 		.ascii	"SPI_TypeDef\000"
 2442      54797065 
 2442      44656600 
 2443              	.LASF157:
 2444 060b 72656164 		.ascii	"read\000"
 2444      00
 2445              	.LASF61:
 2446 0610 63686172 		.ascii	"char\000"
 2446      00
 2447              	.LASF132:
 2448 0615 5350495F 		.ascii	"SPI_COMPLETE\000"
 2448      434F4D50 
 2448      4C455445 
 2448      00
 2449              	.LASF91:
 2450 0622 424C4B5F 		.ascii	"BLK_DISCONNECTING\000"
 2450      44495343 
 2450      4F4E4E45 
 2450      4354494E 
 2450      4700
 2451              	.LASF136:
 2452 0634 636F6E66 		.ascii	"config\000"
 2452      696700
 2453              	.LASF5:
 2454 063b 5F5F7569 		.ascii	"__uint16_t\000"
 2454      6E743136 
 2454      5F7400
 2455              	.LASF133:
ARM GAS  /var/folders/4k/6h5l9jl178sb4hslwv3xp1mr0000gn/T//ccSshiDb.s 			page 49


 2456 0646 73706973 		.ascii	"spistate_t\000"
 2456      74617465 
 2456      5F7400
 2457              	.LASF56:
 2458 0651 6D5F6E65 		.ascii	"m_next\000"
 2458      787400
 2459              	.LASF26:
 2460 0658 73797374 		.ascii	"systime_t\000"
 2460      696D655F 
 2460      7400
 2461              	.LASF45:
 2462 0662 705F7265 		.ascii	"p_realprio\000"
 2462      616C7072 
 2462      696F00
 2463              	.LASF7:
 2464 066d 5F5F696E 		.ascii	"__int32_t\000"
 2464      7433325F 
 2464      7400
 2465              	.LASF62:
 2466 0677 4E445452 		.ascii	"NDTR\000"
 2466      00
 2467              	.LASF65:
 2468 067c 444D415F 		.ascii	"DMA_Stream_TypeDef\000"
 2468      53747265 
 2468      616D5F54 
 2468      79706544 
 2468      656600
 2469              	.LASF127:
 2470 068f 696F706F 		.ascii	"ioportid_t\000"
 2470      72746964 
 2470      5F7400
 2471              	.LASF51:
 2472 069a 636F6E74 		.ascii	"context\000"
 2472      65787400 
 2473              	.LASF50:
 2474 06a2 696E7463 		.ascii	"intctx\000"
 2474      747800
 2475              	.LASF153:
 2476 06a9 69735F69 		.ascii	"is_inserted\000"
 2476      6E736572 
 2476      74656400 
 2477              	.LASF64:
 2478 06b5 4D314152 		.ascii	"M1AR\000"
 2478      00
 2479              	.LASF128:
 2480 06ba 5350495F 		.ascii	"SPI_UNINIT\000"
 2480      554E494E 
 2480      495400
 2481              	.LASF163:
 2482 06c5 4D4D4344 		.ascii	"MMCDriver\000"
 2482      72697665 
 2482      7200
 2483              	.LASF37:
 2484 06cf 705F7265 		.ascii	"p_refs\000"
 2484      667300
 2485              	.LASF105:
 2486 06d6 42535252 		.ascii	"BSRR\000"
ARM GAS  /var/folders/4k/6h5l9jl178sb4hslwv3xp1mr0000gn/T//ccSshiDb.s 			page 50


 2486      00
 2487              	.LASF170:
 2488 06db 2E2E2F43 		.ascii	"../ChibiStudio/ChibiOS/boards/ST_STM32F4_DISCOVERY/"
 2488      68696269 
 2488      53747564 
 2488      696F2F43 
 2488      68696269 
 2489 070e 626F6172 		.ascii	"board.c\000"
 2489      642E6300 
 2490              	.LASF150:
 2491 0716 68736366 		.ascii	"hscfg\000"
 2491      6700
 2492              	.LASF27:
 2493 071c 54687265 		.ascii	"Thread\000"
 2493      616400
 2494              	.LASF173:
 2495 0723 626F6172 		.ascii	"boardInit\000"
 2495      64496E69 
 2495      7400
 2496              	.LASF13:
 2497 072d 75696E74 		.ascii	"uint8_t\000"
 2497      385F7400 
 2498              	.LASF113:
 2499 0735 70757064 		.ascii	"pupdr\000"
 2499      7200
 2500              	.LASF159:
 2501 073b 73796E63 		.ascii	"sync\000"
 2501      00
 2502              	.LASF59:
 2503 0740 77746F62 		.ascii	"wtobjp\000"
 2503      6A7000
 2504              	.LASF34:
 2505 0747 705F6E61 		.ascii	"p_name\000"
 2505      6D6500
 2506              	.LASF119:
 2507 074e 50434461 		.ascii	"PCData\000"
 2507      746100
 2508              	.LASF147:
 2509 0755 53504943 		.ascii	"SPIConfig\000"
 2509      6F6E6669 
 2509      6700
 2510              	.LASF42:
 2511 075f 705F6D73 		.ascii	"p_msg\000"
 2511      6700
 2512              	.LASF126:
 2513 0765 50414C43 		.ascii	"PALConfig\000"
 2513      6F6E6669 
 2513      6700
 2514              	.LASF55:
 2515 076f 6D5F6F77 		.ascii	"m_owner\000"
 2515      6E657200 
 2516              	.LASF168:
 2517 0777 70616C5F 		.ascii	"pal_default_config\000"
 2517      64656661 
 2517      756C745F 
 2517      636F6E66 
 2517      696700
ARM GAS  /var/folders/4k/6h5l9jl178sb4hslwv3xp1mr0000gn/T//ccSshiDb.s 			page 51


 2518              	.LASF31:
 2519 078a 705F6374 		.ascii	"p_ctx\000"
 2519      7800
 2520              	.LASF40:
 2521 0790 705F7761 		.ascii	"p_waiting\000"
 2521      6974696E 
 2521      6700
 2522              		.ident	"GCC: (GNU Tools for ARM Embedded Processors) 4.8.3 20140228 (release) [ARM/embedded-4_8-br
ARM GAS  /var/folders/4k/6h5l9jl178sb4hslwv3xp1mr0000gn/T//ccSshiDb.s 			page 52


DEFINED SYMBOLS
                            *ABS*:0000000000000000 board.c
/var/folders/4k/6h5l9jl178sb4hslwv3xp1mr0000gn/T//ccSshiDb.s:19     .text.__early_init:0000000000000000 $t
/var/folders/4k/6h5l9jl178sb4hslwv3xp1mr0000gn/T//ccSshiDb.s:25     .text.__early_init:0000000000000000 __early_init
/var/folders/4k/6h5l9jl178sb4hslwv3xp1mr0000gn/T//ccSshiDb.s:40     .text.mmc_lld_is_card_inserted:0000000000000000 $t
/var/folders/4k/6h5l9jl178sb4hslwv3xp1mr0000gn/T//ccSshiDb.s:46     .text.mmc_lld_is_card_inserted:0000000000000000 mmc_lld_is_card_inserted
/var/folders/4k/6h5l9jl178sb4hslwv3xp1mr0000gn/T//ccSshiDb.s:62     .text.mmc_lld_is_write_protected:0000000000000000 $t
/var/folders/4k/6h5l9jl178sb4hslwv3xp1mr0000gn/T//ccSshiDb.s:68     .text.mmc_lld_is_write_protected:0000000000000000 mmc_lld_is_write_protected
/var/folders/4k/6h5l9jl178sb4hslwv3xp1mr0000gn/T//ccSshiDb.s:84     .text.boardInit:0000000000000000 $t
/var/folders/4k/6h5l9jl178sb4hslwv3xp1mr0000gn/T//ccSshiDb.s:90     .text.boardInit:0000000000000000 boardInit
/var/folders/4k/6h5l9jl178sb4hslwv3xp1mr0000gn/T//ccSshiDb.s:106    .rodata.pal_default_config:0000000000000000 pal_default_config
/var/folders/4k/6h5l9jl178sb4hslwv3xp1mr0000gn/T//ccSshiDb.s:103    .rodata.pal_default_config:0000000000000000 $d
                     .debug_frame:0000000000000010 $d

UNDEFINED SYMBOLS
stm32_clock_init
