ARM GAS  /var/folders/4k/6h5l9jl178sb4hslwv3xp1mr0000gn/T//ccSshiDb.s 			page 1


   1              		.syntax unified
   2              		.cpu cortex-m4
   3              		.fpu softvfp
   4              		.eabi_attribute 20, 1
   5              		.eabi_attribute 21, 1
   6              		.eabi_attribute 23, 3
   7              		.eabi_attribute 24, 1
   8              		.eabi_attribute 25, 1
   9              		.eabi_attribute 26, 1
  10              		.eabi_attribute 30, 2
  11              		.eabi_attribute 34, 1
  12              		.eabi_attribute 18, 4
  13              		.thumb
  14              		.file	"board.c"
  15              		.text
  16              	.Ltext0:
  17              		.cfi_sections	.debug_frame
  18              		.section	.text.__early_init,"ax",%progbits
  19              		.align	2
  20              		.p2align 4,,15
  21              		.global	__early_init
  22              		.thumb
  23              		.thumb_func
  24              		.type	__early_init, %function
  25              	__early_init:
  26              	.LFB118:
  27              		.file 1 "../ChibiStudio/ChibiOS/boards/ST_STM32F4_DISCOVERY/board.c"
  28              		.loc 1 54 0
  29              		.cfi_startproc
  30              		@ args = 0, pretend = 0, frame = 0
  31              		@ frame_needed = 0, uses_anonymous_args = 0
  32              		@ link register save eliminated.
  33              		.loc 1 56 0
  34 0000 FFF7FEBF 		b	stm32_clock_init
  35              	.LVL0:
  36              		.cfi_endproc
  37              	.LFE118:
  38              		.size	__early_init, .-__early_init
  39 0004 AFF30080 		.section	.text.mmc_lld_is_card_inserted,"ax",%progbits
  39      AFF30080 
  39      AFF30080 
  40              		.align	2
  41              		.p2align 4,,15
  42              		.global	mmc_lld_is_card_inserted
  43              		.thumb
  44              		.thumb_func
  45              		.type	mmc_lld_is_card_inserted, %function
  46              	mmc_lld_is_card_inserted:
  47              	.LFB119:
  48              		.loc 1 85 0
  49              		.cfi_startproc
  50              		@ args = 0, pretend = 0, frame = 0
  51              		@ frame_needed = 0, uses_anonymous_args = 0
  52              		@ link register save eliminated.
  53              	.LVL1:
  54              		.loc 1 90 0
  55 0000 0120     		movs	r0, #1
ARM GAS  /var/folders/4k/6h5l9jl178sb4hslwv3xp1mr0000gn/T//ccSshiDb.s 			page 2


  56              	.LVL2:
  57 0002 7047     		bx	lr
  58              		.cfi_endproc
  59              	.LFE119:
  60              		.size	mmc_lld_is_card_inserted, .-mmc_lld_is_card_inserted
  61 0004 AFF30080 		.section	.text.mmc_lld_is_write_protected,"ax",%progbits
  61      AFF30080 
  61      AFF30080 
  62              		.align	2
  63              		.p2align 4,,15
  64              		.global	mmc_lld_is_write_protected
  65              		.thumb
  66              		.thumb_func
  67              		.type	mmc_lld_is_write_protected, %function
  68              	mmc_lld_is_write_protected:
  69              	.LFB120:
  70              		.loc 1 95 0
  71              		.cfi_startproc
  72              		@ args = 0, pretend = 0, frame = 0
  73              		@ frame_needed = 0, uses_anonymous_args = 0
  74              		@ link register save eliminated.
  75              	.LVL3:
  76              		.loc 1 100 0
  77 0000 0020     		movs	r0, #0
  78              	.LVL4:
  79 0002 7047     		bx	lr
  80              		.cfi_endproc
  81              	.LFE120:
  82              		.size	mmc_lld_is_write_protected, .-mmc_lld_is_write_protected
  83 0004 AFF30080 		.section	.text.boardInit,"ax",%progbits
  83      AFF30080 
  83      AFF30080 
  84              		.align	2
  85              		.p2align 4,,15
  86              		.global	boardInit
  87              		.thumb
  88              		.thumb_func
  89              		.type	boardInit, %function
  90              	boardInit:
  91              	.LFB121:
  92              		.loc 1 107 0
  93              		.cfi_startproc
  94              		@ args = 0, pretend = 0, frame = 0
  95              		@ frame_needed = 0, uses_anonymous_args = 0
  96              		@ link register save eliminated.
  97 0000 7047     		bx	lr
  98              		.cfi_endproc
  99              	.LFE121:
 100              		.size	boardInit, .-boardInit
 101              		.global	pal_default_config
 102 0002 00BFAFF3 		.section	.rodata.pal_default_config,"a",%progbits
 102      0080AFF3 
 102      0080AFF3 
 102      0080
 103              		.align	2
 104              		.type	pal_default_config, %object
 105              		.size	pal_default_config, 252
ARM GAS  /var/folders/4k/6h5l9jl178sb4hslwv3xp1mr0000gn/T//ccSshiDb.s 			page 3


 106              	pal_default_config:
 107 0000 00AAA02A 		.word	715172352
 108 0004 00000000 		.word	0
 109 0008 FFABFFFF 		.word	-21505
 110 000c 54000140 		.word	1073807444
 111 0010 FFFF0000 		.word	65535
 112 0014 00005655 		.word	1431699456
 113 0018 00AA0A00 		.word	698880
 114 001c 80200800 		.word	532608
 115 0020 40020000 		.word	576
 116 0024 FFFFFFFF 		.word	-1
 117 0028 15455155 		.word	1431389461
 118 002c FFFF0000 		.word	65535
 119 0030 00000004 		.word	67108864
 120 0034 40000000 		.word	64
 121 0038 01802002 		.word	35684353
 122 003c 00000000 		.word	0
 123 0040 FFFFFFFF 		.word	-1
 124 0044 54154554 		.word	1413813588
 125 0048 FFFF0000 		.word	65535
 126 004c 00000060 		.word	1610612736
 127 0050 00060600 		.word	394752
 128 0054 00010055 		.word	1426063616
 129 0058 00000000 		.word	0
 130 005c FFFFFFFF 		.word	-1
 131 0060 55505500 		.word	5591125
 132 0064 FF0F0000 		.word	4095
 133 0068 00000000 		.word	0
 134 006c 00000000 		.word	0
 135 0070 40000000 		.word	64
 136 0074 00000000 		.word	0
 137 0078 FFFFFFFF 		.word	-1
 138 007c 00000000 		.word	0
 139 0080 FFFF0000 		.word	65535
 140 0084 00000000 		.word	0
 141 0088 00000000 		.word	0
 142 008c 00000000 		.word	0
 143 0090 00000000 		.word	0
 144 0094 FFFFFFFF 		.word	-1
 145 0098 00000000 		.word	0
 146 009c FFFF0000 		.word	65535
 147 00a0 00000000 		.word	0
 148 00a4 00000000 		.word	0
 149 00a8 00000000 		.word	0
 150 00ac 00000000 		.word	0
 151 00b0 FFFFFFFF 		.word	-1
 152 00b4 00000000 		.word	0
 153 00b8 FFFF0000 		.word	65535
 154 00bc 00000000 		.word	0
 155 00c0 00000000 		.word	0
 156 00c4 00000000 		.word	0
 157 00c8 00000000 		.word	0
 158 00cc FFFFFFFF 		.word	-1
 159 00d0 00000000 		.word	0
 160 00d4 FFFF0000 		.word	65535
 161 00d8 00000000 		.word	0
 162 00dc 00000000 		.word	0
ARM GAS  /var/folders/4k/6h5l9jl178sb4hslwv3xp1mr0000gn/T//ccSshiDb.s 			page 4


 163 00e0 00000000 		.word	0
 164 00e4 00000000 		.word	0
 165 00e8 FFFFFFFF 		.word	-1
 166 00ec 00000000 		.word	0
 167 00f0 FFFF0000 		.word	65535
 168 00f4 00000000 		.word	0
 169 00f8 00000000 		.word	0
 170              		.text
 171              	.Letext0:
 172              		.file 2 "/Users/mikevanis/Documents/workspace/gcc-arm-none-eabi-4_8-2014q1/arm-none-eabi/include/m
 173              		.file 3 "/Users/mikevanis/Documents/workspace/gcc-arm-none-eabi-4_8-2014q1/arm-none-eabi/include/s
 174              		.file 4 "../ChibiStudio/ChibiOS/os/ports/GCC/ARMCMx/chtypes.h"
 175              		.file 5 "../ChibiStudio/ChibiOS/os/kernel/include/chlists.h"
 176              		.file 6 "../ChibiStudio/ChibiOS/os/kernel/include/chthreads.h"
 177              		.file 7 "../ChibiStudio/ChibiOS/os/ports/GCC/ARMCMx/chcore_v7m.h"
 178              		.file 8 "../ChibiStudio/ChibiOS/os/kernel/include/chmtx.h"
 179              		.file 9 "../ChibiStudio/ChibiOS/os/hal/platforms/STM32F4xx/stm32f4xx.h"
 180              		.file 10 "../ChibiStudio/ChibiOS/os/hal/platforms/STM32F4xx/stm32_dma.h"
 181              		.file 11 "../ChibiStudio/ChibiOS/os/hal/include/io_block.h"
 182              		.file 12 "../ChibiStudio/ChibiOS/os/hal/platforms/STM32/GPIOv2/pal_lld.h"
 183              		.file 13 "../ChibiStudio/ChibiOS/os/hal/include/spi.h"
 184              		.file 14 "../ChibiStudio/ChibiOS/os/hal/platforms/STM32/SPIv1/spi_lld.h"
 185              		.file 15 "../ChibiStudio/ChibiOS/os/hal/include/mmc_spi.h"
 186              		.file 16 "../ChibiStudio/ChibiOS/os/ports/common/ARMCMx/CMSIS/include/core_cm4.h"
 187              		.file 17 "../ChibiStudio/ChibiOS/os/hal/platforms/STM32F4xx/hal_lld.h"