ARM GAS  /var/folders/4k/6h5l9jl178sb4hslwv3xp1mr0000gn/T//cceTuOpN.s 			page 1


   1              		.syntax unified
   2              		.cpu cortex-m4
   3              		.fpu softvfp
   4              		.eabi_attribute 20, 1
   5              		.eabi_attribute 21, 1
   6              		.eabi_attribute 23, 3
   7              		.eabi_attribute 24, 1
   8              		.eabi_attribute 25, 1
   9              		.eabi_attribute 26, 1
  10              		.eabi_attribute 30, 2
  11              		.eabi_attribute 34, 1
  12              		.eabi_attribute 18, 4
  13              		.thumb
  14              		.file	"chcond.c"
  15              		.text
  16              	.Ltext0:
  17              		.cfi_sections	.debug_frame
  18              		.section	.text.chCondInit,"ax",%progbits
  19              		.align	2
  20              		.p2align 4,,15
  21              		.global	chCondInit
  22              		.thumb
  23              		.thumb_func
  24              		.type	chCondInit, %function
  25              	chCondInit:
  26              	.LFB7:
  27              		.file 1 "../ChibiStudio/ChibiOS/os/kernel/src/chcond.c"
  28              		.loc 1 59 0
  29              		.cfi_startproc
  30              		@ args = 0, pretend = 0, frame = 0
  31              		@ frame_needed = 0, uses_anonymous_args = 0
  32              		@ link register save eliminated.
  33              	.LVL0:
  34              		.loc 1 63 0
  35 0000 4060     		str	r0, [r0, #4]
  36 0002 0060     		str	r0, [r0]
  37 0004 7047     		bx	lr
  38              		.cfi_endproc
  39              	.LFE7:
  40              		.size	chCondInit, .-chCondInit
  41 0006 00BFAFF3 		.section	.text.chCondSignal,"ax",%progbits
  41      0080AFF3 
  41      0080
  42              		.align	2
  43              		.p2align 4,,15
  44              		.global	chCondSignal
  45              		.thumb
  46              		.thumb_func
  47              		.type	chCondSignal, %function
  48              	chCondSignal:
  49              	.LFB8:
  50              		.loc 1 73 0
  51              		.cfi_startproc
  52              		@ args = 0, pretend = 0, frame = 0
  53              		@ frame_needed = 0, uses_anonymous_args = 0
  54              	.LVL1:
  55 0000 08B5     		push	{r3, lr}
ARM GAS  /var/folders/4k/6h5l9jl178sb4hslwv3xp1mr0000gn/T//cceTuOpN.s 			page 2


  56              		.cfi_def_cfa_offset 8
  57              		.cfi_offset 3, -8
  58              		.cfi_offset 14, -4
  59              		.loc 1 73 0
  60 0002 0246     		mov	r2, r0
  61              	.LBB14:
  62              		.loc 1 77 0
  63 0004 2023     		movs	r3, #32
  64              	@ 77 "../ChibiStudio/ChibiOS/os/kernel/src/chcond.c" 1
  65 0006 83F31188 		msr     BASEPRI, r3
  66              	@ 0 "" 2
  67              		.thumb
  68              	.LBE14:
  69              		.loc 1 78 0
  70 000a 0068     		ldr	r0, [r0]
  71              	.LVL2:
  72 000c 9042     		cmp	r0, r2
  73 000e 05D0     		beq	.L3
  74              	.LVL3:
  75              	.LBB15:
  76              	.LBB16:
  77              		.file 2 "../ChibiStudio/ChibiOS/os/kernel/include/chinline.h"
  78              		.loc 2 62 0
  79 0010 0368     		ldr	r3, [r0]
  80 0012 1360     		str	r3, [r2]
  81              	.LBE16:
  82              	.LBE15:
  83              		.loc 1 79 0
  84 0014 0021     		movs	r1, #0
  85              	.LBB18:
  86              	.LBB17:
  87              		.loc 2 62 0
  88 0016 5A60     		str	r2, [r3, #4]
  89              	.LBE17:
  90              	.LBE18:
  91              		.loc 1 79 0
  92 0018 FFF7FEFF 		bl	chSchWakeupS
  93              	.LVL4:
  94              	.L3:
  95              	.LBB19:
  96              		.loc 1 80 0
  97 001c 0023     		movs	r3, #0
  98              	@ 80 "../ChibiStudio/ChibiOS/os/kernel/src/chcond.c" 1
  99 001e 83F31188 		msr     BASEPRI, r3
 100              	@ 0 "" 2
 101              		.thumb
 102 0022 08BD     		pop	{r3, pc}
 103              	.LBE19:
 104              		.cfi_endproc
 105              	.LFE8:
 106              		.size	chCondSignal, .-chCondSignal
 107 0024 AFF30080 		.section	.text.chCondSignalI,"ax",%progbits
 107      AFF30080 
 107      AFF30080 
 108              		.align	2
 109              		.p2align 4,,15
 110              		.global	chCondSignalI
ARM GAS  /var/folders/4k/6h5l9jl178sb4hslwv3xp1mr0000gn/T//cceTuOpN.s 			page 3


 111              		.thumb
 112              		.thumb_func
 113              		.type	chCondSignalI, %function
 114              	chCondSignalI:
 115              	.LFB9:
 116              		.loc 1 94 0
 117              		.cfi_startproc
 118              		@ args = 0, pretend = 0, frame = 0
 119              		@ frame_needed = 0, uses_anonymous_args = 0
 120              	.LVL5:
 121 0000 08B5     		push	{r3, lr}
 122              		.cfi_def_cfa_offset 8
 123              		.cfi_offset 3, -8
 124              		.cfi_offset 14, -4
 125              		.loc 1 94 0
 126 0002 0346     		mov	r3, r0
 127              		.loc 1 99 0
 128 0004 0068     		ldr	r0, [r0]
 129              	.LVL6:
 130 0006 9842     		cmp	r0, r3
 131 0008 06D0     		beq	.L5
 132              	.LVL7:
 133              	.LBB20:
 134              	.LBB21:
 135              		.loc 2 62 0
 136 000a 0268     		ldr	r2, [r0]
 137 000c 1A60     		str	r2, [r3]
 138 000e 5360     		str	r3, [r2, #4]
 139              	.LBE21:
 140              	.LBE20:
 141              		.loc 1 100 0
 142 0010 FFF7FEFF 		bl	chSchReadyI
 143              	.LVL8:
 144 0014 0023     		movs	r3, #0
 145 0016 4362     		str	r3, [r0, #36]
 146              	.LVL9:
 147              	.L5:
 148 0018 08BD     		pop	{r3, pc}
 149              		.cfi_endproc
 150              	.LFE9:
 151              		.size	chCondSignalI, .-chCondSignalI
 152 001a 00BFAFF3 		.section	.text.chCondBroadcastI,"ax",%progbits
 152      0080
 153              		.align	2
 154              		.p2align 4,,15
 155              		.global	chCondBroadcastI
 156              		.thumb
 157              		.thumb_func
 158              		.type	chCondBroadcastI, %function
 159              	chCondBroadcastI:
 160              	.LFB11:
 161              		.loc 1 129 0
 162              		.cfi_startproc
 163              		@ args = 0, pretend = 0, frame = 0
 164              		@ frame_needed = 0, uses_anonymous_args = 0
 165              	.LVL10:
 166 0000 38B5     		push	{r3, r4, r5, lr}
ARM GAS  /var/folders/4k/6h5l9jl178sb4hslwv3xp1mr0000gn/T//cceTuOpN.s 			page 4


 167              		.cfi_def_cfa_offset 16
 168              		.cfi_offset 3, -16
 169              		.cfi_offset 4, -12
 170              		.cfi_offset 5, -8
 171              		.cfi_offset 14, -4
 172              		.loc 1 129 0
 173 0002 0446     		mov	r4, r0
 174              		.loc 1 137 0
 175 0004 0068     		ldr	r0, [r0]
 176              	.LVL11:
 177 0006 A042     		cmp	r0, r4
 178 0008 0AD0     		beq	.L7
 179              		.loc 1 138 0
 180 000a 6FF00105 		mvn	r5, #1
 181              	.L10:
 182              	.LVL12:
 183              	.LBB22:
 184              	.LBB23:
 185              		.loc 2 62 0
 186 000e 0368     		ldr	r3, [r0]
 187 0010 2360     		str	r3, [r4]
 188 0012 5C60     		str	r4, [r3, #4]
 189              	.LBE23:
 190              	.LBE22:
 191              		.loc 1 138 0
 192 0014 FFF7FEFF 		bl	chSchReadyI
 193              	.LVL13:
 194 0018 4562     		str	r5, [r0, #36]
 195              		.loc 1 137 0
 196 001a 2068     		ldr	r0, [r4]
 197 001c A042     		cmp	r0, r4
 198 001e F6D1     		bne	.L10
 199              	.LVL14:
 200              	.L7:
 201 0020 38BD     		pop	{r3, r4, r5, pc}
 202              		.cfi_endproc
 203              	.LFE11:
 204              		.size	chCondBroadcastI, .-chCondBroadcastI
 205 0022 00BFAFF3 		.section	.text.chCondBroadcast,"ax",%progbits
 205      0080AFF3 
 205      0080AFF3 
 205      0080
 206              		.align	2
 207              		.p2align 4,,15
 208              		.global	chCondBroadcast
 209              		.thumb
 210              		.thumb_func
 211              		.type	chCondBroadcast, %function
 212              	chCondBroadcast:
 213              	.LFB10:
 214              		.loc 1 110 0
 215              		.cfi_startproc
 216              		@ args = 0, pretend = 0, frame = 0
 217              		@ frame_needed = 0, uses_anonymous_args = 0
 218              	.LVL15:
 219 0000 08B5     		push	{r3, lr}
 220              		.cfi_def_cfa_offset 8
ARM GAS  /var/folders/4k/6h5l9jl178sb4hslwv3xp1mr0000gn/T//cceTuOpN.s 			page 5


 221              		.cfi_offset 3, -8
 222              		.cfi_offset 14, -4
 223              	.LBB24:
 224              		.loc 1 112 0
 225 0002 2023     		movs	r3, #32
 226              	@ 112 "../ChibiStudio/ChibiOS/os/kernel/src/chcond.c" 1
 227 0004 83F31188 		msr     BASEPRI, r3
 228              	@ 0 "" 2
 229              		.thumb
 230              	.LBE24:
 231              		.loc 1 113 0
 232 0008 FFF7FEFF 		bl	chCondBroadcastI
 233              	.LVL16:
 234              		.loc 1 114 0
 235 000c FFF7FEFF 		bl	chSchRescheduleS
 236              	.LVL17:
 237              	.LBB25:
 238              		.loc 1 115 0
 239 0010 0023     		movs	r3, #0
 240              	@ 115 "../ChibiStudio/ChibiOS/os/kernel/src/chcond.c" 1
 241 0012 83F31188 		msr     BASEPRI, r3
 242              	@ 0 "" 2
 243              		.thumb
 244 0016 08BD     		pop	{r3, pc}
 245              	.LBE25:
 246              		.cfi_endproc
 247              	.LFE10:
 248              		.size	chCondBroadcast, .-chCondBroadcast
 249 0018 AFF30080 		.section	.text.chCondWaitS,"ax",%progbits
 249      AFF30080 
 250              		.align	2
 251              		.p2align 4,,15
 252              		.global	chCondWaitS
 253              		.thumb
 254              		.thumb_func
 255              		.type	chCondWaitS, %function
 256              	chCondWaitS:
 257              	.LFB13:
 258              		.loc 1 184 0
 259              		.cfi_startproc
 260              		@ args = 0, pretend = 0, frame = 0
 261              		@ frame_needed = 0, uses_anonymous_args = 0
 262              	.LVL18:
 263              		.loc 1 185 0
 264 0000 0F4B     		ldr	r3, .L18
 265              		.loc 1 184 0
 266 0002 70B5     		push	{r4, r5, r6, lr}
 267              		.cfi_def_cfa_offset 16
 268              		.cfi_offset 4, -16
 269              		.cfi_offset 5, -12
 270              		.cfi_offset 6, -8
 271              		.cfi_offset 14, -4
 272              		.loc 1 185 0
 273 0004 9C69     		ldr	r4, [r3, #24]
 274              	.LVL19:
 275              		.loc 1 184 0
 276 0006 0546     		mov	r5, r0
ARM GAS  /var/folders/4k/6h5l9jl178sb4hslwv3xp1mr0000gn/T//cceTuOpN.s 			page 6


 277              		.loc 1 195 0
 278 0008 FFF7FEFF 		bl	chMtxUnlockS
 279              	.LVL20:
 280              		.loc 1 196 0
 281 000c 6562     		str	r5, [r4, #36]
 282              		.loc 1 195 0
 283 000e 0646     		mov	r6, r0
 284              	.LVL21:
 285              	.LBB26:
 286              	.LBB27:
 287              		.loc 2 43 0
 288 0010 2B46     		mov	r3, r5
 289 0012 03E0     		b	.L15
 290              	.LVL22:
 291              	.L17:
 292              		.loc 2 46 0
 293 0014 9968     		ldr	r1, [r3, #8]
 294 0016 A268     		ldr	r2, [r4, #8]
 295 0018 9142     		cmp	r1, r2
 296 001a 02D3     		bcc	.L14
 297              	.L15:
 298              		.loc 2 45 0
 299 001c 1B68     		ldr	r3, [r3]
 300              	.LVL23:
 301              		.loc 2 46 0
 302 001e 9D42     		cmp	r5, r3
 303 0020 F8D1     		bne	.L17
 304              	.L14:
 305              		.loc 2 48 0
 306 0022 5A68     		ldr	r2, [r3, #4]
 307 0024 6260     		str	r2, [r4, #4]
 308              		.loc 2 47 0
 309 0026 2360     		str	r3, [r4]
 310              	.LBE27:
 311              	.LBE26:
 312              		.loc 1 198 0
 313 0028 0520     		movs	r0, #5
 314              	.LVL24:
 315              	.LBB29:
 316              	.LBB28:
 317              		.loc 2 49 0
 318 002a 5C60     		str	r4, [r3, #4]
 319 002c 1460     		str	r4, [r2]
 320              	.LBE28:
 321              	.LBE29:
 322              		.loc 1 198 0
 323 002e FFF7FEFF 		bl	chSchGoSleepS
 324              	.LVL25:
 325              		.loc 1 199 0
 326 0032 646A     		ldr	r4, [r4, #36]
 327              	.LVL26:
 328              		.loc 1 200 0
 329 0034 3046     		mov	r0, r6
 330 0036 FFF7FEFF 		bl	chMtxLockS
 331              	.LVL27:
 332              		.loc 1 202 0
 333 003a 2046     		mov	r0, r4
ARM GAS  /var/folders/4k/6h5l9jl178sb4hslwv3xp1mr0000gn/T//cceTuOpN.s 			page 7


 334 003c 70BD     		pop	{r4, r5, r6, pc}
 335              	.LVL28:
 336              	.L19:
 337 003e 00BF     		.align	2
 338              	.L18:
 339 0040 00000000 		.word	rlist
 340              		.cfi_endproc
 341              	.LFE13:
 342              		.size	chCondWaitS, .-chCondWaitS
 343 0044 AFF30080 		.section	.text.chCondWait,"ax",%progbits
 343      AFF30080 
 343      AFF30080 
 344              		.align	2
 345              		.p2align 4,,15
 346              		.global	chCondWait
 347              		.thumb
 348              		.thumb_func
 349              		.type	chCondWait, %function
 350              	chCondWait:
 351              	.LFB12:
 352              		.loc 1 158 0
 353              		.cfi_startproc
 354              		@ args = 0, pretend = 0, frame = 0
 355              		@ frame_needed = 0, uses_anonymous_args = 0
 356              	.LVL29:
 357 0000 08B5     		push	{r3, lr}
 358              		.cfi_def_cfa_offset 8
 359              		.cfi_offset 3, -8
 360              		.cfi_offset 14, -4
 361              	.LBB30:
 362              		.loc 1 161 0
 363 0002 2023     		movs	r3, #32
 364              	@ 161 "../ChibiStudio/ChibiOS/os/kernel/src/chcond.c" 1
 365 0004 83F31188 		msr     BASEPRI, r3
 366              	@ 0 "" 2
 367              		.thumb
 368              	.LBE30:
 369              		.loc 1 162 0
 370 0008 FFF7FEFF 		bl	chCondWaitS
 371              	.LVL30:
 372              	.LBB31:
 373              		.loc 1 163 0
 374 000c 0023     		movs	r3, #0
 375              	@ 163 "../ChibiStudio/ChibiOS/os/kernel/src/chcond.c" 1
 376 000e 83F31188 		msr     BASEPRI, r3
 377              	@ 0 "" 2
 378              		.thumb
 379              	.LBE31:
 380              		.loc 1 165 0
 381 0012 08BD     		pop	{r3, pc}
 382              		.cfi_endproc
 383              	.LFE12:
 384              		.size	chCondWait, .-chCondWait
 385 0014 AFF30080 		.section	.text.chCondWaitTimeoutS,"ax",%progbits
 385      AFF30080 
 385      AFF30080 
 386              		.align	2
ARM GAS  /var/folders/4k/6h5l9jl178sb4hslwv3xp1mr0000gn/T//cceTuOpN.s 			page 8


 387              		.p2align 4,,15
 388              		.global	chCondWaitTimeoutS
 389              		.thumb
 390              		.thumb_func
 391              		.type	chCondWaitTimeoutS, %function
 392              	chCondWaitTimeoutS:
 393              	.LFB15:
 394              		.loc 1 270 0
 395              		.cfi_startproc
 396              		@ args = 0, pretend = 0, frame = 0
 397              		@ frame_needed = 0, uses_anonymous_args = 0
 398              	.LVL31:
 399 0000 2DE9F041 		push	{r4, r5, r6, r7, r8, lr}
 400              		.cfi_def_cfa_offset 24
 401              		.cfi_offset 4, -24
 402              		.cfi_offset 5, -20
 403              		.cfi_offset 6, -16
 404              		.cfi_offset 7, -12
 405              		.cfi_offset 8, -8
 406              		.cfi_offset 14, -4
 407              		.loc 1 270 0
 408 0004 0646     		mov	r6, r0
 409 0006 8846     		mov	r8, r1
 410              		.loc 1 280 0
 411 0008 FFF7FEFF 		bl	chMtxUnlockS
 412              	.LVL32:
 413              		.loc 1 281 0
 414 000c 0F4B     		ldr	r3, .L27
 415 000e 9D69     		ldr	r5, [r3, #24]
 416              		.loc 1 280 0
 417 0010 0746     		mov	r7, r0
 418              	.LVL33:
 419              	.LBB32:
 420              	.LBB33:
 421              		.loc 2 43 0
 422 0012 3346     		mov	r3, r6
 423              	.LBE33:
 424              	.LBE32:
 425              		.loc 1 281 0
 426 0014 6E62     		str	r6, [r5, #36]
 427              	.LVL34:
 428 0016 03E0     		b	.L26
 429              	.LVL35:
 430              	.L22:
 431              	.LBB37:
 432              	.LBB34:
 433              		.loc 2 46 0
 434 0018 9C68     		ldr	r4, [r3, #8]
 435 001a AA68     		ldr	r2, [r5, #8]
 436 001c 9442     		cmp	r4, r2
 437 001e 02D3     		bcc	.L25
 438              	.L26:
 439              		.loc 2 45 0
 440 0020 1B68     		ldr	r3, [r3]
 441              	.LVL36:
 442              		.loc 2 46 0
 443 0022 9E42     		cmp	r6, r3
ARM GAS  /var/folders/4k/6h5l9jl178sb4hslwv3xp1mr0000gn/T//cceTuOpN.s 			page 9


 444 0024 F8D1     		bne	.L22
 445              	.L25:
 446              		.loc 2 48 0
 447 0026 5A68     		ldr	r2, [r3, #4]
 448 0028 6A60     		str	r2, [r5, #4]
 449              		.loc 2 47 0
 450 002a 2B60     		str	r3, [r5]
 451              	.LBE34:
 452              	.LBE37:
 453              		.loc 1 283 0
 454 002c 4146     		mov	r1, r8
 455              	.LBB38:
 456              	.LBB35:
 457              		.loc 2 49 0
 458 002e 5D60     		str	r5, [r3, #4]
 459              	.LBE35:
 460              	.LBE38:
 461              		.loc 1 283 0
 462 0030 0520     		movs	r0, #5
 463              	.LVL37:
 464              	.LBB39:
 465              	.LBB36:
 466              		.loc 2 49 0
 467 0032 1560     		str	r5, [r2]
 468              	.LBE36:
 469              	.LBE39:
 470              		.loc 1 283 0
 471 0034 FFF7FEFF 		bl	chSchGoSleepTimeoutS
 472              	.LVL38:
 473              		.loc 1 284 0
 474 0038 431C     		adds	r3, r0, #1
 475              		.loc 1 283 0
 476 003a 0446     		mov	r4, r0
 477              	.LVL39:
 478              		.loc 1 284 0
 479 003c 02D0     		beq	.L24
 480              		.loc 1 285 0
 481 003e 3846     		mov	r0, r7
 482              	.LVL40:
 483 0040 FFF7FEFF 		bl	chMtxLockS
 484              	.LVL41:
 485              	.L24:
 486              		.loc 1 287 0
 487 0044 2046     		mov	r0, r4
 488 0046 BDE8F081 		pop	{r4, r5, r6, r7, r8, pc}
 489              	.LVL42:
 490              	.L28:
 491 004a 00BF     		.align	2
 492              	.L27:
 493 004c 00000000 		.word	rlist
 494              		.cfi_endproc
 495              	.LFE15:
 496              		.size	chCondWaitTimeoutS, .-chCondWaitTimeoutS
 497              		.section	.text.chCondWaitTimeout,"ax",%progbits
 498              		.align	2
 499              		.p2align 4,,15
 500              		.global	chCondWaitTimeout
ARM GAS  /var/folders/4k/6h5l9jl178sb4hslwv3xp1mr0000gn/T//cceTuOpN.s 			page 10


 501              		.thumb
 502              		.thumb_func
 503              		.type	chCondWaitTimeout, %function
 504              	chCondWaitTimeout:
 505              	.LFB14:
 506              		.loc 1 233 0
 507              		.cfi_startproc
 508              		@ args = 0, pretend = 0, frame = 0
 509              		@ frame_needed = 0, uses_anonymous_args = 0
 510              	.LVL43:
 511 0000 08B5     		push	{r3, lr}
 512              		.cfi_def_cfa_offset 8
 513              		.cfi_offset 3, -8
 514              		.cfi_offset 14, -4
 515              	.LBB40:
 516              		.loc 1 236 0
 517 0002 2023     		movs	r3, #32
 518              	@ 236 "../ChibiStudio/ChibiOS/os/kernel/src/chcond.c" 1
 519 0004 83F31188 		msr     BASEPRI, r3
 520              	@ 0 "" 2
 521              		.thumb
 522              	.LBE40:
 523              		.loc 1 237 0
 524 0008 FFF7FEFF 		bl	chCondWaitTimeoutS
 525              	.LVL44:
 526              	.LBB41:
 527              		.loc 1 238 0
 528 000c 0023     		movs	r3, #0
 529              	@ 238 "../ChibiStudio/ChibiOS/os/kernel/src/chcond.c" 1
 530 000e 83F31188 		msr     BASEPRI, r3
 531              	@ 0 "" 2
 532              		.thumb
 533              	.LBE41:
 534              		.loc 1 240 0
 535 0012 08BD     		pop	{r3, pc}
 536              		.cfi_endproc
 537              	.LFE14:
 538              		.size	chCondWaitTimeout, .-chCondWaitTimeout
 539 0014 AFF30080 		.text
 539      AFF30080 
 539      AFF30080 
 540              	.Letext0:
 541              		.file 3 "/Users/mikevanis/Documents/workspace/gcc-arm-none-eabi-4_8-2014q1/arm-none-eabi/include/m
 542              		.file 4 "/Users/mikevanis/Documents/workspace/gcc-arm-none-eabi-4_8-2014q1/arm-none-eabi/include/s
 543              		.file 5 "../ChibiStudio/ChibiOS/os/ports/GCC/ARMCMx/chtypes.h"
 544              		.file 6 "../ChibiStudio/ChibiOS/os/kernel/include/chlists.h"
 545              		.file 7 "../ChibiStudio/ChibiOS/os/kernel/include/chthreads.h"
 546              		.file 8 "../ChibiStudio/ChibiOS/os/ports/GCC/ARMCMx/chcore_v7m.h"
 547              		.file 9 "../ChibiStudio/ChibiOS/os/kernel/include/chschd.h"
 548              		.file 10 "../ChibiStudio/ChibiOS/os/kernel/include/chmtx.h"
 549              		.file 11 "../ChibiStudio/ChibiOS/os/kernel/include/chcond.h"
 550              		.section	.debug_info,"",%progbits
 551              	.Ldebug_info0:
 552 0000 73090000 		.4byte	0x973
 553 0004 0400     		.2byte	0x4
 554 0006 00000000 		.4byte	.Ldebug_abbrev0
 555 000a 04       		.byte	0x4
ARM GAS  /var/folders/4k/6h5l9jl178sb4hslwv3xp1mr0000gn/T//cceTuOpN.s 			page 11


 556 000b 01       		.uleb128 0x1
 557 000c 35020000 		.4byte	.LASF82
 558 0010 01       		.byte	0x1
 559 0011 A8000000 		.4byte	.LASF83
 560 0015 61030000 		.4byte	.LASF84
 561 0019 58000000 		.4byte	.Ldebug_ranges0+0x58
 562 001d 00000000 		.4byte	0
 563 0021 00000000 		.4byte	.Ldebug_line0
 564 0025 02       		.uleb128 0x2
 565 0026 04       		.byte	0x4
 566 0027 05       		.byte	0x5
 567 0028 696E7400 		.ascii	"int\000"
 568 002c 03       		.uleb128 0x3
 569 002d 04       		.byte	0x4
 570 002e 07       		.byte	0x7
 571 002f 28010000 		.4byte	.LASF0
 572 0033 03       		.uleb128 0x3
 573 0034 01       		.byte	0x1
 574 0035 06       		.byte	0x6
 575 0036 68000000 		.4byte	.LASF1
 576 003a 04       		.uleb128 0x4
 577 003b 18000000 		.4byte	.LASF5
 578 003f 03       		.byte	0x3
 579 0040 1C       		.byte	0x1c
 580 0041 45000000 		.4byte	0x45
 581 0045 03       		.uleb128 0x3
 582 0046 01       		.byte	0x1
 583 0047 08       		.byte	0x8
 584 0048 27020000 		.4byte	.LASF2
 585 004c 03       		.uleb128 0x3
 586 004d 02       		.byte	0x2
 587 004e 05       		.byte	0x5
 588 004f 19030000 		.4byte	.LASF3
 589 0053 03       		.uleb128 0x3
 590 0054 02       		.byte	0x2
 591 0055 07       		.byte	0x7
 592 0056 4F010000 		.4byte	.LASF4
 593 005a 04       		.uleb128 0x4
 594 005b 08040000 		.4byte	.LASF6
 595 005f 03       		.byte	0x3
 596 0060 37       		.byte	0x37
 597 0061 65000000 		.4byte	0x65
 598 0065 03       		.uleb128 0x3
 599 0066 04       		.byte	0x4
 600 0067 05       		.byte	0x5
 601 0068 96000000 		.4byte	.LASF7
 602 006c 04       		.uleb128 0x4
 603 006d FA000000 		.4byte	.LASF8
 604 0071 03       		.byte	0x3
 605 0072 38       		.byte	0x38
 606 0073 77000000 		.4byte	0x77
 607 0077 03       		.uleb128 0x3
 608 0078 04       		.byte	0x4
 609 0079 07       		.byte	0x7
 610 007a 35010000 		.4byte	.LASF9
 611 007e 03       		.uleb128 0x3
 612 007f 08       		.byte	0x8
ARM GAS  /var/folders/4k/6h5l9jl178sb4hslwv3xp1mr0000gn/T//cceTuOpN.s 			page 12


 613 0080 05       		.byte	0x5
 614 0081 5A000000 		.4byte	.LASF10
 615 0085 03       		.uleb128 0x3
 616 0086 08       		.byte	0x8
 617 0087 07       		.byte	0x7
 618 0088 22000000 		.4byte	.LASF11
 619 008c 04       		.uleb128 0x4
 620 008d 66040000 		.4byte	.LASF12
 621 0091 04       		.byte	0x4
 622 0092 2A       		.byte	0x2a
 623 0093 3A000000 		.4byte	0x3a
 624 0097 04       		.uleb128 0x4
 625 0098 1F020000 		.4byte	.LASF13
 626 009c 04       		.byte	0x4
 627 009d 41       		.byte	0x41
 628 009e 5A000000 		.4byte	0x5a
 629 00a2 04       		.uleb128 0x4
 630 00a3 B2030000 		.4byte	.LASF14
 631 00a7 04       		.byte	0x4
 632 00a8 42       		.byte	0x42
 633 00a9 6C000000 		.4byte	0x6c
 634 00ad 03       		.uleb128 0x3
 635 00ae 01       		.byte	0x1
 636 00af 02       		.byte	0x2
 637 00b0 19020000 		.4byte	.LASF15
 638 00b4 04       		.uleb128 0x4
 639 00b5 70010000 		.4byte	.LASF16
 640 00b9 05       		.byte	0x5
 641 00ba 2C       		.byte	0x2c
 642 00bb 8C000000 		.4byte	0x8c
 643 00bf 04       		.uleb128 0x4
 644 00c0 9F000000 		.4byte	.LASF17
 645 00c4 05       		.byte	0x5
 646 00c5 2D       		.byte	0x2d
 647 00c6 8C000000 		.4byte	0x8c
 648 00ca 04       		.uleb128 0x4
 649 00cb F4010000 		.4byte	.LASF18
 650 00cf 05       		.byte	0x5
 651 00d0 2E       		.byte	0x2e
 652 00d1 8C000000 		.4byte	0x8c
 653 00d5 04       		.uleb128 0x4
 654 00d6 84000000 		.4byte	.LASF19
 655 00da 05       		.byte	0x5
 656 00db 2F       		.byte	0x2f
 657 00dc 8C000000 		.4byte	0x8c
 658 00e0 04       		.uleb128 0x4
 659 00e1 03020000 		.4byte	.LASF20
 660 00e5 05       		.byte	0x5
 661 00e6 30       		.byte	0x30
 662 00e7 A2000000 		.4byte	0xa2
 663 00eb 04       		.uleb128 0x4
 664 00ec 62010000 		.4byte	.LASF21
 665 00f0 05       		.byte	0x5
 666 00f1 31       		.byte	0x31
 667 00f2 97000000 		.4byte	0x97
 668 00f6 04       		.uleb128 0x4
 669 00f7 84010000 		.4byte	.LASF22
ARM GAS  /var/folders/4k/6h5l9jl178sb4hslwv3xp1mr0000gn/T//cceTuOpN.s 			page 13


 670 00fb 05       		.byte	0x5
 671 00fc 33       		.byte	0x33
 672 00fd A2000000 		.4byte	0xa2
 673 0101 04       		.uleb128 0x4
 674 0102 F3030000 		.4byte	.LASF23
 675 0106 05       		.byte	0x5
 676 0107 35       		.byte	0x35
 677 0108 A2000000 		.4byte	0xa2
 678 010c 04       		.uleb128 0x4
 679 010d 52030000 		.4byte	.LASF24
 680 0111 06       		.byte	0x6
 681 0112 2A       		.byte	0x2a
 682 0113 17010000 		.4byte	0x117
 683 0117 05       		.uleb128 0x5
 684 0118 52030000 		.4byte	.LASF24
 685 011c 48       		.byte	0x48
 686 011d 07       		.byte	0x7
 687 011e 5E       		.byte	0x5e
 688 011f 14020000 		.4byte	0x214
 689 0123 06       		.uleb128 0x6
 690 0124 43030000 		.4byte	.LASF25
 691 0128 07       		.byte	0x7
 692 0129 5F       		.byte	0x5f
 693 012a 35020000 		.4byte	0x235
 694 012e 00       		.byte	0
 695 012f 06       		.uleb128 0x6
 696 0130 FC010000 		.4byte	.LASF26
 697 0134 07       		.byte	0x7
 698 0135 61       		.byte	0x61
 699 0136 35020000 		.4byte	0x235
 700 013a 04       		.byte	0x4
 701 013b 06       		.uleb128 0x6
 702 013c 53000000 		.4byte	.LASF27
 703 0140 07       		.byte	0x7
 704 0141 63       		.byte	0x63
 705 0142 E0000000 		.4byte	0xe0
 706 0146 08       		.byte	0x8
 707 0147 06       		.uleb128 0x6
 708 0148 AB040000 		.4byte	.LASF28
 709 014c 07       		.byte	0x7
 710 014d 64       		.byte	0x64
 711 014e EF020000 		.4byte	0x2ef
 712 0152 0C       		.byte	0xc
 713 0153 06       		.uleb128 0x6
 714 0154 E1000000 		.4byte	.LASF29
 715 0158 07       		.byte	0x7
 716 0159 66       		.byte	0x66
 717 015a 35020000 		.4byte	0x235
 718 015e 10       		.byte	0x10
 719 015f 06       		.uleb128 0x6
 720 0160 B2010000 		.4byte	.LASF30
 721 0164 07       		.byte	0x7
 722 0165 67       		.byte	0x67
 723 0166 35020000 		.4byte	0x235
 724 016a 14       		.byte	0x14
 725 016b 06       		.uleb128 0x6
 726 016c 75040000 		.4byte	.LASF31
ARM GAS  /var/folders/4k/6h5l9jl178sb4hslwv3xp1mr0000gn/T//cceTuOpN.s 			page 14


 727 0170 07       		.byte	0x7
 728 0171 6E       		.byte	0x6e
 729 0172 13040000 		.4byte	0x413
 730 0176 18       		.byte	0x18
 731 0177 06       		.uleb128 0x6
 732 0178 23030000 		.4byte	.LASF32
 733 017c 07       		.byte	0x7
 734 017d 79       		.byte	0x79
 735 017e BF000000 		.4byte	0xbf
 736 0182 1C       		.byte	0x1c
 737 0183 06       		.uleb128 0x6
 738 0184 4A030000 		.4byte	.LASF33
 739 0188 07       		.byte	0x7
 740 0189 7D       		.byte	0x7d
 741 018a B4000000 		.4byte	0xb4
 742 018e 1D       		.byte	0x1d
 743 018f 06       		.uleb128 0x6
 744 0190 4F040000 		.4byte	.LASF34
 745 0194 07       		.byte	0x7
 746 0195 82       		.byte	0x82
 747 0196 CA000000 		.4byte	0xca
 748 019a 1E       		.byte	0x1e
 749 019b 06       		.uleb128 0x6
 750 019c 2B030000 		.4byte	.LASF35
 751 01a0 07       		.byte	0x7
 752 01a1 88       		.byte	0x88
 753 01a2 D5000000 		.4byte	0xd5
 754 01a6 1F       		.byte	0x1f
 755 01a7 06       		.uleb128 0x6
 756 01a8 29040000 		.4byte	.LASF36
 757 01ac 07       		.byte	0x7
 758 01ad 8F       		.byte	0x8f
 759 01ae 17030000 		.4byte	0x317
 760 01b2 20       		.byte	0x20
 761 01b3 07       		.uleb128 0x7
 762 01b4 705F7500 		.ascii	"p_u\000"
 763 01b8 07       		.byte	0x7
 764 01b9 B4       		.byte	0xb4
 765 01ba DE030000 		.4byte	0x3de
 766 01be 24       		.byte	0x24
 767 01bf 06       		.uleb128 0x6
 768 01c0 B1040000 		.4byte	.LASF37
 769 01c4 07       		.byte	0x7
 770 01c5 B9       		.byte	0xb9
 771 01c6 5B020000 		.4byte	0x25b
 772 01ca 28       		.byte	0x28
 773 01cb 06       		.uleb128 0x6
 774 01cc 37040000 		.4byte	.LASF38
 775 01d0 07       		.byte	0x7
 776 01d1 BF       		.byte	0xbf
 777 01d2 3B020000 		.4byte	0x23b
 778 01d6 2C       		.byte	0x2c
 779 01d7 06       		.uleb128 0x6
 780 01d8 00000000 		.4byte	.LASF39
 781 01dc 07       		.byte	0x7
 782 01dd C3       		.byte	0xc3
 783 01de EB000000 		.4byte	0xeb
ARM GAS  /var/folders/4k/6h5l9jl178sb4hslwv3xp1mr0000gn/T//cceTuOpN.s 			page 15


 784 01e2 34       		.byte	0x34
 785 01e3 06       		.uleb128 0x6
 786 01e4 A7030000 		.4byte	.LASF40
 787 01e8 07       		.byte	0x7
 788 01e9 C9       		.byte	0xc9
 789 01ea F6000000 		.4byte	0xf6
 790 01ee 38       		.byte	0x38
 791 01ef 06       		.uleb128 0x6
 792 01f0 0F030000 		.4byte	.LASF41
 793 01f4 07       		.byte	0x7
 794 01f5 D0       		.byte	0xd0
 795 01f6 25040000 		.4byte	0x425
 796 01fa 3C       		.byte	0x3c
 797 01fb 06       		.uleb128 0x6
 798 01fc FD030000 		.4byte	.LASF42
 799 0200 07       		.byte	0x7
 800 0201 D4       		.byte	0xd4
 801 0202 E0000000 		.4byte	0xe0
 802 0206 40       		.byte	0x40
 803 0207 06       		.uleb128 0x6
 804 0208 74000000 		.4byte	.LASF43
 805 020c 07       		.byte	0x7
 806 020d DA       		.byte	0xda
 807 020e 71020000 		.4byte	0x271
 808 0212 44       		.byte	0x44
 809 0213 00       		.byte	0
 810 0214 08       		.uleb128 0x8
 811 0215 08       		.byte	0x8
 812 0216 06       		.byte	0x6
 813 0217 61       		.byte	0x61
 814 0218 35020000 		.4byte	0x235
 815 021c 06       		.uleb128 0x6
 816 021d 43030000 		.4byte	.LASF25
 817 0221 06       		.byte	0x6
 818 0222 62       		.byte	0x62
 819 0223 35020000 		.4byte	0x235
 820 0227 00       		.byte	0
 821 0228 06       		.uleb128 0x6
 822 0229 FC010000 		.4byte	.LASF26
 823 022d 06       		.byte	0x6
 824 022e 64       		.byte	0x64
 825 022f 35020000 		.4byte	0x235
 826 0233 04       		.byte	0x4
 827 0234 00       		.byte	0
 828 0235 09       		.uleb128 0x9
 829 0236 04       		.byte	0x4
 830 0237 0C010000 		.4byte	0x10c
 831 023b 04       		.uleb128 0x4
 832 023c C0010000 		.4byte	.LASF44
 833 0240 06       		.byte	0x6
 834 0241 66       		.byte	0x66
 835 0242 14020000 		.4byte	0x214
 836 0246 08       		.uleb128 0x8
 837 0247 04       		.byte	0x4
 838 0248 06       		.byte	0x6
 839 0249 6B       		.byte	0x6b
 840 024a 5B020000 		.4byte	0x25b
ARM GAS  /var/folders/4k/6h5l9jl178sb4hslwv3xp1mr0000gn/T//cceTuOpN.s 			page 16


 841 024e 06       		.uleb128 0x6
 842 024f 43030000 		.4byte	.LASF25
 843 0253 06       		.byte	0x6
 844 0254 6D       		.byte	0x6d
 845 0255 35020000 		.4byte	0x235
 846 0259 00       		.byte	0
 847 025a 00       		.byte	0
 848 025b 04       		.uleb128 0x4
 849 025c 78010000 		.4byte	.LASF45
 850 0260 06       		.byte	0x6
 851 0261 70       		.byte	0x70
 852 0262 46020000 		.4byte	0x246
 853 0266 04       		.uleb128 0x4
 854 0267 05010000 		.4byte	.LASF46
 855 026b 08       		.byte	0x8
 856 026c E5       		.byte	0xe5
 857 026d 71020000 		.4byte	0x271
 858 0271 0A       		.uleb128 0xa
 859 0272 04       		.byte	0x4
 860 0273 0B       		.uleb128 0xb
 861 0274 30040000 		.4byte	.LASF47
 862 0278 24       		.byte	0x24
 863 0279 08       		.byte	0x8
 864 027a 0C01     		.2byte	0x10c
 865 027c EF020000 		.4byte	0x2ef
 866 0280 0C       		.uleb128 0xc
 867 0281 723400   		.ascii	"r4\000"
 868 0284 08       		.byte	0x8
 869 0285 1F01     		.2byte	0x11f
 870 0287 66020000 		.4byte	0x266
 871 028b 00       		.byte	0
 872 028c 0C       		.uleb128 0xc
 873 028d 723500   		.ascii	"r5\000"
 874 0290 08       		.byte	0x8
 875 0291 2001     		.2byte	0x120
 876 0293 66020000 		.4byte	0x266
 877 0297 04       		.byte	0x4
 878 0298 0C       		.uleb128 0xc
 879 0299 723600   		.ascii	"r6\000"
 880 029c 08       		.byte	0x8
 881 029d 2101     		.2byte	0x121
 882 029f 66020000 		.4byte	0x266
 883 02a3 08       		.byte	0x8
 884 02a4 0C       		.uleb128 0xc
 885 02a5 723700   		.ascii	"r7\000"
 886 02a8 08       		.byte	0x8
 887 02a9 2201     		.2byte	0x122
 888 02ab 66020000 		.4byte	0x266
 889 02af 0C       		.byte	0xc
 890 02b0 0C       		.uleb128 0xc
 891 02b1 723800   		.ascii	"r8\000"
 892 02b4 08       		.byte	0x8
 893 02b5 2301     		.2byte	0x123
 894 02b7 66020000 		.4byte	0x266
 895 02bb 10       		.byte	0x10
 896 02bc 0C       		.uleb128 0xc
 897 02bd 723900   		.ascii	"r9\000"
ARM GAS  /var/folders/4k/6h5l9jl178sb4hslwv3xp1mr0000gn/T//cceTuOpN.s 			page 17


 898 02c0 08       		.byte	0x8
 899 02c1 2401     		.2byte	0x124
 900 02c3 66020000 		.4byte	0x266
 901 02c7 14       		.byte	0x14
 902 02c8 0C       		.uleb128 0xc
 903 02c9 72313000 		.ascii	"r10\000"
 904 02cd 08       		.byte	0x8
 905 02ce 2501     		.2byte	0x125
 906 02d0 66020000 		.4byte	0x266
 907 02d4 18       		.byte	0x18
 908 02d5 0C       		.uleb128 0xc
 909 02d6 72313100 		.ascii	"r11\000"
 910 02da 08       		.byte	0x8
 911 02db 2601     		.2byte	0x126
 912 02dd 66020000 		.4byte	0x266
 913 02e1 1C       		.byte	0x1c
 914 02e2 0C       		.uleb128 0xc
 915 02e3 6C7200   		.ascii	"lr\000"
 916 02e6 08       		.byte	0x8
 917 02e7 2701     		.2byte	0x127
 918 02e9 66020000 		.4byte	0x266
 919 02ed 20       		.byte	0x20
 920 02ee 00       		.byte	0
 921 02ef 0B       		.uleb128 0xb
 922 02f0 47010000 		.4byte	.LASF48
 923 02f4 04       		.byte	0x4
 924 02f5 08       		.byte	0x8
 925 02f6 3101     		.2byte	0x131
 926 02f8 0A030000 		.4byte	0x30a
 927 02fc 0C       		.uleb128 0xc
 928 02fd 72313300 		.ascii	"r13\000"
 929 0301 08       		.byte	0x8
 930 0302 3201     		.2byte	0x132
 931 0304 0A030000 		.4byte	0x30a
 932 0308 00       		.byte	0
 933 0309 00       		.byte	0
 934 030a 09       		.uleb128 0x9
 935 030b 04       		.byte	0x4
 936 030c 73020000 		.4byte	0x273
 937 0310 03       		.uleb128 0x3
 938 0311 04       		.byte	0x4
 939 0312 07       		.byte	0x7
 940 0313 96010000 		.4byte	.LASF49
 941 0317 0D       		.uleb128 0xd
 942 0318 01010000 		.4byte	0x101
 943 031c 08       		.uleb128 0x8
 944 031d 1C       		.byte	0x1c
 945 031e 09       		.byte	0x9
 946 031f 5E       		.byte	0x5e
 947 0320 6D030000 		.4byte	0x36d
 948 0324 06       		.uleb128 0x6
 949 0325 BB030000 		.4byte	.LASF50
 950 0329 09       		.byte	0x9
 951 032a 5F       		.byte	0x5f
 952 032b 3B020000 		.4byte	0x23b
 953 032f 00       		.byte	0
 954 0330 06       		.uleb128 0x6
ARM GAS  /var/folders/4k/6h5l9jl178sb4hslwv3xp1mr0000gn/T//cceTuOpN.s 			page 18


 955 0331 35030000 		.4byte	.LASF51
 956 0335 09       		.byte	0x9
 957 0336 60       		.byte	0x60
 958 0337 E0000000 		.4byte	0xe0
 959 033b 08       		.byte	0x8
 960 033c 06       		.uleb128 0x6
 961 033d BA010000 		.4byte	.LASF52
 962 0341 09       		.byte	0x9
 963 0342 62       		.byte	0x62
 964 0343 EF020000 		.4byte	0x2ef
 965 0347 0C       		.byte	0xc
 966 0348 06       		.uleb128 0x6
 967 0349 68010000 		.4byte	.LASF53
 968 034d 09       		.byte	0x9
 969 034e 65       		.byte	0x65
 970 034f 35020000 		.4byte	0x235
 971 0353 10       		.byte	0x10
 972 0354 06       		.uleb128 0x6
 973 0355 DC010000 		.4byte	.LASF54
 974 0359 09       		.byte	0x9
 975 035a 66       		.byte	0x66
 976 035b 35020000 		.4byte	0x235
 977 035f 14       		.byte	0x14
 978 0360 06       		.uleb128 0x6
 979 0361 D2010000 		.4byte	.LASF55
 980 0365 09       		.byte	0x9
 981 0366 69       		.byte	0x69
 982 0367 35020000 		.4byte	0x235
 983 036b 18       		.byte	0x18
 984 036c 00       		.byte	0
 985 036d 04       		.uleb128 0x4
 986 036e 56040000 		.4byte	.LASF56
 987 0372 09       		.byte	0x9
 988 0373 6B       		.byte	0x6b
 989 0374 1C030000 		.4byte	0x31c
 990 0378 05       		.uleb128 0x5
 991 0379 90010000 		.4byte	.LASF57
 992 037d 10       		.byte	0x10
 993 037e 0A       		.byte	0xa
 994 037f 2C       		.byte	0x2c
 995 0380 A9030000 		.4byte	0x3a9
 996 0384 06       		.uleb128 0x6
 997 0385 7C000000 		.4byte	.LASF58
 998 0389 0A       		.byte	0xa
 999 038a 2D       		.byte	0x2d
 1000 038b 3B020000 		.4byte	0x23b
 1001 038f 00       		.byte	0
 1002 0390 06       		.uleb128 0x6
 1003 0391 A3040000 		.4byte	.LASF59
 1004 0395 0A       		.byte	0xa
 1005 0396 2F       		.byte	0x2f
 1006 0397 35020000 		.4byte	0x235
 1007 039b 08       		.byte	0x8
 1008 039c 06       		.uleb128 0x6
 1009 039d EC030000 		.4byte	.LASF60
 1010 03a1 0A       		.byte	0xa
 1011 03a2 31       		.byte	0x31
ARM GAS  /var/folders/4k/6h5l9jl178sb4hslwv3xp1mr0000gn/T//cceTuOpN.s 			page 19


 1012 03a3 A9030000 		.4byte	0x3a9
 1013 03a7 0C       		.byte	0xc
 1014 03a8 00       		.byte	0
 1015 03a9 09       		.uleb128 0x9
 1016 03aa 04       		.byte	0x4
 1017 03ab 78030000 		.4byte	0x378
 1018 03af 04       		.uleb128 0x4
 1019 03b0 90010000 		.4byte	.LASF57
 1020 03b4 0A       		.byte	0xa
 1021 03b5 33       		.byte	0x33
 1022 03b6 78030000 		.4byte	0x378
 1023 03ba 05       		.uleb128 0x5
 1024 03bb 8E000000 		.4byte	.LASF61
 1025 03bf 08       		.byte	0x8
 1026 03c0 0B       		.byte	0xb
 1027 03c1 36       		.byte	0x36
 1028 03c2 D3030000 		.4byte	0x3d3
 1029 03c6 06       		.uleb128 0x6
 1030 03c7 59030000 		.4byte	.LASF62
 1031 03cb 0B       		.byte	0xb
 1032 03cc 37       		.byte	0x37
 1033 03cd 3B020000 		.4byte	0x23b
 1034 03d1 00       		.byte	0
 1035 03d2 00       		.byte	0
 1036 03d3 04       		.uleb128 0x4
 1037 03d4 8E000000 		.4byte	.LASF61
 1038 03d8 0B       		.byte	0xb
 1039 03d9 38       		.byte	0x38
 1040 03da BA030000 		.4byte	0x3ba
 1041 03de 0E       		.uleb128 0xe
 1042 03df 04       		.byte	0x4
 1043 03e0 07       		.byte	0x7
 1044 03e1 96       		.byte	0x96
 1045 03e2 13040000 		.4byte	0x413
 1046 03e6 0F       		.uleb128 0xf
 1047 03e7 11000000 		.4byte	.LASF63
 1048 03eb 07       		.byte	0x7
 1049 03ec 9D       		.byte	0x9d
 1050 03ed EB000000 		.4byte	0xeb
 1051 03f1 0F       		.uleb128 0xf
 1052 03f2 39000000 		.4byte	.LASF64
 1053 03f6 07       		.byte	0x7
 1054 03f7 A4       		.byte	0xa4
 1055 03f8 EB000000 		.4byte	0xeb
 1056 03fc 0F       		.uleb128 0xf
 1057 03fd 6E040000 		.4byte	.LASF65
 1058 0401 07       		.byte	0x7
 1059 0402 AB       		.byte	0xab
 1060 0403 71020000 		.4byte	0x271
 1061 0407 0F       		.uleb128 0xf
 1062 0408 3C030000 		.4byte	.LASF66
 1063 040c 07       		.byte	0x7
 1064 040d B2       		.byte	0xb2
 1065 040e F6000000 		.4byte	0xf6
 1066 0412 00       		.byte	0
 1067 0413 09       		.uleb128 0x9
 1068 0414 04       		.byte	0x4
ARM GAS  /var/folders/4k/6h5l9jl178sb4hslwv3xp1mr0000gn/T//cceTuOpN.s 			page 20


 1069 0415 19040000 		.4byte	0x419
 1070 0419 10       		.uleb128 0x10
 1071 041a 1E040000 		.4byte	0x41e
 1072 041e 03       		.uleb128 0x3
 1073 041f 01       		.byte	0x1
 1074 0420 08       		.byte	0x8
 1075 0421 CF030000 		.4byte	.LASF67
 1076 0425 09       		.uleb128 0x9
 1077 0426 04       		.byte	0x4
 1078 0427 AF030000 		.4byte	0x3af
 1079 042b 11       		.uleb128 0x11
 1080 042c D4030000 		.4byte	.LASF85
 1081 0430 02       		.byte	0x2
 1082 0431 3B       		.byte	0x3b
 1083 0432 35020000 		.4byte	0x235
 1084 0436 03       		.byte	0x3
 1085 0437 51040000 		.4byte	0x451
 1086 043b 12       		.uleb128 0x12
 1087 043c 74717000 		.ascii	"tqp\000"
 1088 0440 02       		.byte	0x2
 1089 0441 3B       		.byte	0x3b
 1090 0442 51040000 		.4byte	0x451
 1091 0446 13       		.uleb128 0x13
 1092 0447 747000   		.ascii	"tp\000"
 1093 044a 02       		.byte	0x2
 1094 044b 3C       		.byte	0x3c
 1095 044c 35020000 		.4byte	0x235
 1096 0450 00       		.byte	0
 1097 0451 09       		.uleb128 0x9
 1098 0452 04       		.byte	0x4
 1099 0453 3B020000 		.4byte	0x23b
 1100 0457 14       		.uleb128 0x14
 1101 0458 12040000 		.4byte	.LASF86
 1102 045c 02       		.byte	0x2
 1103 045d 29       		.byte	0x29
 1104 045e 03       		.byte	0x3
 1105 045f 83040000 		.4byte	0x483
 1106 0463 12       		.uleb128 0x12
 1107 0464 747000   		.ascii	"tp\000"
 1108 0467 02       		.byte	0x2
 1109 0468 29       		.byte	0x29
 1110 0469 35020000 		.4byte	0x235
 1111 046d 12       		.uleb128 0x12
 1112 046e 74717000 		.ascii	"tqp\000"
 1113 0472 02       		.byte	0x2
 1114 0473 29       		.byte	0x29
 1115 0474 51040000 		.4byte	0x451
 1116 0478 13       		.uleb128 0x13
 1117 0479 637000   		.ascii	"cp\000"
 1118 047c 02       		.byte	0x2
 1119 047d 2B       		.byte	0x2b
 1120 047e 35020000 		.4byte	0x235
 1121 0482 00       		.byte	0
 1122 0483 15       		.uleb128 0x15
 1123 0484 06000000 		.4byte	.LASF68
 1124 0488 01       		.byte	0x1
 1125 0489 3B       		.byte	0x3b
ARM GAS  /var/folders/4k/6h5l9jl178sb4hslwv3xp1mr0000gn/T//cceTuOpN.s 			page 21


 1126 048a 00000000 		.4byte	.LFB7
 1127 048e 06000000 		.4byte	.LFE7-.LFB7
 1128 0492 01       		.uleb128 0x1
 1129 0493 9C       		.byte	0x9c
 1130 0494 A5040000 		.4byte	0x4a5
 1131 0498 16       		.uleb128 0x16
 1132 0499 637000   		.ascii	"cp\000"
 1133 049c 01       		.byte	0x1
 1134 049d 3B       		.byte	0x3b
 1135 049e A5040000 		.4byte	0x4a5
 1136 04a2 01       		.uleb128 0x1
 1137 04a3 50       		.byte	0x50
 1138 04a4 00       		.byte	0
 1139 04a5 09       		.uleb128 0x9
 1140 04a6 04       		.byte	0x4
 1141 04a7 D3030000 		.4byte	0x3d3
 1142 04ab 15       		.uleb128 0x15
 1143 04ac 0E010000 		.4byte	.LASF69
 1144 04b0 01       		.byte	0x1
 1145 04b1 49       		.byte	0x49
 1146 04b2 00000000 		.4byte	.LFB8
 1147 04b6 24000000 		.4byte	.LFE8-.LFB8
 1148 04ba 01       		.uleb128 0x1
 1149 04bb 9C       		.byte	0x9c
 1150 04bc 40050000 		.4byte	0x540
 1151 04c0 17       		.uleb128 0x17
 1152 04c1 637000   		.ascii	"cp\000"
 1153 04c4 01       		.byte	0x1
 1154 04c5 49       		.byte	0x49
 1155 04c6 A5040000 		.4byte	0x4a5
 1156 04ca 00000000 		.4byte	.LLST0
 1157 04ce 18       		.uleb128 0x18
 1158 04cf 04000000 		.4byte	.LBB14
 1159 04d3 06000000 		.4byte	.LBE14-.LBB14
 1160 04d7 E9040000 		.4byte	0x4e9
 1161 04db 19       		.uleb128 0x19
 1162 04dc 746D7000 		.ascii	"tmp\000"
 1163 04e0 01       		.byte	0x1
 1164 04e1 4D       		.byte	0x4d
 1165 04e2 A2000000 		.4byte	0xa2
 1166 04e6 01       		.uleb128 0x1
 1167 04e7 53       		.byte	0x53
 1168 04e8 00       		.byte	0
 1169 04e9 1A       		.uleb128 0x1a
 1170 04ea 2B040000 		.4byte	0x42b
 1171 04ee 10000000 		.4byte	.LBB15
 1172 04f2 00000000 		.4byte	.Ldebug_ranges0+0
 1173 04f6 01       		.byte	0x1
 1174 04f7 4F       		.byte	0x4f
 1175 04f8 15050000 		.4byte	0x515
 1176 04fc 1B       		.uleb128 0x1b
 1177 04fd 3B040000 		.4byte	0x43b
 1178 0501 2C000000 		.4byte	.LLST1
 1179 0505 1C       		.uleb128 0x1c
 1180 0506 00000000 		.4byte	.Ldebug_ranges0+0
 1181 050a 1D       		.uleb128 0x1d
 1182 050b 46040000 		.4byte	0x446
ARM GAS  /var/folders/4k/6h5l9jl178sb4hslwv3xp1mr0000gn/T//cceTuOpN.s 			page 22


 1183 050f 4D000000 		.4byte	.LLST2
 1184 0513 00       		.byte	0
 1185 0514 00       		.byte	0
 1186 0515 18       		.uleb128 0x18
 1187 0516 1C000000 		.4byte	.LBB19
 1188 051a 08000000 		.4byte	.LBE19-.LBB19
 1189 051e 30050000 		.4byte	0x530
 1190 0522 19       		.uleb128 0x19
 1191 0523 746D7000 		.ascii	"tmp\000"
 1192 0527 01       		.byte	0x1
 1193 0528 50       		.byte	0x50
 1194 0529 A2000000 		.4byte	0xa2
 1195 052d 01       		.uleb128 0x1
 1196 052e 53       		.byte	0x53
 1197 052f 00       		.byte	0
 1198 0530 1E       		.uleb128 0x1e
 1199 0531 1C000000 		.4byte	.LVL4
 1200 0535 01090000 		.4byte	0x901
 1201 0539 1F       		.uleb128 0x1f
 1202 053a 01       		.uleb128 0x1
 1203 053b 51       		.byte	0x51
 1204 053c 01       		.uleb128 0x1
 1205 053d 30       		.byte	0x30
 1206 053e 00       		.byte	0
 1207 053f 00       		.byte	0
 1208 0540 15       		.uleb128 0x15
 1209 0541 0B020000 		.4byte	.LASF70
 1210 0545 01       		.byte	0x1
 1211 0546 5E       		.byte	0x5e
 1212 0547 00000000 		.4byte	.LFB9
 1213 054b 1A000000 		.4byte	.LFE9-.LFB9
 1214 054f 01       		.uleb128 0x1
 1215 0550 9C       		.byte	0x9c
 1216 0551 9D050000 		.4byte	0x59d
 1217 0555 17       		.uleb128 0x17
 1218 0556 637000   		.ascii	"cp\000"
 1219 0559 01       		.byte	0x1
 1220 055a 5E       		.byte	0x5e
 1221 055b A5040000 		.4byte	0x4a5
 1222 055f 60000000 		.4byte	.LLST3
 1223 0563 20       		.uleb128 0x20
 1224 0564 2B040000 		.4byte	0x42b
 1225 0568 0A000000 		.4byte	.LBB20
 1226 056c 06000000 		.4byte	.LBE20-.LBB20
 1227 0570 01       		.byte	0x1
 1228 0571 64       		.byte	0x64
 1229 0572 93050000 		.4byte	0x593
 1230 0576 1B       		.uleb128 0x1b
 1231 0577 3B040000 		.4byte	0x43b
 1232 057b 8C000000 		.4byte	.LLST4
 1233 057f 21       		.uleb128 0x21
 1234 0580 0A000000 		.4byte	.LBB21
 1235 0584 06000000 		.4byte	.LBE21-.LBB21
 1236 0588 1D       		.uleb128 0x1d
 1237 0589 46040000 		.4byte	0x446
 1238 058d AD000000 		.4byte	.LLST5
 1239 0591 00       		.byte	0
ARM GAS  /var/folders/4k/6h5l9jl178sb4hslwv3xp1mr0000gn/T//cceTuOpN.s 			page 23


 1240 0592 00       		.byte	0
 1241 0593 22       		.uleb128 0x22
 1242 0594 14000000 		.4byte	.LVL8
 1243 0598 17090000 		.4byte	0x917
 1244 059c 00       		.byte	0
 1245 059d 15       		.uleb128 0x15
 1246 059e 42000000 		.4byte	.LASF71
 1247 05a2 01       		.byte	0x1
 1248 05a3 81       		.byte	0x81
 1249 05a4 00000000 		.4byte	.LFB11
 1250 05a8 22000000 		.4byte	.LFE11-.LFB11
 1251 05ac 01       		.uleb128 0x1
 1252 05ad 9C       		.byte	0x9c
 1253 05ae FA050000 		.4byte	0x5fa
 1254 05b2 17       		.uleb128 0x17
 1255 05b3 637000   		.ascii	"cp\000"
 1256 05b6 01       		.byte	0x1
 1257 05b7 81       		.byte	0x81
 1258 05b8 A5040000 		.4byte	0x4a5
 1259 05bc C0000000 		.4byte	.LLST6
 1260 05c0 20       		.uleb128 0x20
 1261 05c1 2B040000 		.4byte	0x42b
 1262 05c5 0E000000 		.4byte	.LBB22
 1263 05c9 06000000 		.4byte	.LBE22-.LBB22
 1264 05cd 01       		.byte	0x1
 1265 05ce 8A       		.byte	0x8a
 1266 05cf F0050000 		.4byte	0x5f0
 1267 05d3 1B       		.uleb128 0x1b
 1268 05d4 3B040000 		.4byte	0x43b
 1269 05d8 DE000000 		.4byte	.LLST7
 1270 05dc 21       		.uleb128 0x21
 1271 05dd 0E000000 		.4byte	.LBB23
 1272 05e1 06000000 		.4byte	.LBE23-.LBB23
 1273 05e5 1D       		.uleb128 0x1d
 1274 05e6 46040000 		.4byte	0x446
 1275 05ea F1000000 		.4byte	.LLST8
 1276 05ee 00       		.byte	0
 1277 05ef 00       		.byte	0
 1278 05f0 22       		.uleb128 0x22
 1279 05f1 18000000 		.4byte	.LVL13
 1280 05f5 17090000 		.4byte	0x917
 1281 05f9 00       		.byte	0
 1282 05fa 15       		.uleb128 0x15
 1283 05fb E4010000 		.4byte	.LASF72
 1284 05ff 01       		.byte	0x1
 1285 0600 6E       		.byte	0x6e
 1286 0601 00000000 		.4byte	.LFB10
 1287 0605 18000000 		.4byte	.LFE10-.LFB10
 1288 0609 01       		.uleb128 0x1
 1289 060a 9C       		.byte	0x9c
 1290 060b 72060000 		.4byte	0x672
 1291 060f 17       		.uleb128 0x17
 1292 0610 637000   		.ascii	"cp\000"
 1293 0613 01       		.byte	0x1
 1294 0614 6E       		.byte	0x6e
 1295 0615 A5040000 		.4byte	0x4a5
 1296 0619 04010000 		.4byte	.LLST9
ARM GAS  /var/folders/4k/6h5l9jl178sb4hslwv3xp1mr0000gn/T//cceTuOpN.s 			page 24


 1297 061d 18       		.uleb128 0x18
 1298 061e 02000000 		.4byte	.LBB24
 1299 0622 06000000 		.4byte	.LBE24-.LBB24
 1300 0626 38060000 		.4byte	0x638
 1301 062a 19       		.uleb128 0x19
 1302 062b 746D7000 		.ascii	"tmp\000"
 1303 062f 01       		.byte	0x1
 1304 0630 70       		.byte	0x70
 1305 0631 A2000000 		.4byte	0xa2
 1306 0635 01       		.uleb128 0x1
 1307 0636 53       		.byte	0x53
 1308 0637 00       		.byte	0
 1309 0638 18       		.uleb128 0x18
 1310 0639 10000000 		.4byte	.LBB25
 1311 063d 08000000 		.4byte	.LBE25-.LBB25
 1312 0641 53060000 		.4byte	0x653
 1313 0645 19       		.uleb128 0x19
 1314 0646 746D7000 		.ascii	"tmp\000"
 1315 064a 01       		.byte	0x1
 1316 064b 73       		.byte	0x73
 1317 064c A2000000 		.4byte	0xa2
 1318 0650 01       		.uleb128 0x1
 1319 0651 53       		.byte	0x53
 1320 0652 00       		.byte	0
 1321 0653 23       		.uleb128 0x23
 1322 0654 0C000000 		.4byte	.LVL16
 1323 0658 9D050000 		.4byte	0x59d
 1324 065c 68060000 		.4byte	0x668
 1325 0660 1F       		.uleb128 0x1f
 1326 0661 01       		.uleb128 0x1
 1327 0662 50       		.byte	0x50
 1328 0663 03       		.uleb128 0x3
 1329 0664 F3       		.byte	0xf3
 1330 0665 01       		.uleb128 0x1
 1331 0666 50       		.byte	0x50
 1332 0667 00       		.byte	0
 1333 0668 22       		.uleb128 0x22
 1334 0669 10000000 		.4byte	.LVL17
 1335 066d 2C090000 		.4byte	0x92c
 1336 0671 00       		.byte	0
 1337 0672 24       		.uleb128 0x24
 1338 0673 E0030000 		.4byte	.LASF73
 1339 0677 01       		.byte	0x1
 1340 0678 B8       		.byte	0xb8
 1341 0679 EB000000 		.4byte	0xeb
 1342 067d 00000000 		.4byte	.LFB13
 1343 0681 44000000 		.4byte	.LFE13-.LFB13
 1344 0685 01       		.uleb128 0x1
 1345 0686 9C       		.byte	0x9c
 1346 0687 27070000 		.4byte	0x727
 1347 068b 17       		.uleb128 0x17
 1348 068c 637000   		.ascii	"cp\000"
 1349 068f 01       		.byte	0x1
 1350 0690 B8       		.byte	0xb8
 1351 0691 A5040000 		.4byte	0x4a5
 1352 0695 25010000 		.4byte	.LLST10
 1353 0699 25       		.uleb128 0x25
ARM GAS  /var/folders/4k/6h5l9jl178sb4hslwv3xp1mr0000gn/T//cceTuOpN.s 			page 25


 1354 069a 63747000 		.ascii	"ctp\000"
 1355 069e 01       		.byte	0x1
 1356 069f B9       		.byte	0xb9
 1357 06a0 35020000 		.4byte	0x235
 1358 06a4 51010000 		.4byte	.LLST11
 1359 06a8 25       		.uleb128 0x25
 1360 06a9 6D7000   		.ascii	"mp\000"
 1361 06ac 01       		.byte	0x1
 1362 06ad BA       		.byte	0xba
 1363 06ae 25040000 		.4byte	0x425
 1364 06b2 64010000 		.4byte	.LLST12
 1365 06b6 25       		.uleb128 0x25
 1366 06b7 6D736700 		.ascii	"msg\000"
 1367 06bb 01       		.byte	0x1
 1368 06bc BB       		.byte	0xbb
 1369 06bd EB000000 		.4byte	0xeb
 1370 06c1 82010000 		.4byte	.LLST13
 1371 06c5 1A       		.uleb128 0x1a
 1372 06c6 57040000 		.4byte	0x457
 1373 06ca 10000000 		.4byte	.LBB26
 1374 06ce 18000000 		.4byte	.Ldebug_ranges0+0x18
 1375 06d2 01       		.byte	0x1
 1376 06d3 C5       		.byte	0xc5
 1377 06d4 FA060000 		.4byte	0x6fa
 1378 06d8 1B       		.uleb128 0x1b
 1379 06d9 6D040000 		.4byte	0x46d
 1380 06dd A0010000 		.4byte	.LLST14
 1381 06e1 1B       		.uleb128 0x1b
 1382 06e2 63040000 		.4byte	0x463
 1383 06e6 C1010000 		.4byte	.LLST15
 1384 06ea 1C       		.uleb128 0x1c
 1385 06eb 18000000 		.4byte	.Ldebug_ranges0+0x18
 1386 06ef 1D       		.uleb128 0x1d
 1387 06f0 78040000 		.4byte	0x478
 1388 06f4 D4010000 		.4byte	.LLST16
 1389 06f8 00       		.byte	0
 1390 06f9 00       		.byte	0
 1391 06fa 22       		.uleb128 0x22
 1392 06fb 0C000000 		.4byte	.LVL20
 1393 06ff 33090000 		.4byte	0x933
 1394 0703 23       		.uleb128 0x23
 1395 0704 32000000 		.4byte	.LVL25
 1396 0708 3E090000 		.4byte	0x93e
 1397 070c 16070000 		.4byte	0x716
 1398 0710 1F       		.uleb128 0x1f
 1399 0711 01       		.uleb128 0x1
 1400 0712 50       		.byte	0x50
 1401 0713 01       		.uleb128 0x1
 1402 0714 35       		.byte	0x35
 1403 0715 00       		.byte	0
 1404 0716 1E       		.uleb128 0x1e
 1405 0717 3A000000 		.4byte	.LVL27
 1406 071b 4F090000 		.4byte	0x94f
 1407 071f 1F       		.uleb128 0x1f
 1408 0720 01       		.uleb128 0x1
 1409 0721 50       		.byte	0x50
 1410 0722 02       		.uleb128 0x2
ARM GAS  /var/folders/4k/6h5l9jl178sb4hslwv3xp1mr0000gn/T//cceTuOpN.s 			page 26


 1411 0723 76       		.byte	0x76
 1412 0724 00       		.sleb128 0
 1413 0725 00       		.byte	0
 1414 0726 00       		.byte	0
 1415 0727 24       		.uleb128 0x24
 1416 0728 1E040000 		.4byte	.LASF74
 1417 072c 01       		.byte	0x1
 1418 072d 9E       		.byte	0x9e
 1419 072e EB000000 		.4byte	0xeb
 1420 0732 00000000 		.4byte	.LFB12
 1421 0736 14000000 		.4byte	.LFE12-.LFB12
 1422 073a 01       		.uleb128 0x1
 1423 073b 9C       		.byte	0x9c
 1424 073c A3070000 		.4byte	0x7a3
 1425 0740 17       		.uleb128 0x17
 1426 0741 637000   		.ascii	"cp\000"
 1427 0744 01       		.byte	0x1
 1428 0745 9E       		.byte	0x9e
 1429 0746 A5040000 		.4byte	0x4a5
 1430 074a F2010000 		.4byte	.LLST17
 1431 074e 19       		.uleb128 0x19
 1432 074f 6D736700 		.ascii	"msg\000"
 1433 0753 01       		.byte	0x1
 1434 0754 9F       		.byte	0x9f
 1435 0755 EB000000 		.4byte	0xeb
 1436 0759 01       		.uleb128 0x1
 1437 075a 50       		.byte	0x50
 1438 075b 18       		.uleb128 0x18
 1439 075c 02000000 		.4byte	.LBB30
 1440 0760 06000000 		.4byte	.LBE30-.LBB30
 1441 0764 76070000 		.4byte	0x776
 1442 0768 19       		.uleb128 0x19
 1443 0769 746D7000 		.ascii	"tmp\000"
 1444 076d 01       		.byte	0x1
 1445 076e A1       		.byte	0xa1
 1446 076f A2000000 		.4byte	0xa2
 1447 0773 01       		.uleb128 0x1
 1448 0774 53       		.byte	0x53
 1449 0775 00       		.byte	0
 1450 0776 18       		.uleb128 0x18
 1451 0777 0C000000 		.4byte	.LBB31
 1452 077b 06000000 		.4byte	.LBE31-.LBB31
 1453 077f 91070000 		.4byte	0x791
 1454 0783 19       		.uleb128 0x19
 1455 0784 746D7000 		.ascii	"tmp\000"
 1456 0788 01       		.byte	0x1
 1457 0789 A3       		.byte	0xa3
 1458 078a A2000000 		.4byte	0xa2
 1459 078e 01       		.uleb128 0x1
 1460 078f 53       		.byte	0x53
 1461 0790 00       		.byte	0
 1462 0791 1E       		.uleb128 0x1e
 1463 0792 0C000000 		.4byte	.LVL30
 1464 0796 72060000 		.4byte	0x672
 1465 079a 1F       		.uleb128 0x1f
 1466 079b 01       		.uleb128 0x1
 1467 079c 50       		.byte	0x50
ARM GAS  /var/folders/4k/6h5l9jl178sb4hslwv3xp1mr0000gn/T//cceTuOpN.s 			page 27


 1468 079d 03       		.uleb128 0x3
 1469 079e F3       		.byte	0xf3
 1470 079f 01       		.uleb128 0x1
 1471 07a0 50       		.byte	0x50
 1472 07a1 00       		.byte	0
 1473 07a2 00       		.byte	0
 1474 07a3 26       		.uleb128 0x26
 1475 07a4 9F010000 		.4byte	.LASF75
 1476 07a8 01       		.byte	0x1
 1477 07a9 0E01     		.2byte	0x10e
 1478 07ab EB000000 		.4byte	0xeb
 1479 07af 00000000 		.4byte	.LFB15
 1480 07b3 50000000 		.4byte	.LFE15-.LFB15
 1481 07b7 01       		.uleb128 0x1
 1482 07b8 9C       		.byte	0x9c
 1483 07b9 64080000 		.4byte	0x864
 1484 07bd 27       		.uleb128 0x27
 1485 07be 637000   		.ascii	"cp\000"
 1486 07c1 01       		.byte	0x1
 1487 07c2 0E01     		.2byte	0x10e
 1488 07c4 A5040000 		.4byte	0x4a5
 1489 07c8 13020000 		.4byte	.LLST18
 1490 07cc 28       		.uleb128 0x28
 1491 07cd CD010000 		.4byte	.LASF76
 1492 07d1 01       		.byte	0x1
 1493 07d2 0E01     		.2byte	0x10e
 1494 07d4 01010000 		.4byte	0x101
 1495 07d8 3F020000 		.4byte	.LLST19
 1496 07dc 29       		.uleb128 0x29
 1497 07dd 6D7000   		.ascii	"mp\000"
 1498 07e0 01       		.byte	0x1
 1499 07e1 0F01     		.2byte	0x10f
 1500 07e3 25040000 		.4byte	0x425
 1501 07e7 6B020000 		.4byte	.LLST20
 1502 07eb 29       		.uleb128 0x29
 1503 07ec 6D736700 		.ascii	"msg\000"
 1504 07f0 01       		.byte	0x1
 1505 07f1 1001     		.2byte	0x110
 1506 07f3 EB000000 		.4byte	0xeb
 1507 07f7 89020000 		.4byte	.LLST21
 1508 07fb 2A       		.uleb128 0x2a
 1509 07fc 57040000 		.4byte	0x457
 1510 0800 12000000 		.4byte	.LBB32
 1511 0804 30000000 		.4byte	.Ldebug_ranges0+0x30
 1512 0808 01       		.byte	0x1
 1513 0809 1A01     		.2byte	0x11a
 1514 080b 31080000 		.4byte	0x831
 1515 080f 1B       		.uleb128 0x1b
 1516 0810 6D040000 		.4byte	0x46d
 1517 0814 B2020000 		.4byte	.LLST22
 1518 0818 1B       		.uleb128 0x1b
 1519 0819 63040000 		.4byte	0x463
 1520 081d D3020000 		.4byte	.LLST23
 1521 0821 1C       		.uleb128 0x1c
 1522 0822 30000000 		.4byte	.Ldebug_ranges0+0x30
 1523 0826 1D       		.uleb128 0x1d
 1524 0827 78040000 		.4byte	0x478
ARM GAS  /var/folders/4k/6h5l9jl178sb4hslwv3xp1mr0000gn/T//cceTuOpN.s 			page 28


 1525 082b E6020000 		.4byte	.LLST24
 1526 082f 00       		.byte	0
 1527 0830 00       		.byte	0
 1528 0831 22       		.uleb128 0x22
 1529 0832 0C000000 		.4byte	.LVL32
 1530 0836 33090000 		.4byte	0x933
 1531 083a 23       		.uleb128 0x23
 1532 083b 38000000 		.4byte	.LVL38
 1533 083f 60090000 		.4byte	0x960
 1534 0843 53080000 		.4byte	0x853
 1535 0847 1F       		.uleb128 0x1f
 1536 0848 01       		.uleb128 0x1
 1537 0849 51       		.byte	0x51
 1538 084a 02       		.uleb128 0x2
 1539 084b 78       		.byte	0x78
 1540 084c 00       		.sleb128 0
 1541 084d 1F       		.uleb128 0x1f
 1542 084e 01       		.uleb128 0x1
 1543 084f 50       		.byte	0x50
 1544 0850 01       		.uleb128 0x1
 1545 0851 35       		.byte	0x35
 1546 0852 00       		.byte	0
 1547 0853 1E       		.uleb128 0x1e
 1548 0854 44000000 		.4byte	.LVL41
 1549 0858 4F090000 		.4byte	0x94f
 1550 085c 1F       		.uleb128 0x1f
 1551 085d 01       		.uleb128 0x1
 1552 085e 50       		.byte	0x50
 1553 085f 02       		.uleb128 0x2
 1554 0860 77       		.byte	0x77
 1555 0861 00       		.sleb128 0
 1556 0862 00       		.byte	0
 1557 0863 00       		.byte	0
 1558 0864 24       		.uleb128 0x24
 1559 0865 7C040000 		.4byte	.LASF77
 1560 0869 01       		.byte	0x1
 1561 086a E9       		.byte	0xe9
 1562 086b EB000000 		.4byte	0xeb
 1563 086f 00000000 		.4byte	.LFB14
 1564 0873 14000000 		.4byte	.LFE14-.LFB14
 1565 0877 01       		.uleb128 0x1
 1566 0878 9C       		.byte	0x9c
 1567 0879 F6080000 		.4byte	0x8f6
 1568 087d 17       		.uleb128 0x17
 1569 087e 637000   		.ascii	"cp\000"
 1570 0881 01       		.byte	0x1
 1571 0882 E9       		.byte	0xe9
 1572 0883 A5040000 		.4byte	0x4a5
 1573 0887 04030000 		.4byte	.LLST25
 1574 088b 2B       		.uleb128 0x2b
 1575 088c CD010000 		.4byte	.LASF76
 1576 0890 01       		.byte	0x1
 1577 0891 E9       		.byte	0xe9
 1578 0892 01010000 		.4byte	0x101
 1579 0896 25030000 		.4byte	.LLST26
 1580 089a 19       		.uleb128 0x19
 1581 089b 6D736700 		.ascii	"msg\000"
ARM GAS  /var/folders/4k/6h5l9jl178sb4hslwv3xp1mr0000gn/T//cceTuOpN.s 			page 29


 1582 089f 01       		.byte	0x1
 1583 08a0 EA       		.byte	0xea
 1584 08a1 EB000000 		.4byte	0xeb
 1585 08a5 01       		.uleb128 0x1
 1586 08a6 50       		.byte	0x50
 1587 08a7 18       		.uleb128 0x18
 1588 08a8 02000000 		.4byte	.LBB40
 1589 08ac 06000000 		.4byte	.LBE40-.LBB40
 1590 08b0 C2080000 		.4byte	0x8c2
 1591 08b4 19       		.uleb128 0x19
 1592 08b5 746D7000 		.ascii	"tmp\000"
 1593 08b9 01       		.byte	0x1
 1594 08ba EC       		.byte	0xec
 1595 08bb A2000000 		.4byte	0xa2
 1596 08bf 01       		.uleb128 0x1
 1597 08c0 53       		.byte	0x53
 1598 08c1 00       		.byte	0
 1599 08c2 18       		.uleb128 0x18
 1600 08c3 0C000000 		.4byte	.LBB41
 1601 08c7 06000000 		.4byte	.LBE41-.LBB41
 1602 08cb DD080000 		.4byte	0x8dd
 1603 08cf 19       		.uleb128 0x19
 1604 08d0 746D7000 		.ascii	"tmp\000"
 1605 08d4 01       		.byte	0x1
 1606 08d5 EE       		.byte	0xee
 1607 08d6 A2000000 		.4byte	0xa2
 1608 08da 01       		.uleb128 0x1
 1609 08db 53       		.byte	0x53
 1610 08dc 00       		.byte	0
 1611 08dd 1E       		.uleb128 0x1e
 1612 08de 0C000000 		.4byte	.LVL44
 1613 08e2 A3070000 		.4byte	0x7a3
 1614 08e6 1F       		.uleb128 0x1f
 1615 08e7 01       		.uleb128 0x1
 1616 08e8 51       		.byte	0x51
 1617 08e9 03       		.uleb128 0x3
 1618 08ea F3       		.byte	0xf3
 1619 08eb 01       		.uleb128 0x1
 1620 08ec 51       		.byte	0x51
 1621 08ed 1F       		.uleb128 0x1f
 1622 08ee 01       		.uleb128 0x1
 1623 08ef 50       		.byte	0x50
 1624 08f0 03       		.uleb128 0x3
 1625 08f1 F3       		.byte	0xf3
 1626 08f2 01       		.uleb128 0x1
 1627 08f3 50       		.byte	0x50
 1628 08f4 00       		.byte	0
 1629 08f5 00       		.byte	0
 1630 08f6 2C       		.uleb128 0x2c
 1631 08f7 60040000 		.4byte	.LASF87
 1632 08fb 09       		.byte	0x9
 1633 08fc 6F       		.byte	0x6f
 1634 08fd 6D030000 		.4byte	0x36d
 1635 0901 2D       		.uleb128 0x2d
 1636 0902 42040000 		.4byte	.LASF78
 1637 0906 09       		.byte	0x9
 1638 0907 99       		.byte	0x99
ARM GAS  /var/folders/4k/6h5l9jl178sb4hslwv3xp1mr0000gn/T//cceTuOpN.s 			page 30


 1639 0908 17090000 		.4byte	0x917
 1640 090c 2E       		.uleb128 0x2e
 1641 090d 35020000 		.4byte	0x235
 1642 0911 2E       		.uleb128 0x2e
 1643 0912 EB000000 		.4byte	0xeb
 1644 0916 00       		.byte	0
 1645 0917 2F       		.uleb128 0x2f
 1646 0918 C3030000 		.4byte	.LASF88
 1647 091c 09       		.byte	0x9
 1648 091d 90       		.byte	0x90
 1649 091e 35020000 		.4byte	0x235
 1650 0922 2C090000 		.4byte	0x92c
 1651 0926 2E       		.uleb128 0x2e
 1652 0927 35020000 		.4byte	0x235
 1653 092b 00       		.byte	0
 1654 092c 30       		.uleb128 0x30
 1655 092d E9000000 		.4byte	.LASF89
 1656 0931 09       		.byte	0x9
 1657 0932 9C       		.byte	0x9c
 1658 0933 31       		.uleb128 0x31
 1659 0934 1B010000 		.4byte	.LASF90
 1660 0938 0A       		.byte	0xa
 1661 0939 3E       		.byte	0x3e
 1662 093a 25040000 		.4byte	0x425
 1663 093e 2D       		.uleb128 0x2d
 1664 093f 99030000 		.4byte	.LASF79
 1665 0943 09       		.byte	0x9
 1666 0944 93       		.byte	0x93
 1667 0945 4F090000 		.4byte	0x94f
 1668 0949 2E       		.uleb128 0x2e
 1669 094a BF000000 		.4byte	0xbf
 1670 094e 00       		.byte	0
 1671 094f 2D       		.uleb128 0x2d
 1672 0950 D6000000 		.4byte	.LASF80
 1673 0954 0A       		.byte	0xa
 1674 0955 3A       		.byte	0x3a
 1675 0956 60090000 		.4byte	0x960
 1676 095a 2E       		.uleb128 0x2e
 1677 095b 25040000 		.4byte	0x425
 1678 095f 00       		.byte	0
 1679 0960 32       		.uleb128 0x32
 1680 0961 8E040000 		.4byte	.LASF81
 1681 0965 09       		.byte	0x9
 1682 0966 96       		.byte	0x96
 1683 0967 EB000000 		.4byte	0xeb
 1684 096b 2E       		.uleb128 0x2e
 1685 096c BF000000 		.4byte	0xbf
 1686 0970 2E       		.uleb128 0x2e
 1687 0971 01010000 		.4byte	0x101
 1688 0975 00       		.byte	0
 1689 0976 00       		.byte	0
 1690              		.section	.debug_abbrev,"",%progbits
 1691              	.Ldebug_abbrev0:
 1692 0000 01       		.uleb128 0x1
 1693 0001 11       		.uleb128 0x11
 1694 0002 01       		.byte	0x1
 1695 0003 25       		.uleb128 0x25
ARM GAS  /var/folders/4k/6h5l9jl178sb4hslwv3xp1mr0000gn/T//cceTuOpN.s 			page 31


 1696 0004 0E       		.uleb128 0xe
 1697 0005 13       		.uleb128 0x13
 1698 0006 0B       		.uleb128 0xb
 1699 0007 03       		.uleb128 0x3
 1700 0008 0E       		.uleb128 0xe
 1701 0009 1B       		.uleb128 0x1b
 1702 000a 0E       		.uleb128 0xe
 1703 000b 55       		.uleb128 0x55
 1704 000c 17       		.uleb128 0x17
 1705 000d 11       		.uleb128 0x11
 1706 000e 01       		.uleb128 0x1
 1707 000f 10       		.uleb128 0x10
 1708 0010 17       		.uleb128 0x17
 1709 0011 00       		.byte	0
 1710 0012 00       		.byte	0
 1711 0013 02       		.uleb128 0x2
 1712 0014 24       		.uleb128 0x24
 1713 0015 00       		.byte	0
 1714 0016 0B       		.uleb128 0xb
 1715 0017 0B       		.uleb128 0xb
 1716 0018 3E       		.uleb128 0x3e
 1717 0019 0B       		.uleb128 0xb
 1718 001a 03       		.uleb128 0x3
 1719 001b 08       		.uleb128 0x8
 1720 001c 00       		.byte	0
 1721 001d 00       		.byte	0
 1722 001e 03       		.uleb128 0x3
 1723 001f 24       		.uleb128 0x24
 1724 0020 00       		.byte	0
 1725 0021 0B       		.uleb128 0xb
 1726 0022 0B       		.uleb128 0xb
 1727 0023 3E       		.uleb128 0x3e
 1728 0024 0B       		.uleb128 0xb
 1729 0025 03       		.uleb128 0x3
 1730 0026 0E       		.uleb128 0xe
 1731 0027 00       		.byte	0
 1732 0028 00       		.byte	0
 1733 0029 04       		.uleb128 0x4
 1734 002a 16       		.uleb128 0x16
 1735 002b 00       		.byte	0
 1736 002c 03       		.uleb128 0x3
 1737 002d 0E       		.uleb128 0xe
 1738 002e 3A       		.uleb128 0x3a
 1739 002f 0B       		.uleb128 0xb
 1740 0030 3B       		.uleb128 0x3b
 1741 0031 0B       		.uleb128 0xb
 1742 0032 49       		.uleb128 0x49
 1743 0033 13       		.uleb128 0x13
 1744 0034 00       		.byte	0
 1745 0035 00       		.byte	0
 1746 0036 05       		.uleb128 0x5
 1747 0037 13       		.uleb128 0x13
 1748 0038 01       		.byte	0x1
 1749 0039 03       		.uleb128 0x3
 1750 003a 0E       		.uleb128 0xe
 1751 003b 0B       		.uleb128 0xb
 1752 003c 0B       		.uleb128 0xb
ARM GAS  /var/folders/4k/6h5l9jl178sb4hslwv3xp1mr0000gn/T//cceTuOpN.s 			page 32


 1753 003d 3A       		.uleb128 0x3a
 1754 003e 0B       		.uleb128 0xb
 1755 003f 3B       		.uleb128 0x3b
 1756 0040 0B       		.uleb128 0xb
 1757 0041 01       		.uleb128 0x1
 1758 0042 13       		.uleb128 0x13
 1759 0043 00       		.byte	0
 1760 0044 00       		.byte	0
 1761 0045 06       		.uleb128 0x6
 1762 0046 0D       		.uleb128 0xd
 1763 0047 00       		.byte	0
 1764 0048 03       		.uleb128 0x3
 1765 0049 0E       		.uleb128 0xe
 1766 004a 3A       		.uleb128 0x3a
 1767 004b 0B       		.uleb128 0xb
 1768 004c 3B       		.uleb128 0x3b
 1769 004d 0B       		.uleb128 0xb
 1770 004e 49       		.uleb128 0x49
 1771 004f 13       		.uleb128 0x13
 1772 0050 38       		.uleb128 0x38
 1773 0051 0B       		.uleb128 0xb
 1774 0052 00       		.byte	0
 1775 0053 00       		.byte	0
 1776 0054 07       		.uleb128 0x7
 1777 0055 0D       		.uleb128 0xd
 1778 0056 00       		.byte	0
 1779 0057 03       		.uleb128 0x3
 1780 0058 08       		.uleb128 0x8
 1781 0059 3A       		.uleb128 0x3a
 1782 005a 0B       		.uleb128 0xb
 1783 005b 3B       		.uleb128 0x3b
 1784 005c 0B       		.uleb128 0xb
 1785 005d 49       		.uleb128 0x49
 1786 005e 13       		.uleb128 0x13
 1787 005f 38       		.uleb128 0x38
 1788 0060 0B       		.uleb128 0xb
 1789 0061 00       		.byte	0
 1790 0062 00       		.byte	0
 1791 0063 08       		.uleb128 0x8
 1792 0064 13       		.uleb128 0x13
 1793 0065 01       		.byte	0x1
 1794 0066 0B       		.uleb128 0xb
 1795 0067 0B       		.uleb128 0xb
 1796 0068 3A       		.uleb128 0x3a
 1797 0069 0B       		.uleb128 0xb
 1798 006a 3B       		.uleb128 0x3b
 1799 006b 0B       		.uleb128 0xb
 1800 006c 01       		.uleb128 0x1
 1801 006d 13       		.uleb128 0x13
 1802 006e 00       		.byte	0
 1803 006f 00       		.byte	0
 1804 0070 09       		.uleb128 0x9
 1805 0071 0F       		.uleb128 0xf
 1806 0072 00       		.byte	0
 1807 0073 0B       		.uleb128 0xb
 1808 0074 0B       		.uleb128 0xb
 1809 0075 49       		.uleb128 0x49
ARM GAS  /var/folders/4k/6h5l9jl178sb4hslwv3xp1mr0000gn/T//cceTuOpN.s 			page 33


 1810 0076 13       		.uleb128 0x13
 1811 0077 00       		.byte	0
 1812 0078 00       		.byte	0
 1813 0079 0A       		.uleb128 0xa
 1814 007a 0F       		.uleb128 0xf
 1815 007b 00       		.byte	0
 1816 007c 0B       		.uleb128 0xb
 1817 007d 0B       		.uleb128 0xb
 1818 007e 00       		.byte	0
 1819 007f 00       		.byte	0
 1820 0080 0B       		.uleb128 0xb
 1821 0081 13       		.uleb128 0x13
 1822 0082 01       		.byte	0x1
 1823 0083 03       		.uleb128 0x3
 1824 0084 0E       		.uleb128 0xe
 1825 0085 0B       		.uleb128 0xb
 1826 0086 0B       		.uleb128 0xb
 1827 0087 3A       		.uleb128 0x3a
 1828 0088 0B       		.uleb128 0xb
 1829 0089 3B       		.uleb128 0x3b
 1830 008a 05       		.uleb128 0x5
 1831 008b 01       		.uleb128 0x1
 1832 008c 13       		.uleb128 0x13
 1833 008d 00       		.byte	0
 1834 008e 00       		.byte	0
 1835 008f 0C       		.uleb128 0xc
 1836 0090 0D       		.uleb128 0xd
 1837 0091 00       		.byte	0
 1838 0092 03       		.uleb128 0x3
 1839 0093 08       		.uleb128 0x8
 1840 0094 3A       		.uleb128 0x3a
 1841 0095 0B       		.uleb128 0xb
 1842 0096 3B       		.uleb128 0x3b
 1843 0097 05       		.uleb128 0x5
 1844 0098 49       		.uleb128 0x49
 1845 0099 13       		.uleb128 0x13
 1846 009a 38       		.uleb128 0x38
 1847 009b 0B       		.uleb128 0xb
 1848 009c 00       		.byte	0
 1849 009d 00       		.byte	0
 1850 009e 0D       		.uleb128 0xd
 1851 009f 35       		.uleb128 0x35
 1852 00a0 00       		.byte	0
 1853 00a1 49       		.uleb128 0x49
 1854 00a2 13       		.uleb128 0x13
 1855 00a3 00       		.byte	0
 1856 00a4 00       		.byte	0
 1857 00a5 0E       		.uleb128 0xe
 1858 00a6 17       		.uleb128 0x17
 1859 00a7 01       		.byte	0x1
 1860 00a8 0B       		.uleb128 0xb
 1861 00a9 0B       		.uleb128 0xb
 1862 00aa 3A       		.uleb128 0x3a
 1863 00ab 0B       		.uleb128 0xb
 1864 00ac 3B       		.uleb128 0x3b
 1865 00ad 0B       		.uleb128 0xb
 1866 00ae 01       		.uleb128 0x1
ARM GAS  /var/folders/4k/6h5l9jl178sb4hslwv3xp1mr0000gn/T//cceTuOpN.s 			page 34


 1867 00af 13       		.uleb128 0x13
 1868 00b0 00       		.byte	0
 1869 00b1 00       		.byte	0
 1870 00b2 0F       		.uleb128 0xf
 1871 00b3 0D       		.uleb128 0xd
 1872 00b4 00       		.byte	0
 1873 00b5 03       		.uleb128 0x3
 1874 00b6 0E       		.uleb128 0xe
 1875 00b7 3A       		.uleb128 0x3a
 1876 00b8 0B       		.uleb128 0xb
 1877 00b9 3B       		.uleb128 0x3b
 1878 00ba 0B       		.uleb128 0xb
 1879 00bb 49       		.uleb128 0x49
 1880 00bc 13       		.uleb128 0x13
 1881 00bd 00       		.byte	0
 1882 00be 00       		.byte	0
 1883 00bf 10       		.uleb128 0x10
 1884 00c0 26       		.uleb128 0x26
 1885 00c1 00       		.byte	0
 1886 00c2 49       		.uleb128 0x49
 1887 00c3 13       		.uleb128 0x13
 1888 00c4 00       		.byte	0
 1889 00c5 00       		.byte	0
 1890 00c6 11       		.uleb128 0x11
 1891 00c7 2E       		.uleb128 0x2e
 1892 00c8 01       		.byte	0x1
 1893 00c9 03       		.uleb128 0x3
 1894 00ca 0E       		.uleb128 0xe
 1895 00cb 3A       		.uleb128 0x3a
 1896 00cc 0B       		.uleb128 0xb
 1897 00cd 3B       		.uleb128 0x3b
 1898 00ce 0B       		.uleb128 0xb
 1899 00cf 27       		.uleb128 0x27
 1900 00d0 19       		.uleb128 0x19
 1901 00d1 49       		.uleb128 0x49
 1902 00d2 13       		.uleb128 0x13
 1903 00d3 20       		.uleb128 0x20
 1904 00d4 0B       		.uleb128 0xb
 1905 00d5 01       		.uleb128 0x1
 1906 00d6 13       		.uleb128 0x13
 1907 00d7 00       		.byte	0
 1908 00d8 00       		.byte	0
 1909 00d9 12       		.uleb128 0x12
 1910 00da 05       		.uleb128 0x5
 1911 00db 00       		.byte	0
 1912 00dc 03       		.uleb128 0x3
 1913 00dd 08       		.uleb128 0x8
 1914 00de 3A       		.uleb128 0x3a
 1915 00df 0B       		.uleb128 0xb
 1916 00e0 3B       		.uleb128 0x3b
 1917 00e1 0B       		.uleb128 0xb
 1918 00e2 49       		.uleb128 0x49
 1919 00e3 13       		.uleb128 0x13
 1920 00e4 00       		.byte	0
 1921 00e5 00       		.byte	0
 1922 00e6 13       		.uleb128 0x13
 1923 00e7 34       		.uleb128 0x34
ARM GAS  /var/folders/4k/6h5l9jl178sb4hslwv3xp1mr0000gn/T//cceTuOpN.s 			page 35


 1924 00e8 00       		.byte	0
 1925 00e9 03       		.uleb128 0x3
 1926 00ea 08       		.uleb128 0x8
 1927 00eb 3A       		.uleb128 0x3a
 1928 00ec 0B       		.uleb128 0xb
 1929 00ed 3B       		.uleb128 0x3b
 1930 00ee 0B       		.uleb128 0xb
 1931 00ef 49       		.uleb128 0x49
 1932 00f0 13       		.uleb128 0x13
 1933 00f1 00       		.byte	0
 1934 00f2 00       		.byte	0
 1935 00f3 14       		.uleb128 0x14
 1936 00f4 2E       		.uleb128 0x2e
 1937 00f5 01       		.byte	0x1
 1938 00f6 03       		.uleb128 0x3
 1939 00f7 0E       		.uleb128 0xe
 1940 00f8 3A       		.uleb128 0x3a
 1941 00f9 0B       		.uleb128 0xb
 1942 00fa 3B       		.uleb128 0x3b
 1943 00fb 0B       		.uleb128 0xb
 1944 00fc 27       		.uleb128 0x27
 1945 00fd 19       		.uleb128 0x19
 1946 00fe 20       		.uleb128 0x20
 1947 00ff 0B       		.uleb128 0xb
 1948 0100 01       		.uleb128 0x1
 1949 0101 13       		.uleb128 0x13
 1950 0102 00       		.byte	0
 1951 0103 00       		.byte	0
 1952 0104 15       		.uleb128 0x15
 1953 0105 2E       		.uleb128 0x2e
 1954 0106 01       		.byte	0x1
 1955 0107 3F       		.uleb128 0x3f
 1956 0108 19       		.uleb128 0x19
 1957 0109 03       		.uleb128 0x3
 1958 010a 0E       		.uleb128 0xe
 1959 010b 3A       		.uleb128 0x3a
 1960 010c 0B       		.uleb128 0xb
 1961 010d 3B       		.uleb128 0x3b
 1962 010e 0B       		.uleb128 0xb
 1963 010f 27       		.uleb128 0x27
 1964 0110 19       		.uleb128 0x19
 1965 0111 11       		.uleb128 0x11
 1966 0112 01       		.uleb128 0x1
 1967 0113 12       		.uleb128 0x12
 1968 0114 06       		.uleb128 0x6
 1969 0115 40       		.uleb128 0x40
 1970 0116 18       		.uleb128 0x18
 1971 0117 9742     		.uleb128 0x2117
 1972 0119 19       		.uleb128 0x19
 1973 011a 01       		.uleb128 0x1
 1974 011b 13       		.uleb128 0x13
 1975 011c 00       		.byte	0
 1976 011d 00       		.byte	0
 1977 011e 16       		.uleb128 0x16
 1978 011f 05       		.uleb128 0x5
 1979 0120 00       		.byte	0
 1980 0121 03       		.uleb128 0x3
ARM GAS  /var/folders/4k/6h5l9jl178sb4hslwv3xp1mr0000gn/T//cceTuOpN.s 			page 36


 1981 0122 08       		.uleb128 0x8
 1982 0123 3A       		.uleb128 0x3a
 1983 0124 0B       		.uleb128 0xb
 1984 0125 3B       		.uleb128 0x3b
 1985 0126 0B       		.uleb128 0xb
 1986 0127 49       		.uleb128 0x49
 1987 0128 13       		.uleb128 0x13
 1988 0129 02       		.uleb128 0x2
 1989 012a 18       		.uleb128 0x18
 1990 012b 00       		.byte	0
 1991 012c 00       		.byte	0
 1992 012d 17       		.uleb128 0x17
 1993 012e 05       		.uleb128 0x5
 1994 012f 00       		.byte	0
 1995 0130 03       		.uleb128 0x3
 1996 0131 08       		.uleb128 0x8
 1997 0132 3A       		.uleb128 0x3a
 1998 0133 0B       		.uleb128 0xb
 1999 0134 3B       		.uleb128 0x3b
 2000 0135 0B       		.uleb128 0xb
 2001 0136 49       		.uleb128 0x49
 2002 0137 13       		.uleb128 0x13
 2003 0138 02       		.uleb128 0x2
 2004 0139 17       		.uleb128 0x17
 2005 013a 00       		.byte	0
 2006 013b 00       		.byte	0
 2007 013c 18       		.uleb128 0x18
 2008 013d 0B       		.uleb128 0xb
 2009 013e 01       		.byte	0x1
 2010 013f 11       		.uleb128 0x11
 2011 0140 01       		.uleb128 0x1
 2012 0141 12       		.uleb128 0x12
 2013 0142 06       		.uleb128 0x6
 2014 0143 01       		.uleb128 0x1
 2015 0144 13       		.uleb128 0x13
 2016 0145 00       		.byte	0
 2017 0146 00       		.byte	0
 2018 0147 19       		.uleb128 0x19
 2019 0148 34       		.uleb128 0x34
 2020 0149 00       		.byte	0
 2021 014a 03       		.uleb128 0x3
 2022 014b 08       		.uleb128 0x8
 2023 014c 3A       		.uleb128 0x3a
 2024 014d 0B       		.uleb128 0xb
 2025 014e 3B       		.uleb128 0x3b
 2026 014f 0B       		.uleb128 0xb
 2027 0150 49       		.uleb128 0x49
 2028 0151 13       		.uleb128 0x13
 2029 0152 02       		.uleb128 0x2
 2030 0153 18       		.uleb128 0x18
 2031 0154 00       		.byte	0
 2032 0155 00       		.byte	0
 2033 0156 1A       		.uleb128 0x1a
 2034 0157 1D       		.uleb128 0x1d
 2035 0158 01       		.byte	0x1
 2036 0159 31       		.uleb128 0x31
 2037 015a 13       		.uleb128 0x13
ARM GAS  /var/folders/4k/6h5l9jl178sb4hslwv3xp1mr0000gn/T//cceTuOpN.s 			page 37


 2038 015b 52       		.uleb128 0x52
 2039 015c 01       		.uleb128 0x1
 2040 015d 55       		.uleb128 0x55
 2041 015e 17       		.uleb128 0x17
 2042 015f 58       		.uleb128 0x58
 2043 0160 0B       		.uleb128 0xb
 2044 0161 59       		.uleb128 0x59
 2045 0162 0B       		.uleb128 0xb
 2046 0163 01       		.uleb128 0x1
 2047 0164 13       		.uleb128 0x13
 2048 0165 00       		.byte	0
 2049 0166 00       		.byte	0
 2050 0167 1B       		.uleb128 0x1b
 2051 0168 05       		.uleb128 0x5
 2052 0169 00       		.byte	0
 2053 016a 31       		.uleb128 0x31
 2054 016b 13       		.uleb128 0x13
 2055 016c 02       		.uleb128 0x2
 2056 016d 17       		.uleb128 0x17
 2057 016e 00       		.byte	0
 2058 016f 00       		.byte	0
 2059 0170 1C       		.uleb128 0x1c
 2060 0171 0B       		.uleb128 0xb
 2061 0172 01       		.byte	0x1
 2062 0173 55       		.uleb128 0x55
 2063 0174 17       		.uleb128 0x17
 2064 0175 00       		.byte	0
 2065 0176 00       		.byte	0
 2066 0177 1D       		.uleb128 0x1d
 2067 0178 34       		.uleb128 0x34
 2068 0179 00       		.byte	0
 2069 017a 31       		.uleb128 0x31
 2070 017b 13       		.uleb128 0x13
 2071 017c 02       		.uleb128 0x2
 2072 017d 17       		.uleb128 0x17
 2073 017e 00       		.byte	0
 2074 017f 00       		.byte	0
 2075 0180 1E       		.uleb128 0x1e
 2076 0181 898201   		.uleb128 0x4109
 2077 0184 01       		.byte	0x1
 2078 0185 11       		.uleb128 0x11
 2079 0186 01       		.uleb128 0x1
 2080 0187 31       		.uleb128 0x31
 2081 0188 13       		.uleb128 0x13
 2082 0189 00       		.byte	0
 2083 018a 00       		.byte	0
 2084 018b 1F       		.uleb128 0x1f
 2085 018c 8A8201   		.uleb128 0x410a
 2086 018f 00       		.byte	0
 2087 0190 02       		.uleb128 0x2
 2088 0191 18       		.uleb128 0x18
 2089 0192 9142     		.uleb128 0x2111
 2090 0194 18       		.uleb128 0x18
 2091 0195 00       		.byte	0
 2092 0196 00       		.byte	0
 2093 0197 20       		.uleb128 0x20
 2094 0198 1D       		.uleb128 0x1d
ARM GAS  /var/folders/4k/6h5l9jl178sb4hslwv3xp1mr0000gn/T//cceTuOpN.s 			page 38


 2095 0199 01       		.byte	0x1
 2096 019a 31       		.uleb128 0x31
 2097 019b 13       		.uleb128 0x13
 2098 019c 11       		.uleb128 0x11
 2099 019d 01       		.uleb128 0x1
 2100 019e 12       		.uleb128 0x12
 2101 019f 06       		.uleb128 0x6
 2102 01a0 58       		.uleb128 0x58
 2103 01a1 0B       		.uleb128 0xb
 2104 01a2 59       		.uleb128 0x59
 2105 01a3 0B       		.uleb128 0xb
 2106 01a4 01       		.uleb128 0x1
 2107 01a5 13       		.uleb128 0x13
 2108 01a6 00       		.byte	0
 2109 01a7 00       		.byte	0
 2110 01a8 21       		.uleb128 0x21
 2111 01a9 0B       		.uleb128 0xb
 2112 01aa 01       		.byte	0x1
 2113 01ab 11       		.uleb128 0x11
 2114 01ac 01       		.uleb128 0x1
 2115 01ad 12       		.uleb128 0x12
 2116 01ae 06       		.uleb128 0x6
 2117 01af 00       		.byte	0
 2118 01b0 00       		.byte	0
 2119 01b1 22       		.uleb128 0x22
 2120 01b2 898201   		.uleb128 0x4109
 2121 01b5 00       		.byte	0
 2122 01b6 11       		.uleb128 0x11
 2123 01b7 01       		.uleb128 0x1
 2124 01b8 31       		.uleb128 0x31
 2125 01b9 13       		.uleb128 0x13
 2126 01ba 00       		.byte	0
 2127 01bb 00       		.byte	0
 2128 01bc 23       		.uleb128 0x23
 2129 01bd 898201   		.uleb128 0x4109
 2130 01c0 01       		.byte	0x1
 2131 01c1 11       		.uleb128 0x11
 2132 01c2 01       		.uleb128 0x1
 2133 01c3 31       		.uleb128 0x31
 2134 01c4 13       		.uleb128 0x13
 2135 01c5 01       		.uleb128 0x1
 2136 01c6 13       		.uleb128 0x13
 2137 01c7 00       		.byte	0
 2138 01c8 00       		.byte	0
 2139 01c9 24       		.uleb128 0x24
 2140 01ca 2E       		.uleb128 0x2e
 2141 01cb 01       		.byte	0x1
 2142 01cc 3F       		.uleb128 0x3f
 2143 01cd 19       		.uleb128 0x19
 2144 01ce 03       		.uleb128 0x3
 2145 01cf 0E       		.uleb128 0xe
 2146 01d0 3A       		.uleb128 0x3a
 2147 01d1 0B       		.uleb128 0xb
 2148 01d2 3B       		.uleb128 0x3b
 2149 01d3 0B       		.uleb128 0xb
 2150 01d4 27       		.uleb128 0x27
 2151 01d5 19       		.uleb128 0x19
ARM GAS  /var/folders/4k/6h5l9jl178sb4hslwv3xp1mr0000gn/T//cceTuOpN.s 			page 39


 2152 01d6 49       		.uleb128 0x49
 2153 01d7 13       		.uleb128 0x13
 2154 01d8 11       		.uleb128 0x11
 2155 01d9 01       		.uleb128 0x1
 2156 01da 12       		.uleb128 0x12
 2157 01db 06       		.uleb128 0x6
 2158 01dc 40       		.uleb128 0x40
 2159 01dd 18       		.uleb128 0x18
 2160 01de 9742     		.uleb128 0x2117
 2161 01e0 19       		.uleb128 0x19
 2162 01e1 01       		.uleb128 0x1
 2163 01e2 13       		.uleb128 0x13
 2164 01e3 00       		.byte	0
 2165 01e4 00       		.byte	0
 2166 01e5 25       		.uleb128 0x25
 2167 01e6 34       		.uleb128 0x34
 2168 01e7 00       		.byte	0
 2169 01e8 03       		.uleb128 0x3
 2170 01e9 08       		.uleb128 0x8
 2171 01ea 3A       		.uleb128 0x3a
 2172 01eb 0B       		.uleb128 0xb
 2173 01ec 3B       		.uleb128 0x3b
 2174 01ed 0B       		.uleb128 0xb
 2175 01ee 49       		.uleb128 0x49
 2176 01ef 13       		.uleb128 0x13
 2177 01f0 02       		.uleb128 0x2
 2178 01f1 17       		.uleb128 0x17
 2179 01f2 00       		.byte	0
 2180 01f3 00       		.byte	0
 2181 01f4 26       		.uleb128 0x26
 2182 01f5 2E       		.uleb128 0x2e
 2183 01f6 01       		.byte	0x1
 2184 01f7 3F       		.uleb128 0x3f
 2185 01f8 19       		.uleb128 0x19
 2186 01f9 03       		.uleb128 0x3
 2187 01fa 0E       		.uleb128 0xe
 2188 01fb 3A       		.uleb128 0x3a
 2189 01fc 0B       		.uleb128 0xb
 2190 01fd 3B       		.uleb128 0x3b
 2191 01fe 05       		.uleb128 0x5
 2192 01ff 27       		.uleb128 0x27
 2193 0200 19       		.uleb128 0x19
 2194 0201 49       		.uleb128 0x49
 2195 0202 13       		.uleb128 0x13
 2196 0203 11       		.uleb128 0x11
 2197 0204 01       		.uleb128 0x1
 2198 0205 12       		.uleb128 0x12
 2199 0206 06       		.uleb128 0x6
 2200 0207 40       		.uleb128 0x40
 2201 0208 18       		.uleb128 0x18
 2202 0209 9742     		.uleb128 0x2117
 2203 020b 19       		.uleb128 0x19
 2204 020c 01       		.uleb128 0x1
 2205 020d 13       		.uleb128 0x13
 2206 020e 00       		.byte	0
 2207 020f 00       		.byte	0
 2208 0210 27       		.uleb128 0x27
ARM GAS  /var/folders/4k/6h5l9jl178sb4hslwv3xp1mr0000gn/T//cceTuOpN.s 			page 40


 2209 0211 05       		.uleb128 0x5
 2210 0212 00       		.byte	0
 2211 0213 03       		.uleb128 0x3
 2212 0214 08       		.uleb128 0x8
 2213 0215 3A       		.uleb128 0x3a
 2214 0216 0B       		.uleb128 0xb
 2215 0217 3B       		.uleb128 0x3b
 2216 0218 05       		.uleb128 0x5
 2217 0219 49       		.uleb128 0x49
 2218 021a 13       		.uleb128 0x13
 2219 021b 02       		.uleb128 0x2
 2220 021c 17       		.uleb128 0x17
 2221 021d 00       		.byte	0
 2222 021e 00       		.byte	0
 2223 021f 28       		.uleb128 0x28
 2224 0220 05       		.uleb128 0x5
 2225 0221 00       		.byte	0
 2226 0222 03       		.uleb128 0x3
 2227 0223 0E       		.uleb128 0xe
 2228 0224 3A       		.uleb128 0x3a
 2229 0225 0B       		.uleb128 0xb
 2230 0226 3B       		.uleb128 0x3b
 2231 0227 05       		.uleb128 0x5
 2232 0228 49       		.uleb128 0x49
 2233 0229 13       		.uleb128 0x13
 2234 022a 02       		.uleb128 0x2
 2235 022b 17       		.uleb128 0x17
 2236 022c 00       		.byte	0
 2237 022d 00       		.byte	0
 2238 022e 29       		.uleb128 0x29
 2239 022f 34       		.uleb128 0x34
 2240 0230 00       		.byte	0
 2241 0231 03       		.uleb128 0x3
 2242 0232 08       		.uleb128 0x8
 2243 0233 3A       		.uleb128 0x3a
 2244 0234 0B       		.uleb128 0xb
 2245 0235 3B       		.uleb128 0x3b
 2246 0236 05       		.uleb128 0x5
 2247 0237 49       		.uleb128 0x49
 2248 0238 13       		.uleb128 0x13
 2249 0239 02       		.uleb128 0x2
 2250 023a 17       		.uleb128 0x17
 2251 023b 00       		.byte	0
 2252 023c 00       		.byte	0
 2253 023d 2A       		.uleb128 0x2a
 2254 023e 1D       		.uleb128 0x1d
 2255 023f 01       		.byte	0x1
 2256 0240 31       		.uleb128 0x31
 2257 0241 13       		.uleb128 0x13
 2258 0242 52       		.uleb128 0x52
 2259 0243 01       		.uleb128 0x1
 2260 0244 55       		.uleb128 0x55
 2261 0245 17       		.uleb128 0x17
 2262 0246 58       		.uleb128 0x58
 2263 0247 0B       		.uleb128 0xb
 2264 0248 59       		.uleb128 0x59
 2265 0249 05       		.uleb128 0x5
ARM GAS  /var/folders/4k/6h5l9jl178sb4hslwv3xp1mr0000gn/T//cceTuOpN.s 			page 41


 2266 024a 01       		.uleb128 0x1
 2267 024b 13       		.uleb128 0x13
 2268 024c 00       		.byte	0
 2269 024d 00       		.byte	0
 2270 024e 2B       		.uleb128 0x2b
 2271 024f 05       		.uleb128 0x5
 2272 0250 00       		.byte	0
 2273 0251 03       		.uleb128 0x3
 2274 0252 0E       		.uleb128 0xe
 2275 0253 3A       		.uleb128 0x3a
 2276 0254 0B       		.uleb128 0xb
 2277 0255 3B       		.uleb128 0x3b
 2278 0256 0B       		.uleb128 0xb
 2279 0257 49       		.uleb128 0x49
 2280 0258 13       		.uleb128 0x13
 2281 0259 02       		.uleb128 0x2
 2282 025a 17       		.uleb128 0x17
 2283 025b 00       		.byte	0
 2284 025c 00       		.byte	0
 2285 025d 2C       		.uleb128 0x2c
 2286 025e 34       		.uleb128 0x34
 2287 025f 00       		.byte	0
 2288 0260 03       		.uleb128 0x3
 2289 0261 0E       		.uleb128 0xe
 2290 0262 3A       		.uleb128 0x3a
 2291 0263 0B       		.uleb128 0xb
 2292 0264 3B       		.uleb128 0x3b
 2293 0265 0B       		.uleb128 0xb
 2294 0266 49       		.uleb128 0x49
 2295 0267 13       		.uleb128 0x13
 2296 0268 3F       		.uleb128 0x3f
 2297 0269 19       		.uleb128 0x19
 2298 026a 3C       		.uleb128 0x3c
 2299 026b 19       		.uleb128 0x19
 2300 026c 00       		.byte	0
 2301 026d 00       		.byte	0
 2302 026e 2D       		.uleb128 0x2d
 2303 026f 2E       		.uleb128 0x2e
 2304 0270 01       		.byte	0x1
 2305 0271 3F       		.uleb128 0x3f
 2306 0272 19       		.uleb128 0x19
 2307 0273 03       		.uleb128 0x3
 2308 0274 0E       		.uleb128 0xe
 2309 0275 3A       		.uleb128 0x3a
 2310 0276 0B       		.uleb128 0xb
 2311 0277 3B       		.uleb128 0x3b
 2312 0278 0B       		.uleb128 0xb
 2313 0279 27       		.uleb128 0x27
 2314 027a 19       		.uleb128 0x19
 2315 027b 3C       		.uleb128 0x3c
 2316 027c 19       		.uleb128 0x19
 2317 027d 01       		.uleb128 0x1
 2318 027e 13       		.uleb128 0x13
 2319 027f 00       		.byte	0
 2320 0280 00       		.byte	0
 2321 0281 2E       		.uleb128 0x2e
 2322 0282 05       		.uleb128 0x5
ARM GAS  /var/folders/4k/6h5l9jl178sb4hslwv3xp1mr0000gn/T//cceTuOpN.s 			page 42


 2323 0283 00       		.byte	0
 2324 0284 49       		.uleb128 0x49
 2325 0285 13       		.uleb128 0x13
 2326 0286 00       		.byte	0
 2327 0287 00       		.byte	0
 2328 0288 2F       		.uleb128 0x2f
 2329 0289 2E       		.uleb128 0x2e
 2330 028a 01       		.byte	0x1
 2331 028b 3F       		.uleb128 0x3f
 2332 028c 19       		.uleb128 0x19
 2333 028d 03       		.uleb128 0x3
 2334 028e 0E       		.uleb128 0xe
 2335 028f 3A       		.uleb128 0x3a
 2336 0290 0B       		.uleb128 0xb
 2337 0291 3B       		.uleb128 0x3b
 2338 0292 0B       		.uleb128 0xb
 2339 0293 27       		.uleb128 0x27
 2340 0294 19       		.uleb128 0x19
 2341 0295 49       		.uleb128 0x49
 2342 0296 13       		.uleb128 0x13
 2343 0297 3C       		.uleb128 0x3c
 2344 0298 19       		.uleb128 0x19
 2345 0299 01       		.uleb128 0x1
 2346 029a 13       		.uleb128 0x13
 2347 029b 00       		.byte	0
 2348 029c 00       		.byte	0
 2349 029d 30       		.uleb128 0x30
 2350 029e 2E       		.uleb128 0x2e
 2351 029f 00       		.byte	0
 2352 02a0 3F       		.uleb128 0x3f
 2353 02a1 19       		.uleb128 0x19
 2354 02a2 03       		.uleb128 0x3
 2355 02a3 0E       		.uleb128 0xe
 2356 02a4 3A       		.uleb128 0x3a
 2357 02a5 0B       		.uleb128 0xb
 2358 02a6 3B       		.uleb128 0x3b
 2359 02a7 0B       		.uleb128 0xb
 2360 02a8 27       		.uleb128 0x27
 2361 02a9 19       		.uleb128 0x19
 2362 02aa 3C       		.uleb128 0x3c
 2363 02ab 19       		.uleb128 0x19
 2364 02ac 00       		.byte	0
 2365 02ad 00       		.byte	0
 2366 02ae 31       		.uleb128 0x31
 2367 02af 2E       		.uleb128 0x2e
 2368 02b0 00       		.byte	0
 2369 02b1 3F       		.uleb128 0x3f
 2370 02b2 19       		.uleb128 0x19
 2371 02b3 03       		.uleb128 0x3
 2372 02b4 0E       		.uleb128 0xe
 2373 02b5 3A       		.uleb128 0x3a
 2374 02b6 0B       		.uleb128 0xb
 2375 02b7 3B       		.uleb128 0x3b
 2376 02b8 0B       		.uleb128 0xb
 2377 02b9 27       		.uleb128 0x27
 2378 02ba 19       		.uleb128 0x19
 2379 02bb 49       		.uleb128 0x49
ARM GAS  /var/folders/4k/6h5l9jl178sb4hslwv3xp1mr0000gn/T//cceTuOpN.s 			page 43


 2380 02bc 13       		.uleb128 0x13
 2381 02bd 3C       		.uleb128 0x3c
 2382 02be 19       		.uleb128 0x19
 2383 02bf 00       		.byte	0
 2384 02c0 00       		.byte	0
 2385 02c1 32       		.uleb128 0x32
 2386 02c2 2E       		.uleb128 0x2e
 2387 02c3 01       		.byte	0x1
 2388 02c4 3F       		.uleb128 0x3f
 2389 02c5 19       		.uleb128 0x19
 2390 02c6 03       		.uleb128 0x3
 2391 02c7 0E       		.uleb128 0xe
 2392 02c8 3A       		.uleb128 0x3a
 2393 02c9 0B       		.uleb128 0xb
 2394 02ca 3B       		.uleb128 0x3b
 2395 02cb 0B       		.uleb128 0xb
 2396 02cc 27       		.uleb128 0x27
 2397 02cd 19       		.uleb128 0x19
 2398 02ce 49       		.uleb128 0x49
 2399 02cf 13       		.uleb128 0x13
 2400 02d0 3C       		.uleb128 0x3c
 2401 02d1 19       		.uleb128 0x19
 2402 02d2 00       		.byte	0
 2403 02d3 00       		.byte	0
 2404 02d4 00       		.byte	0
 2405              		.section	.debug_loc,"",%progbits
 2406              	.Ldebug_loc0:
 2407              	.LLST0:
 2408 0000 00000000 		.4byte	.LVL1
 2409 0004 0C000000 		.4byte	.LVL2
 2410 0008 0100     		.2byte	0x1
 2411 000a 50       		.byte	0x50
 2412 000b 0C000000 		.4byte	.LVL2
 2413 000f 1B000000 		.4byte	.LVL4-1
 2414 0013 0100     		.2byte	0x1
 2415 0015 52       		.byte	0x52
 2416 0016 1B000000 		.4byte	.LVL4-1
 2417 001a 24000000 		.4byte	.LFE8
 2418 001e 0400     		.2byte	0x4
 2419 0020 F3       		.byte	0xf3
 2420 0021 01       		.uleb128 0x1
 2421 0022 50       		.byte	0x50
 2422 0023 9F       		.byte	0x9f
 2423 0024 00000000 		.4byte	0
 2424 0028 00000000 		.4byte	0
 2425              	.LLST1:
 2426 002c 10000000 		.4byte	.LVL3
 2427 0030 1B000000 		.4byte	.LVL4-1
 2428 0034 0100     		.2byte	0x1
 2429 0036 52       		.byte	0x52
 2430 0037 1B000000 		.4byte	.LVL4-1
 2431 003b 1C000000 		.4byte	.LVL4
 2432 003f 0400     		.2byte	0x4
 2433 0041 F3       		.byte	0xf3
 2434 0042 01       		.uleb128 0x1
 2435 0043 50       		.byte	0x50
 2436 0044 9F       		.byte	0x9f
ARM GAS  /var/folders/4k/6h5l9jl178sb4hslwv3xp1mr0000gn/T//cceTuOpN.s 			page 44


 2437 0045 00000000 		.4byte	0
 2438 0049 00000000 		.4byte	0
 2439              	.LLST2:
 2440 004d 10000000 		.4byte	.LVL3
 2441 0051 1B000000 		.4byte	.LVL4-1
 2442 0055 0100     		.2byte	0x1
 2443 0057 50       		.byte	0x50
 2444 0058 00000000 		.4byte	0
 2445 005c 00000000 		.4byte	0
 2446              	.LLST3:
 2447 0060 00000000 		.4byte	.LVL5
 2448 0064 06000000 		.4byte	.LVL6
 2449 0068 0100     		.2byte	0x1
 2450 006a 50       		.byte	0x50
 2451 006b 06000000 		.4byte	.LVL6
 2452 006f 13000000 		.4byte	.LVL8-1
 2453 0073 0100     		.2byte	0x1
 2454 0075 53       		.byte	0x53
 2455 0076 13000000 		.4byte	.LVL8-1
 2456 007a 1A000000 		.4byte	.LFE9
 2457 007e 0400     		.2byte	0x4
 2458 0080 F3       		.byte	0xf3
 2459 0081 01       		.uleb128 0x1
 2460 0082 50       		.byte	0x50
 2461 0083 9F       		.byte	0x9f
 2462 0084 00000000 		.4byte	0
 2463 0088 00000000 		.4byte	0
 2464              	.LLST4:
 2465 008c 0A000000 		.4byte	.LVL7
 2466 0090 13000000 		.4byte	.LVL8-1
 2467 0094 0100     		.2byte	0x1
 2468 0096 53       		.byte	0x53
 2469 0097 13000000 		.4byte	.LVL8-1
 2470 009b 18000000 		.4byte	.LVL9
 2471 009f 0400     		.2byte	0x4
 2472 00a1 F3       		.byte	0xf3
 2473 00a2 01       		.uleb128 0x1
 2474 00a3 50       		.byte	0x50
 2475 00a4 9F       		.byte	0x9f
 2476 00a5 00000000 		.4byte	0
 2477 00a9 00000000 		.4byte	0
 2478              	.LLST5:
 2479 00ad 0A000000 		.4byte	.LVL7
 2480 00b1 13000000 		.4byte	.LVL8-1
 2481 00b5 0100     		.2byte	0x1
 2482 00b7 50       		.byte	0x50
 2483 00b8 00000000 		.4byte	0
 2484 00bc 00000000 		.4byte	0
 2485              	.LLST6:
 2486 00c0 00000000 		.4byte	.LVL10
 2487 00c4 06000000 		.4byte	.LVL11
 2488 00c8 0100     		.2byte	0x1
 2489 00ca 50       		.byte	0x50
 2490 00cb 06000000 		.4byte	.LVL11
 2491 00cf 22000000 		.4byte	.LFE11
 2492 00d3 0100     		.2byte	0x1
 2493 00d5 54       		.byte	0x54
ARM GAS  /var/folders/4k/6h5l9jl178sb4hslwv3xp1mr0000gn/T//cceTuOpN.s 			page 45


 2494 00d6 00000000 		.4byte	0
 2495 00da 00000000 		.4byte	0
 2496              	.LLST7:
 2497 00de 0E000000 		.4byte	.LVL12
 2498 00e2 20000000 		.4byte	.LVL14
 2499 00e6 0100     		.2byte	0x1
 2500 00e8 54       		.byte	0x54
 2501 00e9 00000000 		.4byte	0
 2502 00ed 00000000 		.4byte	0
 2503              	.LLST8:
 2504 00f1 0E000000 		.4byte	.LVL12
 2505 00f5 17000000 		.4byte	.LVL13-1
 2506 00f9 0100     		.2byte	0x1
 2507 00fb 50       		.byte	0x50
 2508 00fc 00000000 		.4byte	0
 2509 0100 00000000 		.4byte	0
 2510              	.LLST9:
 2511 0104 00000000 		.4byte	.LVL15
 2512 0108 0B000000 		.4byte	.LVL16-1
 2513 010c 0100     		.2byte	0x1
 2514 010e 50       		.byte	0x50
 2515 010f 0B000000 		.4byte	.LVL16-1
 2516 0113 18000000 		.4byte	.LFE10
 2517 0117 0400     		.2byte	0x4
 2518 0119 F3       		.byte	0xf3
 2519 011a 01       		.uleb128 0x1
 2520 011b 50       		.byte	0x50
 2521 011c 9F       		.byte	0x9f
 2522 011d 00000000 		.4byte	0
 2523 0121 00000000 		.4byte	0
 2524              	.LLST10:
 2525 0125 00000000 		.4byte	.LVL18
 2526 0129 0B000000 		.4byte	.LVL20-1
 2527 012d 0100     		.2byte	0x1
 2528 012f 50       		.byte	0x50
 2529 0130 0B000000 		.4byte	.LVL20-1
 2530 0134 3E000000 		.4byte	.LVL28
 2531 0138 0100     		.2byte	0x1
 2532 013a 55       		.byte	0x55
 2533 013b 3E000000 		.4byte	.LVL28
 2534 013f 44000000 		.4byte	.LFE13
 2535 0143 0400     		.2byte	0x4
 2536 0145 F3       		.byte	0xf3
 2537 0146 01       		.uleb128 0x1
 2538 0147 50       		.byte	0x50
 2539 0148 9F       		.byte	0x9f
 2540 0149 00000000 		.4byte	0
 2541 014d 00000000 		.4byte	0
 2542              	.LLST11:
 2543 0151 06000000 		.4byte	.LVL19
 2544 0155 34000000 		.4byte	.LVL26
 2545 0159 0100     		.2byte	0x1
 2546 015b 54       		.byte	0x54
 2547 015c 00000000 		.4byte	0
 2548 0160 00000000 		.4byte	0
 2549              	.LLST12:
 2550 0164 10000000 		.4byte	.LVL21
ARM GAS  /var/folders/4k/6h5l9jl178sb4hslwv3xp1mr0000gn/T//cceTuOpN.s 			page 46


 2551 0168 2A000000 		.4byte	.LVL24
 2552 016c 0100     		.2byte	0x1
 2553 016e 50       		.byte	0x50
 2554 016f 2A000000 		.4byte	.LVL24
 2555 0173 3E000000 		.4byte	.LVL28
 2556 0177 0100     		.2byte	0x1
 2557 0179 56       		.byte	0x56
 2558 017a 00000000 		.4byte	0
 2559 017e 00000000 		.4byte	0
 2560              	.LLST13:
 2561 0182 34000000 		.4byte	.LVL26
 2562 0186 3E000000 		.4byte	.LVL28
 2563 018a 0100     		.2byte	0x1
 2564 018c 54       		.byte	0x54
 2565 018d 3E000000 		.4byte	.LVL28
 2566 0191 44000000 		.4byte	.LFE13
 2567 0195 0100     		.2byte	0x1
 2568 0197 50       		.byte	0x50
 2569 0198 00000000 		.4byte	0
 2570 019c 00000000 		.4byte	0
 2571              	.LLST14:
 2572 01a0 10000000 		.4byte	.LVL21
 2573 01a4 3E000000 		.4byte	.LVL28
 2574 01a8 0100     		.2byte	0x1
 2575 01aa 55       		.byte	0x55
 2576 01ab 3E000000 		.4byte	.LVL28
 2577 01af 44000000 		.4byte	.LFE13
 2578 01b3 0400     		.2byte	0x4
 2579 01b5 F3       		.byte	0xf3
 2580 01b6 01       		.uleb128 0x1
 2581 01b7 50       		.byte	0x50
 2582 01b8 9F       		.byte	0x9f
 2583 01b9 00000000 		.4byte	0
 2584 01bd 00000000 		.4byte	0
 2585              	.LLST15:
 2586 01c1 10000000 		.4byte	.LVL21
 2587 01c5 34000000 		.4byte	.LVL26
 2588 01c9 0100     		.2byte	0x1
 2589 01cb 54       		.byte	0x54
 2590 01cc 00000000 		.4byte	0
 2591 01d0 00000000 		.4byte	0
 2592              	.LLST16:
 2593 01d4 10000000 		.4byte	.LVL21
 2594 01d8 14000000 		.4byte	.LVL22
 2595 01dc 0100     		.2byte	0x1
 2596 01de 55       		.byte	0x55
 2597 01df 14000000 		.4byte	.LVL22
 2598 01e3 31000000 		.4byte	.LVL25-1
 2599 01e7 0100     		.2byte	0x1
 2600 01e9 53       		.byte	0x53
 2601 01ea 00000000 		.4byte	0
 2602 01ee 00000000 		.4byte	0
 2603              	.LLST17:
 2604 01f2 00000000 		.4byte	.LVL29
 2605 01f6 0B000000 		.4byte	.LVL30-1
 2606 01fa 0100     		.2byte	0x1
 2607 01fc 50       		.byte	0x50
ARM GAS  /var/folders/4k/6h5l9jl178sb4hslwv3xp1mr0000gn/T//cceTuOpN.s 			page 47


 2608 01fd 0B000000 		.4byte	.LVL30-1
 2609 0201 14000000 		.4byte	.LFE12
 2610 0205 0400     		.2byte	0x4
 2611 0207 F3       		.byte	0xf3
 2612 0208 01       		.uleb128 0x1
 2613 0209 50       		.byte	0x50
 2614 020a 9F       		.byte	0x9f
 2615 020b 00000000 		.4byte	0
 2616 020f 00000000 		.4byte	0
 2617              	.LLST18:
 2618 0213 00000000 		.4byte	.LVL31
 2619 0217 0B000000 		.4byte	.LVL32-1
 2620 021b 0100     		.2byte	0x1
 2621 021d 50       		.byte	0x50
 2622 021e 0B000000 		.4byte	.LVL32-1
 2623 0222 4A000000 		.4byte	.LVL42
 2624 0226 0100     		.2byte	0x1
 2625 0228 56       		.byte	0x56
 2626 0229 4A000000 		.4byte	.LVL42
 2627 022d 50000000 		.4byte	.LFE15
 2628 0231 0400     		.2byte	0x4
 2629 0233 F3       		.byte	0xf3
 2630 0234 01       		.uleb128 0x1
 2631 0235 50       		.byte	0x50
 2632 0236 9F       		.byte	0x9f
 2633 0237 00000000 		.4byte	0
 2634 023b 00000000 		.4byte	0
 2635              	.LLST19:
 2636 023f 00000000 		.4byte	.LVL31
 2637 0243 0B000000 		.4byte	.LVL32-1
 2638 0247 0100     		.2byte	0x1
 2639 0249 51       		.byte	0x51
 2640 024a 0B000000 		.4byte	.LVL32-1
 2641 024e 4A000000 		.4byte	.LVL42
 2642 0252 0100     		.2byte	0x1
 2643 0254 58       		.byte	0x58
 2644 0255 4A000000 		.4byte	.LVL42
 2645 0259 50000000 		.4byte	.LFE15
 2646 025d 0400     		.2byte	0x4
 2647 025f F3       		.byte	0xf3
 2648 0260 01       		.uleb128 0x1
 2649 0261 51       		.byte	0x51
 2650 0262 9F       		.byte	0x9f
 2651 0263 00000000 		.4byte	0
 2652 0267 00000000 		.4byte	0
 2653              	.LLST20:
 2654 026b 12000000 		.4byte	.LVL33
 2655 026f 32000000 		.4byte	.LVL37
 2656 0273 0100     		.2byte	0x1
 2657 0275 50       		.byte	0x50
 2658 0276 32000000 		.4byte	.LVL37
 2659 027a 4A000000 		.4byte	.LVL42
 2660 027e 0100     		.2byte	0x1
 2661 0280 57       		.byte	0x57
 2662 0281 00000000 		.4byte	0
 2663 0285 00000000 		.4byte	0
 2664              	.LLST21:
ARM GAS  /var/folders/4k/6h5l9jl178sb4hslwv3xp1mr0000gn/T//cceTuOpN.s 			page 48


 2665 0289 3C000000 		.4byte	.LVL39
 2666 028d 40000000 		.4byte	.LVL40
 2667 0291 0100     		.2byte	0x1
 2668 0293 50       		.byte	0x50
 2669 0294 40000000 		.4byte	.LVL40
 2670 0298 4A000000 		.4byte	.LVL42
 2671 029c 0100     		.2byte	0x1
 2672 029e 54       		.byte	0x54
 2673 029f 4A000000 		.4byte	.LVL42
 2674 02a3 50000000 		.4byte	.LFE15
 2675 02a7 0100     		.2byte	0x1
 2676 02a9 50       		.byte	0x50
 2677 02aa 00000000 		.4byte	0
 2678 02ae 00000000 		.4byte	0
 2679              	.LLST22:
 2680 02b2 16000000 		.4byte	.LVL34
 2681 02b6 4A000000 		.4byte	.LVL42
 2682 02ba 0100     		.2byte	0x1
 2683 02bc 56       		.byte	0x56
 2684 02bd 4A000000 		.4byte	.LVL42
 2685 02c1 50000000 		.4byte	.LFE15
 2686 02c5 0400     		.2byte	0x4
 2687 02c7 F3       		.byte	0xf3
 2688 02c8 01       		.uleb128 0x1
 2689 02c9 50       		.byte	0x50
 2690 02ca 9F       		.byte	0x9f
 2691 02cb 00000000 		.4byte	0
 2692 02cf 00000000 		.4byte	0
 2693              	.LLST23:
 2694 02d3 16000000 		.4byte	.LVL34
 2695 02d7 4A000000 		.4byte	.LVL42
 2696 02db 0100     		.2byte	0x1
 2697 02dd 55       		.byte	0x55
 2698 02de 00000000 		.4byte	0
 2699 02e2 00000000 		.4byte	0
 2700              	.LLST24:
 2701 02e6 16000000 		.4byte	.LVL34
 2702 02ea 18000000 		.4byte	.LVL35
 2703 02ee 0100     		.2byte	0x1
 2704 02f0 56       		.byte	0x56
 2705 02f1 18000000 		.4byte	.LVL35
 2706 02f5 37000000 		.4byte	.LVL38-1
 2707 02f9 0100     		.2byte	0x1
 2708 02fb 53       		.byte	0x53
 2709 02fc 00000000 		.4byte	0
 2710 0300 00000000 		.4byte	0
 2711              	.LLST25:
 2712 0304 00000000 		.4byte	.LVL43
 2713 0308 0B000000 		.4byte	.LVL44-1
 2714 030c 0100     		.2byte	0x1
 2715 030e 50       		.byte	0x50
 2716 030f 0B000000 		.4byte	.LVL44-1
 2717 0313 14000000 		.4byte	.LFE14
 2718 0317 0400     		.2byte	0x4
 2719 0319 F3       		.byte	0xf3
 2720 031a 01       		.uleb128 0x1
 2721 031b 50       		.byte	0x50
ARM GAS  /var/folders/4k/6h5l9jl178sb4hslwv3xp1mr0000gn/T//cceTuOpN.s 			page 49


 2722 031c 9F       		.byte	0x9f
 2723 031d 00000000 		.4byte	0
 2724 0321 00000000 		.4byte	0
 2725              	.LLST26:
 2726 0325 00000000 		.4byte	.LVL43
 2727 0329 0B000000 		.4byte	.LVL44-1
 2728 032d 0100     		.2byte	0x1
 2729 032f 51       		.byte	0x51
 2730 0330 0B000000 		.4byte	.LVL44-1
 2731 0334 14000000 		.4byte	.LFE14
 2732 0338 0400     		.2byte	0x4
 2733 033a F3       		.byte	0xf3
 2734 033b 01       		.uleb128 0x1
 2735 033c 51       		.byte	0x51
 2736 033d 9F       		.byte	0x9f
 2737 033e 00000000 		.4byte	0
 2738 0342 00000000 		.4byte	0
 2739              		.section	.debug_aranges,"",%progbits
 2740 0000 5C000000 		.4byte	0x5c
 2741 0004 0200     		.2byte	0x2
 2742 0006 00000000 		.4byte	.Ldebug_info0
 2743 000a 04       		.byte	0x4
 2744 000b 00       		.byte	0
 2745 000c 0000     		.2byte	0
 2746 000e 0000     		.2byte	0
 2747 0010 00000000 		.4byte	.LFB7
 2748 0014 06000000 		.4byte	.LFE7-.LFB7
 2749 0018 00000000 		.4byte	.LFB8
 2750 001c 24000000 		.4byte	.LFE8-.LFB8
 2751 0020 00000000 		.4byte	.LFB9
 2752 0024 1A000000 		.4byte	.LFE9-.LFB9
 2753 0028 00000000 		.4byte	.LFB11
 2754 002c 22000000 		.4byte	.LFE11-.LFB11
 2755 0030 00000000 		.4byte	.LFB10
 2756 0034 18000000 		.4byte	.LFE10-.LFB10
 2757 0038 00000000 		.4byte	.LFB13
 2758 003c 44000000 		.4byte	.LFE13-.LFB13
 2759 0040 00000000 		.4byte	.LFB12
 2760 0044 14000000 		.4byte	.LFE12-.LFB12
 2761 0048 00000000 		.4byte	.LFB15
 2762 004c 50000000 		.4byte	.LFE15-.LFB15
 2763 0050 00000000 		.4byte	.LFB14
 2764 0054 14000000 		.4byte	.LFE14-.LFB14
 2765 0058 00000000 		.4byte	0
 2766 005c 00000000 		.4byte	0
 2767              		.section	.debug_ranges,"",%progbits
 2768              	.Ldebug_ranges0:
 2769 0000 10000000 		.4byte	.LBB15
 2770 0004 14000000 		.4byte	.LBE15
 2771 0008 16000000 		.4byte	.LBB18
 2772 000c 18000000 		.4byte	.LBE18
 2773 0010 00000000 		.4byte	0
 2774 0014 00000000 		.4byte	0
 2775 0018 10000000 		.4byte	.LBB26
 2776 001c 28000000 		.4byte	.LBE26
 2777 0020 2A000000 		.4byte	.LBB29
 2778 0024 2E000000 		.4byte	.LBE29
ARM GAS  /var/folders/4k/6h5l9jl178sb4hslwv3xp1mr0000gn/T//cceTuOpN.s 			page 50


 2779 0028 00000000 		.4byte	0
 2780 002c 00000000 		.4byte	0
 2781 0030 12000000 		.4byte	.LBB32
 2782 0034 14000000 		.4byte	.LBE32
 2783 0038 18000000 		.4byte	.LBB37
 2784 003c 2C000000 		.4byte	.LBE37
 2785 0040 2E000000 		.4byte	.LBB38
 2786 0044 30000000 		.4byte	.LBE38
 2787 0048 32000000 		.4byte	.LBB39
 2788 004c 34000000 		.4byte	.LBE39
 2789 0050 00000000 		.4byte	0
 2790 0054 00000000 		.4byte	0
 2791 0058 00000000 		.4byte	.LFB7
 2792 005c 06000000 		.4byte	.LFE7
 2793 0060 00000000 		.4byte	.LFB8
 2794 0064 24000000 		.4byte	.LFE8
 2795 0068 00000000 		.4byte	.LFB9
 2796 006c 1A000000 		.4byte	.LFE9
 2797 0070 00000000 		.4byte	.LFB11
 2798 0074 22000000 		.4byte	.LFE11
 2799 0078 00000000 		.4byte	.LFB10
 2800 007c 18000000 		.4byte	.LFE10
 2801 0080 00000000 		.4byte	.LFB13
 2802 0084 44000000 		.4byte	.LFE13
 2803 0088 00000000 		.4byte	.LFB12
 2804 008c 14000000 		.4byte	.LFE12
 2805 0090 00000000 		.4byte	.LFB15
 2806 0094 50000000 		.4byte	.LFE15
 2807 0098 00000000 		.4byte	.LFB14
 2808 009c 14000000 		.4byte	.LFE14
 2809 00a0 00000000 		.4byte	0
 2810 00a4 00000000 		.4byte	0
 2811              		.section	.debug_line,"",%progbits
 2812              	.Ldebug_line0:
 2813 0000 18030000 		.section	.debug_str,"MS",%progbits,1
 2813      0200DA01 
 2813      00000201 
 2813      FB0E0D00 
 2813      01010101 
 2814              	.LASF39:
 2815 0000 705F6D73 		.ascii	"p_msg\000"
 2815      6700
 2816              	.LASF68:
 2817 0006 6368436F 		.ascii	"chCondInit\000"
 2817      6E64496E 
 2817      697400
 2818              	.LASF63:
 2819 0011 7264796D 		.ascii	"rdymsg\000"
 2819      736700
 2820              	.LASF5:
 2821 0018 5F5F7569 		.ascii	"__uint8_t\000"
 2821      6E74385F 
 2821      7400
 2822              	.LASF11:
 2823 0022 6C6F6E67 		.ascii	"long long unsigned int\000"
 2823      206C6F6E 
 2823      6720756E 
ARM GAS  /var/folders/4k/6h5l9jl178sb4hslwv3xp1mr0000gn/T//cceTuOpN.s 			page 51


 2823      7369676E 
 2823      65642069 
 2824              	.LASF64:
 2825 0039 65786974 		.ascii	"exitcode\000"
 2825      636F6465 
 2825      00
 2826              	.LASF71:
 2827 0042 6368436F 		.ascii	"chCondBroadcastI\000"
 2827      6E644272 
 2827      6F616463 
 2827      61737449 
 2827      00
 2828              	.LASF27:
 2829 0053 705F7072 		.ascii	"p_prio\000"
 2829      696F00
 2830              	.LASF10:
 2831 005a 6C6F6E67 		.ascii	"long long int\000"
 2831      206C6F6E 
 2831      6720696E 
 2831      7400
 2832              	.LASF1:
 2833 0068 7369676E 		.ascii	"signed char\000"
 2833      65642063 
 2833      68617200 
 2834              	.LASF43:
 2835 0074 705F6D70 		.ascii	"p_mpool\000"
 2835      6F6F6C00 
 2836              	.LASF58:
 2837 007c 6D5F7175 		.ascii	"m_queue\000"
 2837      65756500 
 2838              	.LASF19:
 2839 0084 74736C69 		.ascii	"tslices_t\000"
 2839      6365735F 
 2839      7400
 2840              	.LASF61:
 2841 008e 436F6E64 		.ascii	"CondVar\000"
 2841      56617200 
 2842              	.LASF7:
 2843 0096 6C6F6E67 		.ascii	"long int\000"
 2843      20696E74 
 2843      00
 2844              	.LASF17:
 2845 009f 74737461 		.ascii	"tstate_t\000"
 2845      74655F74 
 2845      00
 2846              	.LASF83:
 2847 00a8 2E2E2F43 		.ascii	"../ChibiStudio/ChibiOS/os/kernel/src/chcond.c\000"
 2847      68696269 
 2847      53747564 
 2847      696F2F43 
 2847      68696269 
 2848              	.LASF80:
 2849 00d6 63684D74 		.ascii	"chMtxLockS\000"
 2849      784C6F63 
 2849      6B5300
 2850              	.LASF29:
 2851 00e1 705F6E65 		.ascii	"p_newer\000"
ARM GAS  /var/folders/4k/6h5l9jl178sb4hslwv3xp1mr0000gn/T//cceTuOpN.s 			page 52


 2851      77657200 
 2852              	.LASF89:
 2853 00e9 63685363 		.ascii	"chSchRescheduleS\000"
 2853      68526573 
 2853      63686564 
 2853      756C6553 
 2853      00
 2854              	.LASF8:
 2855 00fa 5F5F7569 		.ascii	"__uint32_t\000"
 2855      6E743332 
 2855      5F7400
 2856              	.LASF46:
 2857 0105 72656761 		.ascii	"regarm_t\000"
 2857      726D5F74 
 2857      00
 2858              	.LASF69:
 2859 010e 6368436F 		.ascii	"chCondSignal\000"
 2859      6E645369 
 2859      676E616C 
 2859      00
 2860              	.LASF90:
 2861 011b 63684D74 		.ascii	"chMtxUnlockS\000"
 2861      78556E6C 
 2861      6F636B53 
 2861      00
 2862              	.LASF0:
 2863 0128 756E7369 		.ascii	"unsigned int\000"
 2863      676E6564 
 2863      20696E74 
 2863      00
 2864              	.LASF9:
 2865 0135 6C6F6E67 		.ascii	"long unsigned int\000"
 2865      20756E73 
 2865      69676E65 
 2865      6420696E 
 2865      7400
 2866              	.LASF48:
 2867 0147 636F6E74 		.ascii	"context\000"
 2867      65787400 
 2868              	.LASF4:
 2869 014f 73686F72 		.ascii	"short unsigned int\000"
 2869      7420756E 
 2869      7369676E 
 2869      65642069 
 2869      6E7400
 2870              	.LASF21:
 2871 0162 6D73675F 		.ascii	"msg_t\000"
 2871      7400
 2872              	.LASF53:
 2873 0168 725F6E65 		.ascii	"r_newer\000"
 2873      77657200 
 2874              	.LASF16:
 2875 0170 746D6F64 		.ascii	"tmode_t\000"
 2875      655F7400 
 2876              	.LASF45:
 2877 0178 54687265 		.ascii	"ThreadsList\000"
 2877      6164734C 
ARM GAS  /var/folders/4k/6h5l9jl178sb4hslwv3xp1mr0000gn/T//cceTuOpN.s 			page 53


 2877      69737400 
 2878              	.LASF22:
 2879 0184 6576656E 		.ascii	"eventmask_t\000"
 2879      746D6173 
 2879      6B5F7400 
 2880              	.LASF57:
 2881 0190 4D757465 		.ascii	"Mutex\000"
 2881      7800
 2882              	.LASF49:
 2883 0196 73697A65 		.ascii	"sizetype\000"
 2883      74797065 
 2883      00
 2884              	.LASF75:
 2885 019f 6368436F 		.ascii	"chCondWaitTimeoutS\000"
 2885      6E645761 
 2885      69745469 
 2885      6D656F75 
 2885      745300
 2886              	.LASF30:
 2887 01b2 705F6F6C 		.ascii	"p_older\000"
 2887      64657200 
 2888              	.LASF52:
 2889 01ba 725F6374 		.ascii	"r_ctx\000"
 2889      7800
 2890              	.LASF44:
 2891 01c0 54687265 		.ascii	"ThreadsQueue\000"
 2891      61647351 
 2891      75657565 
 2891      00
 2892              	.LASF76:
 2893 01cd 74696D65 		.ascii	"time\000"
 2893      00
 2894              	.LASF55:
 2895 01d2 725F6375 		.ascii	"r_current\000"
 2895      7272656E 
 2895      7400
 2896              	.LASF54:
 2897 01dc 725F6F6C 		.ascii	"r_older\000"
 2897      64657200 
 2898              	.LASF72:
 2899 01e4 6368436F 		.ascii	"chCondBroadcast\000"
 2899      6E644272 
 2899      6F616463 
 2899      61737400 
 2900              	.LASF18:
 2901 01f4 74726566 		.ascii	"trefs_t\000"
 2901      735F7400 
 2902              	.LASF26:
 2903 01fc 705F7072 		.ascii	"p_prev\000"
 2903      657600
 2904              	.LASF20:
 2905 0203 74707269 		.ascii	"tprio_t\000"
 2905      6F5F7400 
 2906              	.LASF70:
 2907 020b 6368436F 		.ascii	"chCondSignalI\000"
 2907      6E645369 
 2907      676E616C 
ARM GAS  /var/folders/4k/6h5l9jl178sb4hslwv3xp1mr0000gn/T//cceTuOpN.s 			page 54


 2907      4900
 2908              	.LASF15:
 2909 0219 5F426F6F 		.ascii	"_Bool\000"
 2909      6C00
 2910              	.LASF13:
 2911 021f 696E7433 		.ascii	"int32_t\000"
 2911      325F7400 
 2912              	.LASF2:
 2913 0227 756E7369 		.ascii	"unsigned char\000"
 2913      676E6564 
 2913      20636861 
 2913      7200
 2914              	.LASF82:
 2915 0235 474E5520 		.ascii	"GNU C 4.8.3 20140228 (release) [ARM/embedded-4_8-br"
 2915      4320342E 
 2915      382E3320 
 2915      32303134 
 2915      30323238 
 2916 0268 616E6368 		.ascii	"anch revision 208322] -mcpu=cortex-m4 -mno-thumb-in"
 2916      20726576 
 2916      6973696F 
 2916      6E203230 
 2916      38333232 
 2917 029b 74657277 		.ascii	"terwork -mthumb -ggdb -O2 -fomit-frame-pointer -fal"
 2917      6F726B20 
 2917      2D6D7468 
 2917      756D6220 
 2917      2D676764 
 2918 02ce 69676E2D 		.ascii	"ign-functions=16 -ffunction-sections -fdata-section"
 2918      66756E63 
 2918      74696F6E 
 2918      733D3136 
 2918      202D6666 
 2919 0301 73202D66 		.ascii	"s -fno-common\000"
 2919      6E6F2D63 
 2919      6F6D6D6F 
 2919      6E00
 2920              	.LASF41:
 2921 030f 705F6D74 		.ascii	"p_mtxlist\000"
 2921      786C6973 
 2921      7400
 2922              	.LASF3:
 2923 0319 73686F72 		.ascii	"short int\000"
 2923      7420696E 
 2923      7400
 2924              	.LASF32:
 2925 0323 705F7374 		.ascii	"p_state\000"
 2925      61746500 
 2926              	.LASF35:
 2927 032b 705F7072 		.ascii	"p_preempt\000"
 2927      65656D70 
 2927      7400
 2928              	.LASF51:
 2929 0335 725F7072 		.ascii	"r_prio\000"
 2929      696F00
 2930              	.LASF66:
 2931 033c 65776D61 		.ascii	"ewmask\000"
ARM GAS  /var/folders/4k/6h5l9jl178sb4hslwv3xp1mr0000gn/T//cceTuOpN.s 			page 55


 2931      736B00
 2932              	.LASF25:
 2933 0343 705F6E65 		.ascii	"p_next\000"
 2933      787400
 2934              	.LASF33:
 2935 034a 705F666C 		.ascii	"p_flags\000"
 2935      61677300 
 2936              	.LASF24:
 2937 0352 54687265 		.ascii	"Thread\000"
 2937      616400
 2938              	.LASF62:
 2939 0359 635F7175 		.ascii	"c_queue\000"
 2939      65756500 
 2940              	.LASF84:
 2941 0361 2F557365 		.ascii	"/Users/mikevanis/Documents/workspace/STM32_DCMI_CAM"
 2941      72732F6D 
 2941      696B6576 
 2941      616E6973 
 2941      2F446F63 
 2942 0394 4552412F 		.ascii	"ERA/\000"
 2942      00
 2943              	.LASF79:
 2944 0399 63685363 		.ascii	"chSchGoSleepS\000"
 2944      68476F53 
 2944      6C656570 
 2944      5300
 2945              	.LASF40:
 2946 03a7 705F6570 		.ascii	"p_epending\000"
 2946      656E6469 
 2946      6E6700
 2947              	.LASF14:
 2948 03b2 75696E74 		.ascii	"uint32_t\000"
 2948      33325F74 
 2948      00
 2949              	.LASF50:
 2950 03bb 725F7175 		.ascii	"r_queue\000"
 2950      65756500 
 2951              	.LASF88:
 2952 03c3 63685363 		.ascii	"chSchReadyI\000"
 2952      68526561 
 2952      64794900 
 2953              	.LASF67:
 2954 03cf 63686172 		.ascii	"char\000"
 2954      00
 2955              	.LASF85:
 2956 03d4 6669666F 		.ascii	"fifo_remove\000"
 2956      5F72656D 
 2956      6F766500 
 2957              	.LASF73:
 2958 03e0 6368436F 		.ascii	"chCondWaitS\000"
 2958      6E645761 
 2958      69745300 
 2959              	.LASF60:
 2960 03ec 6D5F6E65 		.ascii	"m_next\000"
 2960      787400
 2961              	.LASF23:
 2962 03f3 73797374 		.ascii	"systime_t\000"
ARM GAS  /var/folders/4k/6h5l9jl178sb4hslwv3xp1mr0000gn/T//cceTuOpN.s 			page 56


 2962      696D655F 
 2962      7400
 2963              	.LASF42:
 2964 03fd 705F7265 		.ascii	"p_realprio\000"
 2964      616C7072 
 2964      696F00
 2965              	.LASF6:
 2966 0408 5F5F696E 		.ascii	"__int32_t\000"
 2966      7433325F 
 2966      7400
 2967              	.LASF86:
 2968 0412 7072696F 		.ascii	"prio_insert\000"
 2968      5F696E73 
 2968      65727400 
 2969              	.LASF74:
 2970 041e 6368436F 		.ascii	"chCondWait\000"
 2970      6E645761 
 2970      697400
 2971              	.LASF36:
 2972 0429 705F7469 		.ascii	"p_time\000"
 2972      6D6500
 2973              	.LASF47:
 2974 0430 696E7463 		.ascii	"intctx\000"
 2974      747800
 2975              	.LASF38:
 2976 0437 705F6D73 		.ascii	"p_msgqueue\000"
 2976      67717565 
 2976      756500
 2977              	.LASF78:
 2978 0442 63685363 		.ascii	"chSchWakeupS\000"
 2978      6857616B 
 2978      65757053 
 2978      00
 2979              	.LASF34:
 2980 044f 705F7265 		.ascii	"p_refs\000"
 2980      667300
 2981              	.LASF56:
 2982 0456 52656164 		.ascii	"ReadyList\000"
 2982      794C6973 
 2982      7400
 2983              	.LASF87:
 2984 0460 726C6973 		.ascii	"rlist\000"
 2984      7400
 2985              	.LASF12:
 2986 0466 75696E74 		.ascii	"uint8_t\000"
 2986      385F7400 
 2987              	.LASF65:
 2988 046e 77746F62 		.ascii	"wtobjp\000"
 2988      6A7000
 2989              	.LASF31:
 2990 0475 705F6E61 		.ascii	"p_name\000"
 2990      6D6500
 2991              	.LASF77:
 2992 047c 6368436F 		.ascii	"chCondWaitTimeout\000"
 2992      6E645761 
 2992      69745469 
 2992      6D656F75 
ARM GAS  /var/folders/4k/6h5l9jl178sb4hslwv3xp1mr0000gn/T//cceTuOpN.s 			page 57


 2992      7400
 2993              	.LASF81:
 2994 048e 63685363 		.ascii	"chSchGoSleepTimeoutS\000"
 2994      68476F53 
 2994      6C656570 
 2994      54696D65 
 2994      6F757453 
 2995              	.LASF59:
 2996 04a3 6D5F6F77 		.ascii	"m_owner\000"
 2996      6E657200 
 2997              	.LASF28:
 2998 04ab 705F6374 		.ascii	"p_ctx\000"
 2998      7800
 2999              	.LASF37:
 3000 04b1 705F7761 		.ascii	"p_waiting\000"
 3000      6974696E 
 3000      6700
 3001              		.ident	"GCC: (GNU Tools for ARM Embedded Processors) 4.8.3 20140228 (release) [ARM/embedded-4_8-br
ARM GAS  /var/folders/4k/6h5l9jl178sb4hslwv3xp1mr0000gn/T//cceTuOpN.s 			page 58


DEFINED SYMBOLS
                            *ABS*:0000000000000000 chcond.c
/var/folders/4k/6h5l9jl178sb4hslwv3xp1mr0000gn/T//cceTuOpN.s:19     .text.chCondInit:0000000000000000 $t
/var/folders/4k/6h5l9jl178sb4hslwv3xp1mr0000gn/T//cceTuOpN.s:25     .text.chCondInit:0000000000000000 chCondInit
/var/folders/4k/6h5l9jl178sb4hslwv3xp1mr0000gn/T//cceTuOpN.s:42     .text.chCondSignal:0000000000000000 $t
/var/folders/4k/6h5l9jl178sb4hslwv3xp1mr0000gn/T//cceTuOpN.s:48     .text.chCondSignal:0000000000000000 chCondSignal
/var/folders/4k/6h5l9jl178sb4hslwv3xp1mr0000gn/T//cceTuOpN.s:108    .text.chCondSignalI:0000000000000000 $t
/var/folders/4k/6h5l9jl178sb4hslwv3xp1mr0000gn/T//cceTuOpN.s:114    .text.chCondSignalI:0000000000000000 chCondSignalI
/var/folders/4k/6h5l9jl178sb4hslwv3xp1mr0000gn/T//cceTuOpN.s:153    .text.chCondBroadcastI:0000000000000000 $t
/var/folders/4k/6h5l9jl178sb4hslwv3xp1mr0000gn/T//cceTuOpN.s:159    .text.chCondBroadcastI:0000000000000000 chCondBroadcastI
/var/folders/4k/6h5l9jl178sb4hslwv3xp1mr0000gn/T//cceTuOpN.s:206    .text.chCondBroadcast:0000000000000000 $t
/var/folders/4k/6h5l9jl178sb4hslwv3xp1mr0000gn/T//cceTuOpN.s:212    .text.chCondBroadcast:0000000000000000 chCondBroadcast
/var/folders/4k/6h5l9jl178sb4hslwv3xp1mr0000gn/T//cceTuOpN.s:250    .text.chCondWaitS:0000000000000000 $t
/var/folders/4k/6h5l9jl178sb4hslwv3xp1mr0000gn/T//cceTuOpN.s:256    .text.chCondWaitS:0000000000000000 chCondWaitS
/var/folders/4k/6h5l9jl178sb4hslwv3xp1mr0000gn/T//cceTuOpN.s:339    .text.chCondWaitS:0000000000000040 $d
/var/folders/4k/6h5l9jl178sb4hslwv3xp1mr0000gn/T//cceTuOpN.s:344    .text.chCondWait:0000000000000000 $t
/var/folders/4k/6h5l9jl178sb4hslwv3xp1mr0000gn/T//cceTuOpN.s:350    .text.chCondWait:0000000000000000 chCondWait
/var/folders/4k/6h5l9jl178sb4hslwv3xp1mr0000gn/T//cceTuOpN.s:386    .text.chCondWaitTimeoutS:0000000000000000 $t
/var/folders/4k/6h5l9jl178sb4hslwv3xp1mr0000gn/T//cceTuOpN.s:392    .text.chCondWaitTimeoutS:0000000000000000 chCondWaitTimeoutS
/var/folders/4k/6h5l9jl178sb4hslwv3xp1mr0000gn/T//cceTuOpN.s:493    .text.chCondWaitTimeoutS:000000000000004c $d
/var/folders/4k/6h5l9jl178sb4hslwv3xp1mr0000gn/T//cceTuOpN.s:498    .text.chCondWaitTimeout:0000000000000000 $t
/var/folders/4k/6h5l9jl178sb4hslwv3xp1mr0000gn/T//cceTuOpN.s:504    .text.chCondWaitTimeout:0000000000000000 chCondWaitTimeout
                     .debug_frame:0000000000000010 $d
/var/folders/4k/6h5l9jl178sb4hslwv3xp1mr0000gn/T//cceTuOpN.s:343    .text.chCondWaitS:0000000000000044 $t

UNDEFINED SYMBOLS
chSchWakeupS
chSchReadyI
chSchRescheduleS
chMtxUnlockS
chSchGoSleepS
chMtxLockS
rlist
chSchGoSleepTimeoutS
