ARM GAS  /var/folders/4k/6h5l9jl178sb4hslwv3xp1mr0000gn/T//cceTuOpN.s 			page 1


   1              		.syntax unified
   2              		.cpu cortex-m4
   3              		.fpu softvfp
   4              		.eabi_attribute 20, 1
   5              		.eabi_attribute 21, 1
   6              		.eabi_attribute 23, 3
   7              		.eabi_attribute 24, 1
   8              		.eabi_attribute 25, 1
   9              		.eabi_attribute 26, 1
  10              		.eabi_attribute 30, 2
  11              		.eabi_attribute 34, 1
  12              		.eabi_attribute 18, 4
  13              		.thumb
  14              		.file	"chcond.c"
  15              		.text
  16              	.Ltext0:
  17              		.cfi_sections	.debug_frame
  18              		.section	.text.chCondInit,"ax",%progbits
  19              		.align	2
  20              		.p2align 4,,15
  21              		.global	chCondInit
  22              		.thumb
  23              		.thumb_func
  24              		.type	chCondInit, %function
  25              	chCondInit:
  26              	.LFB7:
  27              		.file 1 "../ChibiStudio/ChibiOS/os/kernel/src/chcond.c"
  28              		.loc 1 59 0
  29              		.cfi_startproc
  30              		@ args = 0, pretend = 0, frame = 0
  31              		@ frame_needed = 0, uses_anonymous_args = 0
  32              		@ link register save eliminated.
  33              	.LVL0:
  34              		.loc 1 63 0
  35 0000 4060     		str	r0, [r0, #4]
  36 0002 0060     		str	r0, [r0]
  37 0004 7047     		bx	lr
  38              		.cfi_endproc
  39              	.LFE7:
  40              		.size	chCondInit, .-chCondInit
  41 0006 00BFAFF3 		.section	.text.chCondSignal,"ax",%progbits
  41      0080AFF3 
  41      0080
  42              		.align	2
  43              		.p2align 4,,15
  44              		.global	chCondSignal
  45              		.thumb
  46              		.thumb_func
  47              		.type	chCondSignal, %function
  48              	chCondSignal:
  49              	.LFB8:
  50              		.loc 1 73 0
  51              		.cfi_startproc
  52              		@ args = 0, pretend = 0, frame = 0
  53              		@ frame_needed = 0, uses_anonymous_args = 0
  54              	.LVL1:
  55 0000 08B5     		push	{r3, lr}
ARM GAS  /var/folders/4k/6h5l9jl178sb4hslwv3xp1mr0000gn/T//cceTuOpN.s 			page 2


  56              		.cfi_def_cfa_offset 8
  57              		.cfi_offset 3, -8
  58              		.cfi_offset 14, -4
  59              		.loc 1 73 0
  60 0002 0246     		mov	r2, r0
  61              	.LBB14:
  62              		.loc 1 77 0
  63 0004 2023     		movs	r3, #32
  64              	@ 77 "../ChibiStudio/ChibiOS/os/kernel/src/chcond.c" 1
  65 0006 83F31188 		msr     BASEPRI, r3
  66              	@ 0 "" 2
  67              		.thumb
  68              	.LBE14:
  69              		.loc 1 78 0
  70 000a 0068     		ldr	r0, [r0]
  71              	.LVL2:
  72 000c 9042     		cmp	r0, r2
  73 000e 05D0     		beq	.L3
  74              	.LVL3:
  75              	.LBB15:
  76              	.LBB16:
  77              		.file 2 "../ChibiStudio/ChibiOS/os/kernel/include/chinline.h"
  78              		.loc 2 62 0
  79 0010 0368     		ldr	r3, [r0]
  80 0012 1360     		str	r3, [r2]
  81              	.LBE16:
  82              	.LBE15:
  83              		.loc 1 79 0
  84 0014 0021     		movs	r1, #0
  85              	.LBB18:
  86              	.LBB17:
  87              		.loc 2 62 0
  88 0016 5A60     		str	r2, [r3, #4]
  89              	.LBE17:
  90              	.LBE18:
  91              		.loc 1 79 0
  92 0018 FFF7FEFF 		bl	chSchWakeupS
  93              	.LVL4:
  94              	.L3:
  95              	.LBB19:
  96              		.loc 1 80 0
  97 001c 0023     		movs	r3, #0
  98              	@ 80 "../ChibiStudio/ChibiOS/os/kernel/src/chcond.c" 1
  99 001e 83F31188 		msr     BASEPRI, r3
 100              	@ 0 "" 2
 101              		.thumb
 102 0022 08BD     		pop	{r3, pc}
 103              	.LBE19:
 104              		.cfi_endproc
 105              	.LFE8:
 106              		.size	chCondSignal, .-chCondSignal
 107 0024 AFF30080 		.section	.text.chCondSignalI,"ax",%progbits
 107      AFF30080 
 107      AFF30080 
 108              		.align	2
 109              		.p2align 4,,15
 110              		.global	chCondSignalI
ARM GAS  /var/folders/4k/6h5l9jl178sb4hslwv3xp1mr0000gn/T//cceTuOpN.s 			page 3


 111              		.thumb
 112              		.thumb_func
 113              		.type	chCondSignalI, %function
 114              	chCondSignalI:
 115              	.LFB9:
 116              		.loc 1 94 0
 117              		.cfi_startproc
 118              		@ args = 0, pretend = 0, frame = 0
 119              		@ frame_needed = 0, uses_anonymous_args = 0
 120              	.LVL5:
 121 0000 08B5     		push	{r3, lr}
 122              		.cfi_def_cfa_offset 8
 123              		.cfi_offset 3, -8
 124              		.cfi_offset 14, -4
 125              		.loc 1 94 0
 126 0002 0346     		mov	r3, r0
 127              		.loc 1 99 0
 128 0004 0068     		ldr	r0, [r0]
 129              	.LVL6:
 130 0006 9842     		cmp	r0, r3
 131 0008 06D0     		beq	.L5
 132              	.LVL7:
 133              	.LBB20:
 134              	.LBB21:
 135              		.loc 2 62 0
 136 000a 0268     		ldr	r2, [r0]
 137 000c 1A60     		str	r2, [r3]
 138 000e 5360     		str	r3, [r2, #4]
 139              	.LBE21:
 140              	.LBE20:
 141              		.loc 1 100 0
 142 0010 FFF7FEFF 		bl	chSchReadyI
 143              	.LVL8:
 144 0014 0023     		movs	r3, #0
 145 0016 4362     		str	r3, [r0, #36]
 146              	.LVL9:
 147              	.L5:
 148 0018 08BD     		pop	{r3, pc}
 149              		.cfi_endproc
 150              	.LFE9:
 151              		.size	chCondSignalI, .-chCondSignalI
 152 001a 00BFAFF3 		.section	.text.chCondBroadcastI,"ax",%progbits
 152      0080
 153              		.align	2
 154              		.p2align 4,,15
 155              		.global	chCondBroadcastI
 156              		.thumb
 157              		.thumb_func
 158              		.type	chCondBroadcastI, %function
 159              	chCondBroadcastI:
 160              	.LFB11:
 161              		.loc 1 129 0
 162              		.cfi_startproc
 163              		@ args = 0, pretend = 0, frame = 0
 164              		@ frame_needed = 0, uses_anonymous_args = 0
 165              	.LVL10:
 166 0000 38B5     		push	{r3, r4, r5, lr}
ARM GAS  /var/folders/4k/6h5l9jl178sb4hslwv3xp1mr0000gn/T//cceTuOpN.s 			page 4


 167              		.cfi_def_cfa_offset 16
 168              		.cfi_offset 3, -16
 169              		.cfi_offset 4, -12
 170              		.cfi_offset 5, -8
 171              		.cfi_offset 14, -4
 172              		.loc 1 129 0
 173 0002 0446     		mov	r4, r0
 174              		.loc 1 137 0
 175 0004 0068     		ldr	r0, [r0]
 176              	.LVL11:
 177 0006 A042     		cmp	r0, r4
 178 0008 0AD0     		beq	.L7
 179              		.loc 1 138 0
 180 000a 6FF00105 		mvn	r5, #1
 181              	.L10:
 182              	.LVL12:
 183              	.LBB22:
 184              	.LBB23:
 185              		.loc 2 62 0
 186 000e 0368     		ldr	r3, [r0]
 187 0010 2360     		str	r3, [r4]
 188 0012 5C60     		str	r4, [r3, #4]
 189              	.LBE23:
 190              	.LBE22:
 191              		.loc 1 138 0
 192 0014 FFF7FEFF 		bl	chSchReadyI
 193              	.LVL13:
 194 0018 4562     		str	r5, [r0, #36]
 195              		.loc 1 137 0
 196 001a 2068     		ldr	r0, [r4]
 197 001c A042     		cmp	r0, r4
 198 001e F6D1     		bne	.L10
 199              	.LVL14:
 200              	.L7:
 201 0020 38BD     		pop	{r3, r4, r5, pc}
 202              		.cfi_endproc
 203              	.LFE11:
 204              		.size	chCondBroadcastI, .-chCondBroadcastI
 205 0022 00BFAFF3 		.section	.text.chCondBroadcast,"ax",%progbits
 205      0080AFF3 
 205      0080AFF3 
 205      0080
 206              		.align	2
 207              		.p2align 4,,15
 208              		.global	chCondBroadcast
 209              		.thumb
 210              		.thumb_func
 211              		.type	chCondBroadcast, %function
 212              	chCondBroadcast:
 213              	.LFB10:
 214              		.loc 1 110 0
 215              		.cfi_startproc
 216              		@ args = 0, pretend = 0, frame = 0
 217              		@ frame_needed = 0, uses_anonymous_args = 0
 218              	.LVL15:
 219 0000 08B5     		push	{r3, lr}
 220              		.cfi_def_cfa_offset 8
ARM GAS  /var/folders/4k/6h5l9jl178sb4hslwv3xp1mr0000gn/T//cceTuOpN.s 			page 5


 221              		.cfi_offset 3, -8
 222              		.cfi_offset 14, -4
 223              	.LBB24:
 224              		.loc 1 112 0
 225 0002 2023     		movs	r3, #32
 226              	@ 112 "../ChibiStudio/ChibiOS/os/kernel/src/chcond.c" 1
 227 0004 83F31188 		msr     BASEPRI, r3
 228              	@ 0 "" 2
 229              		.thumb
 230              	.LBE24:
 231              		.loc 1 113 0
 232 0008 FFF7FEFF 		bl	chCondBroadcastI
 233              	.LVL16:
 234              		.loc 1 114 0
 235 000c FFF7FEFF 		bl	chSchRescheduleS
 236              	.LVL17:
 237              	.LBB25:
 238              		.loc 1 115 0
 239 0010 0023     		movs	r3, #0
 240              	@ 115 "../ChibiStudio/ChibiOS/os/kernel/src/chcond.c" 1
 241 0012 83F31188 		msr     BASEPRI, r3
 242              	@ 0 "" 2
 243              		.thumb
 244 0016 08BD     		pop	{r3, pc}
 245              	.LBE25:
 246              		.cfi_endproc
 247              	.LFE10:
 248              		.size	chCondBroadcast, .-chCondBroadcast
 249 0018 AFF30080 		.section	.text.chCondWaitS,"ax",%progbits
 249      AFF30080 
 250              		.align	2
 251              		.p2align 4,,15
 252              		.global	chCondWaitS
 253              		.thumb
 254              		.thumb_func
 255              		.type	chCondWaitS, %function
 256              	chCondWaitS:
 257              	.LFB13:
 258              		.loc 1 184 0
 259              		.cfi_startproc
 260              		@ args = 0, pretend = 0, frame = 0
 261              		@ frame_needed = 0, uses_anonymous_args = 0
 262              	.LVL18:
 263              		.loc 1 185 0
 264 0000 0F4B     		ldr	r3, .L18
 265              		.loc 1 184 0
 266 0002 70B5     		push	{r4, r5, r6, lr}
 267              		.cfi_def_cfa_offset 16
 268              		.cfi_offset 4, -16
 269              		.cfi_offset 5, -12
 270              		.cfi_offset 6, -8
 271              		.cfi_offset 14, -4
 272              		.loc 1 185 0
 273 0004 9C69     		ldr	r4, [r3, #24]
 274              	.LVL19:
 275              		.loc 1 184 0
 276 0006 0546     		mov	r5, r0
ARM GAS  /var/folders/4k/6h5l9jl178sb4hslwv3xp1mr0000gn/T//cceTuOpN.s 			page 6


 277              		.loc 1 195 0
 278 0008 FFF7FEFF 		bl	chMtxUnlockS
 279              	.LVL20:
 280              		.loc 1 196 0
 281 000c 6562     		str	r5, [r4, #36]
 282              		.loc 1 195 0
 283 000e 0646     		mov	r6, r0
 284              	.LVL21:
 285              	.LBB26:
 286              	.LBB27:
 287              		.loc 2 43 0
 288 0010 2B46     		mov	r3, r5
 289 0012 03E0     		b	.L15
 290              	.LVL22:
 291              	.L17:
 292              		.loc 2 46 0
 293 0014 9968     		ldr	r1, [r3, #8]
 294 0016 A268     		ldr	r2, [r4, #8]
 295 0018 9142     		cmp	r1, r2
 296 001a 02D3     		bcc	.L14
 297              	.L15:
 298              		.loc 2 45 0
 299 001c 1B68     		ldr	r3, [r3]
 300              	.LVL23:
 301              		.loc 2 46 0
 302 001e 9D42     		cmp	r5, r3
 303 0020 F8D1     		bne	.L17
 304              	.L14:
 305              		.loc 2 48 0
 306 0022 5A68     		ldr	r2, [r3, #4]
 307 0024 6260     		str	r2, [r4, #4]
 308              		.loc 2 47 0
 309 0026 2360     		str	r3, [r4]
 310              	.LBE27:
 311              	.LBE26:
 312              		.loc 1 198 0
 313 0028 0520     		movs	r0, #5
 314              	.LVL24:
 315              	.LBB29:
 316              	.LBB28:
 317              		.loc 2 49 0
 318 002a 5C60     		str	r4, [r3, #4]
 319 002c 1460     		str	r4, [r2]
 320              	.LBE28:
 321              	.LBE29:
 322              		.loc 1 198 0
 323 002e FFF7FEFF 		bl	chSchGoSleepS
 324              	.LVL25:
 325              		.loc 1 199 0
 326 0032 646A     		ldr	r4, [r4, #36]
 327              	.LVL26:
 328              		.loc 1 200 0
 329 0034 3046     		mov	r0, r6
 330 0036 FFF7FEFF 		bl	chMtxLockS
 331              	.LVL27:
 332              		.loc 1 202 0
 333 003a 2046     		mov	r0, r4
ARM GAS  /var/folders/4k/6h5l9jl178sb4hslwv3xp1mr0000gn/T//cceTuOpN.s 			page 7


 334 003c 70BD     		pop	{r4, r5, r6, pc}
 335              	.LVL28:
 336              	.L19:
 337 003e 00BF     		.align	2
 338              	.L18:
 339 0040 00000000 		.word	rlist
 340              		.cfi_endproc
 341              	.LFE13:
 342              		.size	chCondWaitS, .-chCondWaitS
 343 0044 AFF30080 		.section	.text.chCondWait,"ax",%progbits
 343      AFF30080 
 343      AFF30080 
 344              		.align	2
 345              		.p2align 4,,15
 346              		.global	chCondWait
 347              		.thumb
 348              		.thumb_func
 349              		.type	chCondWait, %function
 350              	chCondWait:
 351              	.LFB12:
 352              		.loc 1 158 0
 353              		.cfi_startproc
 354              		@ args = 0, pretend = 0, frame = 0
 355              		@ frame_needed = 0, uses_anonymous_args = 0
 356              	.LVL29:
 357 0000 08B5     		push	{r3, lr}
 358              		.cfi_def_cfa_offset 8
 359              		.cfi_offset 3, -8
 360              		.cfi_offset 14, -4
 361              	.LBB30:
 362              		.loc 1 161 0
 363 0002 2023     		movs	r3, #32
 364              	@ 161 "../ChibiStudio/ChibiOS/os/kernel/src/chcond.c" 1
 365 0004 83F31188 		msr     BASEPRI, r3
 366              	@ 0 "" 2
 367              		.thumb
 368              	.LBE30:
 369              		.loc 1 162 0
 370 0008 FFF7FEFF 		bl	chCondWaitS
 371              	.LVL30:
 372              	.LBB31:
 373              		.loc 1 163 0
 374 000c 0023     		movs	r3, #0
 375              	@ 163 "../ChibiStudio/ChibiOS/os/kernel/src/chcond.c" 1
 376 000e 83F31188 		msr     BASEPRI, r3
 377              	@ 0 "" 2
 378              		.thumb
 379              	.LBE31:
 380              		.loc 1 165 0
 381 0012 08BD     		pop	{r3, pc}
 382              		.cfi_endproc
 383              	.LFE12:
 384              		.size	chCondWait, .-chCondWait
 385 0014 AFF30080 		.section	.text.chCondWaitTimeoutS,"ax",%progbits
 385      AFF30080 
 385      AFF30080 
 386              		.align	2
ARM GAS  /var/folders/4k/6h5l9jl178sb4hslwv3xp1mr0000gn/T//cceTuOpN.s 			page 8


 387              		.p2align 4,,15
 388              		.global	chCondWaitTimeoutS
 389              		.thumb
 390              		.thumb_func
 391              		.type	chCondWaitTimeoutS, %function
 392              	chCondWaitTimeoutS:
 393              	.LFB15:
 394              		.loc 1 270 0
 395              		.cfi_startproc
 396              		@ args = 0, pretend = 0, frame = 0
 397              		@ frame_needed = 0, uses_anonymous_args = 0
 398              	.LVL31:
 399 0000 2DE9F041 		push	{r4, r5, r6, r7, r8, lr}
 400              		.cfi_def_cfa_offset 24
 401              		.cfi_offset 4, -24
 402              		.cfi_offset 5, -20
 403              		.cfi_offset 6, -16
 404              		.cfi_offset 7, -12
 405              		.cfi_offset 8, -8
 406              		.cfi_offset 14, -4
 407              		.loc 1 270 0
 408 0004 0646     		mov	r6, r0
 409 0006 8846     		mov	r8, r1
 410              		.loc 1 280 0
 411 0008 FFF7FEFF 		bl	chMtxUnlockS
 412              	.LVL32:
 413              		.loc 1 281 0
 414 000c 0F4B     		ldr	r3, .L27
 415 000e 9D69     		ldr	r5, [r3, #24]
 416              		.loc 1 280 0
 417 0010 0746     		mov	r7, r0
 418              	.LVL33:
 419              	.LBB32:
 420              	.LBB33:
 421              		.loc 2 43 0
 422 0012 3346     		mov	r3, r6
 423              	.LBE33:
 424              	.LBE32:
 425              		.loc 1 281 0
 426 0014 6E62     		str	r6, [r5, #36]
 427              	.LVL34:
 428 0016 03E0     		b	.L26
 429              	.LVL35:
 430              	.L22:
 431              	.LBB37:
 432              	.LBB34:
 433              		.loc 2 46 0
 434 0018 9C68     		ldr	r4, [r3, #8]
 435 001a AA68     		ldr	r2, [r5, #8]
 436 001c 9442     		cmp	r4, r2
 437 001e 02D3     		bcc	.L25
 438              	.L26:
 439              		.loc 2 45 0
 440 0020 1B68     		ldr	r3, [r3]
 441              	.LVL36:
 442              		.loc 2 46 0
 443 0022 9E42     		cmp	r6, r3
ARM GAS  /var/folders/4k/6h5l9jl178sb4hslwv3xp1mr0000gn/T//cceTuOpN.s 			page 9


 444 0024 F8D1     		bne	.L22
 445              	.L25:
 446              		.loc 2 48 0
 447 0026 5A68     		ldr	r2, [r3, #4]
 448 0028 6A60     		str	r2, [r5, #4]
 449              		.loc 2 47 0
 450 002a 2B60     		str	r3, [r5]
 451              	.LBE34:
 452              	.LBE37:
 453              		.loc 1 283 0
 454 002c 4146     		mov	r1, r8
 455              	.LBB38:
 456              	.LBB35:
 457              		.loc 2 49 0
 458 002e 5D60     		str	r5, [r3, #4]
 459              	.LBE35:
 460              	.LBE38:
 461              		.loc 1 283 0
 462 0030 0520     		movs	r0, #5
 463              	.LVL37:
 464              	.LBB39:
 465              	.LBB36:
 466              		.loc 2 49 0
 467 0032 1560     		str	r5, [r2]
 468              	.LBE36:
 469              	.LBE39:
 470              		.loc 1 283 0
 471 0034 FFF7FEFF 		bl	chSchGoSleepTimeoutS
 472              	.LVL38:
 473              		.loc 1 284 0
 474 0038 431C     		adds	r3, r0, #1
 475              		.loc 1 283 0
 476 003a 0446     		mov	r4, r0
 477              	.LVL39:
 478              		.loc 1 284 0
 479 003c 02D0     		beq	.L24
 480              		.loc 1 285 0
 481 003e 3846     		mov	r0, r7
 482              	.LVL40:
 483 0040 FFF7FEFF 		bl	chMtxLockS
 484              	.LVL41:
 485              	.L24:
 486              		.loc 1 287 0
 487 0044 2046     		mov	r0, r4
 488 0046 BDE8F081 		pop	{r4, r5, r6, r7, r8, pc}
 489              	.LVL42:
 490              	.L28:
 491 004a 00BF     		.align	2
 492              	.L27:
 493 004c 00000000 		.word	rlist
 494              		.cfi_endproc
 495              	.LFE15:
 496              		.size	chCondWaitTimeoutS, .-chCondWaitTimeoutS
 497              		.section	.text.chCondWaitTimeout,"ax",%progbits
 498              		.align	2
 499              		.p2align 4,,15
 500              		.global	chCondWaitTimeout
ARM GAS  /var/folders/4k/6h5l9jl178sb4hslwv3xp1mr0000gn/T//cceTuOpN.s 			page 10


 501              		.thumb
 502              		.thumb_func
 503              		.type	chCondWaitTimeout, %function
 504              	chCondWaitTimeout:
 505              	.LFB14:
 506              		.loc 1 233 0
 507              		.cfi_startproc
 508              		@ args = 0, pretend = 0, frame = 0
 509              		@ frame_needed = 0, uses_anonymous_args = 0
 510              	.LVL43:
 511 0000 08B5     		push	{r3, lr}
 512              		.cfi_def_cfa_offset 8
 513              		.cfi_offset 3, -8
 514              		.cfi_offset 14, -4
 515              	.LBB40:
 516              		.loc 1 236 0
 517 0002 2023     		movs	r3, #32
 518              	@ 236 "../ChibiStudio/ChibiOS/os/kernel/src/chcond.c" 1
 519 0004 83F31188 		msr     BASEPRI, r3
 520              	@ 0 "" 2
 521              		.thumb
 522              	.LBE40:
 523              		.loc 1 237 0
 524 0008 FFF7FEFF 		bl	chCondWaitTimeoutS
 525              	.LVL44:
 526              	.LBB41:
 527              		.loc 1 238 0
 528 000c 0023     		movs	r3, #0
 529              	@ 238 "../ChibiStudio/ChibiOS/os/kernel/src/chcond.c" 1
 530 000e 83F31188 		msr     BASEPRI, r3
 531              	@ 0 "" 2
 532              		.thumb
 533              	.LBE41:
 534              		.loc 1 240 0
 535 0012 08BD     		pop	{r3, pc}
 536              		.cfi_endproc
 537              	.LFE14:
 538              		.size	chCondWaitTimeout, .-chCondWaitTimeout
 539 0014 AFF30080 		.text
 539      AFF30080 
 539      AFF30080 
 540              	.Letext0:
 541              		.file 3 "/Users/mikevanis/Documents/workspace/gcc-arm-none-eabi-4_8-2014q1/arm-none-eabi/include/m
 542              		.file 4 "/Users/mikevanis/Documents/workspace/gcc-arm-none-eabi-4_8-2014q1/arm-none-eabi/include/s
 543              		.file 5 "../ChibiStudio/ChibiOS/os/ports/GCC/ARMCMx/chtypes.h"
 544              		.file 6 "../ChibiStudio/ChibiOS/os/kernel/include/chlists.h"
 545              		.file 7 "../ChibiStudio/ChibiOS/os/kernel/include/chthreads.h"
 546              		.file 8 "../ChibiStudio/ChibiOS/os/ports/GCC/ARMCMx/chcore_v7m.h"
 547              		.file 9 "../ChibiStudio/ChibiOS/os/kernel/include/chschd.h"
 548              		.file 10 "../ChibiStudio/ChibiOS/os/kernel/include/chmtx.h"
 549              		.file 11 "../ChibiStudio/ChibiOS/os/kernel/include/chcond.h"