ARM GAS  /var/folders/f2/xhg999f973v6h87pc1fwp6lm0000gn/T//cc6fAmpl.s 			page 1


   1              		.syntax unified
   2              		.cpu cortex-m4
   3              		.fpu softvfp
   4              		.eabi_attribute 20, 1
   5              		.eabi_attribute 21, 1
   6              		.eabi_attribute 23, 3
   7              		.eabi_attribute 24, 1
   8              		.eabi_attribute 25, 1
   9              		.eabi_attribute 26, 1
  10              		.eabi_attribute 30, 2
  11              		.eabi_attribute 34, 1
  12              		.eabi_attribute 18, 4
  13              		.thumb
  14              		.file	"chschd.c"
  15              		.text
  16              	.Ltext0:
  17              		.cfi_sections	.debug_frame
  18              		.section	.text.wakeup,"ax",%progbits
  19              		.align	2
  20              		.p2align 4,,15
  21              		.thumb
  22              		.thumb_func
  23              		.type	wakeup, %function
  24              	wakeup:
  25              	.LFB10:
  26              		.file 1 "../../os/kernel/src/chschd.c"
  27              		.loc 1 136 0
  28              		.cfi_startproc
  29              		@ args = 0, pretend = 0, frame = 0
  30              		@ frame_needed = 0, uses_anonymous_args = 0
  31              		@ link register save eliminated.
  32              	.LVL0:
  33 0000 10B4     		push	{r4}
  34              		.cfi_def_cfa_offset 4
  35              		.cfi_offset 4, -4
  36              	.LBB22:
  37              		.loc 1 139 0
  38 0002 2023     		movs	r3, #32
  39              	@ 139 "../../os/kernel/src/chschd.c" 1
  40 0004 83F31188 		msr     BASEPRI, r3
  41              	@ 0 "" 2
  42              		.thumb
  43              	.LBE22:
  44              		.loc 1 140 0
  45 0008 037F     		ldrb	r3, [r0, #28]	@ zero_extendqisi2
  46 000a 0D2B     		cmp	r3, #13
  47 000c 11D8     		bhi	.L2
  48 000e DFE803F0 		tbb	[pc, r3]
  49              	.L4:
  50 0012 26       		.byte	(.L3-.L4)/2
  51 0013 10       		.byte	(.L2-.L4)/2
  52 0014 10       		.byte	(.L2-.L4)/2
  53 0015 07       		.byte	(.L5-.L4)/2
  54 0016 10       		.byte	(.L2-.L4)/2
  55 0017 0B       		.byte	(.L6-.L4)/2
  56 0018 10       		.byte	(.L2-.L4)/2
  57 0019 10       		.byte	(.L2-.L4)/2
ARM GAS  /var/folders/f2/xhg999f973v6h87pc1fwp6lm0000gn/T//cc6fAmpl.s 			page 2


  58 001a 10       		.byte	(.L2-.L4)/2
  59 001b 10       		.byte	(.L2-.L4)/2
  60 001c 10       		.byte	(.L2-.L4)/2
  61 001d 10       		.byte	(.L2-.L4)/2
  62 001e 10       		.byte	(.L2-.L4)/2
  63 001f 0B       		.byte	(.L6-.L4)/2
  64              		.align	1
  65              	.L5:
  66              		.loc 1 150 0
  67 0020 436A     		ldr	r3, [r0, #36]
  68 0022 9A68     		ldr	r2, [r3, #8]
  69 0024 0132     		adds	r2, r2, #1
  70 0026 9A60     		str	r2, [r3, #8]
  71              	.L6:
  72              	.LVL1:
  73              	.LBB23:
  74              	.LBB24:
  75              		.file 2 "../../os/kernel/include/chinline.h"
  76              		.loc 2 75 0
  77 0028 90E80C00 		ldmia	r0, {r2, r3}
  78 002c 1A60     		str	r2, [r3]
  79              		.loc 2 76 0
  80 002e 0268     		ldr	r2, [r0]
  81 0030 5360     		str	r3, [r2, #4]
  82              	.LVL2:
  83              	.L2:
  84              	.LBE24:
  85              	.LBE23:
  86              		.loc 1 163 0
  87 0032 4FF0FF34 		mov	r4, #-1
  88              	.LBB25:
  89              	.LBB26:
  90              		.loc 1 92 0
  91 0036 0023     		movs	r3, #0
  92 0038 8168     		ldr	r1, [r0, #8]
  93              		.loc 1 93 0
  94 003a 0C4A     		ldr	r2, .L11
  95              	.LBE26:
  96              	.LBE25:
  97              		.loc 1 163 0
  98 003c 4462     		str	r4, [r0, #36]
  99              	.LVL3:
 100              	.LBB29:
 101              	.LBB27:
 102              		.loc 1 92 0
 103 003e 0377     		strb	r3, [r0, #28]
 104              	.LVL4:
 105              	.L9:
 106              		.loc 1 95 0
 107 0040 1268     		ldr	r2, [r2]
 108              	.LVL5:
 109              		.loc 1 96 0
 110 0042 9368     		ldr	r3, [r2, #8]
 111 0044 8B42     		cmp	r3, r1
 112 0046 FBD2     		bcs	.L9
 113              		.loc 1 99 0
 114 0048 5168     		ldr	r1, [r2, #4]
ARM GAS  /var/folders/f2/xhg999f973v6h87pc1fwp6lm0000gn/T//cc6fAmpl.s 			page 3


 115 004a 4160     		str	r1, [r0, #4]
 116              		.loc 1 98 0
 117 004c 0260     		str	r2, [r0]
 118              	.LBE27:
 119              	.LBE29:
 120              	.LBB30:
 121              		.loc 1 165 0
 122 004e 0023     		movs	r3, #0
 123              	.LBE30:
 124              	.LBB31:
 125              	.LBB28:
 126              		.loc 1 100 0
 127 0050 5060     		str	r0, [r2, #4]
 128 0052 0860     		str	r0, [r1]
 129              	.LBE28:
 130              	.LBE31:
 131              	.LBB32:
 132              		.loc 1 165 0
 133              	@ 165 "../../os/kernel/src/chschd.c" 1
 134 0054 83F31188 		msr     BASEPRI, r3
 135              	@ 0 "" 2
 136              		.thumb
 137              	.LBE32:
 138              		.loc 1 166 0
 139 0058 5DF8044B 		ldr	r4, [sp], #4
 140 005c 7047     		bx	lr
 141              	.LVL6:
 142              	.L3:
 143              	.LBB33:
 144              		.loc 1 144 0
 145 005e 0023     		movs	r3, #0
 146              	@ 144 "../../os/kernel/src/chschd.c" 1
 147 0060 83F31188 		msr     BASEPRI, r3
 148              	@ 0 "" 2
 149              		.thumb
 150              	.LBE33:
 151              		.loc 1 166 0
 152 0064 5DF8044B 		ldr	r4, [sp], #4
 153 0068 7047     		bx	lr
 154              	.L12:
 155 006a 00BF     		.align	2
 156              	.L11:
 157 006c 00000000 		.word	.LANCHOR0
 158              		.cfi_endproc
 159              	.LFE10:
 160              		.size	wakeup, .-wakeup
 161              		.section	.text._scheduler_init,"ax",%progbits
 162              		.align	2
 163              		.p2align 4,,15
 164              		.global	_scheduler_init
 165              		.thumb
 166              		.thumb_func
 167              		.type	_scheduler_init, %function
 168              	_scheduler_init:
 169              	.LFB7:
 170              		.loc 1 55 0
 171              		.cfi_startproc
ARM GAS  /var/folders/f2/xhg999f973v6h87pc1fwp6lm0000gn/T//cc6fAmpl.s 			page 4


 172              		@ args = 0, pretend = 0, frame = 0
 173              		@ frame_needed = 0, uses_anonymous_args = 0
 174              		@ link register save eliminated.
 175              		.loc 1 57 0
 176 0000 034B     		ldr	r3, .L14
 177              		.loc 1 58 0
 178 0002 0022     		movs	r2, #0
 179              		.loc 1 57 0
 180 0004 5B60     		str	r3, [r3, #4]
 181 0006 1B60     		str	r3, [r3]
 182              		.loc 1 60 0
 183 0008 5B61     		str	r3, [r3, #20]
 184 000a 1B61     		str	r3, [r3, #16]
 185              		.loc 1 58 0
 186 000c 9A60     		str	r2, [r3, #8]
 187 000e 7047     		bx	lr
 188              	.L15:
 189              		.align	2
 190              	.L14:
 191 0010 00000000 		.word	.LANCHOR0
 192              		.cfi_endproc
 193              	.LFE7:
 194              		.size	_scheduler_init, .-_scheduler_init
 195 0014 AFF30080 		.section	.text.chSchReadyI,"ax",%progbits
 195      AFF30080 
 195      AFF30080 
 196              		.align	2
 197              		.p2align 4,,15
 198              		.global	chSchReadyI
 199              		.thumb
 200              		.thumb_func
 201              		.type	chSchReadyI, %function
 202              	chSchReadyI:
 203              	.LFB8:
 204              		.loc 1 81 0
 205              		.cfi_startproc
 206              		@ args = 0, pretend = 0, frame = 0
 207              		@ frame_needed = 0, uses_anonymous_args = 0
 208              		@ link register save eliminated.
 209              	.LVL7:
 210              		.loc 1 92 0
 211 0000 0022     		movs	r2, #0
 212 0002 8168     		ldr	r1, [r0, #8]
 213              		.loc 1 93 0
 214 0004 084B     		ldr	r3, .L19
 215              		.loc 1 81 0
 216 0006 10B4     		push	{r4}
 217              		.cfi_def_cfa_offset 4
 218              		.cfi_offset 4, -4
 219              		.loc 1 81 0
 220 0008 0446     		mov	r4, r0
 221              		.loc 1 92 0
 222 000a 0277     		strb	r2, [r0, #28]
 223              	.LVL8:
 224              	.L18:
 225              		.loc 1 95 0 discriminator 1
 226 000c 1B68     		ldr	r3, [r3]
ARM GAS  /var/folders/f2/xhg999f973v6h87pc1fwp6lm0000gn/T//cc6fAmpl.s 			page 5


 227              	.LVL9:
 228              		.loc 1 96 0 discriminator 1
 229 000e 9A68     		ldr	r2, [r3, #8]
 230 0010 8A42     		cmp	r2, r1
 231 0012 FBD2     		bcs	.L18
 232              		.loc 1 99 0
 233 0014 5A68     		ldr	r2, [r3, #4]
 234 0016 6260     		str	r2, [r4, #4]
 235              		.loc 1 98 0
 236 0018 2360     		str	r3, [r4]
 237              		.loc 1 102 0
 238 001a 2046     		mov	r0, r4
 239              	.LVL10:
 240              		.loc 1 100 0
 241 001c 5C60     		str	r4, [r3, #4]
 242 001e 1460     		str	r4, [r2]
 243              		.loc 1 102 0
 244 0020 5DF8044B 		ldr	r4, [sp], #4
 245              	.LVL11:
 246 0024 7047     		bx	lr
 247              	.L20:
 248 0026 00BF     		.align	2
 249              	.L19:
 250 0028 00000000 		.word	.LANCHOR0
 251              		.cfi_endproc
 252              	.LFE8:
 253              		.size	chSchReadyI, .-chSchReadyI
 254 002c AFF30080 		.section	.text.chSchGoSleepS,"ax",%progbits
 255              		.align	2
 256              		.p2align 4,,15
 257              		.global	chSchGoSleepS
 258              		.thumb
 259              		.thumb_func
 260              		.type	chSchGoSleepS, %function
 261              	chSchGoSleepS:
 262              	.LFB9:
 263              		.loc 1 115 0
 264              		.cfi_startproc
 265              		@ args = 0, pretend = 0, frame = 0
 266              		@ frame_needed = 0, uses_anonymous_args = 0
 267              		@ link register save eliminated.
 268              	.LVL12:
 269              		.loc 1 120 0
 270 0000 084B     		ldr	r3, .L22
 271              		.loc 1 115 0
 272 0002 30B4     		push	{r4, r5}
 273              		.cfi_def_cfa_offset 8
 274              		.cfi_offset 4, -8
 275              		.cfi_offset 5, -4
 276              	.LBB34:
 277              	.LBB35:
 278              		.loc 2 60 0
 279 0004 1A68     		ldr	r2, [r3]
 280              	.LBE35:
 281              	.LBE34:
 282              		.loc 1 120 0
 283 0006 9969     		ldr	r1, [r3, #24]
ARM GAS  /var/folders/f2/xhg999f973v6h87pc1fwp6lm0000gn/T//cc6fAmpl.s 			page 6


 284              	.LVL13:
 285              	.LBB39:
 286              	.LBB36:
 287              		.loc 2 62 0
 288 0008 1468     		ldr	r4, [r2]
 289              	.LBE36:
 290              	.LBE39:
 291              		.loc 1 120 0
 292 000a 0877     		strb	r0, [r1, #28]
 293              		.loc 1 127 0
 294 000c 0125     		movs	r5, #1
 295              		.loc 1 124 0
 296 000e 1420     		movs	r0, #20
 297              	.LVL14:
 298 0010 C877     		strb	r0, [r1, #31]
 299              	.LVL15:
 300              	.LBB40:
 301              	.LBB37:
 302              		.loc 2 62 0
 303 0012 6360     		str	r3, [r4, #4]
 304              	.LBE37:
 305              	.LBE40:
 306              		.loc 1 127 0
 307 0014 1577     		strb	r5, [r2, #28]
 308              	.LVL16:
 309              	.LBB41:
 310              	.LBB38:
 311              		.loc 2 62 0
 312 0016 1C60     		str	r4, [r3]
 313              	.LBE38:
 314              	.LBE41:
 315              		.loc 1 128 0
 316 0018 1046     		mov	r0, r2
 317              		.loc 1 129 0
 318 001a 30BC     		pop	{r4, r5}
 319              		.loc 1 126 0
 320 001c 9A61     		str	r2, [r3, #24]
 321              		.loc 1 128 0
 322 001e FFF7FEBF 		b	_port_switch
 323              	.LVL17:
 324              	.L23:
 325 0022 00BF     		.align	2
 326              	.L22:
 327 0024 00000000 		.word	.LANCHOR0
 328              		.cfi_endproc
 329              	.LFE9:
 330              		.size	chSchGoSleepS, .-chSchGoSleepS
 331 0028 AFF30080 		.section	.text.chSchGoSleepTimeoutS,"ax",%progbits
 331      AFF30080 
 332              		.align	2
 333              		.p2align 4,,15
 334              		.global	chSchGoSleepTimeoutS
 335              		.thumb
 336              		.thumb_func
 337              		.type	chSchGoSleepTimeoutS, %function
 338              	chSchGoSleepTimeoutS:
 339              	.LFB11:
ARM GAS  /var/folders/f2/xhg999f973v6h87pc1fwp6lm0000gn/T//cc6fAmpl.s 			page 7


 340              		.loc 1 189 0
 341              		.cfi_startproc
 342              		@ args = 0, pretend = 0, frame = 24
 343              		@ frame_needed = 0, uses_anonymous_args = 0
 344              	.LVL18:
 345 0000 30B5     		push	{r4, r5, lr}
 346              		.cfi_def_cfa_offset 12
 347              		.cfi_offset 4, -12
 348              		.cfi_offset 5, -8
 349              		.cfi_offset 14, -4
 350              		.loc 1 193 0
 351 0002 4B1C     		adds	r3, r1, #1
 352              		.loc 1 189 0
 353 0004 87B0     		sub	sp, sp, #28
 354              		.cfi_def_cfa_offset 40
 355              		.loc 1 189 0
 356 0006 0546     		mov	r5, r0
 357              		.loc 1 193 0
 358 0008 11D0     		beq	.L25
 359              	.LBB42:
 360              		.loc 1 196 0
 361 000a 0C4C     		ldr	r4, .L31
 362 000c 0C4A     		ldr	r2, .L31+4
 363 000e A369     		ldr	r3, [r4, #24]
 364 0010 01A8     		add	r0, sp, #4
 365              	.LVL19:
 366 0012 FFF7FEFF 		bl	chVTSetI
 367              	.LVL20:
 368              		.loc 1 197 0
 369 0016 2846     		mov	r0, r5
 370 0018 FFF7FEFF 		bl	chSchGoSleepS
 371              	.LVL21:
 372              		.loc 1 198 0
 373 001c 049B     		ldr	r3, [sp, #16]
 374 001e 13B1     		cbz	r3, .L27
 375              		.loc 1 199 0
 376 0020 01A8     		add	r0, sp, #4
 377 0022 FFF7FEFF 		bl	chVTResetI
 378              	.LVL22:
 379              	.L27:
 380              	.LBE42:
 381              		.loc 1 203 0
 382 0026 A369     		ldr	r3, [r4, #24]
 383              		.loc 1 204 0
 384 0028 586A     		ldr	r0, [r3, #36]
 385 002a 07B0     		add	sp, sp, #28
 386              		@ sp needed
 387 002c 30BD     		pop	{r4, r5, pc}
 388              	.LVL23:
 389              	.L25:
 390 002e 034C     		ldr	r4, .L31
 391              		.loc 1 202 0
 392 0030 FFF7FEFF 		bl	chSchGoSleepS
 393              	.LVL24:
 394              		.loc 1 203 0
 395 0034 A369     		ldr	r3, [r4, #24]
 396              		.loc 1 204 0
ARM GAS  /var/folders/f2/xhg999f973v6h87pc1fwp6lm0000gn/T//cc6fAmpl.s 			page 8


 397 0036 586A     		ldr	r0, [r3, #36]
 398 0038 07B0     		add	sp, sp, #28
 399              		@ sp needed
 400 003a 30BD     		pop	{r4, r5, pc}
 401              	.L32:
 402              		.align	2
 403              	.L31:
 404 003c 00000000 		.word	.LANCHOR0
 405 0040 00000000 		.word	wakeup
 406              		.cfi_endproc
 407              	.LFE11:
 408              		.size	chSchGoSleepTimeoutS, .-chSchGoSleepTimeoutS
 409 0044 AFF30080 		.section	.text.chSchWakeupS,"ax",%progbits
 409      AFF30080 
 409      AFF30080 
 410              		.align	2
 411              		.p2align 4,,15
 412              		.global	chSchWakeupS
 413              		.thumb
 414              		.thumb_func
 415              		.type	chSchWakeupS, %function
 416              	chSchWakeupS:
 417              	.LFB12:
 418              		.loc 1 225 0
 419              		.cfi_startproc
 420              		@ args = 0, pretend = 0, frame = 0
 421              		@ frame_needed = 0, uses_anonymous_args = 0
 422              		@ link register save eliminated.
 423              	.LVL25:
 424              		.loc 1 234 0
 425 0000 DFF858C0 		ldr	ip, .L41
 426              		.loc 1 225 0
 427 0004 F0B4     		push	{r4, r5, r6, r7}
 428              		.cfi_def_cfa_offset 16
 429              		.cfi_offset 4, -16
 430              		.cfi_offset 5, -12
 431              		.cfi_offset 6, -8
 432              		.cfi_offset 7, -4
 433              		.loc 1 234 0
 434 0006 DCF81870 		ldr	r7, [ip, #24]
 435 000a 8568     		ldr	r5, [r0, #8]
 436 000c BC68     		ldr	r4, [r7, #8]
 437              		.loc 1 229 0
 438 000e 4162     		str	r1, [r0, #36]
 439              		.loc 1 234 0
 440 0010 A542     		cmp	r5, r4
 441              		.loc 1 225 0
 442 0012 0646     		mov	r6, r0
 443              		.loc 1 234 0
 444 0014 0DD8     		bhi	.L34
 445              	.LVL26:
 446              	.LBB43:
 447              	.LBB44:
 448              		.loc 1 92 0
 449 0016 0022     		movs	r2, #0
 450              		.loc 1 93 0
 451 0018 6346     		mov	r3, ip
ARM GAS  /var/folders/f2/xhg999f973v6h87pc1fwp6lm0000gn/T//cc6fAmpl.s 			page 9


 452              		.loc 1 92 0
 453 001a 0277     		strb	r2, [r0, #28]
 454              	.LVL27:
 455              	.L36:
 456              		.loc 1 95 0
 457 001c 1B68     		ldr	r3, [r3]
 458              	.LVL28:
 459              		.loc 1 96 0
 460 001e 9A68     		ldr	r2, [r3, #8]
 461 0020 9542     		cmp	r5, r2
 462 0022 FBD9     		bls	.L36
 463              		.loc 1 99 0
 464 0024 5A68     		ldr	r2, [r3, #4]
 465 0026 7260     		str	r2, [r6, #4]
 466              		.loc 1 98 0
 467 0028 3360     		str	r3, [r6]
 468              		.loc 1 100 0
 469 002a 5E60     		str	r6, [r3, #4]
 470 002c 1660     		str	r6, [r2]
 471              	.LBE44:
 472              	.LBE43:
 473              		.loc 1 242 0
 474 002e F0BC     		pop	{r4, r5, r6, r7}
 475 0030 7047     		bx	lr
 476              	.LVL29:
 477              	.L34:
 478              	.LBB45:
 479              	.LBB46:
 480              	.LBB47:
 481              		.loc 1 92 0
 482 0032 0023     		movs	r3, #0
 483 0034 3B77     		strb	r3, [r7, #28]
 484              	.LVL30:
 485              		.loc 1 93 0
 486 0036 6346     		mov	r3, ip
 487              	.LVL31:
 488              	.L39:
 489              		.loc 1 95 0
 490 0038 1B68     		ldr	r3, [r3]
 491              	.LVL32:
 492              		.loc 1 96 0
 493 003a 9A68     		ldr	r2, [r3, #8]
 494 003c 9442     		cmp	r4, r2
 495 003e FBD9     		bls	.L39
 496              		.loc 1 99 0
 497 0040 5A68     		ldr	r2, [r3, #4]
 498 0042 7A60     		str	r2, [r7, #4]
 499              	.LBE47:
 500              	.LBE46:
 501              		.loc 1 239 0
 502 0044 0124     		movs	r4, #1
 503              	.LBB49:
 504              	.LBB48:
 505              		.loc 1 98 0
 506 0046 3B60     		str	r3, [r7]
 507              		.loc 1 100 0
 508 0048 5F60     		str	r7, [r3, #4]
ARM GAS  /var/folders/f2/xhg999f973v6h87pc1fwp6lm0000gn/T//cc6fAmpl.s 			page 10


 509 004a 1760     		str	r7, [r2]
 510              	.LBE48:
 511              	.LBE49:
 512              		.loc 1 239 0
 513 004c 3477     		strb	r4, [r6, #28]
 514              		.loc 1 240 0
 515 004e 3946     		mov	r1, r7
 516              	.LVL33:
 517 0050 3046     		mov	r0, r6
 518              	.LVL34:
 519              		.loc 1 238 0
 520 0052 CCF81860 		str	r6, [ip, #24]
 521              	.LBE45:
 522              		.loc 1 242 0
 523 0056 F0BC     		pop	{r4, r5, r6, r7}
 524              	.LVL35:
 525              	.LBB50:
 526              		.loc 1 240 0
 527 0058 FFF7FEBF 		b	_port_switch
 528              	.LVL36:
 529              	.L42:
 530              		.align	2
 531              	.L41:
 532 005c 00000000 		.word	.LANCHOR0
 533              	.LBE50:
 534              		.cfi_endproc
 535              	.LFE12:
 536              		.size	chSchWakeupS, .-chSchWakeupS
 537              		.section	.text.chSchDoRescheduleBehind,"ax",%progbits
 538              		.align	2
 539              		.p2align 4,,15
 540              		.global	chSchDoRescheduleBehind
 541              		.thumb
 542              		.thumb_func
 543              		.type	chSchDoRescheduleBehind, %function
 544              	chSchDoRescheduleBehind:
 545              	.LFB14:
 546              		.loc 1 304 0
 547              		.cfi_startproc
 548              		@ args = 0, pretend = 0, frame = 0
 549              		@ frame_needed = 0, uses_anonymous_args = 0
 550              		@ link register save eliminated.
 551              		.loc 1 307 0
 552 0000 0E4A     		ldr	r2, .L47
 553              	.LBB51:
 554              	.LBB52:
 555              		.loc 2 60 0
 556 0002 1068     		ldr	r0, [r2]
 557              	.LBE52:
 558              	.LBE51:
 559              		.loc 1 304 0
 560 0004 F0B4     		push	{r4, r5, r6, r7}
 561              		.cfi_def_cfa_offset 16
 562              		.cfi_offset 4, -16
 563              		.cfi_offset 5, -12
 564              		.cfi_offset 6, -8
 565              		.cfi_offset 7, -4
ARM GAS  /var/folders/f2/xhg999f973v6h87pc1fwp6lm0000gn/T//cc6fAmpl.s 			page 11


 566              	.LBB56:
 567              	.LBB53:
 568              		.loc 2 62 0
 569 0006 0368     		ldr	r3, [r0]
 570              	.LBE53:
 571              	.LBE56:
 572              		.loc 1 307 0
 573 0008 9569     		ldr	r5, [r2, #24]
 574              	.LVL37:
 575              	.LBB57:
 576              	.LBB54:
 577              		.loc 2 62 0
 578 000a 1360     		str	r3, [r2]
 579              	.LBE54:
 580              	.LBE57:
 581              		.loc 1 310 0
 582 000c 0127     		movs	r7, #1
 583              		.loc 1 312 0
 584 000e 1426     		movs	r6, #20
 585              	.LBB58:
 586              	.LBB59:
 587              		.loc 1 92 0
 588 0010 0021     		movs	r1, #0
 589 0012 AC68     		ldr	r4, [r5, #8]
 590              	.LBE59:
 591              	.LBE58:
 592              	.LBB63:
 593              	.LBB55:
 594              		.loc 2 62 0
 595 0014 5A60     		str	r2, [r3, #4]
 596              	.LBE55:
 597              	.LBE63:
 598              		.loc 1 310 0
 599 0016 0777     		strb	r7, [r0, #28]
 600              	.LBB64:
 601              	.LBB60:
 602              		.loc 1 92 0
 603 0018 0346     		mov	r3, r0
 604              	.LBE60:
 605              	.LBE64:
 606              		.loc 1 309 0
 607 001a 9061     		str	r0, [r2, #24]
 608              		.loc 1 312 0
 609 001c EE77     		strb	r6, [r5, #31]
 610              	.LVL38:
 611              	.LBB65:
 612              	.LBB61:
 613              		.loc 1 92 0
 614 001e 2977     		strb	r1, [r5, #28]
 615              	.LVL39:
 616 0020 00E0     		b	.L45
 617              	.LVL40:
 618              	.L46:
 619 0022 1B68     		ldr	r3, [r3]
 620              	.LVL41:
 621              	.L45:
 622              		.loc 1 96 0
ARM GAS  /var/folders/f2/xhg999f973v6h87pc1fwp6lm0000gn/T//cc6fAmpl.s 			page 12


 623 0024 9A68     		ldr	r2, [r3, #8]
 624 0026 A242     		cmp	r2, r4
 625 0028 FBD2     		bcs	.L46
 626              		.loc 1 99 0
 627 002a 5A68     		ldr	r2, [r3, #4]
 628 002c 6A60     		str	r2, [r5, #4]
 629              		.loc 1 98 0
 630 002e 2B60     		str	r3, [r5]
 631              	.LBE61:
 632              	.LBE65:
 633              		.loc 1 315 0
 634 0030 2946     		mov	r1, r5
 635              	.LBB66:
 636              	.LBB62:
 637              		.loc 1 100 0
 638 0032 5D60     		str	r5, [r3, #4]
 639 0034 1560     		str	r5, [r2]
 640              	.LBE62:
 641              	.LBE66:
 642              		.loc 1 316 0
 643 0036 F0BC     		pop	{r4, r5, r6, r7}
 644              	.LVL42:
 645              		.loc 1 315 0
 646 0038 FFF7FEBF 		b	_port_switch
 647              	.LVL43:
 648              	.L48:
 649              		.align	2
 650              	.L47:
 651 003c 00000000 		.word	.LANCHOR0
 652              		.cfi_endproc
 653              	.LFE14:
 654              		.size	chSchDoRescheduleBehind, .-chSchDoRescheduleBehind
 655              		.section	.text.chSchDoRescheduleAhead,"ax",%progbits
 656              		.align	2
 657              		.p2align 4,,15
 658              		.global	chSchDoRescheduleAhead
 659              		.thumb
 660              		.thumb_func
 661              		.type	chSchDoRescheduleAhead, %function
 662              	chSchDoRescheduleAhead:
 663              	.LFB15:
 664              		.loc 1 329 0
 665              		.cfi_startproc
 666              		@ args = 0, pretend = 0, frame = 0
 667              		@ frame_needed = 0, uses_anonymous_args = 0
 668              		@ link register save eliminated.
 669              		.loc 1 332 0
 670 0000 0D4A     		ldr	r2, .L53
 671              	.LBB67:
 672              	.LBB68:
 673              		.loc 2 60 0
 674 0002 1068     		ldr	r0, [r2]
 675              	.LBE68:
 676              	.LBE67:
 677              		.loc 1 329 0
 678 0004 70B4     		push	{r4, r5, r6}
 679              		.cfi_def_cfa_offset 12
ARM GAS  /var/folders/f2/xhg999f973v6h87pc1fwp6lm0000gn/T//cc6fAmpl.s 			page 13


 680              		.cfi_offset 4, -12
 681              		.cfi_offset 5, -8
 682              		.cfi_offset 6, -4
 683              	.LBB72:
 684              	.LBB69:
 685              		.loc 2 62 0
 686 0006 0368     		ldr	r3, [r0]
 687              	.LBE69:
 688              	.LBE72:
 689              		.loc 1 332 0
 690 0008 9569     		ldr	r5, [r2, #24]
 691              	.LVL44:
 692              	.LBB73:
 693              	.LBB70:
 694              		.loc 2 62 0
 695 000a 1360     		str	r3, [r2]
 696              	.LBE70:
 697              	.LBE73:
 698              		.loc 1 335 0
 699 000c 0126     		movs	r6, #1
 700              		.loc 1 337 0
 701 000e 0021     		movs	r1, #0
 702 0010 AC68     		ldr	r4, [r5, #8]
 703              	.LBB74:
 704              	.LBB71:
 705              		.loc 2 62 0
 706 0012 5A60     		str	r2, [r3, #4]
 707              	.LBE71:
 708              	.LBE74:
 709              		.loc 1 335 0
 710 0014 0677     		strb	r6, [r0, #28]
 711              		.loc 1 337 0
 712 0016 0346     		mov	r3, r0
 713              		.loc 1 334 0
 714 0018 9061     		str	r0, [r2, #24]
 715              		.loc 1 337 0
 716 001a 2977     		strb	r1, [r5, #28]
 717              	.LVL45:
 718 001c 00E0     		b	.L51
 719              	.LVL46:
 720              	.L52:
 721 001e 1B68     		ldr	r3, [r3]
 722              	.LVL47:
 723              	.L51:
 724              		.loc 1 341 0 discriminator 1
 725 0020 9A68     		ldr	r2, [r3, #8]
 726 0022 A242     		cmp	r2, r4
 727 0024 FBD8     		bhi	.L52
 728              		.loc 1 344 0
 729 0026 5A68     		ldr	r2, [r3, #4]
 730 0028 6A60     		str	r2, [r5, #4]
 731              		.loc 1 343 0
 732 002a 2B60     		str	r3, [r5]
 733              		.loc 1 347 0
 734 002c 2946     		mov	r1, r5
 735              		.loc 1 345 0
 736 002e 5D60     		str	r5, [r3, #4]
ARM GAS  /var/folders/f2/xhg999f973v6h87pc1fwp6lm0000gn/T//cc6fAmpl.s 			page 14


 737 0030 1560     		str	r5, [r2]
 738              		.loc 1 348 0
 739 0032 70BC     		pop	{r4, r5, r6}
 740              	.LVL48:
 741              		.loc 1 347 0
 742 0034 FFF7FEBF 		b	_port_switch
 743              	.LVL49:
 744              	.L54:
 745              		.align	2
 746              	.L53:
 747 0038 00000000 		.word	.LANCHOR0
 748              		.cfi_endproc
 749              	.LFE15:
 750              		.size	chSchDoRescheduleAhead, .-chSchDoRescheduleAhead
 751 003c AFF30080 		.section	.text.chSchRescheduleS,"ax",%progbits
 752              		.align	2
 753              		.p2align 4,,15
 754              		.global	chSchRescheduleS
 755              		.thumb
 756              		.thumb_func
 757              		.type	chSchRescheduleS, %function
 758              	chSchRescheduleS:
 759              	.LFB13:
 760              		.loc 1 253 0
 761              		.cfi_startproc
 762              		@ args = 0, pretend = 0, frame = 0
 763              		@ frame_needed = 0, uses_anonymous_args = 0
 764              		@ link register save eliminated.
 765              		.loc 1 257 0
 766 0000 044B     		ldr	r3, .L58
 767 0002 1A68     		ldr	r2, [r3]
 768 0004 9B69     		ldr	r3, [r3, #24]
 769 0006 9268     		ldr	r2, [r2, #8]
 770 0008 9B68     		ldr	r3, [r3, #8]
 771 000a 9A42     		cmp	r2, r3
 772 000c 00D8     		bhi	.L57
 773 000e 7047     		bx	lr
 774              	.L57:
 775              		.loc 1 258 0
 776 0010 FFF7FEBF 		b	chSchDoRescheduleAhead
 777              	.LVL50:
 778              	.L59:
 779              		.align	2
 780              	.L58:
 781 0014 00000000 		.word	.LANCHOR0
 782              		.cfi_endproc
 783              	.LFE13:
 784              		.size	chSchRescheduleS, .-chSchRescheduleS
 785 0018 AFF30080 		.section	.text.chSchDoReschedule,"ax",%progbits
 785      AFF30080 
 786              		.align	2
 787              		.p2align 4,,15
 788              		.global	chSchDoReschedule
 789              		.thumb
 790              		.thumb_func
 791              		.type	chSchDoReschedule, %function
 792              	chSchDoReschedule:
ARM GAS  /var/folders/f2/xhg999f973v6h87pc1fwp6lm0000gn/T//cc6fAmpl.s 			page 15


 793              	.LFB16:
 794              		.loc 1 362 0
 795              		.cfi_startproc
 796              		@ args = 0, pretend = 0, frame = 0
 797              		@ frame_needed = 0, uses_anonymous_args = 0
 798              		@ link register save eliminated.
 799              		.loc 1 367 0
 800 0000 034B     		ldr	r3, .L63
 801 0002 9B69     		ldr	r3, [r3, #24]
 802 0004 DB7F     		ldrb	r3, [r3, #31]	@ zero_extendqisi2
 803 0006 0BB1     		cbz	r3, .L62
 804              		.loc 1 375 0
 805 0008 FFF7FEBF 		b	chSchDoRescheduleAhead
 806              	.LVL51:
 807              	.L62:
 808              		.loc 1 370 0
 809 000c FFF7FEBF 		b	chSchDoRescheduleBehind
 810              	.LVL52:
 811              	.L64:
 812              		.align	2
 813              	.L63:
 814 0010 00000000 		.word	.LANCHOR0
 815              		.cfi_endproc
 816              	.LFE16:
 817              		.size	chSchDoReschedule, .-chSchDoReschedule
 818              		.global	rlist
 819 0014 AFF30080 		.section	.bss.rlist,"aw",%nobits
 819      AFF30080 
 819      AFF30080 
 820              		.align	2
 821              		.set	.LANCHOR0,. + 0
 822              		.type	rlist, %object
 823              		.size	rlist, 28
 824              	rlist:
 825 0000 00000000 		.space	28
 825      00000000 
 825      00000000 
 825      00000000 
 825      00000000 
 826              		.text
 827              	.Letext0:
 828              		.file 3 "/Users/Andy/eclipse_chibi/gcc-arm-none-eabi-4_8-2014q1/arm-none-eabi/include/machine/_def
 829              		.file 4 "/Users/Andy/eclipse_chibi/gcc-arm-none-eabi-4_8-2014q1/arm-none-eabi/include/stdint.h"
 830              		.file 5 "../../os/ports/GCC/ARMCMx/chtypes.h"
 831              		.file 6 "../../os/kernel/include/chlists.h"
 832              		.file 7 "../../os/kernel/include/chthreads.h"
 833              		.file 8 "../../os/ports/GCC/ARMCMx/chcore_v7m.h"
 834              		.file 9 "../../os/kernel/include/chvt.h"
 835              		.file 10 "../../os/kernel/include/chschd.h"
 836              		.file 11 "../../os/kernel/include/chsem.h"
 837              		.file 12 "../../os/kernel/include/chmtx.h"