ARM GAS  /var/folders/4k/6h5l9jl178sb4hslwv3xp1mr0000gn/T//cc7OGbjf.s 			page 1


   1              		.syntax unified
   2              		.cpu cortex-m4
   3              		.fpu softvfp
   4              		.eabi_attribute 20, 1
   5              		.eabi_attribute 21, 1
   6              		.eabi_attribute 23, 3
   7              		.eabi_attribute 24, 1
   8              		.eabi_attribute 25, 1
   9              		.eabi_attribute 26, 1
  10              		.eabi_attribute 30, 2
  11              		.eabi_attribute 34, 1
  12              		.eabi_attribute 18, 4
  13              		.thumb
  14              		.file	"chsem.c"
  15              		.text
  16              	.Ltext0:
  17              		.cfi_sections	.debug_frame
  18              		.section	.text.chSemInit,"ax",%progbits
  19              		.align	2
  20              		.p2align 4,,15
  21              		.global	chSemInit
  22              		.thumb
  23              		.thumb_func
  24              		.type	chSemInit, %function
  25              	chSemInit:
  26              	.LFB7:
  27              		.file 1 "../ChibiStudio/ChibiOS/os/kernel/src/chsem.c"
  28              		.loc 1 86 0
  29              		.cfi_startproc
  30              		@ args = 0, pretend = 0, frame = 0
  31              		@ frame_needed = 0, uses_anonymous_args = 0
  32              		@ link register save eliminated.
  33              	.LVL0:
  34              		.loc 1 90 0
  35 0000 4060     		str	r0, [r0, #4]
  36 0002 0060     		str	r0, [r0]
  37              		.loc 1 91 0
  38 0004 8160     		str	r1, [r0, #8]
  39 0006 7047     		bx	lr
  40              		.cfi_endproc
  41              	.LFE7:
  42              		.size	chSemInit, .-chSemInit
  43 0008 AFF30080 		.section	.text.chSemResetI,"ax",%progbits
  43      AFF30080 
  44              		.align	2
  45              		.p2align 4,,15
  46              		.global	chSemResetI
  47              		.thumb
  48              		.thumb_func
  49              		.type	chSemResetI, %function
  50              	chSemResetI:
  51              	.LFB9:
  52              		.loc 1 136 0
  53              		.cfi_startproc
  54              		@ args = 0, pretend = 0, frame = 0
  55              		@ frame_needed = 0, uses_anonymous_args = 0
  56              	.LVL1:
ARM GAS  /var/folders/4k/6h5l9jl178sb4hslwv3xp1mr0000gn/T//cc7OGbjf.s 			page 2


  57 0000 70B5     		push	{r4, r5, r6, lr}
  58              		.cfi_def_cfa_offset 16
  59              		.cfi_offset 4, -16
  60              		.cfi_offset 5, -12
  61              		.cfi_offset 6, -8
  62              		.cfi_offset 14, -4
  63              		.loc 1 141 0
  64 0002 8568     		ldr	r5, [r0, #8]
  65              	.LVL2:
  66              		.loc 1 147 0
  67 0004 8160     		str	r1, [r0, #8]
  68              		.loc 1 148 0
  69 0006 0135     		adds	r5, r5, #1
  70              	.LVL3:
  71 0008 002D     		cmp	r5, #0
  72              		.loc 1 136 0
  73 000a 0446     		mov	r4, r0
  74              		.loc 1 148 0
  75 000c 0BDC     		bgt	.L2
  76              		.loc 1 149 0
  77 000e 6FF00106 		mvn	r6, #1
  78              	.LVL4:
  79              	.L5:
  80              	.LBB24:
  81              	.LBB25:
  82              		.file 2 "../ChibiStudio/ChibiOS/os/kernel/include/chinline.h"
  83              		.loc 2 67 0
  84 0012 6068     		ldr	r0, [r4, #4]
  85              	.LVL5:
  86              		.loc 2 69 0
  87 0014 4368     		ldr	r3, [r0, #4]
  88 0016 6360     		str	r3, [r4, #4]
  89 0018 1C60     		str	r4, [r3]
  90              	.LBE25:
  91              	.LBE24:
  92              		.loc 1 149 0
  93 001a FFF7FEFF 		bl	chSchReadyI
  94              	.LVL6:
  95              		.loc 1 148 0
  96 001e 0135     		adds	r5, r5, #1
  97              	.LVL7:
  98 0020 012D     		cmp	r5, #1
  99              		.loc 1 149 0
 100 0022 4662     		str	r6, [r0, #36]
 101              	.LVL8:
 102              		.loc 1 148 0
 103 0024 F5D1     		bne	.L5
 104              	.LVL9:
 105              	.L2:
 106 0026 70BD     		pop	{r4, r5, r6, pc}
 107              		.cfi_endproc
 108              	.LFE9:
 109              		.size	chSemResetI, .-chSemResetI
 110 0028 AFF30080 		.section	.text.chSemReset,"ax",%progbits
 110      AFF30080 
 111              		.align	2
 112              		.p2align 4,,15
ARM GAS  /var/folders/4k/6h5l9jl178sb4hslwv3xp1mr0000gn/T//cc7OGbjf.s 			page 3


 113              		.global	chSemReset
 114              		.thumb
 115              		.thumb_func
 116              		.type	chSemReset, %function
 117              	chSemReset:
 118              	.LFB8:
 119              		.loc 1 109 0
 120              		.cfi_startproc
 121              		@ args = 0, pretend = 0, frame = 0
 122              		@ frame_needed = 0, uses_anonymous_args = 0
 123              	.LVL10:
 124 0000 08B5     		push	{r3, lr}
 125              		.cfi_def_cfa_offset 8
 126              		.cfi_offset 3, -8
 127              		.cfi_offset 14, -4
 128              	.LBB26:
 129              		.loc 1 111 0
 130 0002 2023     		movs	r3, #32
 131              	@ 111 "../ChibiStudio/ChibiOS/os/kernel/src/chsem.c" 1
 132 0004 83F31188 		msr     BASEPRI, r3
 133              	@ 0 "" 2
 134              		.thumb
 135              	.LBE26:
 136              		.loc 1 112 0
 137 0008 FFF7FEFF 		bl	chSemResetI
 138              	.LVL11:
 139              		.loc 1 113 0
 140 000c FFF7FEFF 		bl	chSchRescheduleS
 141              	.LVL12:
 142              	.LBB27:
 143              		.loc 1 114 0
 144 0010 0023     		movs	r3, #0
 145              	@ 114 "../ChibiStudio/ChibiOS/os/kernel/src/chsem.c" 1
 146 0012 83F31188 		msr     BASEPRI, r3
 147              	@ 0 "" 2
 148              		.thumb
 149 0016 08BD     		pop	{r3, pc}
 150              	.LBE27:
 151              		.cfi_endproc
 152              	.LFE8:
 153              		.size	chSemReset, .-chSemReset
 154 0018 AFF30080 		.section	.text.chSemWaitS,"ax",%progbits
 154      AFF30080 
 155              		.align	2
 156              		.p2align 4,,15
 157              		.global	chSemWaitS
 158              		.thumb
 159              		.thumb_func
 160              		.type	chSemWaitS, %function
 161              	chSemWaitS:
 162              	.LFB11:
 163              		.loc 1 185 0
 164              		.cfi_startproc
 165              		@ args = 0, pretend = 0, frame = 0
 166              		@ frame_needed = 0, uses_anonymous_args = 0
 167              	.LVL13:
 168              		.loc 1 194 0
ARM GAS  /var/folders/4k/6h5l9jl178sb4hslwv3xp1mr0000gn/T//cc7OGbjf.s 			page 4


 169 0000 8268     		ldr	r2, [r0, #8]
 170 0002 013A     		subs	r2, r2, #1
 171 0004 002A     		cmp	r2, #0
 172              		.loc 1 185 0
 173 0006 10B5     		push	{r4, lr}
 174              		.cfi_def_cfa_offset 8
 175              		.cfi_offset 4, -8
 176              		.cfi_offset 14, -4
 177              		.loc 1 185 0
 178 0008 0346     		mov	r3, r0
 179              		.loc 1 194 0
 180 000a 8260     		str	r2, [r0, #8]
 181 000c 01DB     		blt	.L14
 182              		.loc 1 200 0
 183 000e 0020     		movs	r0, #0
 184              	.LVL14:
 185              		.loc 1 201 0
 186 0010 10BD     		pop	{r4, pc}
 187              	.LVL15:
 188              	.L14:
 189              		.loc 1 195 0
 190 0012 074C     		ldr	r4, .L15
 191 0014 A269     		ldr	r2, [r4, #24]
 192 0016 5062     		str	r0, [r2, #36]
 193              	.LVL16:
 194              	.LBB28:
 195              	.LBB29:
 196              		.loc 2 55 0
 197 0018 4168     		ldr	r1, [r0, #4]
 198 001a 5160     		str	r1, [r2, #4]
 199              		.loc 2 54 0
 200 001c 1060     		str	r0, [r2]
 201              		.loc 2 56 0
 202 001e 5A60     		str	r2, [r3, #4]
 203              	.LVL17:
 204              	.LBE29:
 205              	.LBE28:
 206              		.loc 1 197 0
 207 0020 0320     		movs	r0, #3
 208              	.LVL18:
 209              	.LBB31:
 210              	.LBB30:
 211              		.loc 2 56 0
 212 0022 0A60     		str	r2, [r1]
 213              	.LVL19:
 214              	.LBE30:
 215              	.LBE31:
 216              		.loc 1 197 0
 217 0024 FFF7FEFF 		bl	chSchGoSleepS
 218              	.LVL20:
 219              		.loc 1 198 0
 220 0028 A369     		ldr	r3, [r4, #24]
 221 002a 586A     		ldr	r0, [r3, #36]
 222 002c 10BD     		pop	{r4, pc}
 223              	.L16:
 224 002e 00BF     		.align	2
 225              	.L15:
ARM GAS  /var/folders/4k/6h5l9jl178sb4hslwv3xp1mr0000gn/T//cc7OGbjf.s 			page 5


 226 0030 00000000 		.word	rlist
 227              		.cfi_endproc
 228              	.LFE11:
 229              		.size	chSemWaitS, .-chSemWaitS
 230 0034 AFF30080 		.section	.text.chSemWait,"ax",%progbits
 230      AFF30080 
 230      AFF30080 
 231              		.align	2
 232              		.p2align 4,,15
 233              		.global	chSemWait
 234              		.thumb
 235              		.thumb_func
 236              		.type	chSemWait, %function
 237              	chSemWait:
 238              	.LFB10:
 239              		.loc 1 164 0
 240              		.cfi_startproc
 241              		@ args = 0, pretend = 0, frame = 0
 242              		@ frame_needed = 0, uses_anonymous_args = 0
 243              	.LVL21:
 244 0000 08B5     		push	{r3, lr}
 245              		.cfi_def_cfa_offset 8
 246              		.cfi_offset 3, -8
 247              		.cfi_offset 14, -4
 248              	.LBB32:
 249              		.loc 1 167 0
 250 0002 2023     		movs	r3, #32
 251              	@ 167 "../ChibiStudio/ChibiOS/os/kernel/src/chsem.c" 1
 252 0004 83F31188 		msr     BASEPRI, r3
 253              	@ 0 "" 2
 254              		.thumb
 255              	.LBE32:
 256              		.loc 1 168 0
 257 0008 FFF7FEFF 		bl	chSemWaitS
 258              	.LVL22:
 259              	.LBB33:
 260              		.loc 1 169 0
 261 000c 0023     		movs	r3, #0
 262              	@ 169 "../ChibiStudio/ChibiOS/os/kernel/src/chsem.c" 1
 263 000e 83F31188 		msr     BASEPRI, r3
 264              	@ 0 "" 2
 265              		.thumb
 266              	.LBE33:
 267              		.loc 1 171 0
 268 0012 08BD     		pop	{r3, pc}
 269              		.cfi_endproc
 270              	.LFE10:
 271              		.size	chSemWait, .-chSemWait
 272 0014 AFF30080 		.section	.text.chSemWaitTimeoutS,"ax",%progbits
 272      AFF30080 
 272      AFF30080 
 273              		.align	2
 274              		.p2align 4,,15
 275              		.global	chSemWaitTimeoutS
 276              		.thumb
 277              		.thumb_func
 278              		.type	chSemWaitTimeoutS, %function
ARM GAS  /var/folders/4k/6h5l9jl178sb4hslwv3xp1mr0000gn/T//cc7OGbjf.s 			page 6


 279              	chSemWaitTimeoutS:
 280              	.LFB13:
 281              		.loc 1 250 0
 282              		.cfi_startproc
 283              		@ args = 0, pretend = 0, frame = 0
 284              		@ frame_needed = 0, uses_anonymous_args = 0
 285              		@ link register save eliminated.
 286              	.LVL23:
 287 0000 0346     		mov	r3, r0
 288              		.loc 1 254 0
 289 0002 8068     		ldr	r0, [r0, #8]
 290              	.LVL24:
 291              		.loc 1 259 0
 292 0004 421E     		subs	r2, r0, #1
 293 0006 002A     		cmp	r2, #0
 294              		.loc 1 250 0
 295 0008 10B4     		push	{r4}
 296              		.cfi_def_cfa_offset 4
 297              		.cfi_offset 4, -4
 298              		.loc 1 259 0
 299 000a 9A60     		str	r2, [r3, #8]
 300 000c 03DB     		blt	.L22
 301              		.loc 1 268 0
 302 000e 0020     		movs	r0, #0
 303              	.L19:
 304              		.loc 1 269 0
 305 0010 5DF8044B 		ldr	r4, [sp], #4
 306 0014 7047     		bx	lr
 307              	.L22:
 308              		.loc 1 260 0
 309 0016 61B1     		cbz	r1, .L23
 310              		.loc 1 264 0
 311 0018 084A     		ldr	r2, .L24
 312 001a 9269     		ldr	r2, [r2, #24]
 313 001c 5362     		str	r3, [r2, #36]
 314              	.LVL25:
 315              	.LBB34:
 316              	.LBB35:
 317              		.loc 2 55 0
 318 001e 5C68     		ldr	r4, [r3, #4]
 319              	.LBE35:
 320              	.LBE34:
 321              		.loc 1 266 0
 322 0020 0320     		movs	r0, #3
 323              	.LBB37:
 324              	.LBB36:
 325              		.loc 2 55 0
 326 0022 82E81800 		stmia	r2, {r3, r4}
 327              		.loc 2 56 0
 328 0026 5A60     		str	r2, [r3, #4]
 329              	.LVL26:
 330 0028 2260     		str	r2, [r4]
 331              	.LVL27:
 332              	.LBE36:
 333              	.LBE37:
 334              		.loc 1 269 0
 335 002a 5DF8044B 		ldr	r4, [sp], #4
ARM GAS  /var/folders/4k/6h5l9jl178sb4hslwv3xp1mr0000gn/T//cc7OGbjf.s 			page 7


 336              		.loc 1 266 0
 337 002e FFF7FEBF 		b	chSchGoSleepTimeoutS
 338              	.LVL28:
 339              	.L23:
 340              		.loc 1 261 0
 341 0032 9860     		str	r0, [r3, #8]
 342              		.loc 1 262 0
 343 0034 4FF0FF30 		mov	r0, #-1
 344 0038 EAE7     		b	.L19
 345              	.L25:
 346 003a 00BF     		.align	2
 347              	.L24:
 348 003c 00000000 		.word	rlist
 349              		.cfi_endproc
 350              	.LFE13:
 351              		.size	chSemWaitTimeoutS, .-chSemWaitTimeoutS
 352              		.section	.text.chSemWaitTimeout,"ax",%progbits
 353              		.align	2
 354              		.p2align 4,,15
 355              		.global	chSemWaitTimeout
 356              		.thumb
 357              		.thumb_func
 358              		.type	chSemWaitTimeout, %function
 359              	chSemWaitTimeout:
 360              	.LFB12:
 361              		.loc 1 222 0
 362              		.cfi_startproc
 363              		@ args = 0, pretend = 0, frame = 0
 364              		@ frame_needed = 0, uses_anonymous_args = 0
 365              	.LVL29:
 366 0000 08B5     		push	{r3, lr}
 367              		.cfi_def_cfa_offset 8
 368              		.cfi_offset 3, -8
 369              		.cfi_offset 14, -4
 370              	.LBB38:
 371              		.loc 1 225 0
 372 0002 2023     		movs	r3, #32
 373              	@ 225 "../ChibiStudio/ChibiOS/os/kernel/src/chsem.c" 1
 374 0004 83F31188 		msr     BASEPRI, r3
 375              	@ 0 "" 2
 376              		.thumb
 377              	.LBE38:
 378              		.loc 1 226 0
 379 0008 FFF7FEFF 		bl	chSemWaitTimeoutS
 380              	.LVL30:
 381              	.LBB39:
 382              		.loc 1 227 0
 383 000c 0023     		movs	r3, #0
 384              	@ 227 "../ChibiStudio/ChibiOS/os/kernel/src/chsem.c" 1
 385 000e 83F31188 		msr     BASEPRI, r3
 386              	@ 0 "" 2
 387              		.thumb
 388              	.LBE39:
 389              		.loc 1 229 0
 390 0012 08BD     		pop	{r3, pc}
 391              		.cfi_endproc
 392              	.LFE12:
ARM GAS  /var/folders/4k/6h5l9jl178sb4hslwv3xp1mr0000gn/T//cc7OGbjf.s 			page 8


 393              		.size	chSemWaitTimeout, .-chSemWaitTimeout
 394 0014 AFF30080 		.section	.text.chSemSignal,"ax",%progbits
 394      AFF30080 
 394      AFF30080 
 395              		.align	2
 396              		.p2align 4,,15
 397              		.global	chSemSignal
 398              		.thumb
 399              		.thumb_func
 400              		.type	chSemSignal, %function
 401              	chSemSignal:
 402              	.LFB14:
 403              		.loc 1 278 0
 404              		.cfi_startproc
 405              		@ args = 0, pretend = 0, frame = 0
 406              		@ frame_needed = 0, uses_anonymous_args = 0
 407              	.LVL31:
 408 0000 08B5     		push	{r3, lr}
 409              		.cfi_def_cfa_offset 8
 410              		.cfi_offset 3, -8
 411              		.cfi_offset 14, -4
 412              		.loc 1 278 0
 413 0002 0246     		mov	r2, r0
 414              	.LBB40:
 415              		.loc 1 286 0
 416 0004 2023     		movs	r3, #32
 417              	@ 286 "../ChibiStudio/ChibiOS/os/kernel/src/chsem.c" 1
 418 0006 83F31188 		msr     BASEPRI, r3
 419              	@ 0 "" 2
 420              		.thumb
 421              	.LBE40:
 422              		.loc 1 287 0
 423 000a 8368     		ldr	r3, [r0, #8]
 424 000c 0133     		adds	r3, r3, #1
 425 000e 002B     		cmp	r3, #0
 426 0010 8360     		str	r3, [r0, #8]
 427 0012 03DD     		ble	.L29
 428              	.LBB41:
 429              		.loc 1 289 0
 430 0014 0023     		movs	r3, #0
 431              	@ 289 "../ChibiStudio/ChibiOS/os/kernel/src/chsem.c" 1
 432 0016 83F31188 		msr     BASEPRI, r3
 433              	@ 0 "" 2
 434              		.thumb
 435 001a 08BD     		pop	{r3, pc}
 436              	.L29:
 437              	.LVL32:
 438              	.LBE41:
 439              	.LBB42:
 440              	.LBB43:
 441              		.loc 2 60 0
 442 001c 0068     		ldr	r0, [r0]
 443              	.LVL33:
 444              		.loc 2 62 0
 445 001e 0368     		ldr	r3, [r0]
 446 0020 1360     		str	r3, [r2]
 447              	.LBE43:
ARM GAS  /var/folders/4k/6h5l9jl178sb4hslwv3xp1mr0000gn/T//cc7OGbjf.s 			page 9


 448              	.LBE42:
 449              		.loc 1 288 0
 450 0022 0021     		movs	r1, #0
 451              	.LBB45:
 452              	.LBB44:
 453              		.loc 2 62 0
 454 0024 5A60     		str	r2, [r3, #4]
 455              	.LBE44:
 456              	.LBE45:
 457              		.loc 1 288 0
 458 0026 FFF7FEFF 		bl	chSchWakeupS
 459              	.LVL34:
 460              	.LBB46:
 461              		.loc 1 289 0
 462 002a 0023     		movs	r3, #0
 463              	@ 289 "../ChibiStudio/ChibiOS/os/kernel/src/chsem.c" 1
 464 002c 83F31188 		msr     BASEPRI, r3
 465              	@ 0 "" 2
 466              		.thumb
 467 0030 08BD     		pop	{r3, pc}
 468              	.LBE46:
 469              		.cfi_endproc
 470              	.LFE14:
 471              		.size	chSemSignal, .-chSemSignal
 472 0032 00BFAFF3 		.section	.text.chSemSignalI,"ax",%progbits
 472      0080AFF3 
 472      0080AFF3 
 472      0080
 473              		.align	2
 474              		.p2align 4,,15
 475              		.global	chSemSignalI
 476              		.thumb
 477              		.thumb_func
 478              		.type	chSemSignalI, %function
 479              	chSemSignalI:
 480              	.LFB15:
 481              		.loc 1 303 0
 482              		.cfi_startproc
 483              		@ args = 0, pretend = 0, frame = 0
 484              		@ frame_needed = 0, uses_anonymous_args = 0
 485              		@ link register save eliminated.
 486              	.LVL35:
 487              		.loc 1 312 0
 488 0000 8368     		ldr	r3, [r0, #8]
 489 0002 0133     		adds	r3, r3, #1
 490 0004 002B     		cmp	r3, #0
 491 0006 8360     		str	r3, [r0, #8]
 492 0008 00DD     		ble	.L32
 493 000a 7047     		bx	lr
 494              	.L32:
 495              	.LVL36:
 496              	.LBB47:
 497              	.LBB48:
 498              	.LBB49:
 499              		.loc 2 60 0
 500 000c 0368     		ldr	r3, [r0]
 501              	.LVL37:
ARM GAS  /var/folders/4k/6h5l9jl178sb4hslwv3xp1mr0000gn/T//cc7OGbjf.s 			page 10


 502              		.loc 2 62 0
 503 000e 1A68     		ldr	r2, [r3]
 504 0010 0260     		str	r2, [r0]
 505              	.LBE49:
 506              	.LBE48:
 507              		.loc 1 316 0
 508 0012 0021     		movs	r1, #0
 509              	.LBB51:
 510              	.LBB50:
 511              		.loc 2 62 0
 512 0014 5060     		str	r0, [r2, #4]
 513              	.LBE50:
 514              	.LBE51:
 515              		.loc 1 317 0
 516 0016 1846     		mov	r0, r3
 517              	.LVL38:
 518              		.loc 1 316 0
 519 0018 5962     		str	r1, [r3, #36]
 520              		.loc 1 317 0
 521 001a FFF7FEBF 		b	chSchReadyI
 522              	.LVL39:
 523              	.LBE47:
 524              		.cfi_endproc
 525              	.LFE15:
 526              		.size	chSemSignalI, .-chSemSignalI
 527 001e 00BF     		.section	.text.chSemAddCounterI,"ax",%progbits
 528              		.align	2
 529              		.p2align 4,,15
 530              		.global	chSemAddCounterI
 531              		.thumb
 532              		.thumb_func
 533              		.type	chSemAddCounterI, %function
 534              	chSemAddCounterI:
 535              	.LFB16:
 536              		.loc 1 334 0
 537              		.cfi_startproc
 538              		@ args = 0, pretend = 0, frame = 0
 539              		@ frame_needed = 0, uses_anonymous_args = 0
 540              	.LVL40:
 541 0000 70B5     		push	{r4, r5, r6, lr}
 542              		.cfi_def_cfa_offset 16
 543              		.cfi_offset 4, -16
 544              		.cfi_offset 5, -12
 545              		.cfi_offset 6, -8
 546              		.cfi_offset 14, -4
 547              		.loc 1 343 0
 548 0002 0C1E     		subs	r4, r1, #0
 549              		.loc 1 334 0
 550 0004 0546     		mov	r5, r0
 551              		.loc 1 343 0
 552 0006 11DD     		ble	.L33
 553              		.loc 1 345 0
 554 0008 0026     		movs	r6, #0
 555 000a 01E0     		b	.L37
 556              	.LVL41:
 557              	.L35:
 558              		.loc 1 343 0
ARM GAS  /var/folders/4k/6h5l9jl178sb4hslwv3xp1mr0000gn/T//cc7OGbjf.s 			page 11


 559 000c 013C     		subs	r4, r4, #1
 560              	.LVL42:
 561 000e 0DD0     		beq	.L33
 562              	.LVL43:
 563              	.L37:
 564              		.loc 1 344 0
 565 0010 AB68     		ldr	r3, [r5, #8]
 566 0012 0133     		adds	r3, r3, #1
 567 0014 002B     		cmp	r3, #0
 568 0016 AB60     		str	r3, [r5, #8]
 569 0018 F8DC     		bgt	.L35
 570              	.LVL44:
 571              	.LBB52:
 572              	.LBB53:
 573              		.loc 2 60 0
 574 001a 2868     		ldr	r0, [r5]
 575              	.LVL45:
 576              		.loc 2 62 0
 577 001c 0368     		ldr	r3, [r0]
 578 001e 2B60     		str	r3, [r5]
 579 0020 5D60     		str	r5, [r3, #4]
 580              	.LBE53:
 581              	.LBE52:
 582              		.loc 1 345 0
 583 0022 FFF7FEFF 		bl	chSchReadyI
 584              	.LVL46:
 585              		.loc 1 343 0
 586 0026 013C     		subs	r4, r4, #1
 587              	.LVL47:
 588              		.loc 1 345 0
 589 0028 4662     		str	r6, [r0, #36]
 590              	.LVL48:
 591              		.loc 1 343 0
 592 002a F1D1     		bne	.L37
 593              	.LVL49:
 594              	.L33:
 595 002c 70BD     		pop	{r4, r5, r6, pc}
 596              		.cfi_endproc
 597              	.LFE16:
 598              		.size	chSemAddCounterI, .-chSemAddCounterI
 599 002e 00BF     		.section	.text.chSemSignalWait,"ax",%progbits
 600              		.align	2
 601              		.p2align 4,,15
 602              		.global	chSemSignalWait
 603              		.thumb
 604              		.thumb_func
 605              		.type	chSemSignalWait, %function
 606              	chSemSignalWait:
 607              	.LFB17:
 608              		.loc 1 366 0
 609              		.cfi_startproc
 610              		@ args = 0, pretend = 0, frame = 8
 611              		@ frame_needed = 0, uses_anonymous_args = 0
 612              	.LVL50:
 613 0000 10B5     		push	{r4, lr}
 614              		.cfi_def_cfa_offset 8
 615              		.cfi_offset 4, -8
ARM GAS  /var/folders/4k/6h5l9jl178sb4hslwv3xp1mr0000gn/T//cc7OGbjf.s 			page 12


 616              		.cfi_offset 14, -4
 617 0002 0246     		mov	r2, r0
 618 0004 82B0     		sub	sp, sp, #8
 619              		.cfi_def_cfa_offset 16
 620              	.LBB54:
 621              		.loc 1 379 0
 622 0006 2023     		movs	r3, #32
 623              	@ 379 "../ChibiStudio/ChibiOS/os/kernel/src/chsem.c" 1
 624 0008 83F31188 		msr     BASEPRI, r3
 625              	@ 0 "" 2
 626              		.thumb
 627              	.LBE54:
 628              		.loc 1 380 0
 629 000c 8368     		ldr	r3, [r0, #8]
 630 000e 0133     		adds	r3, r3, #1
 631 0010 002B     		cmp	r3, #0
 632 0012 8360     		str	r3, [r0, #8]
 633 0014 1DDD     		ble	.L45
 634              	.LVL51:
 635              	.L42:
 636              		.loc 1 382 0
 637 0016 8B68     		ldr	r3, [r1, #8]
 638 0018 013B     		subs	r3, r3, #1
 639 001a 002B     		cmp	r3, #0
 640 001c 8B60     		str	r3, [r1, #8]
 641 001e 07DB     		blt	.L46
 642              		.loc 1 390 0
 643 0020 FFF7FEFF 		bl	chSchRescheduleS
 644              	.LVL52:
 645              		.loc 1 391 0
 646 0024 0020     		movs	r0, #0
 647              	.LVL53:
 648              	.LBB55:
 649              		.loc 1 393 0
 650 0026 0023     		movs	r3, #0
 651              	@ 393 "../ChibiStudio/ChibiOS/os/kernel/src/chsem.c" 1
 652 0028 83F31188 		msr     BASEPRI, r3
 653              	@ 0 "" 2
 654              		.thumb
 655              	.LBE55:
 656              		.loc 1 395 0
 657 002c 02B0     		add	sp, sp, #8
 658              		@ sp needed
 659 002e 10BD     		pop	{r4, pc}
 660              	.LVL54:
 661              	.L46:
 662              	.LBB56:
 663              		.loc 1 383 0
 664 0030 0D4A     		ldr	r2, .L47
 665              	.LBB57:
 666              	.LBB58:
 667              		.loc 2 55 0
 668 0032 4B68     		ldr	r3, [r1, #4]
 669              	.LBE58:
 670              	.LBE57:
 671              		.loc 1 383 0
 672 0034 9469     		ldr	r4, [r2, #24]
ARM GAS  /var/folders/4k/6h5l9jl178sb4hslwv3xp1mr0000gn/T//cc7OGbjf.s 			page 13


 673              	.LVL55:
 674              		.loc 1 386 0
 675 0036 0320     		movs	r0, #3
 676              	.LBB60:
 677              	.LBB59:
 678              		.loc 2 55 0
 679 0038 84E80A00 		stmia	r4, {r1, r3}
 680              		.loc 2 56 0
 681 003c 4C60     		str	r4, [r1, #4]
 682 003e 1C60     		str	r4, [r3]
 683              	.LBE59:
 684              	.LBE60:
 685              		.loc 1 385 0
 686 0040 6162     		str	r1, [r4, #36]
 687              		.loc 1 386 0
 688 0042 FFF7FEFF 		bl	chSchGoSleepS
 689              	.LVL56:
 690              		.loc 1 387 0
 691 0046 606A     		ldr	r0, [r4, #36]
 692              	.LVL57:
 693              	.LBE56:
 694              	.LBB61:
 695              		.loc 1 393 0
 696 0048 0023     		movs	r3, #0
 697              	@ 393 "../ChibiStudio/ChibiOS/os/kernel/src/chsem.c" 1
 698 004a 83F31188 		msr     BASEPRI, r3
 699              	@ 0 "" 2
 700              		.thumb
 701              	.LBE61:
 702              		.loc 1 395 0
 703 004e 02B0     		add	sp, sp, #8
 704              		@ sp needed
 705 0050 10BD     		pop	{r4, pc}
 706              	.LVL58:
 707              	.L45:
 708              	.LBB62:
 709              	.LBB63:
 710              		.loc 2 60 0
 711 0052 0068     		ldr	r0, [r0]
 712              	.LVL59:
 713              		.loc 2 62 0
 714 0054 0368     		ldr	r3, [r0]
 715 0056 1360     		str	r3, [r2]
 716 0058 5A60     		str	r2, [r3, #4]
 717              	.LBE63:
 718              	.LBE62:
 719              		.loc 1 381 0
 720 005a 0191     		str	r1, [sp, #4]
 721 005c FFF7FEFF 		bl	chSchReadyI
 722              	.LVL60:
 723 0060 0023     		movs	r3, #0
 724 0062 4362     		str	r3, [r0, #36]
 725 0064 0199     		ldr	r1, [sp, #4]
 726 0066 D6E7     		b	.L42
 727              	.L48:
 728              		.align	2
 729              	.L47:
ARM GAS  /var/folders/4k/6h5l9jl178sb4hslwv3xp1mr0000gn/T//cc7OGbjf.s 			page 14


 730 0068 00000000 		.word	rlist
 731              		.cfi_endproc
 732              	.LFE17:
 733              		.size	chSemSignalWait, .-chSemSignalWait
 734 006c AFF30080 		.text
 735              	.Letext0:
 736              		.file 3 "/Users/mikevanis/Documents/workspace/gcc-arm-none-eabi-4_8-2014q1/arm-none-eabi/include/m
 737              		.file 4 "/Users/mikevanis/Documents/workspace/gcc-arm-none-eabi-4_8-2014q1/arm-none-eabi/include/s
 738              		.file 5 "../ChibiStudio/ChibiOS/os/ports/GCC/ARMCMx/chtypes.h"
 739              		.file 6 "../ChibiStudio/ChibiOS/os/kernel/include/chlists.h"
 740              		.file 7 "../ChibiStudio/ChibiOS/os/kernel/include/chthreads.h"
 741              		.file 8 "../ChibiStudio/ChibiOS/os/ports/GCC/ARMCMx/chcore_v7m.h"
 742              		.file 9 "../ChibiStudio/ChibiOS/os/kernel/include/chschd.h"
 743              		.file 10 "../ChibiStudio/ChibiOS/os/kernel/include/chsem.h"
 744              		.file 11 "../ChibiStudio/ChibiOS/os/kernel/include/chmtx.h"