ARM GAS  /var/folders/4k/6h5l9jl178sb4hslwv3xp1mr0000gn/T//cc7OGbjf.s 			page 1


   1              		.syntax unified
   2              		.cpu cortex-m4
   3              		.fpu softvfp
   4              		.eabi_attribute 20, 1
   5              		.eabi_attribute 21, 1
   6              		.eabi_attribute 23, 3
   7              		.eabi_attribute 24, 1
   8              		.eabi_attribute 25, 1
   9              		.eabi_attribute 26, 1
  10              		.eabi_attribute 30, 2
  11              		.eabi_attribute 34, 1
  12              		.eabi_attribute 18, 4
  13              		.thumb
  14              		.file	"chsem.c"
  15              		.text
  16              	.Ltext0:
  17              		.cfi_sections	.debug_frame
  18              		.section	.text.chSemInit,"ax",%progbits
  19              		.align	2
  20              		.p2align 4,,15
  21              		.global	chSemInit
  22              		.thumb
  23              		.thumb_func
  24              		.type	chSemInit, %function
  25              	chSemInit:
  26              	.LFB7:
  27              		.file 1 "../ChibiStudio/ChibiOS/os/kernel/src/chsem.c"
  28              		.loc 1 86 0
  29              		.cfi_startproc
  30              		@ args = 0, pretend = 0, frame = 0
  31              		@ frame_needed = 0, uses_anonymous_args = 0
  32              		@ link register save eliminated.
  33              	.LVL0:
  34              		.loc 1 90 0
  35 0000 4060     		str	r0, [r0, #4]
  36 0002 0060     		str	r0, [r0]
  37              		.loc 1 91 0
  38 0004 8160     		str	r1, [r0, #8]
  39 0006 7047     		bx	lr
  40              		.cfi_endproc
  41              	.LFE7:
  42              		.size	chSemInit, .-chSemInit
  43 0008 AFF30080 		.section	.text.chSemResetI,"ax",%progbits
  43      AFF30080 
  44              		.align	2
  45              		.p2align 4,,15
  46              		.global	chSemResetI
  47              		.thumb
  48              		.thumb_func
  49              		.type	chSemResetI, %function
  50              	chSemResetI:
  51              	.LFB9:
  52              		.loc 1 136 0
  53              		.cfi_startproc
  54              		@ args = 0, pretend = 0, frame = 0
  55              		@ frame_needed = 0, uses_anonymous_args = 0
  56              	.LVL1:
ARM GAS  /var/folders/4k/6h5l9jl178sb4hslwv3xp1mr0000gn/T//cc7OGbjf.s 			page 2


  57 0000 70B5     		push	{r4, r5, r6, lr}
  58              		.cfi_def_cfa_offset 16
  59              		.cfi_offset 4, -16
  60              		.cfi_offset 5, -12
  61              		.cfi_offset 6, -8
  62              		.cfi_offset 14, -4
  63              		.loc 1 141 0
  64 0002 8568     		ldr	r5, [r0, #8]
  65              	.LVL2:
  66              		.loc 1 147 0
  67 0004 8160     		str	r1, [r0, #8]
  68              		.loc 1 148 0
  69 0006 0135     		adds	r5, r5, #1
  70              	.LVL3:
  71 0008 002D     		cmp	r5, #0
  72              		.loc 1 136 0
  73 000a 0446     		mov	r4, r0
  74              		.loc 1 148 0
  75 000c 0BDC     		bgt	.L2
  76              		.loc 1 149 0
  77 000e 6FF00106 		mvn	r6, #1
  78              	.LVL4:
  79              	.L5:
  80              	.LBB24:
  81              	.LBB25:
  82              		.file 2 "../ChibiStudio/ChibiOS/os/kernel/include/chinline.h"
  83              		.loc 2 67 0
  84 0012 6068     		ldr	r0, [r4, #4]
  85              	.LVL5:
  86              		.loc 2 69 0
  87 0014 4368     		ldr	r3, [r0, #4]
  88 0016 6360     		str	r3, [r4, #4]
  89 0018 1C60     		str	r4, [r3]
  90              	.LBE25:
  91              	.LBE24:
  92              		.loc 1 149 0
  93 001a FFF7FEFF 		bl	chSchReadyI
  94              	.LVL6:
  95              		.loc 1 148 0
  96 001e 0135     		adds	r5, r5, #1
  97              	.LVL7:
  98 0020 012D     		cmp	r5, #1
  99              		.loc 1 149 0
 100 0022 4662     		str	r6, [r0, #36]
 101              	.LVL8:
 102              		.loc 1 148 0
 103 0024 F5D1     		bne	.L5
 104              	.LVL9:
 105              	.L2:
 106 0026 70BD     		pop	{r4, r5, r6, pc}
 107              		.cfi_endproc
 108              	.LFE9:
 109              		.size	chSemResetI, .-chSemResetI
 110 0028 AFF30080 		.section	.text.chSemReset,"ax",%progbits
 110      AFF30080 
 111              		.align	2
 112              		.p2align 4,,15
ARM GAS  /var/folders/4k/6h5l9jl178sb4hslwv3xp1mr0000gn/T//cc7OGbjf.s 			page 3


 113              		.global	chSemReset
 114              		.thumb
 115              		.thumb_func
 116              		.type	chSemReset, %function
 117              	chSemReset:
 118              	.LFB8:
 119              		.loc 1 109 0
 120              		.cfi_startproc
 121              		@ args = 0, pretend = 0, frame = 0
 122              		@ frame_needed = 0, uses_anonymous_args = 0
 123              	.LVL10:
 124 0000 08B5     		push	{r3, lr}
 125              		.cfi_def_cfa_offset 8
 126              		.cfi_offset 3, -8
 127              		.cfi_offset 14, -4
 128              	.LBB26:
 129              		.loc 1 111 0
 130 0002 2023     		movs	r3, #32
 131              	@ 111 "../ChibiStudio/ChibiOS/os/kernel/src/chsem.c" 1
 132 0004 83F31188 		msr     BASEPRI, r3
 133              	@ 0 "" 2
 134              		.thumb
 135              	.LBE26:
 136              		.loc 1 112 0
 137 0008 FFF7FEFF 		bl	chSemResetI
 138              	.LVL11:
 139              		.loc 1 113 0
 140 000c FFF7FEFF 		bl	chSchRescheduleS
 141              	.LVL12:
 142              	.LBB27:
 143              		.loc 1 114 0
 144 0010 0023     		movs	r3, #0
 145              	@ 114 "../ChibiStudio/ChibiOS/os/kernel/src/chsem.c" 1
 146 0012 83F31188 		msr     BASEPRI, r3
 147              	@ 0 "" 2
 148              		.thumb
 149 0016 08BD     		pop	{r3, pc}
 150              	.LBE27:
 151              		.cfi_endproc
 152              	.LFE8:
 153              		.size	chSemReset, .-chSemReset
 154 0018 AFF30080 		.section	.text.chSemWaitS,"ax",%progbits
 154      AFF30080 
 155              		.align	2
 156              		.p2align 4,,15
 157              		.global	chSemWaitS
 158              		.thumb
 159              		.thumb_func
 160              		.type	chSemWaitS, %function
 161              	chSemWaitS:
 162              	.LFB11:
 163              		.loc 1 185 0
 164              		.cfi_startproc
 165              		@ args = 0, pretend = 0, frame = 0
 166              		@ frame_needed = 0, uses_anonymous_args = 0
 167              	.LVL13:
 168              		.loc 1 194 0
ARM GAS  /var/folders/4k/6h5l9jl178sb4hslwv3xp1mr0000gn/T//cc7OGbjf.s 			page 4


 169 0000 8268     		ldr	r2, [r0, #8]
 170 0002 013A     		subs	r2, r2, #1
 171 0004 002A     		cmp	r2, #0
 172              		.loc 1 185 0
 173 0006 10B5     		push	{r4, lr}
 174              		.cfi_def_cfa_offset 8
 175              		.cfi_offset 4, -8
 176              		.cfi_offset 14, -4
 177              		.loc 1 185 0
 178 0008 0346     		mov	r3, r0
 179              		.loc 1 194 0
 180 000a 8260     		str	r2, [r0, #8]
 181 000c 01DB     		blt	.L14
 182              		.loc 1 200 0
 183 000e 0020     		movs	r0, #0
 184              	.LVL14:
 185              		.loc 1 201 0
 186 0010 10BD     		pop	{r4, pc}
 187              	.LVL15:
 188              	.L14:
 189              		.loc 1 195 0
 190 0012 074C     		ldr	r4, .L15
 191 0014 A269     		ldr	r2, [r4, #24]
 192 0016 5062     		str	r0, [r2, #36]
 193              	.LVL16:
 194              	.LBB28:
 195              	.LBB29:
 196              		.loc 2 55 0
 197 0018 4168     		ldr	r1, [r0, #4]
 198 001a 5160     		str	r1, [r2, #4]
 199              		.loc 2 54 0
 200 001c 1060     		str	r0, [r2]
 201              		.loc 2 56 0
 202 001e 5A60     		str	r2, [r3, #4]
 203              	.LVL17:
 204              	.LBE29:
 205              	.LBE28:
 206              		.loc 1 197 0
 207 0020 0320     		movs	r0, #3
 208              	.LVL18:
 209              	.LBB31:
 210              	.LBB30:
 211              		.loc 2 56 0
 212 0022 0A60     		str	r2, [r1]
 213              	.LVL19:
 214              	.LBE30:
 215              	.LBE31:
 216              		.loc 1 197 0
 217 0024 FFF7FEFF 		bl	chSchGoSleepS
 218              	.LVL20:
 219              		.loc 1 198 0
 220 0028 A369     		ldr	r3, [r4, #24]
 221 002a 586A     		ldr	r0, [r3, #36]
 222 002c 10BD     		pop	{r4, pc}
 223              	.L16:
 224 002e 00BF     		.align	2
 225              	.L15:
ARM GAS  /var/folders/4k/6h5l9jl178sb4hslwv3xp1mr0000gn/T//cc7OGbjf.s 			page 5


 226 0030 00000000 		.word	rlist
 227              		.cfi_endproc
 228              	.LFE11:
 229              		.size	chSemWaitS, .-chSemWaitS
 230 0034 AFF30080 		.section	.text.chSemWait,"ax",%progbits
 230      AFF30080 
 230      AFF30080 
 231              		.align	2
 232              		.p2align 4,,15
 233              		.global	chSemWait
 234              		.thumb
 235              		.thumb_func
 236              		.type	chSemWait, %function
 237              	chSemWait:
 238              	.LFB10:
 239              		.loc 1 164 0
 240              		.cfi_startproc
 241              		@ args = 0, pretend = 0, frame = 0
 242              		@ frame_needed = 0, uses_anonymous_args = 0
 243              	.LVL21:
 244 0000 08B5     		push	{r3, lr}
 245              		.cfi_def_cfa_offset 8
 246              		.cfi_offset 3, -8
 247              		.cfi_offset 14, -4
 248              	.LBB32:
 249              		.loc 1 167 0
 250 0002 2023     		movs	r3, #32
 251              	@ 167 "../ChibiStudio/ChibiOS/os/kernel/src/chsem.c" 1
 252 0004 83F31188 		msr     BASEPRI, r3
 253              	@ 0 "" 2
 254              		.thumb
 255              	.LBE32:
 256              		.loc 1 168 0
 257 0008 FFF7FEFF 		bl	chSemWaitS
 258              	.LVL22:
 259              	.LBB33:
 260              		.loc 1 169 0
 261 000c 0023     		movs	r3, #0
 262              	@ 169 "../ChibiStudio/ChibiOS/os/kernel/src/chsem.c" 1
 263 000e 83F31188 		msr     BASEPRI, r3
 264              	@ 0 "" 2
 265              		.thumb
 266              	.LBE33:
 267              		.loc 1 171 0
 268 0012 08BD     		pop	{r3, pc}
 269              		.cfi_endproc
 270              	.LFE10:
 271              		.size	chSemWait, .-chSemWait
 272 0014 AFF30080 		.section	.text.chSemWaitTimeoutS,"ax",%progbits
 272      AFF30080 
 272      AFF30080 
 273              		.align	2
 274              		.p2align 4,,15
 275              		.global	chSemWaitTimeoutS
 276              		.thumb
 277              		.thumb_func
 278              		.type	chSemWaitTimeoutS, %function
ARM GAS  /var/folders/4k/6h5l9jl178sb4hslwv3xp1mr0000gn/T//cc7OGbjf.s 			page 6


 279              	chSemWaitTimeoutS:
 280              	.LFB13:
 281              		.loc 1 250 0
 282              		.cfi_startproc
 283              		@ args = 0, pretend = 0, frame = 0
 284              		@ frame_needed = 0, uses_anonymous_args = 0
 285              		@ link register save eliminated.
 286              	.LVL23:
 287 0000 0346     		mov	r3, r0
 288              		.loc 1 254 0
 289 0002 8068     		ldr	r0, [r0, #8]
 290              	.LVL24:
 291              		.loc 1 259 0
 292 0004 421E     		subs	r2, r0, #1
 293 0006 002A     		cmp	r2, #0
 294              		.loc 1 250 0
 295 0008 10B4     		push	{r4}
 296              		.cfi_def_cfa_offset 4
 297              		.cfi_offset 4, -4
 298              		.loc 1 259 0
 299 000a 9A60     		str	r2, [r3, #8]
 300 000c 03DB     		blt	.L22
 301              		.loc 1 268 0
 302 000e 0020     		movs	r0, #0
 303              	.L19:
 304              		.loc 1 269 0
 305 0010 5DF8044B 		ldr	r4, [sp], #4
 306 0014 7047     		bx	lr
 307              	.L22:
 308              		.loc 1 260 0
 309 0016 61B1     		cbz	r1, .L23
 310              		.loc 1 264 0
 311 0018 084A     		ldr	r2, .L24
 312 001a 9269     		ldr	r2, [r2, #24]
 313 001c 5362     		str	r3, [r2, #36]
 314              	.LVL25:
 315              	.LBB34:
 316              	.LBB35:
 317              		.loc 2 55 0
 318 001e 5C68     		ldr	r4, [r3, #4]
 319              	.LBE35:
 320              	.LBE34:
 321              		.loc 1 266 0
 322 0020 0320     		movs	r0, #3
 323              	.LBB37:
 324              	.LBB36:
 325              		.loc 2 55 0
 326 0022 82E81800 		stmia	r2, {r3, r4}
 327              		.loc 2 56 0
 328 0026 5A60     		str	r2, [r3, #4]
 329              	.LVL26:
 330 0028 2260     		str	r2, [r4]
 331              	.LVL27:
 332              	.LBE36:
 333              	.LBE37:
 334              		.loc 1 269 0
 335 002a 5DF8044B 		ldr	r4, [sp], #4
ARM GAS  /var/folders/4k/6h5l9jl178sb4hslwv3xp1mr0000gn/T//cc7OGbjf.s 			page 7


 336              		.loc 1 266 0
 337 002e FFF7FEBF 		b	chSchGoSleepTimeoutS
 338              	.LVL28:
 339              	.L23:
 340              		.loc 1 261 0
 341 0032 9860     		str	r0, [r3, #8]
 342              		.loc 1 262 0
 343 0034 4FF0FF30 		mov	r0, #-1
 344 0038 EAE7     		b	.L19
 345              	.L25:
 346 003a 00BF     		.align	2
 347              	.L24:
 348 003c 00000000 		.word	rlist
 349              		.cfi_endproc
 350              	.LFE13:
 351              		.size	chSemWaitTimeoutS, .-chSemWaitTimeoutS
 352              		.section	.text.chSemWaitTimeout,"ax",%progbits
 353              		.align	2
 354              		.p2align 4,,15
 355              		.global	chSemWaitTimeout
 356              		.thumb
 357              		.thumb_func
 358              		.type	chSemWaitTimeout, %function
 359              	chSemWaitTimeout:
 360              	.LFB12:
 361              		.loc 1 222 0
 362              		.cfi_startproc
 363              		@ args = 0, pretend = 0, frame = 0
 364              		@ frame_needed = 0, uses_anonymous_args = 0
 365              	.LVL29:
 366 0000 08B5     		push	{r3, lr}
 367              		.cfi_def_cfa_offset 8
 368              		.cfi_offset 3, -8
 369              		.cfi_offset 14, -4
 370              	.LBB38:
 371              		.loc 1 225 0
 372 0002 2023     		movs	r3, #32
 373              	@ 225 "../ChibiStudio/ChibiOS/os/kernel/src/chsem.c" 1
 374 0004 83F31188 		msr     BASEPRI, r3
 375              	@ 0 "" 2
 376              		.thumb
 377              	.LBE38:
 378              		.loc 1 226 0
 379 0008 FFF7FEFF 		bl	chSemWaitTimeoutS
 380              	.LVL30:
 381              	.LBB39:
 382              		.loc 1 227 0
 383 000c 0023     		movs	r3, #0
 384              	@ 227 "../ChibiStudio/ChibiOS/os/kernel/src/chsem.c" 1
 385 000e 83F31188 		msr     BASEPRI, r3
 386              	@ 0 "" 2
 387              		.thumb
 388              	.LBE39:
 389              		.loc 1 229 0
 390 0012 08BD     		pop	{r3, pc}
 391              		.cfi_endproc
 392              	.LFE12:
ARM GAS  /var/folders/4k/6h5l9jl178sb4hslwv3xp1mr0000gn/T//cc7OGbjf.s 			page 8


 393              		.size	chSemWaitTimeout, .-chSemWaitTimeout
 394 0014 AFF30080 		.section	.text.chSemSignal,"ax",%progbits
 394      AFF30080 
 394      AFF30080 
 395              		.align	2
 396              		.p2align 4,,15
 397              		.global	chSemSignal
 398              		.thumb
 399              		.thumb_func
 400              		.type	chSemSignal, %function
 401              	chSemSignal:
 402              	.LFB14:
 403              		.loc 1 278 0
 404              		.cfi_startproc
 405              		@ args = 0, pretend = 0, frame = 0
 406              		@ frame_needed = 0, uses_anonymous_args = 0
 407              	.LVL31:
 408 0000 08B5     		push	{r3, lr}
 409              		.cfi_def_cfa_offset 8
 410              		.cfi_offset 3, -8
 411              		.cfi_offset 14, -4
 412              		.loc 1 278 0
 413 0002 0246     		mov	r2, r0
 414              	.LBB40:
 415              		.loc 1 286 0
 416 0004 2023     		movs	r3, #32
 417              	@ 286 "../ChibiStudio/ChibiOS/os/kernel/src/chsem.c" 1
 418 0006 83F31188 		msr     BASEPRI, r3
 419              	@ 0 "" 2
 420              		.thumb
 421              	.LBE40:
 422              		.loc 1 287 0
 423 000a 8368     		ldr	r3, [r0, #8]
 424 000c 0133     		adds	r3, r3, #1
 425 000e 002B     		cmp	r3, #0
 426 0010 8360     		str	r3, [r0, #8]
 427 0012 03DD     		ble	.L29
 428              	.LBB41:
 429              		.loc 1 289 0
 430 0014 0023     		movs	r3, #0
 431              	@ 289 "../ChibiStudio/ChibiOS/os/kernel/src/chsem.c" 1
 432 0016 83F31188 		msr     BASEPRI, r3
 433              	@ 0 "" 2
 434              		.thumb
 435 001a 08BD     		pop	{r3, pc}
 436              	.L29:
 437              	.LVL32:
 438              	.LBE41:
 439              	.LBB42:
 440              	.LBB43:
 441              		.loc 2 60 0
 442 001c 0068     		ldr	r0, [r0]
 443              	.LVL33:
 444              		.loc 2 62 0
 445 001e 0368     		ldr	r3, [r0]
 446 0020 1360     		str	r3, [r2]
 447              	.LBE43:
ARM GAS  /var/folders/4k/6h5l9jl178sb4hslwv3xp1mr0000gn/T//cc7OGbjf.s 			page 9


 448              	.LBE42:
 449              		.loc 1 288 0
 450 0022 0021     		movs	r1, #0
 451              	.LBB45:
 452              	.LBB44:
 453              		.loc 2 62 0
 454 0024 5A60     		str	r2, [r3, #4]
 455              	.LBE44:
 456              	.LBE45:
 457              		.loc 1 288 0
 458 0026 FFF7FEFF 		bl	chSchWakeupS
 459              	.LVL34:
 460              	.LBB46:
 461              		.loc 1 289 0
 462 002a 0023     		movs	r3, #0
 463              	@ 289 "../ChibiStudio/ChibiOS/os/kernel/src/chsem.c" 1
 464 002c 83F31188 		msr     BASEPRI, r3
 465              	@ 0 "" 2
 466              		.thumb
 467 0030 08BD     		pop	{r3, pc}
 468              	.LBE46:
 469              		.cfi_endproc
 470              	.LFE14:
 471              		.size	chSemSignal, .-chSemSignal
 472 0032 00BFAFF3 		.section	.text.chSemSignalI,"ax",%progbits
 472      0080AFF3 
 472      0080AFF3 
 472      0080
 473              		.align	2
 474              		.p2align 4,,15
 475              		.global	chSemSignalI
 476              		.thumb
 477              		.thumb_func
 478              		.type	chSemSignalI, %function
 479              	chSemSignalI:
 480              	.LFB15:
 481              		.loc 1 303 0
 482              		.cfi_startproc
 483              		@ args = 0, pretend = 0, frame = 0
 484              		@ frame_needed = 0, uses_anonymous_args = 0
 485              		@ link register save eliminated.
 486              	.LVL35:
 487              		.loc 1 312 0
 488 0000 8368     		ldr	r3, [r0, #8]
 489 0002 0133     		adds	r3, r3, #1
 490 0004 002B     		cmp	r3, #0
 491 0006 8360     		str	r3, [r0, #8]
 492 0008 00DD     		ble	.L32
 493 000a 7047     		bx	lr
 494              	.L32:
 495              	.LVL36:
 496              	.LBB47:
 497              	.LBB48:
 498              	.LBB49:
 499              		.loc 2 60 0
 500 000c 0368     		ldr	r3, [r0]
 501              	.LVL37:
ARM GAS  /var/folders/4k/6h5l9jl178sb4hslwv3xp1mr0000gn/T//cc7OGbjf.s 			page 10


 502              		.loc 2 62 0
 503 000e 1A68     		ldr	r2, [r3]
 504 0010 0260     		str	r2, [r0]
 505              	.LBE49:
 506              	.LBE48:
 507              		.loc 1 316 0
 508 0012 0021     		movs	r1, #0
 509              	.LBB51:
 510              	.LBB50:
 511              		.loc 2 62 0
 512 0014 5060     		str	r0, [r2, #4]
 513              	.LBE50:
 514              	.LBE51:
 515              		.loc 1 317 0
 516 0016 1846     		mov	r0, r3
 517              	.LVL38:
 518              		.loc 1 316 0
 519 0018 5962     		str	r1, [r3, #36]
 520              		.loc 1 317 0
 521 001a FFF7FEBF 		b	chSchReadyI
 522              	.LVL39:
 523              	.LBE47:
 524              		.cfi_endproc
 525              	.LFE15:
 526              		.size	chSemSignalI, .-chSemSignalI
 527 001e 00BF     		.section	.text.chSemAddCounterI,"ax",%progbits
 528              		.align	2
 529              		.p2align 4,,15
 530              		.global	chSemAddCounterI
 531              		.thumb
 532              		.thumb_func
 533              		.type	chSemAddCounterI, %function
 534              	chSemAddCounterI:
 535              	.LFB16:
 536              		.loc 1 334 0
 537              		.cfi_startproc
 538              		@ args = 0, pretend = 0, frame = 0
 539              		@ frame_needed = 0, uses_anonymous_args = 0
 540              	.LVL40:
 541 0000 70B5     		push	{r4, r5, r6, lr}
 542              		.cfi_def_cfa_offset 16
 543              		.cfi_offset 4, -16
 544              		.cfi_offset 5, -12
 545              		.cfi_offset 6, -8
 546              		.cfi_offset 14, -4
 547              		.loc 1 343 0
 548 0002 0C1E     		subs	r4, r1, #0
 549              		.loc 1 334 0
 550 0004 0546     		mov	r5, r0
 551              		.loc 1 343 0
 552 0006 11DD     		ble	.L33
 553              		.loc 1 345 0
 554 0008 0026     		movs	r6, #0
 555 000a 01E0     		b	.L37
 556              	.LVL41:
 557              	.L35:
 558              		.loc 1 343 0
ARM GAS  /var/folders/4k/6h5l9jl178sb4hslwv3xp1mr0000gn/T//cc7OGbjf.s 			page 11


 559 000c 013C     		subs	r4, r4, #1
 560              	.LVL42:
 561 000e 0DD0     		beq	.L33
 562              	.LVL43:
 563              	.L37:
 564              		.loc 1 344 0
 565 0010 AB68     		ldr	r3, [r5, #8]
 566 0012 0133     		adds	r3, r3, #1
 567 0014 002B     		cmp	r3, #0
 568 0016 AB60     		str	r3, [r5, #8]
 569 0018 F8DC     		bgt	.L35
 570              	.LVL44:
 571              	.LBB52:
 572              	.LBB53:
 573              		.loc 2 60 0
 574 001a 2868     		ldr	r0, [r5]
 575              	.LVL45:
 576              		.loc 2 62 0
 577 001c 0368     		ldr	r3, [r0]
 578 001e 2B60     		str	r3, [r5]
 579 0020 5D60     		str	r5, [r3, #4]
 580              	.LBE53:
 581              	.LBE52:
 582              		.loc 1 345 0
 583 0022 FFF7FEFF 		bl	chSchReadyI
 584              	.LVL46:
 585              		.loc 1 343 0
 586 0026 013C     		subs	r4, r4, #1
 587              	.LVL47:
 588              		.loc 1 345 0
 589 0028 4662     		str	r6, [r0, #36]
 590              	.LVL48:
 591              		.loc 1 343 0
 592 002a F1D1     		bne	.L37
 593              	.LVL49:
 594              	.L33:
 595 002c 70BD     		pop	{r4, r5, r6, pc}
 596              		.cfi_endproc
 597              	.LFE16:
 598              		.size	chSemAddCounterI, .-chSemAddCounterI
 599 002e 00BF     		.section	.text.chSemSignalWait,"ax",%progbits
 600              		.align	2
 601              		.p2align 4,,15
 602              		.global	chSemSignalWait
 603              		.thumb
 604              		.thumb_func
 605              		.type	chSemSignalWait, %function
 606              	chSemSignalWait:
 607              	.LFB17:
 608              		.loc 1 366 0
 609              		.cfi_startproc
 610              		@ args = 0, pretend = 0, frame = 8
 611              		@ frame_needed = 0, uses_anonymous_args = 0
 612              	.LVL50:
 613 0000 10B5     		push	{r4, lr}
 614              		.cfi_def_cfa_offset 8
 615              		.cfi_offset 4, -8
ARM GAS  /var/folders/4k/6h5l9jl178sb4hslwv3xp1mr0000gn/T//cc7OGbjf.s 			page 12


 616              		.cfi_offset 14, -4
 617 0002 0246     		mov	r2, r0
 618 0004 82B0     		sub	sp, sp, #8
 619              		.cfi_def_cfa_offset 16
 620              	.LBB54:
 621              		.loc 1 379 0
 622 0006 2023     		movs	r3, #32
 623              	@ 379 "../ChibiStudio/ChibiOS/os/kernel/src/chsem.c" 1
 624 0008 83F31188 		msr     BASEPRI, r3
 625              	@ 0 "" 2
 626              		.thumb
 627              	.LBE54:
 628              		.loc 1 380 0
 629 000c 8368     		ldr	r3, [r0, #8]
 630 000e 0133     		adds	r3, r3, #1
 631 0010 002B     		cmp	r3, #0
 632 0012 8360     		str	r3, [r0, #8]
 633 0014 1DDD     		ble	.L45
 634              	.LVL51:
 635              	.L42:
 636              		.loc 1 382 0
 637 0016 8B68     		ldr	r3, [r1, #8]
 638 0018 013B     		subs	r3, r3, #1
 639 001a 002B     		cmp	r3, #0
 640 001c 8B60     		str	r3, [r1, #8]
 641 001e 07DB     		blt	.L46
 642              		.loc 1 390 0
 643 0020 FFF7FEFF 		bl	chSchRescheduleS
 644              	.LVL52:
 645              		.loc 1 391 0
 646 0024 0020     		movs	r0, #0
 647              	.LVL53:
 648              	.LBB55:
 649              		.loc 1 393 0
 650 0026 0023     		movs	r3, #0
 651              	@ 393 "../ChibiStudio/ChibiOS/os/kernel/src/chsem.c" 1
 652 0028 83F31188 		msr     BASEPRI, r3
 653              	@ 0 "" 2
 654              		.thumb
 655              	.LBE55:
 656              		.loc 1 395 0
 657 002c 02B0     		add	sp, sp, #8
 658              		@ sp needed
 659 002e 10BD     		pop	{r4, pc}
 660              	.LVL54:
 661              	.L46:
 662              	.LBB56:
 663              		.loc 1 383 0
 664 0030 0D4A     		ldr	r2, .L47
 665              	.LBB57:
 666              	.LBB58:
 667              		.loc 2 55 0
 668 0032 4B68     		ldr	r3, [r1, #4]
 669              	.LBE58:
 670              	.LBE57:
 671              		.loc 1 383 0
 672 0034 9469     		ldr	r4, [r2, #24]
ARM GAS  /var/folders/4k/6h5l9jl178sb4hslwv3xp1mr0000gn/T//cc7OGbjf.s 			page 13


 673              	.LVL55:
 674              		.loc 1 386 0
 675 0036 0320     		movs	r0, #3
 676              	.LBB60:
 677              	.LBB59:
 678              		.loc 2 55 0
 679 0038 84E80A00 		stmia	r4, {r1, r3}
 680              		.loc 2 56 0
 681 003c 4C60     		str	r4, [r1, #4]
 682 003e 1C60     		str	r4, [r3]
 683              	.LBE59:
 684              	.LBE60:
 685              		.loc 1 385 0
 686 0040 6162     		str	r1, [r4, #36]
 687              		.loc 1 386 0
 688 0042 FFF7FEFF 		bl	chSchGoSleepS
 689              	.LVL56:
 690              		.loc 1 387 0
 691 0046 606A     		ldr	r0, [r4, #36]
 692              	.LVL57:
 693              	.LBE56:
 694              	.LBB61:
 695              		.loc 1 393 0
 696 0048 0023     		movs	r3, #0
 697              	@ 393 "../ChibiStudio/ChibiOS/os/kernel/src/chsem.c" 1
 698 004a 83F31188 		msr     BASEPRI, r3
 699              	@ 0 "" 2
 700              		.thumb
 701              	.LBE61:
 702              		.loc 1 395 0
 703 004e 02B0     		add	sp, sp, #8
 704              		@ sp needed
 705 0050 10BD     		pop	{r4, pc}
 706              	.LVL58:
 707              	.L45:
 708              	.LBB62:
 709              	.LBB63:
 710              		.loc 2 60 0
 711 0052 0068     		ldr	r0, [r0]
 712              	.LVL59:
 713              		.loc 2 62 0
 714 0054 0368     		ldr	r3, [r0]
 715 0056 1360     		str	r3, [r2]
 716 0058 5A60     		str	r2, [r3, #4]
 717              	.LBE63:
 718              	.LBE62:
 719              		.loc 1 381 0
 720 005a 0191     		str	r1, [sp, #4]
 721 005c FFF7FEFF 		bl	chSchReadyI
 722              	.LVL60:
 723 0060 0023     		movs	r3, #0
 724 0062 4362     		str	r3, [r0, #36]
 725 0064 0199     		ldr	r1, [sp, #4]
 726 0066 D6E7     		b	.L42
 727              	.L48:
 728              		.align	2
 729              	.L47:
ARM GAS  /var/folders/4k/6h5l9jl178sb4hslwv3xp1mr0000gn/T//cc7OGbjf.s 			page 14


 730 0068 00000000 		.word	rlist
 731              		.cfi_endproc
 732              	.LFE17:
 733              		.size	chSemSignalWait, .-chSemSignalWait
 734 006c AFF30080 		.text
 735              	.Letext0:
 736              		.file 3 "/Users/mikevanis/Documents/workspace/gcc-arm-none-eabi-4_8-2014q1/arm-none-eabi/include/m
 737              		.file 4 "/Users/mikevanis/Documents/workspace/gcc-arm-none-eabi-4_8-2014q1/arm-none-eabi/include/s
 738              		.file 5 "../ChibiStudio/ChibiOS/os/ports/GCC/ARMCMx/chtypes.h"
 739              		.file 6 "../ChibiStudio/ChibiOS/os/kernel/include/chlists.h"
 740              		.file 7 "../ChibiStudio/ChibiOS/os/kernel/include/chthreads.h"
 741              		.file 8 "../ChibiStudio/ChibiOS/os/ports/GCC/ARMCMx/chcore_v7m.h"
 742              		.file 9 "../ChibiStudio/ChibiOS/os/kernel/include/chschd.h"
 743              		.file 10 "../ChibiStudio/ChibiOS/os/kernel/include/chsem.h"
 744              		.file 11 "../ChibiStudio/ChibiOS/os/kernel/include/chmtx.h"
 745              		.section	.debug_info,"",%progbits
 746              	.Ldebug_info0:
 747 0000 B40A0000 		.4byte	0xab4
 748 0004 0400     		.2byte	0x4
 749 0006 00000000 		.4byte	.Ldebug_abbrev0
 750 000a 04       		.byte	0x4
 751 000b 01       		.uleb128 0x1
 752 000c 04020000 		.4byte	.LASF86
 753 0010 01       		.byte	0x1
 754 0011 86040000 		.4byte	.LASF87
 755 0015 33030000 		.4byte	.LASF88
 756 0019 A8000000 		.4byte	.Ldebug_ranges0+0xa8
 757 001d 00000000 		.4byte	0
 758 0021 00000000 		.4byte	.Ldebug_line0
 759 0025 02       		.uleb128 0x2
 760 0026 04       		.byte	0x4
 761 0027 05       		.byte	0x5
 762 0028 696E7400 		.ascii	"int\000"
 763 002c 03       		.uleb128 0x3
 764 002d 04       		.byte	0x4
 765 002e 07       		.byte	0x7
 766 002f 06010000 		.4byte	.LASF0
 767 0033 03       		.uleb128 0x3
 768 0034 01       		.byte	0x1
 769 0035 06       		.byte	0x6
 770 0036 77000000 		.4byte	.LASF1
 771 003a 04       		.uleb128 0x4
 772 003b 27000000 		.4byte	.LASF5
 773 003f 03       		.byte	0x3
 774 0040 1C       		.byte	0x1c
 775 0041 45000000 		.4byte	0x45
 776 0045 03       		.uleb128 0x3
 777 0046 01       		.byte	0x1
 778 0047 08       		.byte	0x8
 779 0048 F6010000 		.4byte	.LASF2
 780 004c 03       		.uleb128 0x3
 781 004d 02       		.byte	0x2
 782 004e 05       		.byte	0x5
 783 004f E8020000 		.4byte	.LASF3
 784 0053 03       		.uleb128 0x3
 785 0054 02       		.byte	0x2
 786 0055 07       		.byte	0x7
ARM GAS  /var/folders/4k/6h5l9jl178sb4hslwv3xp1mr0000gn/T//cc7OGbjf.s 			page 15


 787 0056 44010000 		.4byte	.LASF4
 788 005a 04       		.uleb128 0x4
 789 005b E0030000 		.4byte	.LASF6
 790 005f 03       		.byte	0x3
 791 0060 37       		.byte	0x37
 792 0061 65000000 		.4byte	0x65
 793 0065 03       		.uleb128 0x3
 794 0066 04       		.byte	0x4
 795 0067 05       		.byte	0x5
 796 0068 AD000000 		.4byte	.LASF7
 797 006c 04       		.uleb128 0x4
 798 006d EC000000 		.4byte	.LASF8
 799 0071 03       		.byte	0x3
 800 0072 38       		.byte	0x38
 801 0073 77000000 		.4byte	0x77
 802 0077 03       		.uleb128 0x3
 803 0078 04       		.byte	0x4
 804 0079 07       		.byte	0x7
 805 007a 24010000 		.4byte	.LASF9
 806 007e 03       		.uleb128 0x3
 807 007f 08       		.byte	0x8
 808 0080 05       		.byte	0x5
 809 0081 69000000 		.4byte	.LASF10
 810 0085 03       		.uleb128 0x3
 811 0086 08       		.byte	0x8
 812 0087 07       		.byte	0x7
 813 0088 31000000 		.4byte	.LASF11
 814 008c 04       		.uleb128 0x4
 815 008d 53040000 		.4byte	.LASF12
 816 0091 04       		.byte	0x4
 817 0092 2A       		.byte	0x2a
 818 0093 3A000000 		.4byte	0x3a
 819 0097 04       		.uleb128 0x4
 820 0098 EE010000 		.4byte	.LASF13
 821 009c 04       		.byte	0x4
 822 009d 41       		.byte	0x41
 823 009e 5A000000 		.4byte	0x5a
 824 00a2 04       		.uleb128 0x4
 825 00a3 84030000 		.4byte	.LASF14
 826 00a7 04       		.byte	0x4
 827 00a8 42       		.byte	0x42
 828 00a9 6C000000 		.4byte	0x6c
 829 00ad 03       		.uleb128 0x3
 830 00ae 01       		.byte	0x1
 831 00af 02       		.byte	0x2
 832 00b0 E8010000 		.4byte	.LASF15
 833 00b4 04       		.uleb128 0x4
 834 00b5 70010000 		.4byte	.LASF16
 835 00b9 05       		.byte	0x5
 836 00ba 2C       		.byte	0x2c
 837 00bb 8C000000 		.4byte	0x8c
 838 00bf 04       		.uleb128 0x4
 839 00c0 B6000000 		.4byte	.LASF17
 840 00c4 05       		.byte	0x5
 841 00c5 2D       		.byte	0x2d
 842 00c6 8C000000 		.4byte	0x8c
 843 00ca 04       		.uleb128 0x4
ARM GAS  /var/folders/4k/6h5l9jl178sb4hslwv3xp1mr0000gn/T//cc7OGbjf.s 			page 16


 844 00cb D1010000 		.4byte	.LASF18
 845 00cf 05       		.byte	0x5
 846 00d0 2E       		.byte	0x2e
 847 00d1 8C000000 		.4byte	0x8c
 848 00d5 04       		.uleb128 0x4
 849 00d6 A3000000 		.4byte	.LASF19
 850 00da 05       		.byte	0x5
 851 00db 2F       		.byte	0x2f
 852 00dc 8C000000 		.4byte	0x8c
 853 00e0 04       		.uleb128 0x4
 854 00e1 E0010000 		.4byte	.LASF20
 855 00e5 05       		.byte	0x5
 856 00e6 30       		.byte	0x30
 857 00e7 A2000000 		.4byte	0xa2
 858 00eb 04       		.uleb128 0x4
 859 00ec 62010000 		.4byte	.LASF21
 860 00f0 05       		.byte	0x5
 861 00f1 31       		.byte	0x31
 862 00f2 97000000 		.4byte	0x97
 863 00f6 04       		.uleb128 0x4
 864 00f7 84010000 		.4byte	.LASF22
 865 00fb 05       		.byte	0x5
 866 00fc 33       		.byte	0x33
 867 00fd A2000000 		.4byte	0xa2
 868 0101 04       		.uleb128 0x4
 869 0102 CB030000 		.4byte	.LASF23
 870 0106 05       		.byte	0x5
 871 0107 35       		.byte	0x35
 872 0108 A2000000 		.4byte	0xa2
 873 010c 04       		.uleb128 0x4
 874 010d 00010000 		.4byte	.LASF24
 875 0111 05       		.byte	0x5
 876 0112 36       		.byte	0x36
 877 0113 97000000 		.4byte	0x97
 878 0117 04       		.uleb128 0x4
 879 0118 2C030000 		.4byte	.LASF25
 880 011c 06       		.byte	0x6
 881 011d 2A       		.byte	0x2a
 882 011e 22010000 		.4byte	0x122
 883 0122 05       		.uleb128 0x5
 884 0123 2C030000 		.4byte	.LASF25
 885 0127 48       		.byte	0x48
 886 0128 07       		.byte	0x7
 887 0129 5E       		.byte	0x5e
 888 012a 1F020000 		.4byte	0x21f
 889 012e 06       		.uleb128 0x6
 890 012f 12030000 		.4byte	.LASF26
 891 0133 07       		.byte	0x7
 892 0134 5F       		.byte	0x5f
 893 0135 40020000 		.4byte	0x240
 894 0139 00       		.byte	0
 895 013a 06       		.uleb128 0x6
 896 013b D9010000 		.4byte	.LASF27
 897 013f 07       		.byte	0x7
 898 0140 61       		.byte	0x61
 899 0141 40020000 		.4byte	0x240
 900 0145 04       		.byte	0x4
ARM GAS  /var/folders/4k/6h5l9jl178sb4hslwv3xp1mr0000gn/T//cc7OGbjf.s 			page 17


 901 0146 06       		.uleb128 0x6
 902 0147 62000000 		.4byte	.LASF28
 903 014b 07       		.byte	0x7
 904 014c 63       		.byte	0x63
 905 014d E0000000 		.4byte	0xe0
 906 0151 08       		.byte	0x8
 907 0152 06       		.uleb128 0x6
 908 0153 B3040000 		.4byte	.LASF29
 909 0157 07       		.byte	0x7
 910 0158 64       		.byte	0x64
 911 0159 FA020000 		.4byte	0x2fa
 912 015d 0C       		.byte	0xc
 913 015e 06       		.uleb128 0x6
 914 015f CB000000 		.4byte	.LASF30
 915 0163 07       		.byte	0x7
 916 0164 66       		.byte	0x66
 917 0165 40020000 		.4byte	0x240
 918 0169 10       		.byte	0x10
 919 016a 06       		.uleb128 0x6
 920 016b 9F010000 		.4byte	.LASF31
 921 016f 07       		.byte	0x7
 922 0170 67       		.byte	0x67
 923 0171 40020000 		.4byte	0x240
 924 0175 14       		.byte	0x14
 925 0176 06       		.uleb128 0x6
 926 0177 62040000 		.4byte	.LASF32
 927 017b 07       		.byte	0x7
 928 017c 6E       		.byte	0x6e
 929 017d 2A040000 		.4byte	0x42a
 930 0181 18       		.byte	0x18
 931 0182 06       		.uleb128 0x6
 932 0183 F2020000 		.4byte	.LASF33
 933 0187 07       		.byte	0x7
 934 0188 79       		.byte	0x79
 935 0189 BF000000 		.4byte	0xbf
 936 018d 1C       		.byte	0x1c
 937 018e 06       		.uleb128 0x6
 938 018f 19030000 		.4byte	.LASF34
 939 0193 07       		.byte	0x7
 940 0194 7D       		.byte	0x7d
 941 0195 B4000000 		.4byte	0xb4
 942 0199 1D       		.byte	0x1d
 943 019a 06       		.uleb128 0x6
 944 019b 30040000 		.4byte	.LASF35
 945 019f 07       		.byte	0x7
 946 01a0 82       		.byte	0x82
 947 01a1 CA000000 		.4byte	0xca
 948 01a5 1E       		.byte	0x1e
 949 01a6 06       		.uleb128 0x6
 950 01a7 FA020000 		.4byte	.LASF36
 951 01ab 07       		.byte	0x7
 952 01ac 88       		.byte	0x88
 953 01ad D5000000 		.4byte	0xd5
 954 01b1 1F       		.byte	0x1f
 955 01b2 06       		.uleb128 0x6
 956 01b3 F4030000 		.4byte	.LASF37
 957 01b7 07       		.byte	0x7
ARM GAS  /var/folders/4k/6h5l9jl178sb4hslwv3xp1mr0000gn/T//cc7OGbjf.s 			page 18


 958 01b8 8F       		.byte	0x8f
 959 01b9 22030000 		.4byte	0x322
 960 01bd 20       		.byte	0x20
 961 01be 07       		.uleb128 0x7
 962 01bf 705F7500 		.ascii	"p_u\000"
 963 01c3 07       		.byte	0x7
 964 01c4 B4       		.byte	0xb4
 965 01c5 F5030000 		.4byte	0x3f5
 966 01c9 24       		.byte	0x24
 967 01ca 06       		.uleb128 0x6
 968 01cb B9040000 		.4byte	.LASF38
 969 01cf 07       		.byte	0x7
 970 01d0 B9       		.byte	0xb9
 971 01d1 66020000 		.4byte	0x266
 972 01d5 28       		.byte	0x28
 973 01d6 06       		.uleb128 0x6
 974 01d7 0E040000 		.4byte	.LASF39
 975 01db 07       		.byte	0x7
 976 01dc BF       		.byte	0xbf
 977 01dd 46020000 		.4byte	0x246
 978 01e1 2C       		.byte	0x2c
 979 01e2 06       		.uleb128 0x6
 980 01e3 00000000 		.4byte	.LASF40
 981 01e7 07       		.byte	0x7
 982 01e8 C3       		.byte	0xc3
 983 01e9 EB000000 		.4byte	0xeb
 984 01ed 34       		.byte	0x34
 985 01ee 06       		.uleb128 0x6
 986 01ef 79030000 		.4byte	.LASF41
 987 01f3 07       		.byte	0x7
 988 01f4 C9       		.byte	0xc9
 989 01f5 F6000000 		.4byte	0xf6
 990 01f9 38       		.byte	0x38
 991 01fa 06       		.uleb128 0x6
 992 01fb DE020000 		.4byte	.LASF42
 993 01ff 07       		.byte	0x7
 994 0200 D0       		.byte	0xd0
 995 0201 3C040000 		.4byte	0x43c
 996 0205 3C       		.byte	0x3c
 997 0206 06       		.uleb128 0x6
 998 0207 D5030000 		.4byte	.LASF43
 999 020b 07       		.byte	0x7
 1000 020c D4       		.byte	0xd4
 1001 020d E0000000 		.4byte	0xe0
 1002 0211 40       		.byte	0x40
 1003 0212 06       		.uleb128 0x6
 1004 0213 93000000 		.4byte	.LASF44
 1005 0217 07       		.byte	0x7
 1006 0218 DA       		.byte	0xda
 1007 0219 7C020000 		.4byte	0x27c
 1008 021d 44       		.byte	0x44
 1009 021e 00       		.byte	0
 1010 021f 08       		.uleb128 0x8
 1011 0220 08       		.byte	0x8
 1012 0221 06       		.byte	0x6
 1013 0222 61       		.byte	0x61
 1014 0223 40020000 		.4byte	0x240
ARM GAS  /var/folders/4k/6h5l9jl178sb4hslwv3xp1mr0000gn/T//cc7OGbjf.s 			page 19


 1015 0227 06       		.uleb128 0x6
 1016 0228 12030000 		.4byte	.LASF26
 1017 022c 06       		.byte	0x6
 1018 022d 62       		.byte	0x62
 1019 022e 40020000 		.4byte	0x240
 1020 0232 00       		.byte	0
 1021 0233 06       		.uleb128 0x6
 1022 0234 D9010000 		.4byte	.LASF27
 1023 0238 06       		.byte	0x6
 1024 0239 64       		.byte	0x64
 1025 023a 40020000 		.4byte	0x240
 1026 023e 04       		.byte	0x4
 1027 023f 00       		.byte	0
 1028 0240 09       		.uleb128 0x9
 1029 0241 04       		.byte	0x4
 1030 0242 17010000 		.4byte	0x117
 1031 0246 04       		.uleb128 0x4
 1032 0247 AD010000 		.4byte	.LASF45
 1033 024b 06       		.byte	0x6
 1034 024c 66       		.byte	0x66
 1035 024d 1F020000 		.4byte	0x21f
 1036 0251 08       		.uleb128 0x8
 1037 0252 04       		.byte	0x4
 1038 0253 06       		.byte	0x6
 1039 0254 6B       		.byte	0x6b
 1040 0255 66020000 		.4byte	0x266
 1041 0259 06       		.uleb128 0x6
 1042 025a 12030000 		.4byte	.LASF26
 1043 025e 06       		.byte	0x6
 1044 025f 6D       		.byte	0x6d
 1045 0260 40020000 		.4byte	0x240
 1046 0264 00       		.byte	0
 1047 0265 00       		.byte	0
 1048 0266 04       		.uleb128 0x4
 1049 0267 78010000 		.4byte	.LASF46
 1050 026b 06       		.byte	0x6
 1051 026c 70       		.byte	0x70
 1052 026d 51020000 		.4byte	0x251
 1053 0271 04       		.uleb128 0x4
 1054 0272 F7000000 		.4byte	.LASF47
 1055 0276 08       		.byte	0x8
 1056 0277 E5       		.byte	0xe5
 1057 0278 7C020000 		.4byte	0x27c
 1058 027c 0A       		.uleb128 0xa
 1059 027d 04       		.byte	0x4
 1060 027e 0B       		.uleb128 0xb
 1061 027f 07040000 		.4byte	.LASF48
 1062 0283 24       		.byte	0x24
 1063 0284 08       		.byte	0x8
 1064 0285 0C01     		.2byte	0x10c
 1065 0287 FA020000 		.4byte	0x2fa
 1066 028b 0C       		.uleb128 0xc
 1067 028c 723400   		.ascii	"r4\000"
 1068 028f 08       		.byte	0x8
 1069 0290 1F01     		.2byte	0x11f
 1070 0292 71020000 		.4byte	0x271
 1071 0296 00       		.byte	0
ARM GAS  /var/folders/4k/6h5l9jl178sb4hslwv3xp1mr0000gn/T//cc7OGbjf.s 			page 20


 1072 0297 0C       		.uleb128 0xc
 1073 0298 723500   		.ascii	"r5\000"
 1074 029b 08       		.byte	0x8
 1075 029c 2001     		.2byte	0x120
 1076 029e 71020000 		.4byte	0x271
 1077 02a2 04       		.byte	0x4
 1078 02a3 0C       		.uleb128 0xc
 1079 02a4 723600   		.ascii	"r6\000"
 1080 02a7 08       		.byte	0x8
 1081 02a8 2101     		.2byte	0x121
 1082 02aa 71020000 		.4byte	0x271
 1083 02ae 08       		.byte	0x8
 1084 02af 0C       		.uleb128 0xc
 1085 02b0 723700   		.ascii	"r7\000"
 1086 02b3 08       		.byte	0x8
 1087 02b4 2201     		.2byte	0x122
 1088 02b6 71020000 		.4byte	0x271
 1089 02ba 0C       		.byte	0xc
 1090 02bb 0C       		.uleb128 0xc
 1091 02bc 723800   		.ascii	"r8\000"
 1092 02bf 08       		.byte	0x8
 1093 02c0 2301     		.2byte	0x123
 1094 02c2 71020000 		.4byte	0x271
 1095 02c6 10       		.byte	0x10
 1096 02c7 0C       		.uleb128 0xc
 1097 02c8 723900   		.ascii	"r9\000"
 1098 02cb 08       		.byte	0x8
 1099 02cc 2401     		.2byte	0x124
 1100 02ce 71020000 		.4byte	0x271
 1101 02d2 14       		.byte	0x14
 1102 02d3 0C       		.uleb128 0xc
 1103 02d4 72313000 		.ascii	"r10\000"
 1104 02d8 08       		.byte	0x8
 1105 02d9 2501     		.2byte	0x125
 1106 02db 71020000 		.4byte	0x271
 1107 02df 18       		.byte	0x18
 1108 02e0 0C       		.uleb128 0xc
 1109 02e1 72313100 		.ascii	"r11\000"
 1110 02e5 08       		.byte	0x8
 1111 02e6 2601     		.2byte	0x126
 1112 02e8 71020000 		.4byte	0x271
 1113 02ec 1C       		.byte	0x1c
 1114 02ed 0C       		.uleb128 0xc
 1115 02ee 6C7200   		.ascii	"lr\000"
 1116 02f1 08       		.byte	0x8
 1117 02f2 2701     		.2byte	0x127
 1118 02f4 71020000 		.4byte	0x271
 1119 02f8 20       		.byte	0x20
 1120 02f9 00       		.byte	0
 1121 02fa 0B       		.uleb128 0xb
 1122 02fb 3C010000 		.4byte	.LASF49
 1123 02ff 04       		.byte	0x4
 1124 0300 08       		.byte	0x8
 1125 0301 3101     		.2byte	0x131
 1126 0303 15030000 		.4byte	0x315
 1127 0307 0C       		.uleb128 0xc
 1128 0308 72313300 		.ascii	"r13\000"
ARM GAS  /var/folders/4k/6h5l9jl178sb4hslwv3xp1mr0000gn/T//cc7OGbjf.s 			page 21


 1129 030c 08       		.byte	0x8
 1130 030d 3201     		.2byte	0x132
 1131 030f 15030000 		.4byte	0x315
 1132 0313 00       		.byte	0
 1133 0314 00       		.byte	0
 1134 0315 09       		.uleb128 0x9
 1135 0316 04       		.byte	0x4
 1136 0317 7E020000 		.4byte	0x27e
 1137 031b 03       		.uleb128 0x3
 1138 031c 04       		.byte	0x4
 1139 031d 07       		.byte	0x7
 1140 031e 96010000 		.4byte	.LASF50
 1141 0322 0D       		.uleb128 0xd
 1142 0323 01010000 		.4byte	0x101
 1143 0327 08       		.uleb128 0x8
 1144 0328 1C       		.byte	0x1c
 1145 0329 09       		.byte	0x9
 1146 032a 5E       		.byte	0x5e
 1147 032b 78030000 		.4byte	0x378
 1148 032f 06       		.uleb128 0x6
 1149 0330 8D030000 		.4byte	.LASF51
 1150 0334 09       		.byte	0x9
 1151 0335 5F       		.byte	0x5f
 1152 0336 46020000 		.4byte	0x246
 1153 033a 00       		.byte	0
 1154 033b 06       		.uleb128 0x6
 1155 033c 04030000 		.4byte	.LASF52
 1156 0340 09       		.byte	0x9
 1157 0341 60       		.byte	0x60
 1158 0342 E0000000 		.4byte	0xe0
 1159 0346 08       		.byte	0x8
 1160 0347 06       		.uleb128 0x6
 1161 0348 A7010000 		.4byte	.LASF53
 1162 034c 09       		.byte	0x9
 1163 034d 62       		.byte	0x62
 1164 034e FA020000 		.4byte	0x2fa
 1165 0352 0C       		.byte	0xc
 1166 0353 06       		.uleb128 0x6
 1167 0354 68010000 		.4byte	.LASF54
 1168 0358 09       		.byte	0x9
 1169 0359 65       		.byte	0x65
 1170 035a 40020000 		.4byte	0x240
 1171 035e 10       		.byte	0x10
 1172 035f 06       		.uleb128 0x6
 1173 0360 C9010000 		.4byte	.LASF55
 1174 0364 09       		.byte	0x9
 1175 0365 66       		.byte	0x66
 1176 0366 40020000 		.4byte	0x240
 1177 036a 14       		.byte	0x14
 1178 036b 06       		.uleb128 0x6
 1179 036c BF010000 		.4byte	.LASF56
 1180 0370 09       		.byte	0x9
 1181 0371 69       		.byte	0x69
 1182 0372 40020000 		.4byte	0x240
 1183 0376 18       		.byte	0x18
 1184 0377 00       		.byte	0
 1185 0378 04       		.uleb128 0x4
ARM GAS  /var/folders/4k/6h5l9jl178sb4hslwv3xp1mr0000gn/T//cc7OGbjf.s 			page 22


 1186 0379 37040000 		.4byte	.LASF57
 1187 037d 09       		.byte	0x9
 1188 037e 6B       		.byte	0x6b
 1189 037f 27030000 		.4byte	0x327
 1190 0383 05       		.uleb128 0x5
 1191 0384 26040000 		.4byte	.LASF58
 1192 0388 0C       		.byte	0xc
 1193 0389 0A       		.byte	0xa
 1194 038a 2C       		.byte	0x2c
 1195 038b A8030000 		.4byte	0x3a8
 1196 038f 06       		.uleb128 0x6
 1197 0390 D3000000 		.4byte	.LASF59
 1198 0394 0A       		.byte	0xa
 1199 0395 2D       		.byte	0x2d
 1200 0396 46020000 		.4byte	0x246
 1201 039a 00       		.byte	0
 1202 039b 06       		.uleb128 0x6
 1203 039c 36010000 		.4byte	.LASF60
 1204 03a0 0A       		.byte	0xa
 1205 03a1 2F       		.byte	0x2f
 1206 03a2 0C010000 		.4byte	0x10c
 1207 03a6 08       		.byte	0x8
 1208 03a7 00       		.byte	0
 1209 03a8 04       		.uleb128 0x4
 1210 03a9 26040000 		.4byte	.LASF58
 1211 03ad 0A       		.byte	0xa
 1212 03ae 30       		.byte	0x30
 1213 03af 83030000 		.4byte	0x383
 1214 03b3 05       		.uleb128 0x5
 1215 03b4 90010000 		.4byte	.LASF61
 1216 03b8 10       		.byte	0x10
 1217 03b9 0B       		.byte	0xb
 1218 03ba 2C       		.byte	0x2c
 1219 03bb E4030000 		.4byte	0x3e4
 1220 03bf 06       		.uleb128 0x6
 1221 03c0 9B000000 		.4byte	.LASF62
 1222 03c4 0B       		.byte	0xb
 1223 03c5 2D       		.byte	0x2d
 1224 03c6 46020000 		.4byte	0x246
 1225 03ca 00       		.byte	0
 1226 03cb 06       		.uleb128 0x6
 1227 03cc 7E040000 		.4byte	.LASF63
 1228 03d0 0B       		.byte	0xb
 1229 03d1 2F       		.byte	0x2f
 1230 03d2 40020000 		.4byte	0x240
 1231 03d6 08       		.byte	0x8
 1232 03d7 06       		.uleb128 0x6
 1233 03d8 C4030000 		.4byte	.LASF64
 1234 03dc 0B       		.byte	0xb
 1235 03dd 31       		.byte	0x31
 1236 03de E4030000 		.4byte	0x3e4
 1237 03e2 0C       		.byte	0xc
 1238 03e3 00       		.byte	0
 1239 03e4 09       		.uleb128 0x9
 1240 03e5 04       		.byte	0x4
 1241 03e6 B3030000 		.4byte	0x3b3
 1242 03ea 04       		.uleb128 0x4
ARM GAS  /var/folders/4k/6h5l9jl178sb4hslwv3xp1mr0000gn/T//cc7OGbjf.s 			page 23


 1243 03eb 90010000 		.4byte	.LASF61
 1244 03ef 0B       		.byte	0xb
 1245 03f0 33       		.byte	0x33
 1246 03f1 B3030000 		.4byte	0x3b3
 1247 03f5 0E       		.uleb128 0xe
 1248 03f6 04       		.byte	0x4
 1249 03f7 07       		.byte	0x7
 1250 03f8 96       		.byte	0x96
 1251 03f9 2A040000 		.4byte	0x42a
 1252 03fd 0F       		.uleb128 0xf
 1253 03fe 20000000 		.4byte	.LASF65
 1254 0402 07       		.byte	0x7
 1255 0403 9D       		.byte	0x9d
 1256 0404 EB000000 		.4byte	0xeb
 1257 0408 0F       		.uleb128 0xf
 1258 0409 48000000 		.4byte	.LASF66
 1259 040d 07       		.byte	0x7
 1260 040e A4       		.byte	0xa4
 1261 040f EB000000 		.4byte	0xeb
 1262 0413 0F       		.uleb128 0xf
 1263 0414 5B040000 		.4byte	.LASF67
 1264 0418 07       		.byte	0x7
 1265 0419 AB       		.byte	0xab
 1266 041a 7C020000 		.4byte	0x27c
 1267 041e 0F       		.uleb128 0xf
 1268 041f 0B030000 		.4byte	.LASF68
 1269 0423 07       		.byte	0x7
 1270 0424 B2       		.byte	0xb2
 1271 0425 F6000000 		.4byte	0xf6
 1272 0429 00       		.byte	0
 1273 042a 09       		.uleb128 0x9
 1274 042b 04       		.byte	0x4
 1275 042c 30040000 		.4byte	0x430
 1276 0430 10       		.uleb128 0x10
 1277 0431 35040000 		.4byte	0x435
 1278 0435 03       		.uleb128 0x3
 1279 0436 01       		.byte	0x1
 1280 0437 08       		.byte	0x8
 1281 0438 A1030000 		.4byte	.LASF69
 1282 043c 09       		.uleb128 0x9
 1283 043d 04       		.byte	0x4
 1284 043e EA030000 		.4byte	0x3ea
 1285 0442 11       		.uleb128 0x11
 1286 0443 FB030000 		.4byte	.LASF70
 1287 0447 02       		.byte	0x2
 1288 0448 42       		.byte	0x42
 1289 0449 40020000 		.4byte	0x240
 1290 044d 03       		.byte	0x3
 1291 044e 68040000 		.4byte	0x468
 1292 0452 12       		.uleb128 0x12
 1293 0453 74717000 		.ascii	"tqp\000"
 1294 0457 02       		.byte	0x2
 1295 0458 42       		.byte	0x42
 1296 0459 68040000 		.4byte	0x468
 1297 045d 13       		.uleb128 0x13
 1298 045e 747000   		.ascii	"tp\000"
 1299 0461 02       		.byte	0x2
ARM GAS  /var/folders/4k/6h5l9jl178sb4hslwv3xp1mr0000gn/T//cc7OGbjf.s 			page 24


 1300 0462 43       		.byte	0x43
 1301 0463 40020000 		.4byte	0x240
 1302 0467 00       		.byte	0
 1303 0468 09       		.uleb128 0x9
 1304 0469 04       		.byte	0x4
 1305 046a 46020000 		.4byte	0x246
 1306 046e 14       		.uleb128 0x14
 1307 046f 06000000 		.4byte	.LASF89
 1308 0473 02       		.byte	0x2
 1309 0474 34       		.byte	0x34
 1310 0475 03       		.byte	0x3
 1311 0476 90040000 		.4byte	0x490
 1312 047a 12       		.uleb128 0x12
 1313 047b 747000   		.ascii	"tp\000"
 1314 047e 02       		.byte	0x2
 1315 047f 34       		.byte	0x34
 1316 0480 40020000 		.4byte	0x240
 1317 0484 12       		.uleb128 0x12
 1318 0485 74717000 		.ascii	"tqp\000"
 1319 0489 02       		.byte	0x2
 1320 048a 34       		.byte	0x34
 1321 048b 68040000 		.4byte	0x468
 1322 048f 00       		.byte	0
 1323 0490 11       		.uleb128 0x11
 1324 0491 A6030000 		.4byte	.LASF71
 1325 0495 02       		.byte	0x2
 1326 0496 3B       		.byte	0x3b
 1327 0497 40020000 		.4byte	0x240
 1328 049b 03       		.byte	0x3
 1329 049c B6040000 		.4byte	0x4b6
 1330 04a0 12       		.uleb128 0x12
 1331 04a1 74717000 		.ascii	"tqp\000"
 1332 04a5 02       		.byte	0x2
 1333 04a6 3B       		.byte	0x3b
 1334 04a7 68040000 		.4byte	0x468
 1335 04ab 13       		.uleb128 0x13
 1336 04ac 747000   		.ascii	"tp\000"
 1337 04af 02       		.byte	0x2
 1338 04b0 3C       		.byte	0x3c
 1339 04b1 40020000 		.4byte	0x240
 1340 04b5 00       		.byte	0
 1341 04b6 15       		.uleb128 0x15
 1342 04b7 C3040000 		.4byte	.LASF72
 1343 04bb 01       		.byte	0x1
 1344 04bc 56       		.byte	0x56
 1345 04bd 00000000 		.4byte	.LFB7
 1346 04c1 08000000 		.4byte	.LFE7-.LFB7
 1347 04c5 01       		.uleb128 0x1
 1348 04c6 9C       		.byte	0x9c
 1349 04c7 E3040000 		.4byte	0x4e3
 1350 04cb 16       		.uleb128 0x16
 1351 04cc 737000   		.ascii	"sp\000"
 1352 04cf 01       		.byte	0x1
 1353 04d0 56       		.byte	0x56
 1354 04d1 E3040000 		.4byte	0x4e3
 1355 04d5 01       		.uleb128 0x1
 1356 04d6 50       		.byte	0x50
ARM GAS  /var/folders/4k/6h5l9jl178sb4hslwv3xp1mr0000gn/T//cc7OGbjf.s 			page 25


 1357 04d7 16       		.uleb128 0x16
 1358 04d8 6E00     		.ascii	"n\000"
 1359 04da 01       		.byte	0x1
 1360 04db 56       		.byte	0x56
 1361 04dc 0C010000 		.4byte	0x10c
 1362 04e0 01       		.uleb128 0x1
 1363 04e1 51       		.byte	0x51
 1364 04e2 00       		.byte	0
 1365 04e3 09       		.uleb128 0x9
 1366 04e4 04       		.byte	0x4
 1367 04e5 A8030000 		.4byte	0x3a8
 1368 04e9 15       		.uleb128 0x15
 1369 04ea 41040000 		.4byte	.LASF73
 1370 04ee 01       		.byte	0x1
 1371 04ef 88       		.byte	0x88
 1372 04f0 00000000 		.4byte	.LFB9
 1373 04f4 28000000 		.4byte	.LFE9-.LFB9
 1374 04f8 01       		.uleb128 0x1
 1375 04f9 9C       		.byte	0x9c
 1376 04fa 62050000 		.4byte	0x562
 1377 04fe 17       		.uleb128 0x17
 1378 04ff 737000   		.ascii	"sp\000"
 1379 0502 01       		.byte	0x1
 1380 0503 88       		.byte	0x88
 1381 0504 E3040000 		.4byte	0x4e3
 1382 0508 00000000 		.4byte	.LLST0
 1383 050c 17       		.uleb128 0x17
 1384 050d 6E00     		.ascii	"n\000"
 1385 050f 01       		.byte	0x1
 1386 0510 88       		.byte	0x88
 1387 0511 0C010000 		.4byte	0x10c
 1388 0515 1E000000 		.4byte	.LLST1
 1389 0519 18       		.uleb128 0x18
 1390 051a 636E7400 		.ascii	"cnt\000"
 1391 051e 01       		.byte	0x1
 1392 051f 89       		.byte	0x89
 1393 0520 0C010000 		.4byte	0x10c
 1394 0524 3F000000 		.4byte	.LLST2
 1395 0528 19       		.uleb128 0x19
 1396 0529 42040000 		.4byte	0x442
 1397 052d 12000000 		.4byte	.LBB24
 1398 0531 08000000 		.4byte	.LBE24-.LBB24
 1399 0535 01       		.byte	0x1
 1400 0536 95       		.byte	0x95
 1401 0537 58050000 		.4byte	0x558
 1402 053b 1A       		.uleb128 0x1a
 1403 053c 52040000 		.4byte	0x452
 1404 0540 6A000000 		.4byte	.LLST3
 1405 0544 1B       		.uleb128 0x1b
 1406 0545 12000000 		.4byte	.LBB25
 1407 0549 08000000 		.4byte	.LBE25-.LBB25
 1408 054d 1C       		.uleb128 0x1c
 1409 054e 5D040000 		.4byte	0x45d
 1410 0552 7D000000 		.4byte	.LLST4
 1411 0556 00       		.byte	0
 1412 0557 00       		.byte	0
 1413 0558 1D       		.uleb128 0x1d
ARM GAS  /var/folders/4k/6h5l9jl178sb4hslwv3xp1mr0000gn/T//cc7OGbjf.s 			page 26


 1414 0559 1E000000 		.4byte	.LVL6
 1415 055d 5E0A0000 		.4byte	0xa5e
 1416 0561 00       		.byte	0
 1417 0562 15       		.uleb128 0x15
 1418 0563 57010000 		.4byte	.LASF74
 1419 0567 01       		.byte	0x1
 1420 0568 6D       		.byte	0x6d
 1421 0569 00000000 		.4byte	.LFB8
 1422 056d 18000000 		.4byte	.LFE8-.LFB8
 1423 0571 01       		.uleb128 0x1
 1424 0572 9C       		.byte	0x9c
 1425 0573 EE050000 		.4byte	0x5ee
 1426 0577 17       		.uleb128 0x17
 1427 0578 737000   		.ascii	"sp\000"
 1428 057b 01       		.byte	0x1
 1429 057c 6D       		.byte	0x6d
 1430 057d E3040000 		.4byte	0x4e3
 1431 0581 90000000 		.4byte	.LLST5
 1432 0585 17       		.uleb128 0x17
 1433 0586 6E00     		.ascii	"n\000"
 1434 0588 01       		.byte	0x1
 1435 0589 6D       		.byte	0x6d
 1436 058a 0C010000 		.4byte	0x10c
 1437 058e B1000000 		.4byte	.LLST6
 1438 0592 1E       		.uleb128 0x1e
 1439 0593 02000000 		.4byte	.LBB26
 1440 0597 06000000 		.4byte	.LBE26-.LBB26
 1441 059b AD050000 		.4byte	0x5ad
 1442 059f 1F       		.uleb128 0x1f
 1443 05a0 746D7000 		.ascii	"tmp\000"
 1444 05a4 01       		.byte	0x1
 1445 05a5 6F       		.byte	0x6f
 1446 05a6 A2000000 		.4byte	0xa2
 1447 05aa 01       		.uleb128 0x1
 1448 05ab 53       		.byte	0x53
 1449 05ac 00       		.byte	0
 1450 05ad 1E       		.uleb128 0x1e
 1451 05ae 10000000 		.4byte	.LBB27
 1452 05b2 08000000 		.4byte	.LBE27-.LBB27
 1453 05b6 C8050000 		.4byte	0x5c8
 1454 05ba 1F       		.uleb128 0x1f
 1455 05bb 746D7000 		.ascii	"tmp\000"
 1456 05bf 01       		.byte	0x1
 1457 05c0 72       		.byte	0x72
 1458 05c1 A2000000 		.4byte	0xa2
 1459 05c5 01       		.uleb128 0x1
 1460 05c6 53       		.byte	0x53
 1461 05c7 00       		.byte	0
 1462 05c8 20       		.uleb128 0x20
 1463 05c9 0C000000 		.4byte	.LVL11
 1464 05cd E9040000 		.4byte	0x4e9
 1465 05d1 E4050000 		.4byte	0x5e4
 1466 05d5 21       		.uleb128 0x21
 1467 05d6 01       		.uleb128 0x1
 1468 05d7 51       		.byte	0x51
 1469 05d8 03       		.uleb128 0x3
 1470 05d9 F3       		.byte	0xf3
ARM GAS  /var/folders/4k/6h5l9jl178sb4hslwv3xp1mr0000gn/T//cc7OGbjf.s 			page 27


 1471 05da 01       		.uleb128 0x1
 1472 05db 51       		.byte	0x51
 1473 05dc 21       		.uleb128 0x21
 1474 05dd 01       		.uleb128 0x1
 1475 05de 50       		.byte	0x50
 1476 05df 03       		.uleb128 0x3
 1477 05e0 F3       		.byte	0xf3
 1478 05e1 01       		.uleb128 0x1
 1479 05e2 50       		.byte	0x50
 1480 05e3 00       		.byte	0
 1481 05e4 1D       		.uleb128 0x1d
 1482 05e5 10000000 		.4byte	.LVL12
 1483 05e9 730A0000 		.4byte	0xa73
 1484 05ed 00       		.byte	0
 1485 05ee 22       		.uleb128 0x22
 1486 05ef 21030000 		.4byte	.LASF75
 1487 05f3 01       		.byte	0x1
 1488 05f4 B9       		.byte	0xb9
 1489 05f5 EB000000 		.4byte	0xeb
 1490 05f9 00000000 		.4byte	.LFB11
 1491 05fd 34000000 		.4byte	.LFE11-.LFB11
 1492 0601 01       		.uleb128 0x1
 1493 0602 9C       		.byte	0x9c
 1494 0603 4B060000 		.4byte	0x64b
 1495 0607 17       		.uleb128 0x17
 1496 0608 737000   		.ascii	"sp\000"
 1497 060b 01       		.byte	0x1
 1498 060c B9       		.byte	0xb9
 1499 060d E3040000 		.4byte	0x4e3
 1500 0611 D2000000 		.4byte	.LLST7
 1501 0615 23       		.uleb128 0x23
 1502 0616 6E040000 		.4byte	0x46e
 1503 061a 18000000 		.4byte	.LBB28
 1504 061e 00000000 		.4byte	.Ldebug_ranges0+0
 1505 0622 01       		.byte	0x1
 1506 0623 C4       		.byte	0xc4
 1507 0624 3B060000 		.4byte	0x63b
 1508 0628 1A       		.uleb128 0x1a
 1509 0629 84040000 		.4byte	0x484
 1510 062d 14010000 		.4byte	.LLST8
 1511 0631 1A       		.uleb128 0x1a
 1512 0632 7A040000 		.4byte	0x47a
 1513 0636 4D010000 		.4byte	.LLST9
 1514 063a 00       		.byte	0
 1515 063b 24       		.uleb128 0x24
 1516 063c 28000000 		.4byte	.LVL20
 1517 0640 7A0A0000 		.4byte	0xa7a
 1518 0644 21       		.uleb128 0x21
 1519 0645 01       		.uleb128 0x1
 1520 0646 50       		.byte	0x50
 1521 0647 01       		.uleb128 0x1
 1522 0648 33       		.byte	0x33
 1523 0649 00       		.byte	0
 1524 064a 00       		.byte	0
 1525 064b 22       		.uleb128 0x22
 1526 064c EA030000 		.4byte	.LASF76
 1527 0650 01       		.byte	0x1
ARM GAS  /var/folders/4k/6h5l9jl178sb4hslwv3xp1mr0000gn/T//cc7OGbjf.s 			page 28


 1528 0651 A4       		.byte	0xa4
 1529 0652 EB000000 		.4byte	0xeb
 1530 0656 00000000 		.4byte	.LFB10
 1531 065a 14000000 		.4byte	.LFE10-.LFB10
 1532 065e 01       		.uleb128 0x1
 1533 065f 9C       		.byte	0x9c
 1534 0660 C7060000 		.4byte	0x6c7
 1535 0664 17       		.uleb128 0x17
 1536 0665 737000   		.ascii	"sp\000"
 1537 0668 01       		.byte	0x1
 1538 0669 A4       		.byte	0xa4
 1539 066a E3040000 		.4byte	0x4e3
 1540 066e 60010000 		.4byte	.LLST10
 1541 0672 1F       		.uleb128 0x1f
 1542 0673 6D736700 		.ascii	"msg\000"
 1543 0677 01       		.byte	0x1
 1544 0678 A5       		.byte	0xa5
 1545 0679 EB000000 		.4byte	0xeb
 1546 067d 01       		.uleb128 0x1
 1547 067e 50       		.byte	0x50
 1548 067f 1E       		.uleb128 0x1e
 1549 0680 02000000 		.4byte	.LBB32
 1550 0684 06000000 		.4byte	.LBE32-.LBB32
 1551 0688 9A060000 		.4byte	0x69a
 1552 068c 1F       		.uleb128 0x1f
 1553 068d 746D7000 		.ascii	"tmp\000"
 1554 0691 01       		.byte	0x1
 1555 0692 A7       		.byte	0xa7
 1556 0693 A2000000 		.4byte	0xa2
 1557 0697 01       		.uleb128 0x1
 1558 0698 53       		.byte	0x53
 1559 0699 00       		.byte	0
 1560 069a 1E       		.uleb128 0x1e
 1561 069b 0C000000 		.4byte	.LBB33
 1562 069f 06000000 		.4byte	.LBE33-.LBB33
 1563 06a3 B5060000 		.4byte	0x6b5
 1564 06a7 1F       		.uleb128 0x1f
 1565 06a8 746D7000 		.ascii	"tmp\000"
 1566 06ac 01       		.byte	0x1
 1567 06ad A9       		.byte	0xa9
 1568 06ae A2000000 		.4byte	0xa2
 1569 06b2 01       		.uleb128 0x1
 1570 06b3 53       		.byte	0x53
 1571 06b4 00       		.byte	0
 1572 06b5 24       		.uleb128 0x24
 1573 06b6 0C000000 		.4byte	.LVL22
 1574 06ba EE050000 		.4byte	0x5ee
 1575 06be 21       		.uleb128 0x21
 1576 06bf 01       		.uleb128 0x1
 1577 06c0 50       		.byte	0x50
 1578 06c1 03       		.uleb128 0x3
 1579 06c2 F3       		.byte	0xf3
 1580 06c3 01       		.uleb128 0x1
 1581 06c4 50       		.byte	0x50
 1582 06c5 00       		.byte	0
 1583 06c6 00       		.byte	0
 1584 06c7 22       		.uleb128 0x22
ARM GAS  /var/folders/4k/6h5l9jl178sb4hslwv3xp1mr0000gn/T//cc7OGbjf.s 			page 29


 1585 06c8 B2030000 		.4byte	.LASF77
 1586 06cc 01       		.byte	0x1
 1587 06cd FA       		.byte	0xfa
 1588 06ce EB000000 		.4byte	0xeb
 1589 06d2 00000000 		.4byte	.LFB13
 1590 06d6 40000000 		.4byte	.LFE13-.LFB13
 1591 06da 01       		.uleb128 0x1
 1592 06db 9C       		.byte	0x9c
 1593 06dc 34070000 		.4byte	0x734
 1594 06e0 17       		.uleb128 0x17
 1595 06e1 737000   		.ascii	"sp\000"
 1596 06e4 01       		.byte	0x1
 1597 06e5 FA       		.byte	0xfa
 1598 06e6 E3040000 		.4byte	0x4e3
 1599 06ea 81010000 		.4byte	.LLST11
 1600 06ee 25       		.uleb128 0x25
 1601 06ef BA010000 		.4byte	.LASF78
 1602 06f3 01       		.byte	0x1
 1603 06f4 FA       		.byte	0xfa
 1604 06f5 01010000 		.4byte	0x101
 1605 06f9 B8010000 		.4byte	.LLST12
 1606 06fd 26       		.uleb128 0x26
 1607 06fe 6E040000 		.4byte	0x46e
 1608 0702 1E000000 		.4byte	.LBB34
 1609 0706 18000000 		.4byte	.Ldebug_ranges0+0x18
 1610 070a 01       		.byte	0x1
 1611 070b 0901     		.2byte	0x109
 1612 070d 24070000 		.4byte	0x724
 1613 0711 1A       		.uleb128 0x1a
 1614 0712 84040000 		.4byte	0x484
 1615 0716 E4010000 		.4byte	.LLST13
 1616 071a 1A       		.uleb128 0x1a
 1617 071b 7A040000 		.4byte	0x47a
 1618 071f 1D020000 		.4byte	.LLST14
 1619 0723 00       		.byte	0
 1620 0724 27       		.uleb128 0x27
 1621 0725 32000000 		.4byte	.LVL28
 1622 0729 8B0A0000 		.4byte	0xa8b
 1623 072d 21       		.uleb128 0x21
 1624 072e 01       		.uleb128 0x1
 1625 072f 50       		.byte	0x50
 1626 0730 01       		.uleb128 0x1
 1627 0731 33       		.byte	0x33
 1628 0732 00       		.byte	0
 1629 0733 00       		.byte	0
 1630 0734 22       		.uleb128 0x22
 1631 0735 13010000 		.4byte	.LASF79
 1632 0739 01       		.byte	0x1
 1633 073a DE       		.byte	0xde
 1634 073b EB000000 		.4byte	0xeb
 1635 073f 00000000 		.4byte	.LFB12
 1636 0743 14000000 		.4byte	.LFE12-.LFB12
 1637 0747 01       		.uleb128 0x1
 1638 0748 9C       		.byte	0x9c
 1639 0749 C6070000 		.4byte	0x7c6
 1640 074d 17       		.uleb128 0x17
 1641 074e 737000   		.ascii	"sp\000"
ARM GAS  /var/folders/4k/6h5l9jl178sb4hslwv3xp1mr0000gn/T//cc7OGbjf.s 			page 30


 1642 0751 01       		.byte	0x1
 1643 0752 DE       		.byte	0xde
 1644 0753 E3040000 		.4byte	0x4e3
 1645 0757 30020000 		.4byte	.LLST15
 1646 075b 25       		.uleb128 0x25
 1647 075c BA010000 		.4byte	.LASF78
 1648 0760 01       		.byte	0x1
 1649 0761 DE       		.byte	0xde
 1650 0762 01010000 		.4byte	0x101
 1651 0766 51020000 		.4byte	.LLST16
 1652 076a 1F       		.uleb128 0x1f
 1653 076b 6D736700 		.ascii	"msg\000"
 1654 076f 01       		.byte	0x1
 1655 0770 DF       		.byte	0xdf
 1656 0771 EB000000 		.4byte	0xeb
 1657 0775 01       		.uleb128 0x1
 1658 0776 50       		.byte	0x50
 1659 0777 1E       		.uleb128 0x1e
 1660 0778 02000000 		.4byte	.LBB38
 1661 077c 06000000 		.4byte	.LBE38-.LBB38
 1662 0780 92070000 		.4byte	0x792
 1663 0784 1F       		.uleb128 0x1f
 1664 0785 746D7000 		.ascii	"tmp\000"
 1665 0789 01       		.byte	0x1
 1666 078a E1       		.byte	0xe1
 1667 078b A2000000 		.4byte	0xa2
 1668 078f 01       		.uleb128 0x1
 1669 0790 53       		.byte	0x53
 1670 0791 00       		.byte	0
 1671 0792 1E       		.uleb128 0x1e
 1672 0793 0C000000 		.4byte	.LBB39
 1673 0797 06000000 		.4byte	.LBE39-.LBB39
 1674 079b AD070000 		.4byte	0x7ad
 1675 079f 1F       		.uleb128 0x1f
 1676 07a0 746D7000 		.ascii	"tmp\000"
 1677 07a4 01       		.byte	0x1
 1678 07a5 E3       		.byte	0xe3
 1679 07a6 A2000000 		.4byte	0xa2
 1680 07aa 01       		.uleb128 0x1
 1681 07ab 53       		.byte	0x53
 1682 07ac 00       		.byte	0
 1683 07ad 24       		.uleb128 0x24
 1684 07ae 0C000000 		.4byte	.LVL30
 1685 07b2 C7060000 		.4byte	0x6c7
 1686 07b6 21       		.uleb128 0x21
 1687 07b7 01       		.uleb128 0x1
 1688 07b8 51       		.byte	0x51
 1689 07b9 03       		.uleb128 0x3
 1690 07ba F3       		.byte	0xf3
 1691 07bb 01       		.uleb128 0x1
 1692 07bc 51       		.byte	0x51
 1693 07bd 21       		.uleb128 0x21
 1694 07be 01       		.uleb128 0x1
 1695 07bf 50       		.byte	0x50
 1696 07c0 03       		.uleb128 0x3
 1697 07c1 F3       		.byte	0xf3
 1698 07c2 01       		.uleb128 0x1
ARM GAS  /var/folders/4k/6h5l9jl178sb4hslwv3xp1mr0000gn/T//cc7OGbjf.s 			page 31


 1699 07c3 50       		.byte	0x50
 1700 07c4 00       		.byte	0
 1701 07c5 00       		.byte	0
 1702 07c6 28       		.uleb128 0x28
 1703 07c7 BF000000 		.4byte	.LASF80
 1704 07cb 01       		.byte	0x1
 1705 07cc 1601     		.2byte	0x116
 1706 07ce 00000000 		.4byte	.LFB14
 1707 07d2 32000000 		.4byte	.LFE14-.LFB14
 1708 07d6 01       		.uleb128 0x1
 1709 07d7 9C       		.byte	0x9c
 1710 07d8 5C080000 		.4byte	0x85c
 1711 07dc 29       		.uleb128 0x29
 1712 07dd 737000   		.ascii	"sp\000"
 1713 07e0 01       		.byte	0x1
 1714 07e1 1601     		.2byte	0x116
 1715 07e3 E3040000 		.4byte	0x4e3
 1716 07e7 72020000 		.4byte	.LLST17
 1717 07eb 1E       		.uleb128 0x1e
 1718 07ec 04000000 		.4byte	.LBB40
 1719 07f0 06000000 		.4byte	.LBE40-.LBB40
 1720 07f4 07080000 		.4byte	0x807
 1721 07f8 2A       		.uleb128 0x2a
 1722 07f9 746D7000 		.ascii	"tmp\000"
 1723 07fd 01       		.byte	0x1
 1724 07fe 1E01     		.2byte	0x11e
 1725 0800 A2000000 		.4byte	0xa2
 1726 0804 01       		.uleb128 0x1
 1727 0805 53       		.byte	0x53
 1728 0806 00       		.byte	0
 1729 0807 2B       		.uleb128 0x2b
 1730 0808 30000000 		.4byte	.Ldebug_ranges0+0x30
 1731 080c 1F080000 		.4byte	0x81f
 1732 0810 2A       		.uleb128 0x2a
 1733 0811 746D7000 		.ascii	"tmp\000"
 1734 0815 01       		.byte	0x1
 1735 0816 2101     		.2byte	0x121
 1736 0818 A2000000 		.4byte	0xa2
 1737 081c 01       		.uleb128 0x1
 1738 081d 53       		.byte	0x53
 1739 081e 00       		.byte	0
 1740 081f 26       		.uleb128 0x26
 1741 0820 90040000 		.4byte	0x490
 1742 0824 1C000000 		.4byte	.LBB42
 1743 0828 48000000 		.4byte	.Ldebug_ranges0+0x48
 1744 082c 01       		.byte	0x1
 1745 082d 2001     		.2byte	0x120
 1746 082f 4C080000 		.4byte	0x84c
 1747 0833 1A       		.uleb128 0x1a
 1748 0834 A0040000 		.4byte	0x4a0
 1749 0838 9E020000 		.4byte	.LLST18
 1750 083c 2C       		.uleb128 0x2c
 1751 083d 48000000 		.4byte	.Ldebug_ranges0+0x48
 1752 0841 1C       		.uleb128 0x1c
 1753 0842 AB040000 		.4byte	0x4ab
 1754 0846 CA020000 		.4byte	.LLST19
 1755 084a 00       		.byte	0
ARM GAS  /var/folders/4k/6h5l9jl178sb4hslwv3xp1mr0000gn/T//cc7OGbjf.s 			page 32


 1756 084b 00       		.byte	0
 1757 084c 24       		.uleb128 0x24
 1758 084d 2A000000 		.4byte	.LVL34
 1759 0851 A50A0000 		.4byte	0xaa5
 1760 0855 21       		.uleb128 0x21
 1761 0856 01       		.uleb128 0x1
 1762 0857 51       		.byte	0x51
 1763 0858 01       		.uleb128 0x1
 1764 0859 30       		.byte	0x30
 1765 085a 00       		.byte	0
 1766 085b 00       		.byte	0
 1767 085c 28       		.uleb128 0x28
 1768 085d 13000000 		.4byte	.LASF81
 1769 0861 01       		.byte	0x1
 1770 0862 2F01     		.2byte	0x12f
 1771 0864 00000000 		.4byte	.LFB15
 1772 0868 1E000000 		.4byte	.LFE15-.LFB15
 1773 086c 01       		.uleb128 0x1
 1774 086d 9C       		.byte	0x9c
 1775 086e CF080000 		.4byte	0x8cf
 1776 0872 29       		.uleb128 0x29
 1777 0873 737000   		.ascii	"sp\000"
 1778 0876 01       		.byte	0x1
 1779 0877 2F01     		.2byte	0x12f
 1780 0879 E3040000 		.4byte	0x4e3
 1781 087d DD020000 		.4byte	.LLST20
 1782 0881 1B       		.uleb128 0x1b
 1783 0882 0C000000 		.4byte	.LBB47
 1784 0886 12000000 		.4byte	.LBE47-.LBB47
 1785 088a 2A       		.uleb128 0x2a
 1786 088b 747000   		.ascii	"tp\000"
 1787 088e 01       		.byte	0x1
 1788 088f 3B01     		.2byte	0x13b
 1789 0891 40020000 		.4byte	0x240
 1790 0895 01       		.uleb128 0x1
 1791 0896 53       		.byte	0x53
 1792 0897 26       		.uleb128 0x26
 1793 0898 90040000 		.4byte	0x490
 1794 089c 0C000000 		.4byte	.LBB48
 1795 08a0 60000000 		.4byte	.Ldebug_ranges0+0x60
 1796 08a4 01       		.byte	0x1
 1797 08a5 3B01     		.2byte	0x13b
 1798 08a7 C4080000 		.4byte	0x8c4
 1799 08ab 1A       		.uleb128 0x1a
 1800 08ac A0040000 		.4byte	0x4a0
 1801 08b0 0A030000 		.4byte	.LLST21
 1802 08b4 2C       		.uleb128 0x2c
 1803 08b5 60000000 		.4byte	.Ldebug_ranges0+0x60
 1804 08b9 1C       		.uleb128 0x1c
 1805 08ba AB040000 		.4byte	0x4ab
 1806 08be 37030000 		.4byte	.LLST22
 1807 08c2 00       		.byte	0
 1808 08c3 00       		.byte	0
 1809 08c4 2D       		.uleb128 0x2d
 1810 08c5 1E000000 		.4byte	.LVL39
 1811 08c9 5E0A0000 		.4byte	0xa5e
 1812 08cd 00       		.byte	0
ARM GAS  /var/folders/4k/6h5l9jl178sb4hslwv3xp1mr0000gn/T//cc7OGbjf.s 			page 33


 1813 08ce 00       		.byte	0
 1814 08cf 28       		.uleb128 0x28
 1815 08d0 51000000 		.4byte	.LASF82
 1816 08d4 01       		.byte	0x1
 1817 08d5 4E01     		.2byte	0x14e
 1818 08d7 00000000 		.4byte	.LFB16
 1819 08db 2E000000 		.4byte	.LFE16-.LFB16
 1820 08df 01       		.uleb128 0x1
 1821 08e0 9C       		.byte	0x9c
 1822 08e1 3D090000 		.4byte	0x93d
 1823 08e5 29       		.uleb128 0x29
 1824 08e6 737000   		.ascii	"sp\000"
 1825 08e9 01       		.byte	0x1
 1826 08ea 4E01     		.2byte	0x14e
 1827 08ec E3040000 		.4byte	0x4e3
 1828 08f0 4A030000 		.4byte	.LLST23
 1829 08f4 29       		.uleb128 0x29
 1830 08f5 6E00     		.ascii	"n\000"
 1831 08f7 01       		.byte	0x1
 1832 08f8 4E01     		.2byte	0x14e
 1833 08fa 0C010000 		.4byte	0x10c
 1834 08fe 68030000 		.4byte	.LLST24
 1835 0902 2E       		.uleb128 0x2e
 1836 0903 90040000 		.4byte	0x490
 1837 0907 1A000000 		.4byte	.LBB52
 1838 090b 08000000 		.4byte	.LBE52-.LBB52
 1839 090f 01       		.byte	0x1
 1840 0910 5901     		.2byte	0x159
 1841 0912 33090000 		.4byte	0x933
 1842 0916 1A       		.uleb128 0x1a
 1843 0917 A0040000 		.4byte	0x4a0
 1844 091b A0030000 		.4byte	.LLST25
 1845 091f 1B       		.uleb128 0x1b
 1846 0920 1A000000 		.4byte	.LBB53
 1847 0924 08000000 		.4byte	.LBE53-.LBB53
 1848 0928 1C       		.uleb128 0x1c
 1849 0929 AB040000 		.4byte	0x4ab
 1850 092d B3030000 		.4byte	.LLST26
 1851 0931 00       		.byte	0
 1852 0932 00       		.byte	0
 1853 0933 1D       		.uleb128 0x1d
 1854 0934 26000000 		.4byte	.LVL46
 1855 0938 5E0A0000 		.4byte	0xa5e
 1856 093c 00       		.byte	0
 1857 093d 2F       		.uleb128 0x2f
 1858 093e 83000000 		.4byte	.LASF83
 1859 0942 01       		.byte	0x1
 1860 0943 6E01     		.2byte	0x16e
 1861 0945 EB000000 		.4byte	0xeb
 1862 0949 00000000 		.4byte	.LFB17
 1863 094d 6C000000 		.4byte	.LFE17-.LFB17
 1864 0951 01       		.uleb128 0x1
 1865 0952 9C       		.byte	0x9c
 1866 0953 530A0000 		.4byte	0xa53
 1867 0957 29       		.uleb128 0x29
 1868 0958 73707300 		.ascii	"sps\000"
 1869 095c 01       		.byte	0x1
ARM GAS  /var/folders/4k/6h5l9jl178sb4hslwv3xp1mr0000gn/T//cc7OGbjf.s 			page 34


 1870 095d 6E01     		.2byte	0x16e
 1871 095f E3040000 		.4byte	0x4e3
 1872 0963 C6030000 		.4byte	.LLST27
 1873 0967 29       		.uleb128 0x29
 1874 0968 73707700 		.ascii	"spw\000"
 1875 096c 01       		.byte	0x1
 1876 096d 6E01     		.2byte	0x16e
 1877 096f E3040000 		.4byte	0x4e3
 1878 0973 0B040000 		.4byte	.LLST28
 1879 0977 30       		.uleb128 0x30
 1880 0978 6D736700 		.ascii	"msg\000"
 1881 097c 01       		.byte	0x1
 1882 097d 6F01     		.2byte	0x16f
 1883 097f EB000000 		.4byte	0xeb
 1884 0983 45040000 		.4byte	.LLST29
 1885 0987 1E       		.uleb128 0x1e
 1886 0988 06000000 		.4byte	.LBB54
 1887 098c 06000000 		.4byte	.LBE54-.LBB54
 1888 0990 A3090000 		.4byte	0x9a3
 1889 0994 2A       		.uleb128 0x2a
 1890 0995 746D7000 		.ascii	"tmp\000"
 1891 0999 01       		.byte	0x1
 1892 099a 7B01     		.2byte	0x17b
 1893 099c A2000000 		.4byte	0xa2
 1894 09a0 01       		.uleb128 0x1
 1895 09a1 53       		.byte	0x53
 1896 09a2 00       		.byte	0
 1897 09a3 2B       		.uleb128 0x2b
 1898 09a4 78000000 		.4byte	.Ldebug_ranges0+0x78
 1899 09a8 BB090000 		.4byte	0x9bb
 1900 09ac 2A       		.uleb128 0x2a
 1901 09ad 746D7000 		.ascii	"tmp\000"
 1902 09b1 01       		.byte	0x1
 1903 09b2 8901     		.2byte	0x189
 1904 09b4 A2000000 		.4byte	0xa2
 1905 09b8 01       		.uleb128 0x1
 1906 09b9 53       		.byte	0x53
 1907 09ba 00       		.byte	0
 1908 09bb 1E       		.uleb128 0x1e
 1909 09bc 30000000 		.4byte	.LBB56
 1910 09c0 18000000 		.4byte	.LBE56-.LBB56
 1911 09c4 0F0A0000 		.4byte	0xa0f
 1912 09c8 30       		.uleb128 0x30
 1913 09c9 63747000 		.ascii	"ctp\000"
 1914 09cd 01       		.byte	0x1
 1915 09ce 7F01     		.2byte	0x17f
 1916 09d0 40020000 		.4byte	0x240
 1917 09d4 6F040000 		.4byte	.LLST30
 1918 09d8 26       		.uleb128 0x26
 1919 09d9 6E040000 		.4byte	0x46e
 1920 09dd 32000000 		.4byte	.LBB57
 1921 09e1 90000000 		.4byte	.Ldebug_ranges0+0x90
 1922 09e5 01       		.byte	0x1
 1923 09e6 8001     		.2byte	0x180
 1924 09e8 FF090000 		.4byte	0x9ff
 1925 09ec 1A       		.uleb128 0x1a
 1926 09ed 84040000 		.4byte	0x484
ARM GAS  /var/folders/4k/6h5l9jl178sb4hslwv3xp1mr0000gn/T//cc7OGbjf.s 			page 35


 1927 09f1 82040000 		.4byte	.LLST31
 1928 09f5 1A       		.uleb128 0x1a
 1929 09f6 7A040000 		.4byte	0x47a
 1930 09fa 6F040000 		.4byte	.LLST30
 1931 09fe 00       		.byte	0
 1932 09ff 24       		.uleb128 0x24
 1933 0a00 46000000 		.4byte	.LVL56
 1934 0a04 7A0A0000 		.4byte	0xa7a
 1935 0a08 21       		.uleb128 0x21
 1936 0a09 01       		.uleb128 0x1
 1937 0a0a 50       		.byte	0x50
 1938 0a0b 01       		.uleb128 0x1
 1939 0a0c 33       		.byte	0x33
 1940 0a0d 00       		.byte	0
 1941 0a0e 00       		.byte	0
 1942 0a0f 2E       		.uleb128 0x2e
 1943 0a10 90040000 		.4byte	0x490
 1944 0a14 52000000 		.4byte	.LBB62
 1945 0a18 08000000 		.4byte	.LBE62-.LBB62
 1946 0a1c 01       		.byte	0x1
 1947 0a1d 7D01     		.2byte	0x17d
 1948 0a1f 400A0000 		.4byte	0xa40
 1949 0a23 1A       		.uleb128 0x1a
 1950 0a24 A0040000 		.4byte	0x4a0
 1951 0a28 95040000 		.4byte	.LLST33
 1952 0a2c 1B       		.uleb128 0x1b
 1953 0a2d 52000000 		.4byte	.LBB63
 1954 0a31 08000000 		.4byte	.LBE63-.LBB63
 1955 0a35 1C       		.uleb128 0x1c
 1956 0a36 AB040000 		.4byte	0x4ab
 1957 0a3a C1040000 		.4byte	.LLST34
 1958 0a3e 00       		.byte	0
 1959 0a3f 00       		.byte	0
 1960 0a40 1D       		.uleb128 0x1d
 1961 0a41 24000000 		.4byte	.LVL52
 1962 0a45 730A0000 		.4byte	0xa73
 1963 0a49 1D       		.uleb128 0x1d
 1964 0a4a 60000000 		.4byte	.LVL60
 1965 0a4e 5E0A0000 		.4byte	0xa5e
 1966 0a52 00       		.byte	0
 1967 0a53 31       		.uleb128 0x31
 1968 0a54 4D040000 		.4byte	.LASF90
 1969 0a58 09       		.byte	0x9
 1970 0a59 6F       		.byte	0x6f
 1971 0a5a 78030000 		.4byte	0x378
 1972 0a5e 32       		.uleb128 0x32
 1973 0a5f 95030000 		.4byte	.LASF84
 1974 0a63 09       		.byte	0x9
 1975 0a64 90       		.byte	0x90
 1976 0a65 40020000 		.4byte	0x240
 1977 0a69 730A0000 		.4byte	0xa73
 1978 0a6d 33       		.uleb128 0x33
 1979 0a6e 40020000 		.4byte	0x240
 1980 0a72 00       		.byte	0
 1981 0a73 34       		.uleb128 0x34
 1982 0a74 DB000000 		.4byte	.LASF91
 1983 0a78 09       		.byte	0x9
ARM GAS  /var/folders/4k/6h5l9jl178sb4hslwv3xp1mr0000gn/T//cc7OGbjf.s 			page 36


 1984 0a79 9C       		.byte	0x9c
 1985 0a7a 35       		.uleb128 0x35
 1986 0a7b 6B030000 		.4byte	.LASF92
 1987 0a7f 09       		.byte	0x9
 1988 0a80 93       		.byte	0x93
 1989 0a81 8B0A0000 		.4byte	0xa8b
 1990 0a85 33       		.uleb128 0x33
 1991 0a86 BF000000 		.4byte	0xbf
 1992 0a8a 00       		.byte	0
 1993 0a8b 32       		.uleb128 0x32
 1994 0a8c 69040000 		.4byte	.LASF85
 1995 0a90 09       		.byte	0x9
 1996 0a91 96       		.byte	0x96
 1997 0a92 EB000000 		.4byte	0xeb
 1998 0a96 A50A0000 		.4byte	0xaa5
 1999 0a9a 33       		.uleb128 0x33
 2000 0a9b BF000000 		.4byte	0xbf
 2001 0a9f 33       		.uleb128 0x33
 2002 0aa0 01010000 		.4byte	0x101
 2003 0aa4 00       		.byte	0
 2004 0aa5 36       		.uleb128 0x36
 2005 0aa6 19040000 		.4byte	.LASF93
 2006 0aaa 09       		.byte	0x9
 2007 0aab 99       		.byte	0x99
 2008 0aac 33       		.uleb128 0x33
 2009 0aad 40020000 		.4byte	0x240
 2010 0ab1 33       		.uleb128 0x33
 2011 0ab2 EB000000 		.4byte	0xeb
 2012 0ab6 00       		.byte	0
 2013 0ab7 00       		.byte	0
 2014              		.section	.debug_abbrev,"",%progbits
 2015              	.Ldebug_abbrev0:
 2016 0000 01       		.uleb128 0x1
 2017 0001 11       		.uleb128 0x11
 2018 0002 01       		.byte	0x1
 2019 0003 25       		.uleb128 0x25
 2020 0004 0E       		.uleb128 0xe
 2021 0005 13       		.uleb128 0x13
 2022 0006 0B       		.uleb128 0xb
 2023 0007 03       		.uleb128 0x3
 2024 0008 0E       		.uleb128 0xe
 2025 0009 1B       		.uleb128 0x1b
 2026 000a 0E       		.uleb128 0xe
 2027 000b 55       		.uleb128 0x55
 2028 000c 17       		.uleb128 0x17
 2029 000d 11       		.uleb128 0x11
 2030 000e 01       		.uleb128 0x1
 2031 000f 10       		.uleb128 0x10
 2032 0010 17       		.uleb128 0x17
 2033 0011 00       		.byte	0
 2034 0012 00       		.byte	0
 2035 0013 02       		.uleb128 0x2
 2036 0014 24       		.uleb128 0x24
 2037 0015 00       		.byte	0
 2038 0016 0B       		.uleb128 0xb
 2039 0017 0B       		.uleb128 0xb
 2040 0018 3E       		.uleb128 0x3e
ARM GAS  /var/folders/4k/6h5l9jl178sb4hslwv3xp1mr0000gn/T//cc7OGbjf.s 			page 37


 2041 0019 0B       		.uleb128 0xb
 2042 001a 03       		.uleb128 0x3
 2043 001b 08       		.uleb128 0x8
 2044 001c 00       		.byte	0
 2045 001d 00       		.byte	0
 2046 001e 03       		.uleb128 0x3
 2047 001f 24       		.uleb128 0x24
 2048 0020 00       		.byte	0
 2049 0021 0B       		.uleb128 0xb
 2050 0022 0B       		.uleb128 0xb
 2051 0023 3E       		.uleb128 0x3e
 2052 0024 0B       		.uleb128 0xb
 2053 0025 03       		.uleb128 0x3
 2054 0026 0E       		.uleb128 0xe
 2055 0027 00       		.byte	0
 2056 0028 00       		.byte	0
 2057 0029 04       		.uleb128 0x4
 2058 002a 16       		.uleb128 0x16
 2059 002b 00       		.byte	0
 2060 002c 03       		.uleb128 0x3
 2061 002d 0E       		.uleb128 0xe
 2062 002e 3A       		.uleb128 0x3a
 2063 002f 0B       		.uleb128 0xb
 2064 0030 3B       		.uleb128 0x3b
 2065 0031 0B       		.uleb128 0xb
 2066 0032 49       		.uleb128 0x49
 2067 0033 13       		.uleb128 0x13
 2068 0034 00       		.byte	0
 2069 0035 00       		.byte	0
 2070 0036 05       		.uleb128 0x5
 2071 0037 13       		.uleb128 0x13
 2072 0038 01       		.byte	0x1
 2073 0039 03       		.uleb128 0x3
 2074 003a 0E       		.uleb128 0xe
 2075 003b 0B       		.uleb128 0xb
 2076 003c 0B       		.uleb128 0xb
 2077 003d 3A       		.uleb128 0x3a
 2078 003e 0B       		.uleb128 0xb
 2079 003f 3B       		.uleb128 0x3b
 2080 0040 0B       		.uleb128 0xb
 2081 0041 01       		.uleb128 0x1
 2082 0042 13       		.uleb128 0x13
 2083 0043 00       		.byte	0
 2084 0044 00       		.byte	0
 2085 0045 06       		.uleb128 0x6
 2086 0046 0D       		.uleb128 0xd
 2087 0047 00       		.byte	0
 2088 0048 03       		.uleb128 0x3
 2089 0049 0E       		.uleb128 0xe
 2090 004a 3A       		.uleb128 0x3a
 2091 004b 0B       		.uleb128 0xb
 2092 004c 3B       		.uleb128 0x3b
 2093 004d 0B       		.uleb128 0xb
 2094 004e 49       		.uleb128 0x49
 2095 004f 13       		.uleb128 0x13
 2096 0050 38       		.uleb128 0x38
 2097 0051 0B       		.uleb128 0xb
ARM GAS  /var/folders/4k/6h5l9jl178sb4hslwv3xp1mr0000gn/T//cc7OGbjf.s 			page 38


 2098 0052 00       		.byte	0
 2099 0053 00       		.byte	0
 2100 0054 07       		.uleb128 0x7
 2101 0055 0D       		.uleb128 0xd
 2102 0056 00       		.byte	0
 2103 0057 03       		.uleb128 0x3
 2104 0058 08       		.uleb128 0x8
 2105 0059 3A       		.uleb128 0x3a
 2106 005a 0B       		.uleb128 0xb
 2107 005b 3B       		.uleb128 0x3b
 2108 005c 0B       		.uleb128 0xb
 2109 005d 49       		.uleb128 0x49
 2110 005e 13       		.uleb128 0x13
 2111 005f 38       		.uleb128 0x38
 2112 0060 0B       		.uleb128 0xb
 2113 0061 00       		.byte	0
 2114 0062 00       		.byte	0
 2115 0063 08       		.uleb128 0x8
 2116 0064 13       		.uleb128 0x13
 2117 0065 01       		.byte	0x1
 2118 0066 0B       		.uleb128 0xb
 2119 0067 0B       		.uleb128 0xb
 2120 0068 3A       		.uleb128 0x3a
 2121 0069 0B       		.uleb128 0xb
 2122 006a 3B       		.uleb128 0x3b
 2123 006b 0B       		.uleb128 0xb
 2124 006c 01       		.uleb128 0x1
 2125 006d 13       		.uleb128 0x13
 2126 006e 00       		.byte	0
 2127 006f 00       		.byte	0
 2128 0070 09       		.uleb128 0x9
 2129 0071 0F       		.uleb128 0xf
 2130 0072 00       		.byte	0
 2131 0073 0B       		.uleb128 0xb
 2132 0074 0B       		.uleb128 0xb
 2133 0075 49       		.uleb128 0x49
 2134 0076 13       		.uleb128 0x13
 2135 0077 00       		.byte	0
 2136 0078 00       		.byte	0
 2137 0079 0A       		.uleb128 0xa
 2138 007a 0F       		.uleb128 0xf
 2139 007b 00       		.byte	0
 2140 007c 0B       		.uleb128 0xb
 2141 007d 0B       		.uleb128 0xb
 2142 007e 00       		.byte	0
 2143 007f 00       		.byte	0
 2144 0080 0B       		.uleb128 0xb
 2145 0081 13       		.uleb128 0x13
 2146 0082 01       		.byte	0x1
 2147 0083 03       		.uleb128 0x3
 2148 0084 0E       		.uleb128 0xe
 2149 0085 0B       		.uleb128 0xb
 2150 0086 0B       		.uleb128 0xb
 2151 0087 3A       		.uleb128 0x3a
 2152 0088 0B       		.uleb128 0xb
 2153 0089 3B       		.uleb128 0x3b
 2154 008a 05       		.uleb128 0x5
ARM GAS  /var/folders/4k/6h5l9jl178sb4hslwv3xp1mr0000gn/T//cc7OGbjf.s 			page 39


 2155 008b 01       		.uleb128 0x1
 2156 008c 13       		.uleb128 0x13
 2157 008d 00       		.byte	0
 2158 008e 00       		.byte	0
 2159 008f 0C       		.uleb128 0xc
 2160 0090 0D       		.uleb128 0xd
 2161 0091 00       		.byte	0
 2162 0092 03       		.uleb128 0x3
 2163 0093 08       		.uleb128 0x8
 2164 0094 3A       		.uleb128 0x3a
 2165 0095 0B       		.uleb128 0xb
 2166 0096 3B       		.uleb128 0x3b
 2167 0097 05       		.uleb128 0x5
 2168 0098 49       		.uleb128 0x49
 2169 0099 13       		.uleb128 0x13
 2170 009a 38       		.uleb128 0x38
 2171 009b 0B       		.uleb128 0xb
 2172 009c 00       		.byte	0
 2173 009d 00       		.byte	0
 2174 009e 0D       		.uleb128 0xd
 2175 009f 35       		.uleb128 0x35
 2176 00a0 00       		.byte	0
 2177 00a1 49       		.uleb128 0x49
 2178 00a2 13       		.uleb128 0x13
 2179 00a3 00       		.byte	0
 2180 00a4 00       		.byte	0
 2181 00a5 0E       		.uleb128 0xe
 2182 00a6 17       		.uleb128 0x17
 2183 00a7 01       		.byte	0x1
 2184 00a8 0B       		.uleb128 0xb
 2185 00a9 0B       		.uleb128 0xb
 2186 00aa 3A       		.uleb128 0x3a
 2187 00ab 0B       		.uleb128 0xb
 2188 00ac 3B       		.uleb128 0x3b
 2189 00ad 0B       		.uleb128 0xb
 2190 00ae 01       		.uleb128 0x1
 2191 00af 13       		.uleb128 0x13
 2192 00b0 00       		.byte	0
 2193 00b1 00       		.byte	0
 2194 00b2 0F       		.uleb128 0xf
 2195 00b3 0D       		.uleb128 0xd
 2196 00b4 00       		.byte	0
 2197 00b5 03       		.uleb128 0x3
 2198 00b6 0E       		.uleb128 0xe
 2199 00b7 3A       		.uleb128 0x3a
 2200 00b8 0B       		.uleb128 0xb
 2201 00b9 3B       		.uleb128 0x3b
 2202 00ba 0B       		.uleb128 0xb
 2203 00bb 49       		.uleb128 0x49
 2204 00bc 13       		.uleb128 0x13
 2205 00bd 00       		.byte	0
 2206 00be 00       		.byte	0
 2207 00bf 10       		.uleb128 0x10
 2208 00c0 26       		.uleb128 0x26
 2209 00c1 00       		.byte	0
 2210 00c2 49       		.uleb128 0x49
 2211 00c3 13       		.uleb128 0x13
ARM GAS  /var/folders/4k/6h5l9jl178sb4hslwv3xp1mr0000gn/T//cc7OGbjf.s 			page 40


 2212 00c4 00       		.byte	0
 2213 00c5 00       		.byte	0
 2214 00c6 11       		.uleb128 0x11
 2215 00c7 2E       		.uleb128 0x2e
 2216 00c8 01       		.byte	0x1
 2217 00c9 03       		.uleb128 0x3
 2218 00ca 0E       		.uleb128 0xe
 2219 00cb 3A       		.uleb128 0x3a
 2220 00cc 0B       		.uleb128 0xb
 2221 00cd 3B       		.uleb128 0x3b
 2222 00ce 0B       		.uleb128 0xb
 2223 00cf 27       		.uleb128 0x27
 2224 00d0 19       		.uleb128 0x19
 2225 00d1 49       		.uleb128 0x49
 2226 00d2 13       		.uleb128 0x13
 2227 00d3 20       		.uleb128 0x20
 2228 00d4 0B       		.uleb128 0xb
 2229 00d5 01       		.uleb128 0x1
 2230 00d6 13       		.uleb128 0x13
 2231 00d7 00       		.byte	0
 2232 00d8 00       		.byte	0
 2233 00d9 12       		.uleb128 0x12
 2234 00da 05       		.uleb128 0x5
 2235 00db 00       		.byte	0
 2236 00dc 03       		.uleb128 0x3
 2237 00dd 08       		.uleb128 0x8
 2238 00de 3A       		.uleb128 0x3a
 2239 00df 0B       		.uleb128 0xb
 2240 00e0 3B       		.uleb128 0x3b
 2241 00e1 0B       		.uleb128 0xb
 2242 00e2 49       		.uleb128 0x49
 2243 00e3 13       		.uleb128 0x13
 2244 00e4 00       		.byte	0
 2245 00e5 00       		.byte	0
 2246 00e6 13       		.uleb128 0x13
 2247 00e7 34       		.uleb128 0x34
 2248 00e8 00       		.byte	0
 2249 00e9 03       		.uleb128 0x3
 2250 00ea 08       		.uleb128 0x8
 2251 00eb 3A       		.uleb128 0x3a
 2252 00ec 0B       		.uleb128 0xb
 2253 00ed 3B       		.uleb128 0x3b
 2254 00ee 0B       		.uleb128 0xb
 2255 00ef 49       		.uleb128 0x49
 2256 00f0 13       		.uleb128 0x13
 2257 00f1 00       		.byte	0
 2258 00f2 00       		.byte	0
 2259 00f3 14       		.uleb128 0x14
 2260 00f4 2E       		.uleb128 0x2e
 2261 00f5 01       		.byte	0x1
 2262 00f6 03       		.uleb128 0x3
 2263 00f7 0E       		.uleb128 0xe
 2264 00f8 3A       		.uleb128 0x3a
 2265 00f9 0B       		.uleb128 0xb
 2266 00fa 3B       		.uleb128 0x3b
 2267 00fb 0B       		.uleb128 0xb
 2268 00fc 27       		.uleb128 0x27
ARM GAS  /var/folders/4k/6h5l9jl178sb4hslwv3xp1mr0000gn/T//cc7OGbjf.s 			page 41


 2269 00fd 19       		.uleb128 0x19
 2270 00fe 20       		.uleb128 0x20
 2271 00ff 0B       		.uleb128 0xb
 2272 0100 01       		.uleb128 0x1
 2273 0101 13       		.uleb128 0x13
 2274 0102 00       		.byte	0
 2275 0103 00       		.byte	0
 2276 0104 15       		.uleb128 0x15
 2277 0105 2E       		.uleb128 0x2e
 2278 0106 01       		.byte	0x1
 2279 0107 3F       		.uleb128 0x3f
 2280 0108 19       		.uleb128 0x19
 2281 0109 03       		.uleb128 0x3
 2282 010a 0E       		.uleb128 0xe
 2283 010b 3A       		.uleb128 0x3a
 2284 010c 0B       		.uleb128 0xb
 2285 010d 3B       		.uleb128 0x3b
 2286 010e 0B       		.uleb128 0xb
 2287 010f 27       		.uleb128 0x27
 2288 0110 19       		.uleb128 0x19
 2289 0111 11       		.uleb128 0x11
 2290 0112 01       		.uleb128 0x1
 2291 0113 12       		.uleb128 0x12
 2292 0114 06       		.uleb128 0x6
 2293 0115 40       		.uleb128 0x40
 2294 0116 18       		.uleb128 0x18
 2295 0117 9742     		.uleb128 0x2117
 2296 0119 19       		.uleb128 0x19
 2297 011a 01       		.uleb128 0x1
 2298 011b 13       		.uleb128 0x13
 2299 011c 00       		.byte	0
 2300 011d 00       		.byte	0
 2301 011e 16       		.uleb128 0x16
 2302 011f 05       		.uleb128 0x5
 2303 0120 00       		.byte	0
 2304 0121 03       		.uleb128 0x3
 2305 0122 08       		.uleb128 0x8
 2306 0123 3A       		.uleb128 0x3a
 2307 0124 0B       		.uleb128 0xb
 2308 0125 3B       		.uleb128 0x3b
 2309 0126 0B       		.uleb128 0xb
 2310 0127 49       		.uleb128 0x49
 2311 0128 13       		.uleb128 0x13
 2312 0129 02       		.uleb128 0x2
 2313 012a 18       		.uleb128 0x18
 2314 012b 00       		.byte	0
 2315 012c 00       		.byte	0
 2316 012d 17       		.uleb128 0x17
 2317 012e 05       		.uleb128 0x5
 2318 012f 00       		.byte	0
 2319 0130 03       		.uleb128 0x3
 2320 0131 08       		.uleb128 0x8
 2321 0132 3A       		.uleb128 0x3a
 2322 0133 0B       		.uleb128 0xb
 2323 0134 3B       		.uleb128 0x3b
 2324 0135 0B       		.uleb128 0xb
 2325 0136 49       		.uleb128 0x49
ARM GAS  /var/folders/4k/6h5l9jl178sb4hslwv3xp1mr0000gn/T//cc7OGbjf.s 			page 42


 2326 0137 13       		.uleb128 0x13
 2327 0138 02       		.uleb128 0x2
 2328 0139 17       		.uleb128 0x17
 2329 013a 00       		.byte	0
 2330 013b 00       		.byte	0
 2331 013c 18       		.uleb128 0x18
 2332 013d 34       		.uleb128 0x34
 2333 013e 00       		.byte	0
 2334 013f 03       		.uleb128 0x3
 2335 0140 08       		.uleb128 0x8
 2336 0141 3A       		.uleb128 0x3a
 2337 0142 0B       		.uleb128 0xb
 2338 0143 3B       		.uleb128 0x3b
 2339 0144 0B       		.uleb128 0xb
 2340 0145 49       		.uleb128 0x49
 2341 0146 13       		.uleb128 0x13
 2342 0147 02       		.uleb128 0x2
 2343 0148 17       		.uleb128 0x17
 2344 0149 00       		.byte	0
 2345 014a 00       		.byte	0
 2346 014b 19       		.uleb128 0x19
 2347 014c 1D       		.uleb128 0x1d
 2348 014d 01       		.byte	0x1
 2349 014e 31       		.uleb128 0x31
 2350 014f 13       		.uleb128 0x13
 2351 0150 11       		.uleb128 0x11
 2352 0151 01       		.uleb128 0x1
 2353 0152 12       		.uleb128 0x12
 2354 0153 06       		.uleb128 0x6
 2355 0154 58       		.uleb128 0x58
 2356 0155 0B       		.uleb128 0xb
 2357 0156 59       		.uleb128 0x59
 2358 0157 0B       		.uleb128 0xb
 2359 0158 01       		.uleb128 0x1
 2360 0159 13       		.uleb128 0x13
 2361 015a 00       		.byte	0
 2362 015b 00       		.byte	0
 2363 015c 1A       		.uleb128 0x1a
 2364 015d 05       		.uleb128 0x5
 2365 015e 00       		.byte	0
 2366 015f 31       		.uleb128 0x31
 2367 0160 13       		.uleb128 0x13
 2368 0161 02       		.uleb128 0x2
 2369 0162 17       		.uleb128 0x17
 2370 0163 00       		.byte	0
 2371 0164 00       		.byte	0
 2372 0165 1B       		.uleb128 0x1b
 2373 0166 0B       		.uleb128 0xb
 2374 0167 01       		.byte	0x1
 2375 0168 11       		.uleb128 0x11
 2376 0169 01       		.uleb128 0x1
 2377 016a 12       		.uleb128 0x12
 2378 016b 06       		.uleb128 0x6
 2379 016c 00       		.byte	0
 2380 016d 00       		.byte	0
 2381 016e 1C       		.uleb128 0x1c
 2382 016f 34       		.uleb128 0x34
ARM GAS  /var/folders/4k/6h5l9jl178sb4hslwv3xp1mr0000gn/T//cc7OGbjf.s 			page 43


 2383 0170 00       		.byte	0
 2384 0171 31       		.uleb128 0x31
 2385 0172 13       		.uleb128 0x13
 2386 0173 02       		.uleb128 0x2
 2387 0174 17       		.uleb128 0x17
 2388 0175 00       		.byte	0
 2389 0176 00       		.byte	0
 2390 0177 1D       		.uleb128 0x1d
 2391 0178 898201   		.uleb128 0x4109
 2392 017b 00       		.byte	0
 2393 017c 11       		.uleb128 0x11
 2394 017d 01       		.uleb128 0x1
 2395 017e 31       		.uleb128 0x31
 2396 017f 13       		.uleb128 0x13
 2397 0180 00       		.byte	0
 2398 0181 00       		.byte	0
 2399 0182 1E       		.uleb128 0x1e
 2400 0183 0B       		.uleb128 0xb
 2401 0184 01       		.byte	0x1
 2402 0185 11       		.uleb128 0x11
 2403 0186 01       		.uleb128 0x1
 2404 0187 12       		.uleb128 0x12
 2405 0188 06       		.uleb128 0x6
 2406 0189 01       		.uleb128 0x1
 2407 018a 13       		.uleb128 0x13
 2408 018b 00       		.byte	0
 2409 018c 00       		.byte	0
 2410 018d 1F       		.uleb128 0x1f
 2411 018e 34       		.uleb128 0x34
 2412 018f 00       		.byte	0
 2413 0190 03       		.uleb128 0x3
 2414 0191 08       		.uleb128 0x8
 2415 0192 3A       		.uleb128 0x3a
 2416 0193 0B       		.uleb128 0xb
 2417 0194 3B       		.uleb128 0x3b
 2418 0195 0B       		.uleb128 0xb
 2419 0196 49       		.uleb128 0x49
 2420 0197 13       		.uleb128 0x13
 2421 0198 02       		.uleb128 0x2
 2422 0199 18       		.uleb128 0x18
 2423 019a 00       		.byte	0
 2424 019b 00       		.byte	0
 2425 019c 20       		.uleb128 0x20
 2426 019d 898201   		.uleb128 0x4109
 2427 01a0 01       		.byte	0x1
 2428 01a1 11       		.uleb128 0x11
 2429 01a2 01       		.uleb128 0x1
 2430 01a3 31       		.uleb128 0x31
 2431 01a4 13       		.uleb128 0x13
 2432 01a5 01       		.uleb128 0x1
 2433 01a6 13       		.uleb128 0x13
 2434 01a7 00       		.byte	0
 2435 01a8 00       		.byte	0
 2436 01a9 21       		.uleb128 0x21
 2437 01aa 8A8201   		.uleb128 0x410a
 2438 01ad 00       		.byte	0
 2439 01ae 02       		.uleb128 0x2
ARM GAS  /var/folders/4k/6h5l9jl178sb4hslwv3xp1mr0000gn/T//cc7OGbjf.s 			page 44


 2440 01af 18       		.uleb128 0x18
 2441 01b0 9142     		.uleb128 0x2111
 2442 01b2 18       		.uleb128 0x18
 2443 01b3 00       		.byte	0
 2444 01b4 00       		.byte	0
 2445 01b5 22       		.uleb128 0x22
 2446 01b6 2E       		.uleb128 0x2e
 2447 01b7 01       		.byte	0x1
 2448 01b8 3F       		.uleb128 0x3f
 2449 01b9 19       		.uleb128 0x19
 2450 01ba 03       		.uleb128 0x3
 2451 01bb 0E       		.uleb128 0xe
 2452 01bc 3A       		.uleb128 0x3a
 2453 01bd 0B       		.uleb128 0xb
 2454 01be 3B       		.uleb128 0x3b
 2455 01bf 0B       		.uleb128 0xb
 2456 01c0 27       		.uleb128 0x27
 2457 01c1 19       		.uleb128 0x19
 2458 01c2 49       		.uleb128 0x49
 2459 01c3 13       		.uleb128 0x13
 2460 01c4 11       		.uleb128 0x11
 2461 01c5 01       		.uleb128 0x1
 2462 01c6 12       		.uleb128 0x12
 2463 01c7 06       		.uleb128 0x6
 2464 01c8 40       		.uleb128 0x40
 2465 01c9 18       		.uleb128 0x18
 2466 01ca 9742     		.uleb128 0x2117
 2467 01cc 19       		.uleb128 0x19
 2468 01cd 01       		.uleb128 0x1
 2469 01ce 13       		.uleb128 0x13
 2470 01cf 00       		.byte	0
 2471 01d0 00       		.byte	0
 2472 01d1 23       		.uleb128 0x23
 2473 01d2 1D       		.uleb128 0x1d
 2474 01d3 01       		.byte	0x1
 2475 01d4 31       		.uleb128 0x31
 2476 01d5 13       		.uleb128 0x13
 2477 01d6 52       		.uleb128 0x52
 2478 01d7 01       		.uleb128 0x1
 2479 01d8 55       		.uleb128 0x55
 2480 01d9 17       		.uleb128 0x17
 2481 01da 58       		.uleb128 0x58
 2482 01db 0B       		.uleb128 0xb
 2483 01dc 59       		.uleb128 0x59
 2484 01dd 0B       		.uleb128 0xb
 2485 01de 01       		.uleb128 0x1
 2486 01df 13       		.uleb128 0x13
 2487 01e0 00       		.byte	0
 2488 01e1 00       		.byte	0
 2489 01e2 24       		.uleb128 0x24
 2490 01e3 898201   		.uleb128 0x4109
 2491 01e6 01       		.byte	0x1
 2492 01e7 11       		.uleb128 0x11
 2493 01e8 01       		.uleb128 0x1
 2494 01e9 31       		.uleb128 0x31
 2495 01ea 13       		.uleb128 0x13
 2496 01eb 00       		.byte	0
ARM GAS  /var/folders/4k/6h5l9jl178sb4hslwv3xp1mr0000gn/T//cc7OGbjf.s 			page 45


 2497 01ec 00       		.byte	0
 2498 01ed 25       		.uleb128 0x25
 2499 01ee 05       		.uleb128 0x5
 2500 01ef 00       		.byte	0
 2501 01f0 03       		.uleb128 0x3
 2502 01f1 0E       		.uleb128 0xe
 2503 01f2 3A       		.uleb128 0x3a
 2504 01f3 0B       		.uleb128 0xb
 2505 01f4 3B       		.uleb128 0x3b
 2506 01f5 0B       		.uleb128 0xb
 2507 01f6 49       		.uleb128 0x49
 2508 01f7 13       		.uleb128 0x13
 2509 01f8 02       		.uleb128 0x2
 2510 01f9 17       		.uleb128 0x17
 2511 01fa 00       		.byte	0
 2512 01fb 00       		.byte	0
 2513 01fc 26       		.uleb128 0x26
 2514 01fd 1D       		.uleb128 0x1d
 2515 01fe 01       		.byte	0x1
 2516 01ff 31       		.uleb128 0x31
 2517 0200 13       		.uleb128 0x13
 2518 0201 52       		.uleb128 0x52
 2519 0202 01       		.uleb128 0x1
 2520 0203 55       		.uleb128 0x55
 2521 0204 17       		.uleb128 0x17
 2522 0205 58       		.uleb128 0x58
 2523 0206 0B       		.uleb128 0xb
 2524 0207 59       		.uleb128 0x59
 2525 0208 05       		.uleb128 0x5
 2526 0209 01       		.uleb128 0x1
 2527 020a 13       		.uleb128 0x13
 2528 020b 00       		.byte	0
 2529 020c 00       		.byte	0
 2530 020d 27       		.uleb128 0x27
 2531 020e 898201   		.uleb128 0x4109
 2532 0211 01       		.byte	0x1
 2533 0212 11       		.uleb128 0x11
 2534 0213 01       		.uleb128 0x1
 2535 0214 9542     		.uleb128 0x2115
 2536 0216 19       		.uleb128 0x19
 2537 0217 31       		.uleb128 0x31
 2538 0218 13       		.uleb128 0x13
 2539 0219 00       		.byte	0
 2540 021a 00       		.byte	0
 2541 021b 28       		.uleb128 0x28
 2542 021c 2E       		.uleb128 0x2e
 2543 021d 01       		.byte	0x1
 2544 021e 3F       		.uleb128 0x3f
 2545 021f 19       		.uleb128 0x19
 2546 0220 03       		.uleb128 0x3
 2547 0221 0E       		.uleb128 0xe
 2548 0222 3A       		.uleb128 0x3a
 2549 0223 0B       		.uleb128 0xb
 2550 0224 3B       		.uleb128 0x3b
 2551 0225 05       		.uleb128 0x5
 2552 0226 27       		.uleb128 0x27
 2553 0227 19       		.uleb128 0x19
ARM GAS  /var/folders/4k/6h5l9jl178sb4hslwv3xp1mr0000gn/T//cc7OGbjf.s 			page 46


 2554 0228 11       		.uleb128 0x11
 2555 0229 01       		.uleb128 0x1
 2556 022a 12       		.uleb128 0x12
 2557 022b 06       		.uleb128 0x6
 2558 022c 40       		.uleb128 0x40
 2559 022d 18       		.uleb128 0x18
 2560 022e 9742     		.uleb128 0x2117
 2561 0230 19       		.uleb128 0x19
 2562 0231 01       		.uleb128 0x1
 2563 0232 13       		.uleb128 0x13
 2564 0233 00       		.byte	0
 2565 0234 00       		.byte	0
 2566 0235 29       		.uleb128 0x29
 2567 0236 05       		.uleb128 0x5
 2568 0237 00       		.byte	0
 2569 0238 03       		.uleb128 0x3
 2570 0239 08       		.uleb128 0x8
 2571 023a 3A       		.uleb128 0x3a
 2572 023b 0B       		.uleb128 0xb
 2573 023c 3B       		.uleb128 0x3b
 2574 023d 05       		.uleb128 0x5
 2575 023e 49       		.uleb128 0x49
 2576 023f 13       		.uleb128 0x13
 2577 0240 02       		.uleb128 0x2
 2578 0241 17       		.uleb128 0x17
 2579 0242 00       		.byte	0
 2580 0243 00       		.byte	0
 2581 0244 2A       		.uleb128 0x2a
 2582 0245 34       		.uleb128 0x34
 2583 0246 00       		.byte	0
 2584 0247 03       		.uleb128 0x3
 2585 0248 08       		.uleb128 0x8
 2586 0249 3A       		.uleb128 0x3a
 2587 024a 0B       		.uleb128 0xb
 2588 024b 3B       		.uleb128 0x3b
 2589 024c 05       		.uleb128 0x5
 2590 024d 49       		.uleb128 0x49
 2591 024e 13       		.uleb128 0x13
 2592 024f 02       		.uleb128 0x2
 2593 0250 18       		.uleb128 0x18
 2594 0251 00       		.byte	0
 2595 0252 00       		.byte	0
 2596 0253 2B       		.uleb128 0x2b
 2597 0254 0B       		.uleb128 0xb
 2598 0255 01       		.byte	0x1
 2599 0256 55       		.uleb128 0x55
 2600 0257 17       		.uleb128 0x17
 2601 0258 01       		.uleb128 0x1
 2602 0259 13       		.uleb128 0x13
 2603 025a 00       		.byte	0
 2604 025b 00       		.byte	0
 2605 025c 2C       		.uleb128 0x2c
 2606 025d 0B       		.uleb128 0xb
 2607 025e 01       		.byte	0x1
 2608 025f 55       		.uleb128 0x55
 2609 0260 17       		.uleb128 0x17
 2610 0261 00       		.byte	0
ARM GAS  /var/folders/4k/6h5l9jl178sb4hslwv3xp1mr0000gn/T//cc7OGbjf.s 			page 47


 2611 0262 00       		.byte	0
 2612 0263 2D       		.uleb128 0x2d
 2613 0264 898201   		.uleb128 0x4109
 2614 0267 00       		.byte	0
 2615 0268 11       		.uleb128 0x11
 2616 0269 01       		.uleb128 0x1
 2617 026a 9542     		.uleb128 0x2115
 2618 026c 19       		.uleb128 0x19
 2619 026d 31       		.uleb128 0x31
 2620 026e 13       		.uleb128 0x13
 2621 026f 00       		.byte	0
 2622 0270 00       		.byte	0
 2623 0271 2E       		.uleb128 0x2e
 2624 0272 1D       		.uleb128 0x1d
 2625 0273 01       		.byte	0x1
 2626 0274 31       		.uleb128 0x31
 2627 0275 13       		.uleb128 0x13
 2628 0276 11       		.uleb128 0x11
 2629 0277 01       		.uleb128 0x1
 2630 0278 12       		.uleb128 0x12
 2631 0279 06       		.uleb128 0x6
 2632 027a 58       		.uleb128 0x58
 2633 027b 0B       		.uleb128 0xb
 2634 027c 59       		.uleb128 0x59
 2635 027d 05       		.uleb128 0x5
 2636 027e 01       		.uleb128 0x1
 2637 027f 13       		.uleb128 0x13
 2638 0280 00       		.byte	0
 2639 0281 00       		.byte	0
 2640 0282 2F       		.uleb128 0x2f
 2641 0283 2E       		.uleb128 0x2e
 2642 0284 01       		.byte	0x1
 2643 0285 3F       		.uleb128 0x3f
 2644 0286 19       		.uleb128 0x19
 2645 0287 03       		.uleb128 0x3
 2646 0288 0E       		.uleb128 0xe
 2647 0289 3A       		.uleb128 0x3a
 2648 028a 0B       		.uleb128 0xb
 2649 028b 3B       		.uleb128 0x3b
 2650 028c 05       		.uleb128 0x5
 2651 028d 27       		.uleb128 0x27
 2652 028e 19       		.uleb128 0x19
 2653 028f 49       		.uleb128 0x49
 2654 0290 13       		.uleb128 0x13
 2655 0291 11       		.uleb128 0x11
 2656 0292 01       		.uleb128 0x1
 2657 0293 12       		.uleb128 0x12
 2658 0294 06       		.uleb128 0x6
 2659 0295 40       		.uleb128 0x40
 2660 0296 18       		.uleb128 0x18
 2661 0297 9742     		.uleb128 0x2117
 2662 0299 19       		.uleb128 0x19
 2663 029a 01       		.uleb128 0x1
 2664 029b 13       		.uleb128 0x13
 2665 029c 00       		.byte	0
 2666 029d 00       		.byte	0
 2667 029e 30       		.uleb128 0x30
ARM GAS  /var/folders/4k/6h5l9jl178sb4hslwv3xp1mr0000gn/T//cc7OGbjf.s 			page 48


 2668 029f 34       		.uleb128 0x34
 2669 02a0 00       		.byte	0
 2670 02a1 03       		.uleb128 0x3
 2671 02a2 08       		.uleb128 0x8
 2672 02a3 3A       		.uleb128 0x3a
 2673 02a4 0B       		.uleb128 0xb
 2674 02a5 3B       		.uleb128 0x3b
 2675 02a6 05       		.uleb128 0x5
 2676 02a7 49       		.uleb128 0x49
 2677 02a8 13       		.uleb128 0x13
 2678 02a9 02       		.uleb128 0x2
 2679 02aa 17       		.uleb128 0x17
 2680 02ab 00       		.byte	0
 2681 02ac 00       		.byte	0
 2682 02ad 31       		.uleb128 0x31
 2683 02ae 34       		.uleb128 0x34
 2684 02af 00       		.byte	0
 2685 02b0 03       		.uleb128 0x3
 2686 02b1 0E       		.uleb128 0xe
 2687 02b2 3A       		.uleb128 0x3a
 2688 02b3 0B       		.uleb128 0xb
 2689 02b4 3B       		.uleb128 0x3b
 2690 02b5 0B       		.uleb128 0xb
 2691 02b6 49       		.uleb128 0x49
 2692 02b7 13       		.uleb128 0x13
 2693 02b8 3F       		.uleb128 0x3f
 2694 02b9 19       		.uleb128 0x19
 2695 02ba 3C       		.uleb128 0x3c
 2696 02bb 19       		.uleb128 0x19
 2697 02bc 00       		.byte	0
 2698 02bd 00       		.byte	0
 2699 02be 32       		.uleb128 0x32
 2700 02bf 2E       		.uleb128 0x2e
 2701 02c0 01       		.byte	0x1
 2702 02c1 3F       		.uleb128 0x3f
 2703 02c2 19       		.uleb128 0x19
 2704 02c3 03       		.uleb128 0x3
 2705 02c4 0E       		.uleb128 0xe
 2706 02c5 3A       		.uleb128 0x3a
 2707 02c6 0B       		.uleb128 0xb
 2708 02c7 3B       		.uleb128 0x3b
 2709 02c8 0B       		.uleb128 0xb
 2710 02c9 27       		.uleb128 0x27
 2711 02ca 19       		.uleb128 0x19
 2712 02cb 49       		.uleb128 0x49
 2713 02cc 13       		.uleb128 0x13
 2714 02cd 3C       		.uleb128 0x3c
 2715 02ce 19       		.uleb128 0x19
 2716 02cf 01       		.uleb128 0x1
 2717 02d0 13       		.uleb128 0x13
 2718 02d1 00       		.byte	0
 2719 02d2 00       		.byte	0
 2720 02d3 33       		.uleb128 0x33
 2721 02d4 05       		.uleb128 0x5
 2722 02d5 00       		.byte	0
 2723 02d6 49       		.uleb128 0x49
 2724 02d7 13       		.uleb128 0x13
ARM GAS  /var/folders/4k/6h5l9jl178sb4hslwv3xp1mr0000gn/T//cc7OGbjf.s 			page 49


 2725 02d8 00       		.byte	0
 2726 02d9 00       		.byte	0
 2727 02da 34       		.uleb128 0x34
 2728 02db 2E       		.uleb128 0x2e
 2729 02dc 00       		.byte	0
 2730 02dd 3F       		.uleb128 0x3f
 2731 02de 19       		.uleb128 0x19
 2732 02df 03       		.uleb128 0x3
 2733 02e0 0E       		.uleb128 0xe
 2734 02e1 3A       		.uleb128 0x3a
 2735 02e2 0B       		.uleb128 0xb
 2736 02e3 3B       		.uleb128 0x3b
 2737 02e4 0B       		.uleb128 0xb
 2738 02e5 27       		.uleb128 0x27
 2739 02e6 19       		.uleb128 0x19
 2740 02e7 3C       		.uleb128 0x3c
 2741 02e8 19       		.uleb128 0x19
 2742 02e9 00       		.byte	0
 2743 02ea 00       		.byte	0
 2744 02eb 35       		.uleb128 0x35
 2745 02ec 2E       		.uleb128 0x2e
 2746 02ed 01       		.byte	0x1
 2747 02ee 3F       		.uleb128 0x3f
 2748 02ef 19       		.uleb128 0x19
 2749 02f0 03       		.uleb128 0x3
 2750 02f1 0E       		.uleb128 0xe
 2751 02f2 3A       		.uleb128 0x3a
 2752 02f3 0B       		.uleb128 0xb
 2753 02f4 3B       		.uleb128 0x3b
 2754 02f5 0B       		.uleb128 0xb
 2755 02f6 27       		.uleb128 0x27
 2756 02f7 19       		.uleb128 0x19
 2757 02f8 3C       		.uleb128 0x3c
 2758 02f9 19       		.uleb128 0x19
 2759 02fa 01       		.uleb128 0x1
 2760 02fb 13       		.uleb128 0x13
 2761 02fc 00       		.byte	0
 2762 02fd 00       		.byte	0
 2763 02fe 36       		.uleb128 0x36
 2764 02ff 2E       		.uleb128 0x2e
 2765 0300 01       		.byte	0x1
 2766 0301 3F       		.uleb128 0x3f
 2767 0302 19       		.uleb128 0x19
 2768 0303 03       		.uleb128 0x3
 2769 0304 0E       		.uleb128 0xe
 2770 0305 3A       		.uleb128 0x3a
 2771 0306 0B       		.uleb128 0xb
 2772 0307 3B       		.uleb128 0x3b
 2773 0308 0B       		.uleb128 0xb
 2774 0309 27       		.uleb128 0x27
 2775 030a 19       		.uleb128 0x19
 2776 030b 3C       		.uleb128 0x3c
 2777 030c 19       		.uleb128 0x19
 2778 030d 00       		.byte	0
 2779 030e 00       		.byte	0
 2780 030f 00       		.byte	0
 2781              		.section	.debug_loc,"",%progbits
ARM GAS  /var/folders/4k/6h5l9jl178sb4hslwv3xp1mr0000gn/T//cc7OGbjf.s 			page 50


 2782              	.Ldebug_loc0:
 2783              	.LLST0:
 2784 0000 00000000 		.4byte	.LVL1
 2785 0004 12000000 		.4byte	.LVL4
 2786 0008 0100     		.2byte	0x1
 2787 000a 50       		.byte	0x50
 2788 000b 12000000 		.4byte	.LVL4
 2789 000f 28000000 		.4byte	.LFE9
 2790 0013 0100     		.2byte	0x1
 2791 0015 54       		.byte	0x54
 2792 0016 00000000 		.4byte	0
 2793 001a 00000000 		.4byte	0
 2794              	.LLST1:
 2795 001e 00000000 		.4byte	.LVL1
 2796 0022 12000000 		.4byte	.LVL4
 2797 0026 0100     		.2byte	0x1
 2798 0028 51       		.byte	0x51
 2799 0029 12000000 		.4byte	.LVL4
 2800 002d 28000000 		.4byte	.LFE9
 2801 0031 0400     		.2byte	0x4
 2802 0033 F3       		.byte	0xf3
 2803 0034 01       		.uleb128 0x1
 2804 0035 51       		.byte	0x51
 2805 0036 9F       		.byte	0x9f
 2806 0037 00000000 		.4byte	0
 2807 003b 00000000 		.4byte	0
 2808              	.LLST2:
 2809 003f 04000000 		.4byte	.LVL2
 2810 0043 20000000 		.4byte	.LVL7
 2811 0047 0100     		.2byte	0x1
 2812 0049 55       		.byte	0x55
 2813 004a 20000000 		.4byte	.LVL7
 2814 004e 24000000 		.4byte	.LVL8
 2815 0052 0300     		.2byte	0x3
 2816 0054 75       		.byte	0x75
 2817 0055 7F       		.sleb128 -1
 2818 0056 9F       		.byte	0x9f
 2819 0057 24000000 		.4byte	.LVL8
 2820 005b 28000000 		.4byte	.LFE9
 2821 005f 0100     		.2byte	0x1
 2822 0061 55       		.byte	0x55
 2823 0062 00000000 		.4byte	0
 2824 0066 00000000 		.4byte	0
 2825              	.LLST3:
 2826 006a 12000000 		.4byte	.LVL4
 2827 006e 26000000 		.4byte	.LVL9
 2828 0072 0100     		.2byte	0x1
 2829 0074 54       		.byte	0x54
 2830 0075 00000000 		.4byte	0
 2831 0079 00000000 		.4byte	0
 2832              	.LLST4:
 2833 007d 14000000 		.4byte	.LVL5
 2834 0081 1D000000 		.4byte	.LVL6-1
 2835 0085 0100     		.2byte	0x1
 2836 0087 50       		.byte	0x50
 2837 0088 00000000 		.4byte	0
 2838 008c 00000000 		.4byte	0
ARM GAS  /var/folders/4k/6h5l9jl178sb4hslwv3xp1mr0000gn/T//cc7OGbjf.s 			page 51


 2839              	.LLST5:
 2840 0090 00000000 		.4byte	.LVL10
 2841 0094 0B000000 		.4byte	.LVL11-1
 2842 0098 0100     		.2byte	0x1
 2843 009a 50       		.byte	0x50
 2844 009b 0B000000 		.4byte	.LVL11-1
 2845 009f 18000000 		.4byte	.LFE8
 2846 00a3 0400     		.2byte	0x4
 2847 00a5 F3       		.byte	0xf3
 2848 00a6 01       		.uleb128 0x1
 2849 00a7 50       		.byte	0x50
 2850 00a8 9F       		.byte	0x9f
 2851 00a9 00000000 		.4byte	0
 2852 00ad 00000000 		.4byte	0
 2853              	.LLST6:
 2854 00b1 00000000 		.4byte	.LVL10
 2855 00b5 0B000000 		.4byte	.LVL11-1
 2856 00b9 0100     		.2byte	0x1
 2857 00bb 51       		.byte	0x51
 2858 00bc 0B000000 		.4byte	.LVL11-1
 2859 00c0 18000000 		.4byte	.LFE8
 2860 00c4 0400     		.2byte	0x4
 2861 00c6 F3       		.byte	0xf3
 2862 00c7 01       		.uleb128 0x1
 2863 00c8 51       		.byte	0x51
 2864 00c9 9F       		.byte	0x9f
 2865 00ca 00000000 		.4byte	0
 2866 00ce 00000000 		.4byte	0
 2867              	.LLST7:
 2868 00d2 00000000 		.4byte	.LVL13
 2869 00d6 10000000 		.4byte	.LVL14
 2870 00da 0100     		.2byte	0x1
 2871 00dc 50       		.byte	0x50
 2872 00dd 10000000 		.4byte	.LVL14
 2873 00e1 12000000 		.4byte	.LVL15
 2874 00e5 0100     		.2byte	0x1
 2875 00e7 53       		.byte	0x53
 2876 00e8 12000000 		.4byte	.LVL15
 2877 00ec 22000000 		.4byte	.LVL18
 2878 00f0 0100     		.2byte	0x1
 2879 00f2 50       		.byte	0x50
 2880 00f3 22000000 		.4byte	.LVL18
 2881 00f7 27000000 		.4byte	.LVL20-1
 2882 00fb 0100     		.2byte	0x1
 2883 00fd 53       		.byte	0x53
 2884 00fe 27000000 		.4byte	.LVL20-1
 2885 0102 34000000 		.4byte	.LFE11
 2886 0106 0400     		.2byte	0x4
 2887 0108 F3       		.byte	0xf3
 2888 0109 01       		.uleb128 0x1
 2889 010a 50       		.byte	0x50
 2890 010b 9F       		.byte	0x9f
 2891 010c 00000000 		.4byte	0
 2892 0110 00000000 		.4byte	0
 2893              	.LLST8:
 2894 0114 18000000 		.4byte	.LVL16
 2895 0118 20000000 		.4byte	.LVL17
ARM GAS  /var/folders/4k/6h5l9jl178sb4hslwv3xp1mr0000gn/T//cc7OGbjf.s 			page 52


 2896 011c 0200     		.2byte	0x2
 2897 011e 72       		.byte	0x72
 2898 011f 24       		.sleb128 36
 2899 0120 20000000 		.4byte	.LVL17
 2900 0124 24000000 		.4byte	.LVL19
 2901 0128 0200     		.2byte	0x2
 2902 012a 72       		.byte	0x72
 2903 012b 00       		.sleb128 0
 2904 012c 24000000 		.4byte	.LVL19
 2905 0130 27000000 		.4byte	.LVL20-1
 2906 0134 0100     		.2byte	0x1
 2907 0136 53       		.byte	0x53
 2908 0137 27000000 		.4byte	.LVL20-1
 2909 013b 34000000 		.4byte	.LFE11
 2910 013f 0400     		.2byte	0x4
 2911 0141 F3       		.byte	0xf3
 2912 0142 01       		.uleb128 0x1
 2913 0143 50       		.byte	0x50
 2914 0144 9F       		.byte	0x9f
 2915 0145 00000000 		.4byte	0
 2916 0149 00000000 		.4byte	0
 2917              	.LLST9:
 2918 014d 18000000 		.4byte	.LVL16
 2919 0151 27000000 		.4byte	.LVL20-1
 2920 0155 0100     		.2byte	0x1
 2921 0157 52       		.byte	0x52
 2922 0158 00000000 		.4byte	0
 2923 015c 00000000 		.4byte	0
 2924              	.LLST10:
 2925 0160 00000000 		.4byte	.LVL21
 2926 0164 0B000000 		.4byte	.LVL22-1
 2927 0168 0100     		.2byte	0x1
 2928 016a 50       		.byte	0x50
 2929 016b 0B000000 		.4byte	.LVL22-1
 2930 016f 14000000 		.4byte	.LFE10
 2931 0173 0400     		.2byte	0x4
 2932 0175 F3       		.byte	0xf3
 2933 0176 01       		.uleb128 0x1
 2934 0177 50       		.byte	0x50
 2935 0178 9F       		.byte	0x9f
 2936 0179 00000000 		.4byte	0
 2937 017d 00000000 		.4byte	0
 2938              	.LLST11:
 2939 0181 00000000 		.4byte	.LVL23
 2940 0185 04000000 		.4byte	.LVL24
 2941 0189 0100     		.2byte	0x1
 2942 018b 50       		.byte	0x50
 2943 018c 04000000 		.4byte	.LVL24
 2944 0190 31000000 		.4byte	.LVL28-1
 2945 0194 0100     		.2byte	0x1
 2946 0196 53       		.byte	0x53
 2947 0197 31000000 		.4byte	.LVL28-1
 2948 019b 32000000 		.4byte	.LVL28
 2949 019f 0400     		.2byte	0x4
 2950 01a1 F3       		.byte	0xf3
 2951 01a2 01       		.uleb128 0x1
 2952 01a3 50       		.byte	0x50
ARM GAS  /var/folders/4k/6h5l9jl178sb4hslwv3xp1mr0000gn/T//cc7OGbjf.s 			page 53


 2953 01a4 9F       		.byte	0x9f
 2954 01a5 32000000 		.4byte	.LVL28
 2955 01a9 40000000 		.4byte	.LFE13
 2956 01ad 0100     		.2byte	0x1
 2957 01af 53       		.byte	0x53
 2958 01b0 00000000 		.4byte	0
 2959 01b4 00000000 		.4byte	0
 2960              	.LLST12:
 2961 01b8 00000000 		.4byte	.LVL23
 2962 01bc 31000000 		.4byte	.LVL28-1
 2963 01c0 0100     		.2byte	0x1
 2964 01c2 51       		.byte	0x51
 2965 01c3 31000000 		.4byte	.LVL28-1
 2966 01c7 32000000 		.4byte	.LVL28
 2967 01cb 0400     		.2byte	0x4
 2968 01cd F3       		.byte	0xf3
 2969 01ce 01       		.uleb128 0x1
 2970 01cf 51       		.byte	0x51
 2971 01d0 9F       		.byte	0x9f
 2972 01d1 32000000 		.4byte	.LVL28
 2973 01d5 40000000 		.4byte	.LFE13
 2974 01d9 0100     		.2byte	0x1
 2975 01db 51       		.byte	0x51
 2976 01dc 00000000 		.4byte	0
 2977 01e0 00000000 		.4byte	0
 2978              	.LLST13:
 2979 01e4 1E000000 		.4byte	.LVL25
 2980 01e8 28000000 		.4byte	.LVL26
 2981 01ec 0200     		.2byte	0x2
 2982 01ee 72       		.byte	0x72
 2983 01ef 24       		.sleb128 36
 2984 01f0 28000000 		.4byte	.LVL26
 2985 01f4 2A000000 		.4byte	.LVL27
 2986 01f8 0200     		.2byte	0x2
 2987 01fa 72       		.byte	0x72
 2988 01fb 00       		.sleb128 0
 2989 01fc 2A000000 		.4byte	.LVL27
 2990 0200 31000000 		.4byte	.LVL28-1
 2991 0204 0100     		.2byte	0x1
 2992 0206 53       		.byte	0x53
 2993 0207 31000000 		.4byte	.LVL28-1
 2994 020b 32000000 		.4byte	.LVL28
 2995 020f 0400     		.2byte	0x4
 2996 0211 F3       		.byte	0xf3
 2997 0212 01       		.uleb128 0x1
 2998 0213 50       		.byte	0x50
 2999 0214 9F       		.byte	0x9f
 3000 0215 00000000 		.4byte	0
 3001 0219 00000000 		.4byte	0
 3002              	.LLST14:
 3003 021d 1E000000 		.4byte	.LVL25
 3004 0221 31000000 		.4byte	.LVL28-1
 3005 0225 0100     		.2byte	0x1
 3006 0227 52       		.byte	0x52
 3007 0228 00000000 		.4byte	0
 3008 022c 00000000 		.4byte	0
 3009              	.LLST15:
ARM GAS  /var/folders/4k/6h5l9jl178sb4hslwv3xp1mr0000gn/T//cc7OGbjf.s 			page 54


 3010 0230 00000000 		.4byte	.LVL29
 3011 0234 0B000000 		.4byte	.LVL30-1
 3012 0238 0100     		.2byte	0x1
 3013 023a 50       		.byte	0x50
 3014 023b 0B000000 		.4byte	.LVL30-1
 3015 023f 14000000 		.4byte	.LFE12
 3016 0243 0400     		.2byte	0x4
 3017 0245 F3       		.byte	0xf3
 3018 0246 01       		.uleb128 0x1
 3019 0247 50       		.byte	0x50
 3020 0248 9F       		.byte	0x9f
 3021 0249 00000000 		.4byte	0
 3022 024d 00000000 		.4byte	0
 3023              	.LLST16:
 3024 0251 00000000 		.4byte	.LVL29
 3025 0255 0B000000 		.4byte	.LVL30-1
 3026 0259 0100     		.2byte	0x1
 3027 025b 51       		.byte	0x51
 3028 025c 0B000000 		.4byte	.LVL30-1
 3029 0260 14000000 		.4byte	.LFE12
 3030 0264 0400     		.2byte	0x4
 3031 0266 F3       		.byte	0xf3
 3032 0267 01       		.uleb128 0x1
 3033 0268 51       		.byte	0x51
 3034 0269 9F       		.byte	0x9f
 3035 026a 00000000 		.4byte	0
 3036 026e 00000000 		.4byte	0
 3037              	.LLST17:
 3038 0272 00000000 		.4byte	.LVL31
 3039 0276 1E000000 		.4byte	.LVL33
 3040 027a 0100     		.2byte	0x1
 3041 027c 50       		.byte	0x50
 3042 027d 1E000000 		.4byte	.LVL33
 3043 0281 29000000 		.4byte	.LVL34-1
 3044 0285 0100     		.2byte	0x1
 3045 0287 52       		.byte	0x52
 3046 0288 29000000 		.4byte	.LVL34-1
 3047 028c 32000000 		.4byte	.LFE14
 3048 0290 0400     		.2byte	0x4
 3049 0292 F3       		.byte	0xf3
 3050 0293 01       		.uleb128 0x1
 3051 0294 50       		.byte	0x50
 3052 0295 9F       		.byte	0x9f
 3053 0296 00000000 		.4byte	0
 3054 029a 00000000 		.4byte	0
 3055              	.LLST18:
 3056 029e 1C000000 		.4byte	.LVL32
 3057 02a2 1E000000 		.4byte	.LVL33
 3058 02a6 0100     		.2byte	0x1
 3059 02a8 50       		.byte	0x50
 3060 02a9 1E000000 		.4byte	.LVL33
 3061 02ad 29000000 		.4byte	.LVL34-1
 3062 02b1 0100     		.2byte	0x1
 3063 02b3 52       		.byte	0x52
 3064 02b4 29000000 		.4byte	.LVL34-1
 3065 02b8 32000000 		.4byte	.LFE14
 3066 02bc 0400     		.2byte	0x4
ARM GAS  /var/folders/4k/6h5l9jl178sb4hslwv3xp1mr0000gn/T//cc7OGbjf.s 			page 55


 3067 02be F3       		.byte	0xf3
 3068 02bf 01       		.uleb128 0x1
 3069 02c0 50       		.byte	0x50
 3070 02c1 9F       		.byte	0x9f
 3071 02c2 00000000 		.4byte	0
 3072 02c6 00000000 		.4byte	0
 3073              	.LLST19:
 3074 02ca 1E000000 		.4byte	.LVL33
 3075 02ce 29000000 		.4byte	.LVL34-1
 3076 02d2 0100     		.2byte	0x1
 3077 02d4 50       		.byte	0x50
 3078 02d5 00000000 		.4byte	0
 3079 02d9 00000000 		.4byte	0
 3080              	.LLST20:
 3081 02dd 00000000 		.4byte	.LVL35
 3082 02e1 18000000 		.4byte	.LVL38
 3083 02e5 0100     		.2byte	0x1
 3084 02e7 50       		.byte	0x50
 3085 02e8 18000000 		.4byte	.LVL38
 3086 02ec 1D000000 		.4byte	.LVL39-1
 3087 02f0 0200     		.2byte	0x2
 3088 02f2 72       		.byte	0x72
 3089 02f3 04       		.sleb128 4
 3090 02f4 1D000000 		.4byte	.LVL39-1
 3091 02f8 1E000000 		.4byte	.LFE15
 3092 02fc 0400     		.2byte	0x4
 3093 02fe F3       		.byte	0xf3
 3094 02ff 01       		.uleb128 0x1
 3095 0300 50       		.byte	0x50
 3096 0301 9F       		.byte	0x9f
 3097 0302 00000000 		.4byte	0
 3098 0306 00000000 		.4byte	0
 3099              	.LLST21:
 3100 030a 0C000000 		.4byte	.LVL36
 3101 030e 18000000 		.4byte	.LVL38
 3102 0312 0100     		.2byte	0x1
 3103 0314 50       		.byte	0x50
 3104 0315 18000000 		.4byte	.LVL38
 3105 0319 1D000000 		.4byte	.LVL39-1
 3106 031d 0200     		.2byte	0x2
 3107 031f 72       		.byte	0x72
 3108 0320 04       		.sleb128 4
 3109 0321 1D000000 		.4byte	.LVL39-1
 3110 0325 1E000000 		.4byte	.LFE15
 3111 0329 0400     		.2byte	0x4
 3112 032b F3       		.byte	0xf3
 3113 032c 01       		.uleb128 0x1
 3114 032d 50       		.byte	0x50
 3115 032e 9F       		.byte	0x9f
 3116 032f 00000000 		.4byte	0
 3117 0333 00000000 		.4byte	0
 3118              	.LLST22:
 3119 0337 0E000000 		.4byte	.LVL37
 3120 033b 1D000000 		.4byte	.LVL39-1
 3121 033f 0100     		.2byte	0x1
 3122 0341 53       		.byte	0x53
 3123 0342 00000000 		.4byte	0
ARM GAS  /var/folders/4k/6h5l9jl178sb4hslwv3xp1mr0000gn/T//cc7OGbjf.s 			page 56


 3124 0346 00000000 		.4byte	0
 3125              	.LLST23:
 3126 034a 00000000 		.4byte	.LVL40
 3127 034e 0C000000 		.4byte	.LVL41
 3128 0352 0100     		.2byte	0x1
 3129 0354 50       		.byte	0x50
 3130 0355 0C000000 		.4byte	.LVL41
 3131 0359 2E000000 		.4byte	.LFE16
 3132 035d 0100     		.2byte	0x1
 3133 035f 55       		.byte	0x55
 3134 0360 00000000 		.4byte	0
 3135 0364 00000000 		.4byte	0
 3136              	.LLST24:
 3137 0368 00000000 		.4byte	.LVL40
 3138 036c 0C000000 		.4byte	.LVL41
 3139 0370 0100     		.2byte	0x1
 3140 0372 51       		.byte	0x51
 3141 0373 0C000000 		.4byte	.LVL41
 3142 0377 0E000000 		.4byte	.LVL42
 3143 037b 0300     		.2byte	0x3
 3144 037d 74       		.byte	0x74
 3145 037e 7F       		.sleb128 -1
 3146 037f 9F       		.byte	0x9f
 3147 0380 0E000000 		.4byte	.LVL42
 3148 0384 28000000 		.4byte	.LVL47
 3149 0388 0100     		.2byte	0x1
 3150 038a 54       		.byte	0x54
 3151 038b 28000000 		.4byte	.LVL47
 3152 038f 2A000000 		.4byte	.LVL48
 3153 0393 0300     		.2byte	0x3
 3154 0395 74       		.byte	0x74
 3155 0396 01       		.sleb128 1
 3156 0397 9F       		.byte	0x9f
 3157 0398 00000000 		.4byte	0
 3158 039c 00000000 		.4byte	0
 3159              	.LLST25:
 3160 03a0 1A000000 		.4byte	.LVL44
 3161 03a4 2C000000 		.4byte	.LVL49
 3162 03a8 0100     		.2byte	0x1
 3163 03aa 55       		.byte	0x55
 3164 03ab 00000000 		.4byte	0
 3165 03af 00000000 		.4byte	0
 3166              	.LLST26:
 3167 03b3 1C000000 		.4byte	.LVL45
 3168 03b7 25000000 		.4byte	.LVL46-1
 3169 03bb 0100     		.2byte	0x1
 3170 03bd 50       		.byte	0x50
 3171 03be 00000000 		.4byte	0
 3172 03c2 00000000 		.4byte	0
 3173              	.LLST27:
 3174 03c6 00000000 		.4byte	.LVL50
 3175 03ca 16000000 		.4byte	.LVL51
 3176 03ce 0100     		.2byte	0x1
 3177 03d0 50       		.byte	0x50
 3178 03d1 16000000 		.4byte	.LVL51
 3179 03d5 52000000 		.4byte	.LVL58
 3180 03d9 0400     		.2byte	0x4
ARM GAS  /var/folders/4k/6h5l9jl178sb4hslwv3xp1mr0000gn/T//cc7OGbjf.s 			page 57


 3181 03db F3       		.byte	0xf3
 3182 03dc 01       		.uleb128 0x1
 3183 03dd 50       		.byte	0x50
 3184 03de 9F       		.byte	0x9f
 3185 03df 52000000 		.4byte	.LVL58
 3186 03e3 54000000 		.4byte	.LVL59
 3187 03e7 0100     		.2byte	0x1
 3188 03e9 50       		.byte	0x50
 3189 03ea 54000000 		.4byte	.LVL59
 3190 03ee 5F000000 		.4byte	.LVL60-1
 3191 03f2 0100     		.2byte	0x1
 3192 03f4 52       		.byte	0x52
 3193 03f5 5F000000 		.4byte	.LVL60-1
 3194 03f9 6C000000 		.4byte	.LFE17
 3195 03fd 0400     		.2byte	0x4
 3196 03ff F3       		.byte	0xf3
 3197 0400 01       		.uleb128 0x1
 3198 0401 50       		.byte	0x50
 3199 0402 9F       		.byte	0x9f
 3200 0403 00000000 		.4byte	0
 3201 0407 00000000 		.4byte	0
 3202              	.LLST28:
 3203 040b 00000000 		.4byte	.LVL50
 3204 040f 16000000 		.4byte	.LVL51
 3205 0413 0100     		.2byte	0x1
 3206 0415 51       		.byte	0x51
 3207 0416 16000000 		.4byte	.LVL51
 3208 041a 52000000 		.4byte	.LVL58
 3209 041e 0400     		.2byte	0x4
 3210 0420 F3       		.byte	0xf3
 3211 0421 01       		.uleb128 0x1
 3212 0422 51       		.byte	0x51
 3213 0423 9F       		.byte	0x9f
 3214 0424 52000000 		.4byte	.LVL58
 3215 0428 5F000000 		.4byte	.LVL60-1
 3216 042c 0100     		.2byte	0x1
 3217 042e 51       		.byte	0x51
 3218 042f 5F000000 		.4byte	.LVL60-1
 3219 0433 6C000000 		.4byte	.LFE17
 3220 0437 0400     		.2byte	0x4
 3221 0439 F3       		.byte	0xf3
 3222 043a 01       		.uleb128 0x1
 3223 043b 51       		.byte	0x51
 3224 043c 9F       		.byte	0x9f
 3225 043d 00000000 		.4byte	0
 3226 0441 00000000 		.4byte	0
 3227              	.LLST29:
 3228 0445 24000000 		.4byte	.LVL52
 3229 0449 26000000 		.4byte	.LVL53
 3230 044d 0200     		.2byte	0x2
 3231 044f 30       		.byte	0x30
 3232 0450 9F       		.byte	0x9f
 3233 0451 26000000 		.4byte	.LVL53
 3234 0455 30000000 		.4byte	.LVL54
 3235 0459 0100     		.2byte	0x1
 3236 045b 50       		.byte	0x50
 3237 045c 48000000 		.4byte	.LVL57
ARM GAS  /var/folders/4k/6h5l9jl178sb4hslwv3xp1mr0000gn/T//cc7OGbjf.s 			page 58


 3238 0460 52000000 		.4byte	.LVL58
 3239 0464 0100     		.2byte	0x1
 3240 0466 50       		.byte	0x50
 3241 0467 00000000 		.4byte	0
 3242 046b 00000000 		.4byte	0
 3243              	.LLST30:
 3244 046f 36000000 		.4byte	.LVL55
 3245 0473 52000000 		.4byte	.LVL58
 3246 0477 0100     		.2byte	0x1
 3247 0479 54       		.byte	0x54
 3248 047a 00000000 		.4byte	0
 3249 047e 00000000 		.4byte	0
 3250              	.LLST31:
 3251 0482 36000000 		.4byte	.LVL55
 3252 0486 45000000 		.4byte	.LVL56-1
 3253 048a 0100     		.2byte	0x1
 3254 048c 51       		.byte	0x51
 3255 048d 00000000 		.4byte	0
 3256 0491 00000000 		.4byte	0
 3257              	.LLST33:
 3258 0495 52000000 		.4byte	.LVL58
 3259 0499 54000000 		.4byte	.LVL59
 3260 049d 0100     		.2byte	0x1
 3261 049f 50       		.byte	0x50
 3262 04a0 54000000 		.4byte	.LVL59
 3263 04a4 5F000000 		.4byte	.LVL60-1
 3264 04a8 0100     		.2byte	0x1
 3265 04aa 52       		.byte	0x52
 3266 04ab 5F000000 		.4byte	.LVL60-1
 3267 04af 6C000000 		.4byte	.LFE17
 3268 04b3 0400     		.2byte	0x4
 3269 04b5 F3       		.byte	0xf3
 3270 04b6 01       		.uleb128 0x1
 3271 04b7 50       		.byte	0x50
 3272 04b8 9F       		.byte	0x9f
 3273 04b9 00000000 		.4byte	0
 3274 04bd 00000000 		.4byte	0
 3275              	.LLST34:
 3276 04c1 54000000 		.4byte	.LVL59
 3277 04c5 5F000000 		.4byte	.LVL60-1
 3278 04c9 0100     		.2byte	0x1
 3279 04cb 50       		.byte	0x50
 3280 04cc 00000000 		.4byte	0
 3281 04d0 00000000 		.4byte	0
 3282              		.section	.debug_aranges,"",%progbits
 3283 0000 6C000000 		.4byte	0x6c
 3284 0004 0200     		.2byte	0x2
 3285 0006 00000000 		.4byte	.Ldebug_info0
 3286 000a 04       		.byte	0x4
 3287 000b 00       		.byte	0
 3288 000c 0000     		.2byte	0
 3289 000e 0000     		.2byte	0
 3290 0010 00000000 		.4byte	.LFB7
 3291 0014 08000000 		.4byte	.LFE7-.LFB7
 3292 0018 00000000 		.4byte	.LFB9
 3293 001c 28000000 		.4byte	.LFE9-.LFB9
 3294 0020 00000000 		.4byte	.LFB8
ARM GAS  /var/folders/4k/6h5l9jl178sb4hslwv3xp1mr0000gn/T//cc7OGbjf.s 			page 59


 3295 0024 18000000 		.4byte	.LFE8-.LFB8
 3296 0028 00000000 		.4byte	.LFB11
 3297 002c 34000000 		.4byte	.LFE11-.LFB11
 3298 0030 00000000 		.4byte	.LFB10
 3299 0034 14000000 		.4byte	.LFE10-.LFB10
 3300 0038 00000000 		.4byte	.LFB13
 3301 003c 40000000 		.4byte	.LFE13-.LFB13
 3302 0040 00000000 		.4byte	.LFB12
 3303 0044 14000000 		.4byte	.LFE12-.LFB12
 3304 0048 00000000 		.4byte	.LFB14
 3305 004c 32000000 		.4byte	.LFE14-.LFB14
 3306 0050 00000000 		.4byte	.LFB15
 3307 0054 1E000000 		.4byte	.LFE15-.LFB15
 3308 0058 00000000 		.4byte	.LFB16
 3309 005c 2E000000 		.4byte	.LFE16-.LFB16
 3310 0060 00000000 		.4byte	.LFB17
 3311 0064 6C000000 		.4byte	.LFE17-.LFB17
 3312 0068 00000000 		.4byte	0
 3313 006c 00000000 		.4byte	0
 3314              		.section	.debug_ranges,"",%progbits
 3315              	.Ldebug_ranges0:
 3316 0000 18000000 		.4byte	.LBB28
 3317 0004 20000000 		.4byte	.LBE28
 3318 0008 22000000 		.4byte	.LBB31
 3319 000c 24000000 		.4byte	.LBE31
 3320 0010 00000000 		.4byte	0
 3321 0014 00000000 		.4byte	0
 3322 0018 1E000000 		.4byte	.LBB34
 3323 001c 20000000 		.4byte	.LBE34
 3324 0020 22000000 		.4byte	.LBB37
 3325 0024 2A000000 		.4byte	.LBE37
 3326 0028 00000000 		.4byte	0
 3327 002c 00000000 		.4byte	0
 3328 0030 14000000 		.4byte	.LBB41
 3329 0034 1C000000 		.4byte	.LBE41
 3330 0038 2A000000 		.4byte	.LBB46
 3331 003c 32000000 		.4byte	.LBE46
 3332 0040 00000000 		.4byte	0
 3333 0044 00000000 		.4byte	0
 3334 0048 1C000000 		.4byte	.LBB42
 3335 004c 22000000 		.4byte	.LBE42
 3336 0050 24000000 		.4byte	.LBB45
 3337 0054 26000000 		.4byte	.LBE45
 3338 0058 00000000 		.4byte	0
 3339 005c 00000000 		.4byte	0
 3340 0060 0C000000 		.4byte	.LBB48
 3341 0064 12000000 		.4byte	.LBE48
 3342 0068 14000000 		.4byte	.LBB51
 3343 006c 16000000 		.4byte	.LBE51
 3344 0070 00000000 		.4byte	0
 3345 0074 00000000 		.4byte	0
 3346 0078 26000000 		.4byte	.LBB55
 3347 007c 2C000000 		.4byte	.LBE55
 3348 0080 48000000 		.4byte	.LBB61
 3349 0084 4E000000 		.4byte	.LBE61
 3350 0088 00000000 		.4byte	0
 3351 008c 00000000 		.4byte	0
ARM GAS  /var/folders/4k/6h5l9jl178sb4hslwv3xp1mr0000gn/T//cc7OGbjf.s 			page 60


 3352 0090 32000000 		.4byte	.LBB57
 3353 0094 34000000 		.4byte	.LBE57
 3354 0098 38000000 		.4byte	.LBB60
 3355 009c 40000000 		.4byte	.LBE60
 3356 00a0 00000000 		.4byte	0
 3357 00a4 00000000 		.4byte	0
 3358 00a8 00000000 		.4byte	.LFB7
 3359 00ac 08000000 		.4byte	.LFE7
 3360 00b0 00000000 		.4byte	.LFB9
 3361 00b4 28000000 		.4byte	.LFE9
 3362 00b8 00000000 		.4byte	.LFB8
 3363 00bc 18000000 		.4byte	.LFE8
 3364 00c0 00000000 		.4byte	.LFB11
 3365 00c4 34000000 		.4byte	.LFE11
 3366 00c8 00000000 		.4byte	.LFB10
 3367 00cc 14000000 		.4byte	.LFE10
 3368 00d0 00000000 		.4byte	.LFB13
 3369 00d4 40000000 		.4byte	.LFE13
 3370 00d8 00000000 		.4byte	.LFB12
 3371 00dc 14000000 		.4byte	.LFE12
 3372 00e0 00000000 		.4byte	.LFB14
 3373 00e4 32000000 		.4byte	.LFE14
 3374 00e8 00000000 		.4byte	.LFB15
 3375 00ec 1E000000 		.4byte	.LFE15
 3376 00f0 00000000 		.4byte	.LFB16
 3377 00f4 2E000000 		.4byte	.LFE16
 3378 00f8 00000000 		.4byte	.LFB17
 3379 00fc 6C000000 		.4byte	.LFE17
 3380 0100 00000000 		.4byte	0
 3381 0104 00000000 		.4byte	0
 3382              		.section	.debug_line,"",%progbits
 3383              	.Ldebug_line0:
 3384 0000 9B030000 		.section	.debug_str,"MS",%progbits,1
 3384      0200D801 
 3384      00000201 
 3384      FB0E0D00 
 3384      01010101 
 3385              	.LASF40:
 3386 0000 705F6D73 		.ascii	"p_msg\000"
 3386      6700
 3387              	.LASF89:
 3388 0006 71756575 		.ascii	"queue_insert\000"
 3388      655F696E 
 3388      73657274 
 3388      00
 3389              	.LASF81:
 3390 0013 63685365 		.ascii	"chSemSignalI\000"
 3390      6D536967 
 3390      6E616C49 
 3390      00
 3391              	.LASF65:
 3392 0020 7264796D 		.ascii	"rdymsg\000"
 3392      736700
 3393              	.LASF5:
 3394 0027 5F5F7569 		.ascii	"__uint8_t\000"
 3394      6E74385F 
 3394      7400
ARM GAS  /var/folders/4k/6h5l9jl178sb4hslwv3xp1mr0000gn/T//cc7OGbjf.s 			page 61


 3395              	.LASF11:
 3396 0031 6C6F6E67 		.ascii	"long long unsigned int\000"
 3396      206C6F6E 
 3396      6720756E 
 3396      7369676E 
 3396      65642069 
 3397              	.LASF66:
 3398 0048 65786974 		.ascii	"exitcode\000"
 3398      636F6465 
 3398      00
 3399              	.LASF82:
 3400 0051 63685365 		.ascii	"chSemAddCounterI\000"
 3400      6D416464 
 3400      436F756E 
 3400      74657249 
 3400      00
 3401              	.LASF28:
 3402 0062 705F7072 		.ascii	"p_prio\000"
 3402      696F00
 3403              	.LASF10:
 3404 0069 6C6F6E67 		.ascii	"long long int\000"
 3404      206C6F6E 
 3404      6720696E 
 3404      7400
 3405              	.LASF1:
 3406 0077 7369676E 		.ascii	"signed char\000"
 3406      65642063 
 3406      68617200 
 3407              	.LASF83:
 3408 0083 63685365 		.ascii	"chSemSignalWait\000"
 3408      6D536967 
 3408      6E616C57 
 3408      61697400 
 3409              	.LASF44:
 3410 0093 705F6D70 		.ascii	"p_mpool\000"
 3410      6F6F6C00 
 3411              	.LASF62:
 3412 009b 6D5F7175 		.ascii	"m_queue\000"
 3412      65756500 
 3413              	.LASF19:
 3414 00a3 74736C69 		.ascii	"tslices_t\000"
 3414      6365735F 
 3414      7400
 3415              	.LASF7:
 3416 00ad 6C6F6E67 		.ascii	"long int\000"
 3416      20696E74 
 3416      00
 3417              	.LASF17:
 3418 00b6 74737461 		.ascii	"tstate_t\000"
 3418      74655F74 
 3418      00
 3419              	.LASF80:
 3420 00bf 63685365 		.ascii	"chSemSignal\000"
 3420      6D536967 
 3420      6E616C00 
 3421              	.LASF30:
 3422 00cb 705F6E65 		.ascii	"p_newer\000"
ARM GAS  /var/folders/4k/6h5l9jl178sb4hslwv3xp1mr0000gn/T//cc7OGbjf.s 			page 62


 3422      77657200 
 3423              	.LASF59:
 3424 00d3 735F7175 		.ascii	"s_queue\000"
 3424      65756500 
 3425              	.LASF91:
 3426 00db 63685363 		.ascii	"chSchRescheduleS\000"
 3426      68526573 
 3426      63686564 
 3426      756C6553 
 3426      00
 3427              	.LASF8:
 3428 00ec 5F5F7569 		.ascii	"__uint32_t\000"
 3428      6E743332 
 3428      5F7400
 3429              	.LASF47:
 3430 00f7 72656761 		.ascii	"regarm_t\000"
 3430      726D5F74 
 3430      00
 3431              	.LASF24:
 3432 0100 636E745F 		.ascii	"cnt_t\000"
 3432      7400
 3433              	.LASF0:
 3434 0106 756E7369 		.ascii	"unsigned int\000"
 3434      676E6564 
 3434      20696E74 
 3434      00
 3435              	.LASF79:
 3436 0113 63685365 		.ascii	"chSemWaitTimeout\000"
 3436      6D576169 
 3436      7454696D 
 3436      656F7574 
 3436      00
 3437              	.LASF9:
 3438 0124 6C6F6E67 		.ascii	"long unsigned int\000"
 3438      20756E73 
 3438      69676E65 
 3438      6420696E 
 3438      7400
 3439              	.LASF60:
 3440 0136 735F636E 		.ascii	"s_cnt\000"
 3440      7400
 3441              	.LASF49:
 3442 013c 636F6E74 		.ascii	"context\000"
 3442      65787400 
 3443              	.LASF4:
 3444 0144 73686F72 		.ascii	"short unsigned int\000"
 3444      7420756E 
 3444      7369676E 
 3444      65642069 
 3444      6E7400
 3445              	.LASF74:
 3446 0157 63685365 		.ascii	"chSemReset\000"
 3446      6D526573 
 3446      657400
 3447              	.LASF21:
 3448 0162 6D73675F 		.ascii	"msg_t\000"
 3448      7400
ARM GAS  /var/folders/4k/6h5l9jl178sb4hslwv3xp1mr0000gn/T//cc7OGbjf.s 			page 63


 3449              	.LASF54:
 3450 0168 725F6E65 		.ascii	"r_newer\000"
 3450      77657200 
 3451              	.LASF16:
 3452 0170 746D6F64 		.ascii	"tmode_t\000"
 3452      655F7400 
 3453              	.LASF46:
 3454 0178 54687265 		.ascii	"ThreadsList\000"
 3454      6164734C 
 3454      69737400 
 3455              	.LASF22:
 3456 0184 6576656E 		.ascii	"eventmask_t\000"
 3456      746D6173 
 3456      6B5F7400 
 3457              	.LASF61:
 3458 0190 4D757465 		.ascii	"Mutex\000"
 3458      7800
 3459              	.LASF50:
 3460 0196 73697A65 		.ascii	"sizetype\000"
 3460      74797065 
 3460      00
 3461              	.LASF31:
 3462 019f 705F6F6C 		.ascii	"p_older\000"
 3462      64657200 
 3463              	.LASF53:
 3464 01a7 725F6374 		.ascii	"r_ctx\000"
 3464      7800
 3465              	.LASF45:
 3466 01ad 54687265 		.ascii	"ThreadsQueue\000"
 3466      61647351 
 3466      75657565 
 3466      00
 3467              	.LASF78:
 3468 01ba 74696D65 		.ascii	"time\000"
 3468      00
 3469              	.LASF56:
 3470 01bf 725F6375 		.ascii	"r_current\000"
 3470      7272656E 
 3470      7400
 3471              	.LASF55:
 3472 01c9 725F6F6C 		.ascii	"r_older\000"
 3472      64657200 
 3473              	.LASF18:
 3474 01d1 74726566 		.ascii	"trefs_t\000"
 3474      735F7400 
 3475              	.LASF27:
 3476 01d9 705F7072 		.ascii	"p_prev\000"
 3476      657600
 3477              	.LASF20:
 3478 01e0 74707269 		.ascii	"tprio_t\000"
 3478      6F5F7400 
 3479              	.LASF15:
 3480 01e8 5F426F6F 		.ascii	"_Bool\000"
 3480      6C00
 3481              	.LASF13:
 3482 01ee 696E7433 		.ascii	"int32_t\000"
 3482      325F7400 
ARM GAS  /var/folders/4k/6h5l9jl178sb4hslwv3xp1mr0000gn/T//cc7OGbjf.s 			page 64


 3483              	.LASF2:
 3484 01f6 756E7369 		.ascii	"unsigned char\000"
 3484      676E6564 
 3484      20636861 
 3484      7200
 3485              	.LASF86:
 3486 0204 474E5520 		.ascii	"GNU C 4.8.3 20140228 (release) [ARM/embedded-4_8-br"
 3486      4320342E 
 3486      382E3320 
 3486      32303134 
 3486      30323238 
 3487 0237 616E6368 		.ascii	"anch revision 208322] -mcpu=cortex-m4 -mno-thumb-in"
 3487      20726576 
 3487      6973696F 
 3487      6E203230 
 3487      38333232 
 3488 026a 74657277 		.ascii	"terwork -mthumb -ggdb -O2 -fomit-frame-pointer -fal"
 3488      6F726B20 
 3488      2D6D7468 
 3488      756D6220 
 3488      2D676764 
 3489 029d 69676E2D 		.ascii	"ign-functions=16 -ffunction-sections -fdata-section"
 3489      66756E63 
 3489      74696F6E 
 3489      733D3136 
 3489      202D6666 
 3490 02d0 73202D66 		.ascii	"s -fno-common\000"
 3490      6E6F2D63 
 3490      6F6D6D6F 
 3490      6E00
 3491              	.LASF42:
 3492 02de 705F6D74 		.ascii	"p_mtxlist\000"
 3492      786C6973 
 3492      7400
 3493              	.LASF3:
 3494 02e8 73686F72 		.ascii	"short int\000"
 3494      7420696E 
 3494      7400
 3495              	.LASF33:
 3496 02f2 705F7374 		.ascii	"p_state\000"
 3496      61746500 
 3497              	.LASF36:
 3498 02fa 705F7072 		.ascii	"p_preempt\000"
 3498      65656D70 
 3498      7400
 3499              	.LASF52:
 3500 0304 725F7072 		.ascii	"r_prio\000"
 3500      696F00
 3501              	.LASF68:
 3502 030b 65776D61 		.ascii	"ewmask\000"
 3502      736B00
 3503              	.LASF26:
 3504 0312 705F6E65 		.ascii	"p_next\000"
 3504      787400
 3505              	.LASF34:
 3506 0319 705F666C 		.ascii	"p_flags\000"
 3506      61677300 
ARM GAS  /var/folders/4k/6h5l9jl178sb4hslwv3xp1mr0000gn/T//cc7OGbjf.s 			page 65


 3507              	.LASF75:
 3508 0321 63685365 		.ascii	"chSemWaitS\000"
 3508      6D576169 
 3508      745300
 3509              	.LASF25:
 3510 032c 54687265 		.ascii	"Thread\000"
 3510      616400
 3511              	.LASF88:
 3512 0333 2F557365 		.ascii	"/Users/mikevanis/Documents/workspace/STM32_DCMI_CAM"
 3512      72732F6D 
 3512      696B6576 
 3512      616E6973 
 3512      2F446F63 
 3513 0366 4552412F 		.ascii	"ERA/\000"
 3513      00
 3514              	.LASF92:
 3515 036b 63685363 		.ascii	"chSchGoSleepS\000"
 3515      68476F53 
 3515      6C656570 
 3515      5300
 3516              	.LASF41:
 3517 0379 705F6570 		.ascii	"p_epending\000"
 3517      656E6469 
 3517      6E6700
 3518              	.LASF14:
 3519 0384 75696E74 		.ascii	"uint32_t\000"
 3519      33325F74 
 3519      00
 3520              	.LASF51:
 3521 038d 725F7175 		.ascii	"r_queue\000"
 3521      65756500 
 3522              	.LASF84:
 3523 0395 63685363 		.ascii	"chSchReadyI\000"
 3523      68526561 
 3523      64794900 
 3524              	.LASF69:
 3525 03a1 63686172 		.ascii	"char\000"
 3525      00
 3526              	.LASF71:
 3527 03a6 6669666F 		.ascii	"fifo_remove\000"
 3527      5F72656D 
 3527      6F766500 
 3528              	.LASF77:
 3529 03b2 63685365 		.ascii	"chSemWaitTimeoutS\000"
 3529      6D576169 
 3529      7454696D 
 3529      656F7574 
 3529      5300
 3530              	.LASF64:
 3531 03c4 6D5F6E65 		.ascii	"m_next\000"
 3531      787400
 3532              	.LASF23:
 3533 03cb 73797374 		.ascii	"systime_t\000"
 3533      696D655F 
 3533      7400
 3534              	.LASF43:
 3535 03d5 705F7265 		.ascii	"p_realprio\000"
ARM GAS  /var/folders/4k/6h5l9jl178sb4hslwv3xp1mr0000gn/T//cc7OGbjf.s 			page 66


 3535      616C7072 
 3535      696F00
 3536              	.LASF6:
 3537 03e0 5F5F696E 		.ascii	"__int32_t\000"
 3537      7433325F 
 3537      7400
 3538              	.LASF76:
 3539 03ea 63685365 		.ascii	"chSemWait\000"
 3539      6D576169 
 3539      7400
 3540              	.LASF37:
 3541 03f4 705F7469 		.ascii	"p_time\000"
 3541      6D6500
 3542              	.LASF70:
 3543 03fb 6C69666F 		.ascii	"lifo_remove\000"
 3543      5F72656D 
 3543      6F766500 
 3544              	.LASF48:
 3545 0407 696E7463 		.ascii	"intctx\000"
 3545      747800
 3546              	.LASF39:
 3547 040e 705F6D73 		.ascii	"p_msgqueue\000"
 3547      67717565 
 3547      756500
 3548              	.LASF93:
 3549 0419 63685363 		.ascii	"chSchWakeupS\000"
 3549      6857616B 
 3549      65757053 
 3549      00
 3550              	.LASF58:
 3551 0426 53656D61 		.ascii	"Semaphore\000"
 3551      70686F72 
 3551      6500
 3552              	.LASF35:
 3553 0430 705F7265 		.ascii	"p_refs\000"
 3553      667300
 3554              	.LASF57:
 3555 0437 52656164 		.ascii	"ReadyList\000"
 3555      794C6973 
 3555      7400
 3556              	.LASF73:
 3557 0441 63685365 		.ascii	"chSemResetI\000"
 3557      6D526573 
 3557      65744900 
 3558              	.LASF90:
 3559 044d 726C6973 		.ascii	"rlist\000"
 3559      7400
 3560              	.LASF12:
 3561 0453 75696E74 		.ascii	"uint8_t\000"
 3561      385F7400 
 3562              	.LASF67:
 3563 045b 77746F62 		.ascii	"wtobjp\000"
 3563      6A7000
 3564              	.LASF32:
 3565 0462 705F6E61 		.ascii	"p_name\000"
 3565      6D6500
 3566              	.LASF85:
ARM GAS  /var/folders/4k/6h5l9jl178sb4hslwv3xp1mr0000gn/T//cc7OGbjf.s 			page 67


 3567 0469 63685363 		.ascii	"chSchGoSleepTimeoutS\000"
 3567      68476F53 
 3567      6C656570 
 3567      54696D65 
 3567      6F757453 
 3568              	.LASF63:
 3569 047e 6D5F6F77 		.ascii	"m_owner\000"
 3569      6E657200 
 3570              	.LASF87:
 3571 0486 2E2E2F43 		.ascii	"../ChibiStudio/ChibiOS/os/kernel/src/chsem.c\000"
 3571      68696269 
 3571      53747564 
 3571      696F2F43 
 3571      68696269 
 3572              	.LASF29:
 3573 04b3 705F6374 		.ascii	"p_ctx\000"
 3573      7800
 3574              	.LASF38:
 3575 04b9 705F7761 		.ascii	"p_waiting\000"
 3575      6974696E 
 3575      6700
 3576              	.LASF72:
 3577 04c3 63685365 		.ascii	"chSemInit\000"
 3577      6D496E69 
 3577      7400
 3578              		.ident	"GCC: (GNU Tools for ARM Embedded Processors) 4.8.3 20140228 (release) [ARM/embedded-4_8-br
ARM GAS  /var/folders/4k/6h5l9jl178sb4hslwv3xp1mr0000gn/T//cc7OGbjf.s 			page 68


DEFINED SYMBOLS
                            *ABS*:0000000000000000 chsem.c
/var/folders/4k/6h5l9jl178sb4hslwv3xp1mr0000gn/T//cc7OGbjf.s:19     .text.chSemInit:0000000000000000 $t
/var/folders/4k/6h5l9jl178sb4hslwv3xp1mr0000gn/T//cc7OGbjf.s:25     .text.chSemInit:0000000000000000 chSemInit
/var/folders/4k/6h5l9jl178sb4hslwv3xp1mr0000gn/T//cc7OGbjf.s:44     .text.chSemResetI:0000000000000000 $t
/var/folders/4k/6h5l9jl178sb4hslwv3xp1mr0000gn/T//cc7OGbjf.s:50     .text.chSemResetI:0000000000000000 chSemResetI
/var/folders/4k/6h5l9jl178sb4hslwv3xp1mr0000gn/T//cc7OGbjf.s:111    .text.chSemReset:0000000000000000 $t
/var/folders/4k/6h5l9jl178sb4hslwv3xp1mr0000gn/T//cc7OGbjf.s:117    .text.chSemReset:0000000000000000 chSemReset
/var/folders/4k/6h5l9jl178sb4hslwv3xp1mr0000gn/T//cc7OGbjf.s:155    .text.chSemWaitS:0000000000000000 $t
/var/folders/4k/6h5l9jl178sb4hslwv3xp1mr0000gn/T//cc7OGbjf.s:161    .text.chSemWaitS:0000000000000000 chSemWaitS
/var/folders/4k/6h5l9jl178sb4hslwv3xp1mr0000gn/T//cc7OGbjf.s:226    .text.chSemWaitS:0000000000000030 $d
/var/folders/4k/6h5l9jl178sb4hslwv3xp1mr0000gn/T//cc7OGbjf.s:231    .text.chSemWait:0000000000000000 $t
/var/folders/4k/6h5l9jl178sb4hslwv3xp1mr0000gn/T//cc7OGbjf.s:237    .text.chSemWait:0000000000000000 chSemWait
/var/folders/4k/6h5l9jl178sb4hslwv3xp1mr0000gn/T//cc7OGbjf.s:273    .text.chSemWaitTimeoutS:0000000000000000 $t
/var/folders/4k/6h5l9jl178sb4hslwv3xp1mr0000gn/T//cc7OGbjf.s:279    .text.chSemWaitTimeoutS:0000000000000000 chSemWaitTimeoutS
/var/folders/4k/6h5l9jl178sb4hslwv3xp1mr0000gn/T//cc7OGbjf.s:348    .text.chSemWaitTimeoutS:000000000000003c $d
/var/folders/4k/6h5l9jl178sb4hslwv3xp1mr0000gn/T//cc7OGbjf.s:353    .text.chSemWaitTimeout:0000000000000000 $t
/var/folders/4k/6h5l9jl178sb4hslwv3xp1mr0000gn/T//cc7OGbjf.s:359    .text.chSemWaitTimeout:0000000000000000 chSemWaitTimeout
/var/folders/4k/6h5l9jl178sb4hslwv3xp1mr0000gn/T//cc7OGbjf.s:395    .text.chSemSignal:0000000000000000 $t
/var/folders/4k/6h5l9jl178sb4hslwv3xp1mr0000gn/T//cc7OGbjf.s:401    .text.chSemSignal:0000000000000000 chSemSignal
/var/folders/4k/6h5l9jl178sb4hslwv3xp1mr0000gn/T//cc7OGbjf.s:473    .text.chSemSignalI:0000000000000000 $t
/var/folders/4k/6h5l9jl178sb4hslwv3xp1mr0000gn/T//cc7OGbjf.s:479    .text.chSemSignalI:0000000000000000 chSemSignalI
/var/folders/4k/6h5l9jl178sb4hslwv3xp1mr0000gn/T//cc7OGbjf.s:528    .text.chSemAddCounterI:0000000000000000 $t
/var/folders/4k/6h5l9jl178sb4hslwv3xp1mr0000gn/T//cc7OGbjf.s:534    .text.chSemAddCounterI:0000000000000000 chSemAddCounterI
/var/folders/4k/6h5l9jl178sb4hslwv3xp1mr0000gn/T//cc7OGbjf.s:600    .text.chSemSignalWait:0000000000000000 $t
/var/folders/4k/6h5l9jl178sb4hslwv3xp1mr0000gn/T//cc7OGbjf.s:606    .text.chSemSignalWait:0000000000000000 chSemSignalWait
/var/folders/4k/6h5l9jl178sb4hslwv3xp1mr0000gn/T//cc7OGbjf.s:730    .text.chSemSignalWait:0000000000000068 $d
                     .debug_frame:0000000000000010 $d
/var/folders/4k/6h5l9jl178sb4hslwv3xp1mr0000gn/T//cc7OGbjf.s:230    .text.chSemWaitS:0000000000000034 $t
/var/folders/4k/6h5l9jl178sb4hslwv3xp1mr0000gn/T//cc7OGbjf.s:734    .text.chSemSignalWait:000000000000006c $t

UNDEFINED SYMBOLS
chSchReadyI
chSchRescheduleS
chSchGoSleepS
rlist
chSchGoSleepTimeoutS
chSchWakeupS
