ARM GAS  /var/folders/4k/6h5l9jl178sb4hslwv3xp1mr0000gn/T//ccy5urRj.s 			page 1


   1              		.syntax unified
   2              		.cpu cortex-m4
   3              		.fpu softvfp
   4              		.eabi_attribute 20, 1
   5              		.eabi_attribute 21, 1
   6              		.eabi_attribute 23, 3
   7              		.eabi_attribute 24, 1
   8              		.eabi_attribute 25, 1
   9              		.eabi_attribute 26, 1
  10              		.eabi_attribute 30, 2
  11              		.eabi_attribute 34, 1
  12              		.eabi_attribute 18, 4
  13              		.thumb
  14              		.file	"crt0.c"
  15              		.text
  16              	.Ltext0:
  17              		.cfi_sections	.debug_frame
  18              		.section	.text.__early_init,"ax",%progbits
  19              		.align	2
  20              		.p2align 4,,15
  21              		.weak	__early_init
  22              		.thumb
  23              		.thumb_func
  24              		.type	__early_init, %function
  25              	__early_init:
  26              	.LFB0:
  27              		.file 1 "../ChibiStudio/ChibiOS/os/ports/GCC/ARMCMx/crt0.c"
  28              		.loc 1 234 0
  29              		.cfi_startproc
  30              		@ args = 0, pretend = 0, frame = 0
  31              		@ frame_needed = 0, uses_anonymous_args = 0
  32              		@ link register save eliminated.
  33 0000 7047     		bx	lr
  34              		.cfi_endproc
  35              	.LFE0:
  36              		.size	__early_init, .-__early_init
  37 0002 00BFAFF3 		.section	.text.__late_init,"ax",%progbits
  37      0080AFF3 
  37      0080AFF3 
  37      0080
  38              		.align	2
  39              		.p2align 4,,15
  40              		.weak	__late_init
  41              		.thumb
  42              		.thumb_func
  43              		.type	__late_init, %function
  44              	__late_init:
  45              	.LFB1:
  46              		.loc 1 246 0
  47              		.cfi_startproc
  48              		@ args = 0, pretend = 0, frame = 0
  49              		@ frame_needed = 0, uses_anonymous_args = 0
  50              		@ link register save eliminated.
  51 0000 7047     		bx	lr
  52              		.cfi_endproc
  53              	.LFE1:
  54              		.size	__late_init, .-__late_init
ARM GAS  /var/folders/4k/6h5l9jl178sb4hslwv3xp1mr0000gn/T//ccy5urRj.s 			page 2


  55 0002 00BFAFF3 		.section	.text._default_exit,"ax",%progbits
  55      0080AFF3 
  55      0080AFF3 
  55      0080
  56              		.align	2
  57              		.p2align 4,,15
  58              		.weak	_default_exit
  59              		.thumb
  60              		.thumb_func
  61              		.type	_default_exit, %function
  62              	_default_exit:
  63              	.LFB2:
  64              		.loc 1 257 0
  65              		.cfi_startproc
  66              		@ Naked Function: prologue and epilogue provided by programmer.
  67              		@ args = 0, pretend = 0, frame = 0
  68              		@ frame_needed = 0, uses_anonymous_args = 0
  69              	.L4:
  70 0000 FEE7     		b	.L4
  71              		.cfi_endproc
  72              	.LFE2:
  73              		.size	_default_exit, .-_default_exit
  74 0002 00BFAFF3 		.section	.text.ResetHandler,"ax",%progbits
  74      0080AFF3 
  74      0080AFF3 
  74      0080
  75              		.align	2
  76              		.p2align 4,,15
  77              		.global	ResetHandler
  78              		.thumb
  79              		.thumb_func
  80              		.type	ResetHandler, %function
  81              	ResetHandler:
  82              	.LFB3:
  83              		.loc 1 268 0
  84              		.cfi_startproc
  85              		@ Naked Function: prologue and epilogue provided by programmer.
  86              		@ args = 0, pretend = 0, frame = 0
  87              		@ frame_needed = 0, uses_anonymous_args = 0
  88              		.loc 1 274 0
  89              	@ 274 "../ChibiStudio/ChibiOS/os/ports/GCC/ARMCMx/crt0.c" 1
  90 0000 72B6     		cpsid   i
  91              	@ 0 "" 2
  92              		.loc 1 275 0
  93              		.thumb
  94 0002 3048     		ldr	r0, .L27
  95              	.LVL0:
  96              		.loc 1 276 0
  97              	@ 276 "../ChibiStudio/ChibiOS/os/ports/GCC/ARMCMx/crt0.c" 1
  98 0004 80F30988 		msr     PSP, r0
  99              	@ 0 "" 2
 100              	.LVL1:
 101              		.loc 1 296 0
 102              		.thumb
 103 0008 0223     		movs	r3, #2
 104              	@ 296 "../ChibiStudio/ChibiOS/os/ports/GCC/ARMCMx/crt0.c" 1
 105 000a 83F31488 		msr     CONTROL, r3
ARM GAS  /var/folders/4k/6h5l9jl178sb4hslwv3xp1mr0000gn/T//ccy5urRj.s 			page 3


 106              	@ 0 "" 2
 107              		.loc 1 297 0
 108              	@ 297 "../ChibiStudio/ChibiOS/os/ports/GCC/ARMCMx/crt0.c" 1
 109 000e BFF36F8F 		isb
 110              	@ 0 "" 2
 111              	.LVL2:
 112              		.thumb
 113              	.LBB2:
 114              		.loc 1 301 0
 115 0012 2D4B     		ldr	r3, .L27+4
 116 0014 2D4A     		ldr	r2, .L27+8
 117 0016 9342     		cmp	r3, r2
 118 0018 0BD2     		bcs	.L9
 119 001a D943     		mvns	r1, r3
 120 001c 1144     		add	r1, r1, r2
 121 001e 21F00301 		bic	r1, r1, #3
 122 0022 1944     		add	r1, r1, r3
 123 0024 4FF05532 		mov	r2, #1431655765
 124 0028 043B     		subs	r3, r3, #4
 125              	.LVL3:
 126              	.L10:
 127              		.loc 1 301 0 is_stmt 0 discriminator 2
 128 002a 43F8042F 		str	r2, [r3, #4]!
 129              	.LVL4:
 130 002e 8B42     		cmp	r3, r1
 131 0030 FBD1     		bne	.L10
 132              	.LVL5:
 133              	.L9:
 134              	.LBE2:
 135              	.LBB3:
 136              		.loc 1 304 0 is_stmt 1
 137 0032 274B     		ldr	r3, .L27+12
 138 0034 8342     		cmp	r3, r0
 139 0036 0CD2     		bcs	.L8
 140 0038 2649     		ldr	r1, .L27+16
 141 003a 1A1D     		adds	r2, r3, #4
 142 003c 891A     		subs	r1, r1, r2
 143 003e 21F00301 		bic	r1, r1, #3
 144 0042 1944     		add	r1, r1, r3
 145 0044 4FF05532 		mov	r2, #1431655765
 146 0048 043B     		subs	r3, r3, #4
 147              	.LVL6:
 148              	.L13:
 149              		.loc 1 304 0 is_stmt 0 discriminator 2
 150 004a 43F8042F 		str	r2, [r3, #4]!
 151              	.LVL7:
 152 004e 8B42     		cmp	r3, r1
 153 0050 FBD1     		bne	.L13
 154              	.LVL8:
 155              	.L8:
 156              	.LBE3:
 157              		.loc 1 310 0 is_stmt 1
 158 0052 FFF7FEFF 		bl	__early_init
 159              	.LVL9:
 160              	.LBB4:
 161              		.loc 1 319 0
 162 0056 2049     		ldr	r1, .L27+20
ARM GAS  /var/folders/4k/6h5l9jl178sb4hslwv3xp1mr0000gn/T//ccy5urRj.s 			page 4


 163 0058 204B     		ldr	r3, .L27+24
 164 005a 9942     		cmp	r1, r3
 165 005c 0BD2     		bcs	.L12
 166 005e C843     		mvns	r0, r1
 167 0060 1844     		add	r0, r0, r3
 168 0062 20F00300 		bic	r0, r0, #3
 169 0066 1E4C     		ldr	r4, .L27+28
 170 0068 0430     		adds	r0, r0, #4
 171 006a 0023     		movs	r3, #0
 172              	.LVL10:
 173              	.L16:
 174              		.loc 1 320 0
 175 006c E258     		ldr	r2, [r4, r3]
 176 006e CA50     		str	r2, [r1, r3]
 177 0070 0433     		adds	r3, r3, #4
 178              	.LVL11:
 179              		.loc 1 319 0
 180 0072 8342     		cmp	r3, r0
 181 0074 FAD1     		bne	.L16
 182              	.LVL12:
 183              	.L12:
 184              	.LBE4:
 185              	.LBB5:
 186              		.loc 1 326 0
 187 0076 1B4B     		ldr	r3, .L27+32
 188 0078 1B4A     		ldr	r2, .L27+36
 189 007a 9342     		cmp	r3, r2
 190 007c 0AD2     		bcs	.L15
 191 007e D943     		mvns	r1, r3
 192 0080 1144     		add	r1, r1, r2
 193 0082 21F00301 		bic	r1, r1, #3
 194 0086 1944     		add	r1, r1, r3
 195 0088 0022     		movs	r2, #0
 196 008a 043B     		subs	r3, r3, #4
 197              	.LVL13:
 198              	.L19:
 199              		.loc 1 326 0 is_stmt 0 discriminator 2
 200 008c 43F8042F 		str	r2, [r3, #4]!
 201              	.LVL14:
 202 0090 8B42     		cmp	r3, r1
 203 0092 FBD1     		bne	.L19
 204              	.LVL15:
 205              	.L15:
 206              	.LBE5:
 207              	.LBB6:
 208              		.loc 1 336 0 is_stmt 1
 209 0094 154D     		ldr	r5, .L27+40
 210 0096 164C     		ldr	r4, .L27+44
 211              	.LBE6:
 212              		.loc 1 330 0
 213 0098 FFF7FEFF 		bl	__late_init
 214              	.LVL16:
 215              	.LBB7:
 216              		.loc 1 336 0
 217 009c AC42     		cmp	r4, r5
 218 009e 04D2     		bcs	.L18
 219              	.LVL17:
ARM GAS  /var/folders/4k/6h5l9jl178sb4hslwv3xp1mr0000gn/T//ccy5urRj.s 			page 5


 220              	.L22:
 221              		.loc 1 337 0
 222 00a0 54F8043B 		ldr	r3, [r4], #4
 223              	.LVL18:
 224 00a4 9847     		blx	r3
 225              	.LVL19:
 226              		.loc 1 336 0
 227 00a6 AC42     		cmp	r4, r5
 228 00a8 FAD3     		bcc	.L22
 229              	.LVL20:
 230              	.L18:
 231              	.LBE7:
 232              	.LBB8:
 233              		.loc 1 350 0
 234 00aa 124D     		ldr	r5, .L27+48
 235 00ac 124C     		ldr	r4, .L27+52
 236              	.LBE8:
 237              		.loc 1 344 0
 238 00ae FFF7FEFF 		bl	main
 239              	.LVL21:
 240              	.LBB9:
 241              		.loc 1 350 0
 242 00b2 AC42     		cmp	r4, r5
 243 00b4 04D2     		bcs	.L21
 244              	.LVL22:
 245              	.L23:
 246              		.loc 1 351 0
 247 00b6 54F8043B 		ldr	r3, [r4], #4
 248              	.LVL23:
 249 00ba 9847     		blx	r3
 250              	.LVL24:
 251              		.loc 1 350 0
 252 00bc AC42     		cmp	r4, r5
 253 00be FAD3     		bcc	.L23
 254              	.LVL25:
 255              	.L21:
 256              	.LBE9:
 257              		.loc 1 358 0
 258 00c0 FFF7FEFF 		bl	_default_exit
 259              	.LVL26:
 260              		.loc 1 359 0
 261              	.L28:
 262              		.align	2
 263              	.L27:
 264 00c4 00000000 		.word	__process_stack_end__
 265 00c8 00000000 		.word	__main_stack_base__
 266 00cc 00000000 		.word	__main_stack_end__
 267 00d0 00000000 		.word	__process_stack_base__
 268 00d4 03000000 		.word	__process_stack_end__+3
 269 00d8 00000000 		.word	_data
 270 00dc 00000000 		.word	_edata
 271 00e0 00000000 		.word	_textdata
 272 00e4 00000000 		.word	_bss_start
 273 00e8 00000000 		.word	_bss_end
 274 00ec 00000000 		.word	__init_array_end
 275 00f0 00000000 		.word	__init_array_start
 276 00f4 00000000 		.word	__fini_array_end
ARM GAS  /var/folders/4k/6h5l9jl178sb4hslwv3xp1mr0000gn/T//ccy5urRj.s 			page 6


 277 00f8 00000000 		.word	__fini_array_start
 278              		.cfi_endproc
 279              	.LFE3:
 280              		.size	ResetHandler, .-ResetHandler
 281 00fc AFF30080 		.text
 282              	.Letext0:
 283              		.file 2 "/Users/mikevanis/Documents/workspace/gcc-arm-none-eabi-4_8-2014q1/arm-none-eabi/include/m
 284              		.file 3 "/Users/mikevanis/Documents/workspace/gcc-arm-none-eabi-4_8-2014q1/arm-none-eabi/include/s
 285              		.section	.debug_info,"",%progbits
 286              	.Ldebug_info0:
 287 0000 B3020000 		.4byte	0x2b3
 288 0004 0400     		.2byte	0x4
 289 0006 00000000 		.4byte	.Ldebug_abbrev0
 290 000a 04       		.byte	0x4
 291 000b 01       		.uleb128 0x1
 292 000c 25020000 		.4byte	.LASF31
 293 0010 01       		.byte	0x1
 294 0011 9E010000 		.4byte	.LASF32
 295 0015 26000000 		.4byte	.LASF33
 296 0019 30000000 		.4byte	.Ldebug_ranges0+0x30
 297 001d 00000000 		.4byte	0
 298 0021 00000000 		.4byte	.Ldebug_line0
 299 0025 02       		.uleb128 0x2
 300 0026 01       		.byte	0x1
 301 0027 06       		.byte	0x6
 302 0028 F0010000 		.4byte	.LASF0
 303 002c 03       		.uleb128 0x3
 304 002d 0B000000 		.4byte	.LASF5
 305 0031 02       		.byte	0x2
 306 0032 1C       		.byte	0x1c
 307 0033 37000000 		.4byte	0x37
 308 0037 02       		.uleb128 0x2
 309 0038 01       		.byte	0x1
 310 0039 08       		.byte	0x8
 311 003a 8C000000 		.4byte	.LASF1
 312 003e 02       		.uleb128 0x2
 313 003f 02       		.byte	0x2
 314 0040 05       		.byte	0x5
 315 0041 94010000 		.4byte	.LASF2
 316 0045 02       		.uleb128 0x2
 317 0046 02       		.byte	0x2
 318 0047 07       		.byte	0x7
 319 0048 C5000000 		.4byte	.LASF3
 320 004c 02       		.uleb128 0x2
 321 004d 04       		.byte	0x4
 322 004e 05       		.byte	0x5
 323 004f E1010000 		.4byte	.LASF4
 324 0053 03       		.uleb128 0x3
 325 0054 18010000 		.4byte	.LASF6
 326 0058 02       		.byte	0x2
 327 0059 38       		.byte	0x38
 328 005a 5E000000 		.4byte	0x5e
 329 005e 02       		.uleb128 0x2
 330 005f 04       		.byte	0x4
 331 0060 07       		.byte	0x7
 332 0061 A6000000 		.4byte	.LASF7
 333 0065 02       		.uleb128 0x2
ARM GAS  /var/folders/4k/6h5l9jl178sb4hslwv3xp1mr0000gn/T//ccy5urRj.s 			page 7


 334 0066 08       		.byte	0x8
 335 0067 05       		.byte	0x5
 336 0068 6B010000 		.4byte	.LASF8
 337 006c 02       		.uleb128 0x2
 338 006d 08       		.byte	0x8
 339 006e 07       		.byte	0x7
 340 006f 35010000 		.4byte	.LASF9
 341 0073 04       		.uleb128 0x4
 342 0074 04       		.byte	0x4
 343 0075 05       		.byte	0x5
 344 0076 696E7400 		.ascii	"int\000"
 345 007a 02       		.uleb128 0x2
 346 007b 04       		.byte	0x4
 347 007c 07       		.byte	0x7
 348 007d 28010000 		.4byte	.LASF10
 349 0081 03       		.uleb128 0x3
 350 0082 4C010000 		.4byte	.LASF11
 351 0086 03       		.byte	0x3
 352 0087 2A       		.byte	0x2a
 353 0088 2C000000 		.4byte	0x2c
 354 008c 03       		.uleb128 0x3
 355 008d D8010000 		.4byte	.LASF12
 356 0091 03       		.byte	0x3
 357 0092 42       		.byte	0x42
 358 0093 53000000 		.4byte	0x53
 359 0097 03       		.uleb128 0x3
 360 0098 D0010000 		.4byte	.LASF13
 361 009c 01       		.byte	0x1
 362 009d 34       		.byte	0x34
 363 009e A2000000 		.4byte	0xa2
 364 00a2 05       		.uleb128 0x5
 365 00a3 04       		.byte	0x4
 366 00a4 A8000000 		.4byte	0xa8
 367 00a8 06       		.uleb128 0x6
 368 00a9 03       		.uleb128 0x3
 369 00aa 75000000 		.4byte	.LASF14
 370 00ae 01       		.byte	0x1
 371 00af 35       		.byte	0x35
 372 00b0 B4000000 		.4byte	0xb4
 373 00b4 05       		.uleb128 0x5
 374 00b5 04       		.byte	0x4
 375 00b6 97000000 		.4byte	0x97
 376 00ba 07       		.uleb128 0x7
 377 00bb 5E010000 		.4byte	.LASF15
 378 00bf 01       		.byte	0x1
 379 00c0 EA       		.byte	0xea
 380 00c1 00000000 		.4byte	.LFB0
 381 00c5 02000000 		.4byte	.LFE0-.LFB0
 382 00c9 01       		.uleb128 0x1
 383 00ca 9C       		.byte	0x9c
 384 00cb 07       		.uleb128 0x7
 385 00cc 9A000000 		.4byte	.LASF16
 386 00d0 01       		.byte	0x1
 387 00d1 F6       		.byte	0xf6
 388 00d2 00000000 		.4byte	.LFB1
 389 00d6 02000000 		.4byte	.LFE1-.LFB1
 390 00da 01       		.uleb128 0x1
ARM GAS  /var/folders/4k/6h5l9jl178sb4hslwv3xp1mr0000gn/T//ccy5urRj.s 			page 8


 391 00db 9C       		.byte	0x9c
 392 00dc 08       		.uleb128 0x8
 393 00dd 7E000000 		.4byte	.LASF17
 394 00e1 01       		.byte	0x1
 395 00e2 0101     		.2byte	0x101
 396 00e4 00000000 		.4byte	.LFB2
 397 00e8 02000000 		.4byte	.LFE2-.LFB2
 398 00ec 01       		.uleb128 0x1
 399 00ed 9C       		.byte	0x9c
 400 00ee 09       		.uleb128 0x9
 401 00ef B8000000 		.4byte	.LASF34
 402 00f3 01       		.byte	0x1
 403 00f4 0C01     		.2byte	0x10c
 404 00f6 00000000 		.4byte	.LFB3
 405 00fa FC000000 		.4byte	.LFE3-.LFB3
 406 00fe 01       		.uleb128 0x1
 407 00ff 9C       		.byte	0x9c
 408 0100 1A020000 		.4byte	0x21a
 409 0104 0A       		.uleb128 0xa
 410 0105 70737000 		.ascii	"psp\000"
 411 0109 01       		.byte	0x1
 412 010a 0D01     		.2byte	0x10d
 413 010c 8C000000 		.4byte	0x8c
 414 0110 0B       		.uleb128 0xb
 415 0111 72656700 		.ascii	"reg\000"
 416 0115 01       		.byte	0x1
 417 0116 0D01     		.2byte	0x10d
 418 0118 8C000000 		.4byte	0x8c
 419 011c 02       		.byte	0x2
 420 011d 0C       		.uleb128 0xc
 421 011e 12000000 		.4byte	.LBB2
 422 0122 20000000 		.4byte	.LBE2-.LBB2
 423 0126 45010000 		.4byte	0x145
 424 012a 0D       		.uleb128 0xd
 425 012b 703100   		.ascii	"p1\000"
 426 012e 01       		.byte	0x1
 427 012f 2D01     		.2byte	0x12d
 428 0131 1A020000 		.4byte	0x21a
 429 0135 00000000 		.4byte	.LLST0
 430 0139 0A       		.uleb128 0xa
 431 013a 703200   		.ascii	"p2\000"
 432 013d 01       		.byte	0x1
 433 013e 2D01     		.2byte	0x12d
 434 0140 1A020000 		.4byte	0x21a
 435 0144 00       		.byte	0
 436 0145 0C       		.uleb128 0xc
 437 0146 32000000 		.4byte	.LBB3
 438 014a 20000000 		.4byte	.LBE3-.LBB3
 439 014e 6D010000 		.4byte	0x16d
 440 0152 0D       		.uleb128 0xd
 441 0153 703100   		.ascii	"p1\000"
 442 0156 01       		.byte	0x1
 443 0157 3001     		.2byte	0x130
 444 0159 1A020000 		.4byte	0x21a
 445 015d 22000000 		.4byte	.LLST1
 446 0161 0A       		.uleb128 0xa
 447 0162 703200   		.ascii	"p2\000"
ARM GAS  /var/folders/4k/6h5l9jl178sb4hslwv3xp1mr0000gn/T//ccy5urRj.s 			page 9


 448 0165 01       		.byte	0x1
 449 0166 3001     		.2byte	0x130
 450 0168 1A020000 		.4byte	0x21a
 451 016c 00       		.byte	0
 452 016d 0C       		.uleb128 0xc
 453 016e 56000000 		.4byte	.LBB4
 454 0172 20000000 		.4byte	.LBE4-.LBB4
 455 0176 99010000 		.4byte	0x199
 456 017a 0D       		.uleb128 0xd
 457 017b 747000   		.ascii	"tp\000"
 458 017e 01       		.byte	0x1
 459 017f 3B01     		.2byte	0x13b
 460 0181 1A020000 		.4byte	0x21a
 461 0185 44000000 		.4byte	.LLST2
 462 0189 0D       		.uleb128 0xd
 463 018a 647000   		.ascii	"dp\000"
 464 018d 01       		.byte	0x1
 465 018e 3B01     		.2byte	0x13b
 466 0190 1A020000 		.4byte	0x21a
 467 0194 44000000 		.4byte	.LLST2
 468 0198 00       		.byte	0
 469 0199 0C       		.uleb128 0xc
 470 019a 76000000 		.4byte	.LBB5
 471 019e 1E000000 		.4byte	.LBE5-.LBB5
 472 01a2 C1010000 		.4byte	0x1c1
 473 01a6 0D       		.uleb128 0xd
 474 01a7 703100   		.ascii	"p1\000"
 475 01aa 01       		.byte	0x1
 476 01ab 4601     		.2byte	0x146
 477 01ad 1A020000 		.4byte	0x21a
 478 01b1 66000000 		.4byte	.LLST4
 479 01b5 0A       		.uleb128 0xa
 480 01b6 703200   		.ascii	"p2\000"
 481 01b9 01       		.byte	0x1
 482 01ba 4601     		.2byte	0x146
 483 01bc 1A020000 		.4byte	0x21a
 484 01c0 00       		.byte	0
 485 01c1 0E       		.uleb128 0xe
 486 01c2 00000000 		.4byte	.Ldebug_ranges0+0
 487 01c6 DB010000 		.4byte	0x1db
 488 01ca 0D       		.uleb128 0xd
 489 01cb 66707000 		.ascii	"fpp\000"
 490 01cf 01       		.byte	0x1
 491 01d0 4F01     		.2byte	0x14f
 492 01d2 A9000000 		.4byte	0xa9
 493 01d6 88000000 		.4byte	.LLST5
 494 01da 00       		.byte	0
 495 01db 0E       		.uleb128 0xe
 496 01dc 18000000 		.4byte	.Ldebug_ranges0+0x18
 497 01e0 F5010000 		.4byte	0x1f5
 498 01e4 0D       		.uleb128 0xd
 499 01e5 66707000 		.ascii	"fpp\000"
 500 01e9 01       		.byte	0x1
 501 01ea 5D01     		.2byte	0x15d
 502 01ec A9000000 		.4byte	0xa9
 503 01f0 B3000000 		.4byte	.LLST6
 504 01f4 00       		.byte	0
ARM GAS  /var/folders/4k/6h5l9jl178sb4hslwv3xp1mr0000gn/T//ccy5urRj.s 			page 10


 505 01f5 0F       		.uleb128 0xf
 506 01f6 56000000 		.4byte	.LVL9
 507 01fa BA000000 		.4byte	0xba
 508 01fe 0F       		.uleb128 0xf
 509 01ff 9C000000 		.4byte	.LVL16
 510 0203 CB000000 		.4byte	0xcb
 511 0207 0F       		.uleb128 0xf
 512 0208 B2000000 		.4byte	.LVL21
 513 020c AF020000 		.4byte	0x2af
 514 0210 0F       		.uleb128 0xf
 515 0211 C4000000 		.4byte	.LVL26
 516 0215 DC000000 		.4byte	0xdc
 517 0219 00       		.byte	0
 518 021a 05       		.uleb128 0x5
 519 021b 04       		.byte	0x4
 520 021c 8C000000 		.4byte	0x8c
 521 0220 10       		.uleb128 0x10
 522 0221 80010000 		.4byte	.LASF18
 523 0225 01       		.byte	0x1
 524 0226 8B       		.byte	0x8b
 525 0227 8C000000 		.4byte	0x8c
 526 022b 10       		.uleb128 0x10
 527 022c EB000000 		.4byte	.LASF19
 528 0230 01       		.byte	0x1
 529 0231 93       		.byte	0x93
 530 0232 8C000000 		.4byte	0x8c
 531 0236 10       		.uleb128 0x10
 532 0237 5E000000 		.4byte	.LASF20
 533 023b 01       		.byte	0x1
 534 023c 9A       		.byte	0x9a
 535 023d 8C000000 		.4byte	0x8c
 536 0241 10       		.uleb128 0x10
 537 0242 FC010000 		.4byte	.LASF21
 538 0246 01       		.byte	0x1
 539 0247 A1       		.byte	0xa1
 540 0248 8C000000 		.4byte	0x8c
 541 024c 10       		.uleb128 0x10
 542 024d 54010000 		.4byte	.LASF22
 543 0251 01       		.byte	0x1
 544 0252 A7       		.byte	0xa7
 545 0253 8C000000 		.4byte	0x8c
 546 0257 10       		.uleb128 0x10
 547 0258 EA010000 		.4byte	.LASF23
 548 025c 01       		.byte	0x1
 549 025d AD       		.byte	0xad
 550 025e 8C000000 		.4byte	0x8c
 551 0262 10       		.uleb128 0x10
 552 0263 79010000 		.4byte	.LASF24
 553 0267 01       		.byte	0x1
 554 0268 B3       		.byte	0xb3
 555 0269 8C000000 		.4byte	0x8c
 556 026d 10       		.uleb128 0x10
 557 026e 00000000 		.4byte	.LASF25
 558 0272 01       		.byte	0x1
 559 0273 B9       		.byte	0xb9
 560 0274 8C000000 		.4byte	0x8c
 561 0278 10       		.uleb128 0x10
ARM GAS  /var/folders/4k/6h5l9jl178sb4hslwv3xp1mr0000gn/T//ccy5urRj.s 			page 11


 562 0279 FE000000 		.4byte	.LASF26
 563 027d 01       		.byte	0x1
 564 027e BF       		.byte	0xbf
 565 027f 8C000000 		.4byte	0x8c
 566 0283 10       		.uleb128 0x10
 567 0284 12020000 		.4byte	.LASF27
 568 0288 01       		.byte	0x1
 569 0289 C5       		.byte	0xc5
 570 028a 97000000 		.4byte	0x97
 571 028e 10       		.uleb128 0x10
 572 028f 07010000 		.4byte	.LASF28
 573 0293 01       		.byte	0x1
 574 0294 CB       		.byte	0xcb
 575 0295 97000000 		.4byte	0x97
 576 0299 10       		.uleb128 0x10
 577 029a D8000000 		.4byte	.LASF29
 578 029e 01       		.byte	0x1
 579 029f D1       		.byte	0xd1
 580 02a0 97000000 		.4byte	0x97
 581 02a4 10       		.uleb128 0x10
 582 02a5 15000000 		.4byte	.LASF30
 583 02a9 01       		.byte	0x1
 584 02aa D7       		.byte	0xd7
 585 02ab 97000000 		.4byte	0x97
 586 02af 11       		.uleb128 0x11
 587 02b0 23010000 		.4byte	.LASF35
 588 02b4 01       		.byte	0x1
 589 02b5 DE       		.byte	0xde
 590 02b6 00       		.byte	0
 591              		.section	.debug_abbrev,"",%progbits
 592              	.Ldebug_abbrev0:
 593 0000 01       		.uleb128 0x1
 594 0001 11       		.uleb128 0x11
 595 0002 01       		.byte	0x1
 596 0003 25       		.uleb128 0x25
 597 0004 0E       		.uleb128 0xe
 598 0005 13       		.uleb128 0x13
 599 0006 0B       		.uleb128 0xb
 600 0007 03       		.uleb128 0x3
 601 0008 0E       		.uleb128 0xe
 602 0009 1B       		.uleb128 0x1b
 603 000a 0E       		.uleb128 0xe
 604 000b 55       		.uleb128 0x55
 605 000c 17       		.uleb128 0x17
 606 000d 11       		.uleb128 0x11
 607 000e 01       		.uleb128 0x1
 608 000f 10       		.uleb128 0x10
 609 0010 17       		.uleb128 0x17
 610 0011 00       		.byte	0
 611 0012 00       		.byte	0
 612 0013 02       		.uleb128 0x2
 613 0014 24       		.uleb128 0x24
 614 0015 00       		.byte	0
 615 0016 0B       		.uleb128 0xb
 616 0017 0B       		.uleb128 0xb
 617 0018 3E       		.uleb128 0x3e
 618 0019 0B       		.uleb128 0xb
ARM GAS  /var/folders/4k/6h5l9jl178sb4hslwv3xp1mr0000gn/T//ccy5urRj.s 			page 12


 619 001a 03       		.uleb128 0x3
 620 001b 0E       		.uleb128 0xe
 621 001c 00       		.byte	0
 622 001d 00       		.byte	0
 623 001e 03       		.uleb128 0x3
 624 001f 16       		.uleb128 0x16
 625 0020 00       		.byte	0
 626 0021 03       		.uleb128 0x3
 627 0022 0E       		.uleb128 0xe
 628 0023 3A       		.uleb128 0x3a
 629 0024 0B       		.uleb128 0xb
 630 0025 3B       		.uleb128 0x3b
 631 0026 0B       		.uleb128 0xb
 632 0027 49       		.uleb128 0x49
 633 0028 13       		.uleb128 0x13
 634 0029 00       		.byte	0
 635 002a 00       		.byte	0
 636 002b 04       		.uleb128 0x4
 637 002c 24       		.uleb128 0x24
 638 002d 00       		.byte	0
 639 002e 0B       		.uleb128 0xb
 640 002f 0B       		.uleb128 0xb
 641 0030 3E       		.uleb128 0x3e
 642 0031 0B       		.uleb128 0xb
 643 0032 03       		.uleb128 0x3
 644 0033 08       		.uleb128 0x8
 645 0034 00       		.byte	0
 646 0035 00       		.byte	0
 647 0036 05       		.uleb128 0x5
 648 0037 0F       		.uleb128 0xf
 649 0038 00       		.byte	0
 650 0039 0B       		.uleb128 0xb
 651 003a 0B       		.uleb128 0xb
 652 003b 49       		.uleb128 0x49
 653 003c 13       		.uleb128 0x13
 654 003d 00       		.byte	0
 655 003e 00       		.byte	0
 656 003f 06       		.uleb128 0x6
 657 0040 15       		.uleb128 0x15
 658 0041 00       		.byte	0
 659 0042 27       		.uleb128 0x27
 660 0043 19       		.uleb128 0x19
 661 0044 00       		.byte	0
 662 0045 00       		.byte	0
 663 0046 07       		.uleb128 0x7
 664 0047 2E       		.uleb128 0x2e
 665 0048 00       		.byte	0
 666 0049 3F       		.uleb128 0x3f
 667 004a 19       		.uleb128 0x19
 668 004b 03       		.uleb128 0x3
 669 004c 0E       		.uleb128 0xe
 670 004d 3A       		.uleb128 0x3a
 671 004e 0B       		.uleb128 0xb
 672 004f 3B       		.uleb128 0x3b
 673 0050 0B       		.uleb128 0xb
 674 0051 27       		.uleb128 0x27
 675 0052 19       		.uleb128 0x19
ARM GAS  /var/folders/4k/6h5l9jl178sb4hslwv3xp1mr0000gn/T//ccy5urRj.s 			page 13


 676 0053 11       		.uleb128 0x11
 677 0054 01       		.uleb128 0x1
 678 0055 12       		.uleb128 0x12
 679 0056 06       		.uleb128 0x6
 680 0057 40       		.uleb128 0x40
 681 0058 18       		.uleb128 0x18
 682 0059 9742     		.uleb128 0x2117
 683 005b 19       		.uleb128 0x19
 684 005c 00       		.byte	0
 685 005d 00       		.byte	0
 686 005e 08       		.uleb128 0x8
 687 005f 2E       		.uleb128 0x2e
 688 0060 00       		.byte	0
 689 0061 3F       		.uleb128 0x3f
 690 0062 19       		.uleb128 0x19
 691 0063 03       		.uleb128 0x3
 692 0064 0E       		.uleb128 0xe
 693 0065 3A       		.uleb128 0x3a
 694 0066 0B       		.uleb128 0xb
 695 0067 3B       		.uleb128 0x3b
 696 0068 05       		.uleb128 0x5
 697 0069 27       		.uleb128 0x27
 698 006a 19       		.uleb128 0x19
 699 006b 11       		.uleb128 0x11
 700 006c 01       		.uleb128 0x1
 701 006d 12       		.uleb128 0x12
 702 006e 06       		.uleb128 0x6
 703 006f 40       		.uleb128 0x40
 704 0070 18       		.uleb128 0x18
 705 0071 9742     		.uleb128 0x2117
 706 0073 19       		.uleb128 0x19
 707 0074 00       		.byte	0
 708 0075 00       		.byte	0
 709 0076 09       		.uleb128 0x9
 710 0077 2E       		.uleb128 0x2e
 711 0078 01       		.byte	0x1
 712 0079 3F       		.uleb128 0x3f
 713 007a 19       		.uleb128 0x19
 714 007b 03       		.uleb128 0x3
 715 007c 0E       		.uleb128 0xe
 716 007d 3A       		.uleb128 0x3a
 717 007e 0B       		.uleb128 0xb
 718 007f 3B       		.uleb128 0x3b
 719 0080 05       		.uleb128 0x5
 720 0081 27       		.uleb128 0x27
 721 0082 19       		.uleb128 0x19
 722 0083 11       		.uleb128 0x11
 723 0084 01       		.uleb128 0x1
 724 0085 12       		.uleb128 0x12
 725 0086 06       		.uleb128 0x6
 726 0087 40       		.uleb128 0x40
 727 0088 18       		.uleb128 0x18
 728 0089 9642     		.uleb128 0x2116
 729 008b 19       		.uleb128 0x19
 730 008c 01       		.uleb128 0x1
 731 008d 13       		.uleb128 0x13
 732 008e 00       		.byte	0
ARM GAS  /var/folders/4k/6h5l9jl178sb4hslwv3xp1mr0000gn/T//ccy5urRj.s 			page 14


 733 008f 00       		.byte	0
 734 0090 0A       		.uleb128 0xa
 735 0091 34       		.uleb128 0x34
 736 0092 00       		.byte	0
 737 0093 03       		.uleb128 0x3
 738 0094 08       		.uleb128 0x8
 739 0095 3A       		.uleb128 0x3a
 740 0096 0B       		.uleb128 0xb
 741 0097 3B       		.uleb128 0x3b
 742 0098 05       		.uleb128 0x5
 743 0099 49       		.uleb128 0x49
 744 009a 13       		.uleb128 0x13
 745 009b 00       		.byte	0
 746 009c 00       		.byte	0
 747 009d 0B       		.uleb128 0xb
 748 009e 34       		.uleb128 0x34
 749 009f 00       		.byte	0
 750 00a0 03       		.uleb128 0x3
 751 00a1 08       		.uleb128 0x8
 752 00a2 3A       		.uleb128 0x3a
 753 00a3 0B       		.uleb128 0xb
 754 00a4 3B       		.uleb128 0x3b
 755 00a5 05       		.uleb128 0x5
 756 00a6 49       		.uleb128 0x49
 757 00a7 13       		.uleb128 0x13
 758 00a8 1C       		.uleb128 0x1c
 759 00a9 0B       		.uleb128 0xb
 760 00aa 00       		.byte	0
 761 00ab 00       		.byte	0
 762 00ac 0C       		.uleb128 0xc
 763 00ad 0B       		.uleb128 0xb
 764 00ae 01       		.byte	0x1
 765 00af 11       		.uleb128 0x11
 766 00b0 01       		.uleb128 0x1
 767 00b1 12       		.uleb128 0x12
 768 00b2 06       		.uleb128 0x6
 769 00b3 01       		.uleb128 0x1
 770 00b4 13       		.uleb128 0x13
 771 00b5 00       		.byte	0
 772 00b6 00       		.byte	0
 773 00b7 0D       		.uleb128 0xd
 774 00b8 34       		.uleb128 0x34
 775 00b9 00       		.byte	0
 776 00ba 03       		.uleb128 0x3
 777 00bb 08       		.uleb128 0x8
 778 00bc 3A       		.uleb128 0x3a
 779 00bd 0B       		.uleb128 0xb
 780 00be 3B       		.uleb128 0x3b
 781 00bf 05       		.uleb128 0x5
 782 00c0 49       		.uleb128 0x49
 783 00c1 13       		.uleb128 0x13
 784 00c2 02       		.uleb128 0x2
 785 00c3 17       		.uleb128 0x17
 786 00c4 00       		.byte	0
 787 00c5 00       		.byte	0
 788 00c6 0E       		.uleb128 0xe
 789 00c7 0B       		.uleb128 0xb
ARM GAS  /var/folders/4k/6h5l9jl178sb4hslwv3xp1mr0000gn/T//ccy5urRj.s 			page 15


 790 00c8 01       		.byte	0x1
 791 00c9 55       		.uleb128 0x55
 792 00ca 17       		.uleb128 0x17
 793 00cb 01       		.uleb128 0x1
 794 00cc 13       		.uleb128 0x13
 795 00cd 00       		.byte	0
 796 00ce 00       		.byte	0
 797 00cf 0F       		.uleb128 0xf
 798 00d0 898201   		.uleb128 0x4109
 799 00d3 00       		.byte	0
 800 00d4 11       		.uleb128 0x11
 801 00d5 01       		.uleb128 0x1
 802 00d6 31       		.uleb128 0x31
 803 00d7 13       		.uleb128 0x13
 804 00d8 00       		.byte	0
 805 00d9 00       		.byte	0
 806 00da 10       		.uleb128 0x10
 807 00db 34       		.uleb128 0x34
 808 00dc 00       		.byte	0
 809 00dd 03       		.uleb128 0x3
 810 00de 0E       		.uleb128 0xe
 811 00df 3A       		.uleb128 0x3a
 812 00e0 0B       		.uleb128 0xb
 813 00e1 3B       		.uleb128 0x3b
 814 00e2 0B       		.uleb128 0xb
 815 00e3 49       		.uleb128 0x49
 816 00e4 13       		.uleb128 0x13
 817 00e5 3F       		.uleb128 0x3f
 818 00e6 19       		.uleb128 0x19
 819 00e7 3C       		.uleb128 0x3c
 820 00e8 19       		.uleb128 0x19
 821 00e9 00       		.byte	0
 822 00ea 00       		.byte	0
 823 00eb 11       		.uleb128 0x11
 824 00ec 2E       		.uleb128 0x2e
 825 00ed 00       		.byte	0
 826 00ee 3F       		.uleb128 0x3f
 827 00ef 19       		.uleb128 0x19
 828 00f0 03       		.uleb128 0x3
 829 00f1 0E       		.uleb128 0xe
 830 00f2 3A       		.uleb128 0x3a
 831 00f3 0B       		.uleb128 0xb
 832 00f4 3B       		.uleb128 0x3b
 833 00f5 0B       		.uleb128 0xb
 834 00f6 27       		.uleb128 0x27
 835 00f7 19       		.uleb128 0x19
 836 00f8 3C       		.uleb128 0x3c
 837 00f9 19       		.uleb128 0x19
 838 00fa 00       		.byte	0
 839 00fb 00       		.byte	0
 840 00fc 00       		.byte	0
 841              		.section	.debug_loc,"",%progbits
 842              	.Ldebug_loc0:
 843              	.LLST0:
 844 0000 2A000000 		.4byte	.LVL3
 845 0004 2E000000 		.4byte	.LVL4
 846 0008 0300     		.2byte	0x3
ARM GAS  /var/folders/4k/6h5l9jl178sb4hslwv3xp1mr0000gn/T//ccy5urRj.s 			page 16


 847 000a 73       		.byte	0x73
 848 000b 08       		.sleb128 8
 849 000c 9F       		.byte	0x9f
 850 000d 2E000000 		.4byte	.LVL4
 851 0011 32000000 		.4byte	.LVL5
 852 0015 0300     		.2byte	0x3
 853 0017 73       		.byte	0x73
 854 0018 04       		.sleb128 4
 855 0019 9F       		.byte	0x9f
 856 001a 00000000 		.4byte	0
 857 001e 00000000 		.4byte	0
 858              	.LLST1:
 859 0022 4A000000 		.4byte	.LVL6
 860 0026 4E000000 		.4byte	.LVL7
 861 002a 0300     		.2byte	0x3
 862 002c 73       		.byte	0x73
 863 002d 08       		.sleb128 8
 864 002e 9F       		.byte	0x9f
 865 002f 4E000000 		.4byte	.LVL7
 866 0033 52000000 		.4byte	.LVL8
 867 0037 0300     		.2byte	0x3
 868 0039 73       		.byte	0x73
 869 003a 04       		.sleb128 4
 870 003b 9F       		.byte	0x9f
 871 003c 00000000 		.4byte	0
 872 0040 00000000 		.4byte	0
 873              	.LLST2:
 874 0044 6C000000 		.4byte	.LVL10
 875 0048 72000000 		.4byte	.LVL11
 876 004c 0300     		.2byte	0x3
 877 004e 73       		.byte	0x73
 878 004f 00       		.sleb128 0
 879 0050 9F       		.byte	0x9f
 880 0051 72000000 		.4byte	.LVL11
 881 0055 76000000 		.4byte	.LVL12
 882 0059 0300     		.2byte	0x3
 883 005b 73       		.byte	0x73
 884 005c 00       		.sleb128 0
 885 005d 9F       		.byte	0x9f
 886 005e 00000000 		.4byte	0
 887 0062 00000000 		.4byte	0
 888              	.LLST4:
 889 0066 8C000000 		.4byte	.LVL13
 890 006a 90000000 		.4byte	.LVL14
 891 006e 0300     		.2byte	0x3
 892 0070 73       		.byte	0x73
 893 0071 08       		.sleb128 8
 894 0072 9F       		.byte	0x9f
 895 0073 90000000 		.4byte	.LVL14
 896 0077 94000000 		.4byte	.LVL15
 897 007b 0300     		.2byte	0x3
 898 007d 73       		.byte	0x73
 899 007e 04       		.sleb128 4
 900 007f 9F       		.byte	0x9f
 901 0080 00000000 		.4byte	0
 902 0084 00000000 		.4byte	0
 903              	.LLST5:
ARM GAS  /var/folders/4k/6h5l9jl178sb4hslwv3xp1mr0000gn/T//ccy5urRj.s 			page 17


 904 0088 A0000000 		.4byte	.LVL17
 905 008c A4000000 		.4byte	.LVL18
 906 0090 0100     		.2byte	0x1
 907 0092 54       		.byte	0x54
 908 0093 A4000000 		.4byte	.LVL18
 909 0097 A6000000 		.4byte	.LVL19
 910 009b 0300     		.2byte	0x3
 911 009d 74       		.byte	0x74
 912 009e 7C       		.sleb128 -4
 913 009f 9F       		.byte	0x9f
 914 00a0 A6000000 		.4byte	.LVL19
 915 00a4 AA000000 		.4byte	.LVL20
 916 00a8 0100     		.2byte	0x1
 917 00aa 54       		.byte	0x54
 918 00ab 00000000 		.4byte	0
 919 00af 00000000 		.4byte	0
 920              	.LLST6:
 921 00b3 B6000000 		.4byte	.LVL22
 922 00b7 BA000000 		.4byte	.LVL23
 923 00bb 0100     		.2byte	0x1
 924 00bd 54       		.byte	0x54
 925 00be BA000000 		.4byte	.LVL23
 926 00c2 BC000000 		.4byte	.LVL24
 927 00c6 0300     		.2byte	0x3
 928 00c8 74       		.byte	0x74
 929 00c9 7C       		.sleb128 -4
 930 00ca 9F       		.byte	0x9f
 931 00cb BC000000 		.4byte	.LVL24
 932 00cf C0000000 		.4byte	.LVL25
 933 00d3 0100     		.2byte	0x1
 934 00d5 54       		.byte	0x54
 935 00d6 00000000 		.4byte	0
 936 00da 00000000 		.4byte	0
 937              		.section	.debug_aranges,"",%progbits
 938 0000 34000000 		.4byte	0x34
 939 0004 0200     		.2byte	0x2
 940 0006 00000000 		.4byte	.Ldebug_info0
 941 000a 04       		.byte	0x4
 942 000b 00       		.byte	0
 943 000c 0000     		.2byte	0
 944 000e 0000     		.2byte	0
 945 0010 00000000 		.4byte	.LFB0
 946 0014 02000000 		.4byte	.LFE0-.LFB0
 947 0018 00000000 		.4byte	.LFB1
 948 001c 02000000 		.4byte	.LFE1-.LFB1
 949 0020 00000000 		.4byte	.LFB2
 950 0024 02000000 		.4byte	.LFE2-.LFB2
 951 0028 00000000 		.4byte	.LFB3
 952 002c FC000000 		.4byte	.LFE3-.LFB3
 953 0030 00000000 		.4byte	0
 954 0034 00000000 		.4byte	0
 955              		.section	.debug_ranges,"",%progbits
 956              	.Ldebug_ranges0:
 957 0000 94000000 		.4byte	.LBB6
 958 0004 98000000 		.4byte	.LBE6
 959 0008 9C000000 		.4byte	.LBB7
 960 000c AA000000 		.4byte	.LBE7
ARM GAS  /var/folders/4k/6h5l9jl178sb4hslwv3xp1mr0000gn/T//ccy5urRj.s 			page 18


 961 0010 00000000 		.4byte	0
 962 0014 00000000 		.4byte	0
 963 0018 AA000000 		.4byte	.LBB8
 964 001c AE000000 		.4byte	.LBE8
 965 0020 B2000000 		.4byte	.LBB9
 966 0024 C0000000 		.4byte	.LBE9
 967 0028 00000000 		.4byte	0
 968 002c 00000000 		.4byte	0
 969 0030 00000000 		.4byte	.LFB0
 970 0034 02000000 		.4byte	.LFE0
 971 0038 00000000 		.4byte	.LFB1
 972 003c 02000000 		.4byte	.LFE1
 973 0040 00000000 		.4byte	.LFB2
 974 0044 02000000 		.4byte	.LFE2
 975 0048 00000000 		.4byte	.LFB3
 976 004c FC000000 		.4byte	.LFE3
 977 0050 00000000 		.4byte	0
 978 0054 00000000 		.4byte	0
 979              		.section	.debug_line,"",%progbits
 980              	.Ldebug_line0:
 981 0000 9E010000 		.section	.debug_str,"MS",%progbits,1
 981      02002001 
 981      00000201 
 981      FB0E0D00 
 981      01010101 
 982              	.LASF25:
 983 0000 5F627373 		.ascii	"_bss_start\000"
 983      5F737461 
 983      727400
 984              	.LASF5:
 985 000b 5F5F7569 		.ascii	"__uint8_t\000"
 985      6E74385F 
 985      7400
 986              	.LASF30:
 987 0015 5F5F6669 		.ascii	"__fini_array_end\000"
 987      6E695F61 
 987      72726179 
 987      5F656E64 
 987      00
 988              	.LASF33:
 989 0026 2F557365 		.ascii	"/Users/mikevanis/Documents/workspace/STM32_DCMI_CAM"
 989      72732F6D 
 989      696B6576 
 989      616E6973 
 989      2F446F63 
 990 0059 4552412F 		.ascii	"ERA/\000"
 990      00
 991              	.LASF20:
 992 005e 5F5F7072 		.ascii	"__process_stack_base__\000"
 992      6F636573 
 992      735F7374 
 992      61636B5F 
 992      62617365 
 993              	.LASF14:
 994 0075 66756E63 		.ascii	"funcpp_t\000"
 994      70705F74 
 994      00
ARM GAS  /var/folders/4k/6h5l9jl178sb4hslwv3xp1mr0000gn/T//ccy5urRj.s 			page 19


 995              	.LASF17:
 996 007e 5F646566 		.ascii	"_default_exit\000"
 996      61756C74 
 996      5F657869 
 996      7400
 997              	.LASF1:
 998 008c 756E7369 		.ascii	"unsigned char\000"
 998      676E6564 
 998      20636861 
 998      7200
 999              	.LASF16:
 1000 009a 5F5F6C61 		.ascii	"__late_init\000"
 1000      74655F69 
 1000      6E697400 
 1001              	.LASF7:
 1002 00a6 6C6F6E67 		.ascii	"long unsigned int\000"
 1002      20756E73 
 1002      69676E65 
 1002      6420696E 
 1002      7400
 1003              	.LASF34:
 1004 00b8 52657365 		.ascii	"ResetHandler\000"
 1004      7448616E 
 1004      646C6572 
 1004      00
 1005              	.LASF3:
 1006 00c5 73686F72 		.ascii	"short unsigned int\000"
 1006      7420756E 
 1006      7369676E 
 1006      65642069 
 1006      6E7400
 1007              	.LASF29:
 1008 00d8 5F5F6669 		.ascii	"__fini_array_start\000"
 1008      6E695F61 
 1008      72726179 
 1008      5F737461 
 1008      727400
 1009              	.LASF19:
 1010 00eb 5F5F6D61 		.ascii	"__main_stack_end__\000"
 1010      696E5F73 
 1010      7461636B 
 1010      5F656E64 
 1010      5F5F00
 1011              	.LASF26:
 1012 00fe 5F627373 		.ascii	"_bss_end\000"
 1012      5F656E64 
 1012      00
 1013              	.LASF28:
 1014 0107 5F5F696E 		.ascii	"__init_array_end\000"
 1014      69745F61 
 1014      72726179 
 1014      5F656E64 
 1014      00
 1015              	.LASF6:
 1016 0118 5F5F7569 		.ascii	"__uint32_t\000"
 1016      6E743332 
 1016      5F7400
ARM GAS  /var/folders/4k/6h5l9jl178sb4hslwv3xp1mr0000gn/T//ccy5urRj.s 			page 20


 1017              	.LASF35:
 1018 0123 6D61696E 		.ascii	"main\000"
 1018      00
 1019              	.LASF10:
 1020 0128 756E7369 		.ascii	"unsigned int\000"
 1020      676E6564 
 1020      20696E74 
 1020      00
 1021              	.LASF9:
 1022 0135 6C6F6E67 		.ascii	"long long unsigned int\000"
 1022      206C6F6E 
 1022      6720756E 
 1022      7369676E 
 1022      65642069 
 1023              	.LASF11:
 1024 014c 75696E74 		.ascii	"uint8_t\000"
 1024      385F7400 
 1025              	.LASF22:
 1026 0154 5F746578 		.ascii	"_textdata\000"
 1026      74646174 
 1026      6100
 1027              	.LASF15:
 1028 015e 5F5F6561 		.ascii	"__early_init\000"
 1028      726C795F 
 1028      696E6974 
 1028      00
 1029              	.LASF8:
 1030 016b 6C6F6E67 		.ascii	"long long int\000"
 1030      206C6F6E 
 1030      6720696E 
 1030      7400
 1031              	.LASF24:
 1032 0179 5F656461 		.ascii	"_edata\000"
 1032      746100
 1033              	.LASF18:
 1034 0180 5F5F6D61 		.ascii	"__main_stack_base__\000"
 1034      696E5F73 
 1034      7461636B 
 1034      5F626173 
 1034      655F5F00 
 1035              	.LASF2:
 1036 0194 73686F72 		.ascii	"short int\000"
 1036      7420696E 
 1036      7400
 1037              	.LASF32:
 1038 019e 2E2E2F43 		.ascii	"../ChibiStudio/ChibiOS/os/ports/GCC/ARMCMx/crt0.c\000"
 1038      68696269 
 1038      53747564 
 1038      696F2F43 
 1038      68696269 
 1039              	.LASF13:
 1040 01d0 66756E63 		.ascii	"funcp_t\000"
 1040      705F7400 
 1041              	.LASF12:
 1042 01d8 75696E74 		.ascii	"uint32_t\000"
 1042      33325F74 
 1042      00
ARM GAS  /var/folders/4k/6h5l9jl178sb4hslwv3xp1mr0000gn/T//ccy5urRj.s 			page 21


 1043              	.LASF4:
 1044 01e1 6C6F6E67 		.ascii	"long int\000"
 1044      20696E74 
 1044      00
 1045              	.LASF23:
 1046 01ea 5F646174 		.ascii	"_data\000"
 1046      6100
 1047              	.LASF0:
 1048 01f0 7369676E 		.ascii	"signed char\000"
 1048      65642063 
 1048      68617200 
 1049              	.LASF21:
 1050 01fc 5F5F7072 		.ascii	"__process_stack_end__\000"
 1050      6F636573 
 1050      735F7374 
 1050      61636B5F 
 1050      656E645F 
 1051              	.LASF27:
 1052 0212 5F5F696E 		.ascii	"__init_array_start\000"
 1052      69745F61 
 1052      72726179 
 1052      5F737461 
 1052      727400
 1053              	.LASF31:
 1054 0225 474E5520 		.ascii	"GNU C 4.8.3 20140228 (release) [ARM/embedded-4_8-br"
 1054      4320342E 
 1054      382E3320 
 1054      32303134 
 1054      30323238 
 1055 0258 616E6368 		.ascii	"anch revision 208322] -mcpu=cortex-m4 -mno-thumb-in"
 1055      20726576 
 1055      6973696F 
 1055      6E203230 
 1055      38333232 
 1056 028b 74657277 		.ascii	"terwork -mthumb -ggdb -O2 -fomit-frame-pointer -fal"
 1056      6F726B20 
 1056      2D6D7468 
 1056      756D6220 
 1056      2D676764 
 1057 02be 69676E2D 		.ascii	"ign-functions=16 -ffunction-sections -fdata-section"
 1057      66756E63 
 1057      74696F6E 
 1057      733D3136 
 1057      202D6666 
 1058 02f1 73202D66 		.ascii	"s -fno-common\000"
 1058      6E6F2D63 
 1058      6F6D6D6F 
 1058      6E00
 1059              		.ident	"GCC: (GNU Tools for ARM Embedded Processors) 4.8.3 20140228 (release) [ARM/embedded-4_8-br
ARM GAS  /var/folders/4k/6h5l9jl178sb4hslwv3xp1mr0000gn/T//ccy5urRj.s 			page 22


DEFINED SYMBOLS
                            *ABS*:0000000000000000 crt0.c
/var/folders/4k/6h5l9jl178sb4hslwv3xp1mr0000gn/T//ccy5urRj.s:19     .text.__early_init:0000000000000000 $t
/var/folders/4k/6h5l9jl178sb4hslwv3xp1mr0000gn/T//ccy5urRj.s:25     .text.__early_init:0000000000000000 __early_init
/var/folders/4k/6h5l9jl178sb4hslwv3xp1mr0000gn/T//ccy5urRj.s:38     .text.__late_init:0000000000000000 $t
/var/folders/4k/6h5l9jl178sb4hslwv3xp1mr0000gn/T//ccy5urRj.s:44     .text.__late_init:0000000000000000 __late_init
/var/folders/4k/6h5l9jl178sb4hslwv3xp1mr0000gn/T//ccy5urRj.s:56     .text._default_exit:0000000000000000 $t
/var/folders/4k/6h5l9jl178sb4hslwv3xp1mr0000gn/T//ccy5urRj.s:62     .text._default_exit:0000000000000000 _default_exit
/var/folders/4k/6h5l9jl178sb4hslwv3xp1mr0000gn/T//ccy5urRj.s:75     .text.ResetHandler:0000000000000000 $t
/var/folders/4k/6h5l9jl178sb4hslwv3xp1mr0000gn/T//ccy5urRj.s:81     .text.ResetHandler:0000000000000000 ResetHandler
/var/folders/4k/6h5l9jl178sb4hslwv3xp1mr0000gn/T//ccy5urRj.s:264    .text.ResetHandler:00000000000000c4 $d
                     .debug_frame:0000000000000010 $d
/var/folders/4k/6h5l9jl178sb4hslwv3xp1mr0000gn/T//ccy5urRj.s:281    .text.ResetHandler:00000000000000fc $t

UNDEFINED SYMBOLS
main
__process_stack_end__
__main_stack_base__
__main_stack_end__
__process_stack_base__
_data
_edata
_textdata
_bss_start
_bss_end
__init_array_end
__init_array_start
__fini_array_end
__fini_array_start
