ARM GAS  /var/folders/4k/6h5l9jl178sb4hslwv3xp1mr0000gn/T//cckdPLsp.s 			page 1


   1              		.syntax unified
   2              		.cpu cortex-m4
   3              		.fpu softvfp
   4              		.eabi_attribute 20, 1
   5              		.eabi_attribute 21, 1
   6              		.eabi_attribute 23, 3
   7              		.eabi_attribute 24, 1
   8              		.eabi_attribute 25, 1
   9              		.eabi_attribute 26, 1
  10              		.eabi_attribute 30, 2
  11              		.eabi_attribute 34, 1
  12              		.eabi_attribute 18, 4
  13              		.thumb
  14              		.file	"dcmi_lld.c"
  15              		.text
  16              	.Ltext0:
  17              		.cfi_sections	.debug_frame
  18              		.section	.text.dcmi_lld_serve_dma_rx_interrupt,"ax",%progbits
  19              		.align	2
  20              		.p2align 4,,15
  21              		.thumb
  22              		.thumb_func
  23              		.type	dcmi_lld_serve_dma_rx_interrupt, %function
  24              	dcmi_lld_serve_dma_rx_interrupt:
  25              	.LFB119:
  26              		.file 1 "../ChibiStudio/ChibiOS/os/hal/platforms/STM32F4xx/dcmi_lld.c"
  27              		.loc 1 66 0
  28              		.cfi_startproc
  29              		@ args = 0, pretend = 0, frame = 8
  30              		@ frame_needed = 0, uses_anonymous_args = 0
  31              	.LVL0:
  32 0000 00B5     		push	{lr}
  33              		.cfi_def_cfa_offset 4
  34              		.cfi_offset 14, -4
  35              		.loc 1 70 0
  36 0002 11F00C0F 		tst	r1, #12
  37              		.loc 1 66 0
  38 0006 83B0     		sub	sp, sp, #12
  39              		.cfi_def_cfa_offset 16
  40              		.loc 1 70 0
  41 0008 06D1     		bne	.L11
  42              	.LVL1:
  43              	.L2:
  44              		.loc 1 77 0
  45 000a 4368     		ldr	r3, [r0, #4]
  46 000c 5B68     		ldr	r3, [r3, #4]
  47 000e 03B1     		cbz	r3, .L1
  48              		.loc 1 78 0
  49 0010 9847     		blx	r3
  50              	.LVL2:
  51              	.L1:
  52              		.loc 1 80 0
  53 0012 03B0     		add	sp, sp, #12
  54              		@ sp needed
  55 0014 5DF804FB 		ldr	pc, [sp], #4
  56              	.LVL3:
  57              	.L11:
ARM GAS  /var/folders/4k/6h5l9jl178sb4hslwv3xp1mr0000gn/T//cckdPLsp.s 			page 2


  58              		.loc 1 71 0
  59 0018 0190     		str	r0, [sp, #4]
  60 001a FFF7FEFF 		bl	port_halt
  61              	.LVL4:
  62 001e 0198     		ldr	r0, [sp, #4]
  63 0020 F3E7     		b	.L2
  64              		.cfi_endproc
  65              	.LFE119:
  66              		.size	dcmi_lld_serve_dma_rx_interrupt, .-dcmi_lld_serve_dma_rx_interrupt
  67 0022 00BFAFF3 		.section	.text.Vector178,"ax",%progbits
  67      0080AFF3 
  67      0080AFF3 
  67      0080
  68              		.align	2
  69              		.p2align 4,,15
  70              		.global	Vector178
  71              		.thumb
  72              		.thumb_func
  73              		.type	Vector178, %function
  74              	Vector178:
  75              	.LFB120:
  76              		.loc 1 93 0
  77              		.cfi_startproc
  78              		@ args = 0, pretend = 0, frame = 0
  79              		@ frame_needed = 0, uses_anonymous_args = 0
  80 0000 38B5     		push	{r3, r4, r5, lr}
  81              		.cfi_def_cfa_offset 16
  82              		.cfi_offset 3, -16
  83              		.cfi_offset 4, -12
  84              		.cfi_offset 5, -8
  85              		.cfi_offset 14, -4
  86              		.loc 1 97 0
  87 0002 154B     		ldr	r3, .L23
  88              	.LBB2:
  89              		.loc 1 98 0
  90 0004 154C     		ldr	r4, .L23+4
  91              	.LBE2:
  92              		.loc 1 97 0
  93 0006 5969     		ldr	r1, [r3, #20]
  94              	.LBB6:
  95              		.loc 1 98 0
  96 0008 6268     		ldr	r2, [r4, #4]
  97              	.LBE6:
  98              		.loc 1 97 0
  99 000a 41F01F01 		orr	r1, r1, #31
 100 000e 5961     		str	r1, [r3, #20]
 101              	.LBB7:
 102              		.loc 1 98 0
 103 0010 2178     		ldrb	r1, [r4]	@ zero_extendqisi2
 104 0012 1368     		ldr	r3, [r2]
 105 0014 0A1F     		subs	r2, r1, #4
 106 0016 5542     		rsbs	r5, r2, #0
 107 0018 5541     		adcs	r5, r5, r2
 108              	.LVL5:
 109 001a BBB1     		cbz	r3, .L13
 110              		.loc 1 98 0 is_stmt 0 discriminator 1
 111 001c 0522     		movs	r2, #5
ARM GAS  /var/folders/4k/6h5l9jl178sb4hslwv3xp1mr0000gn/T//cckdPLsp.s 			page 3


 112 001e 2270     		strb	r2, [r4]
 113 0020 2046     		mov	r0, r4
 114 0022 9847     		blx	r3
 115              	.LVL6:
 116 0024 2378     		ldrb	r3, [r4]	@ zero_extendqisi2
 117 0026 052B     		cmp	r3, #5
 118 0028 10D0     		beq	.L13
 119              	.L14:
 120              		.loc 1 98 0 discriminator 4
 121 002a A068     		ldr	r0, [r4, #8]
 122 002c 0B4B     		ldr	r3, .L23+4
 123 002e 48B1     		cbz	r0, .L17
 124              	.LVL7:
 125              	.LBB3:
 126              		.loc 1 98 0 discriminator 1
 127 0030 0022     		movs	r2, #0
 128 0032 9A60     		str	r2, [r3, #8]
 129              	.LBB4:
 130 0034 2023     		movs	r3, #32
 131              	@ 98 "../ChibiStudio/ChibiOS/os/hal/platforms/STM32F4xx/dcmi_lld.c" 1
 132 0036 83F31188 		msr     BASEPRI, r3
 133              	@ 0 "" 2
 134              		.thumb
 135              	.LBE4:
 136 003a FFF7FEFF 		bl	chSchReadyI
 137              	.LVL8:
 138              	.LBB5:
 139 003e 0023     		movs	r3, #0
 140              	@ 98 "../ChibiStudio/ChibiOS/os/hal/platforms/STM32F4xx/dcmi_lld.c" 1
 141 0040 83F31188 		msr     BASEPRI, r3
 142              	@ 0 "" 2
 143              		.thumb
 144              	.L17:
 145              	.LBE5:
 146              	.LBE3:
 147              	.LBE7:
 148              		.loc 1 102 0 is_stmt 1
 149 0044 BDE83840 		pop	{r3, r4, r5, lr}
 150              	.LVL9:
 151              		.loc 1 101 0
 152 0048 FFF7FEBF 		b	_port_irq_epilogue
 153              	.LVL10:
 154              	.L13:
 155              	.LBB8:
 156              		.loc 1 98 0 discriminator 2
 157 004c 002D     		cmp	r5, #0
 158 004e 0CBF     		ite	eq
 159 0050 0323     		moveq	r3, #3
 160 0052 0223     		movne	r3, #2
 161 0054 2370     		strb	r3, [r4]
 162 0056 E8E7     		b	.L14
 163              	.L24:
 164              		.align	2
 165              	.L23:
 166 0058 00000550 		.word	1342504960
 167 005c 00000000 		.word	.LANCHOR0
 168              	.LBE8:
ARM GAS  /var/folders/4k/6h5l9jl178sb4hslwv3xp1mr0000gn/T//cckdPLsp.s 			page 4


 169              		.cfi_endproc
 170              	.LFE120:
 171              		.size	Vector178, .-Vector178
 172              		.section	.text.dcmi_lld_init,"ax",%progbits
 173              		.align	2
 174              		.p2align 4,,15
 175              		.global	dcmi_lld_init
 176              		.thumb
 177              		.thumb_func
 178              		.type	dcmi_lld_init, %function
 179              	dcmi_lld_init:
 180              	.LFB121:
 181              		.loc 1 114 0
 182              		.cfi_startproc
 183              		@ args = 0, pretend = 0, frame = 0
 184              		@ frame_needed = 0, uses_anonymous_args = 0
 185 0000 10B5     		push	{r4, lr}
 186              		.cfi_def_cfa_offset 8
 187              		.cfi_offset 4, -8
 188              		.cfi_offset 14, -4
 189              		.loc 1 117 0
 190 0002 054C     		ldr	r4, .L26
 191 0004 2046     		mov	r0, r4
 192 0006 FFF7FEFF 		bl	dcmiObjectInit
 193              	.LVL11:
 194              		.loc 1 118 0
 195 000a 0449     		ldr	r1, .L26+4
 196              		.loc 1 119 0
 197 000c 044A     		ldr	r2, .L26+8
 198              		.loc 1 120 0
 199 000e 054B     		ldr	r3, .L26+12
 200              		.loc 1 118 0
 201 0010 E160     		str	r1, [r4, #12]
 202              		.loc 1 119 0
 203 0012 2261     		str	r2, [r4, #16]
 204              		.loc 1 120 0
 205 0014 6361     		str	r3, [r4, #20]
 206 0016 10BD     		pop	{r4, pc}
 207              	.L27:
 208              		.align	2
 209              	.L26:
 210 0018 00000000 		.word	.LANCHOR0
 211 001c 00000550 		.word	1342504960
 212 0020 6C000000 		.word	_stm32_dma_streams+108
 213 0024 16540202 		.word	33707030
 214              		.cfi_endproc
 215              	.LFE121:
 216              		.size	dcmi_lld_init, .-dcmi_lld_init
 217 0028 AFF30080 		.section	.text.dcmi_lld_start,"ax",%progbits
 217      AFF30080 
 218              		.align	2
 219              		.p2align 4,,15
 220              		.global	dcmi_lld_start
 221              		.thumb
 222              		.thumb_func
 223              		.type	dcmi_lld_start, %function
 224              	dcmi_lld_start:
ARM GAS  /var/folders/4k/6h5l9jl178sb4hslwv3xp1mr0000gn/T//cckdPLsp.s 			page 5


 225              	.LFB122:
 226              		.loc 1 142 0
 227              		.cfi_startproc
 228              		@ args = 0, pretend = 0, frame = 0
 229              		@ frame_needed = 0, uses_anonymous_args = 0
 230              	.LVL12:
 231              		.loc 1 144 0
 232 0000 194B     		ldr	r3, .L33
 233              		.loc 1 145 0
 234 0002 0278     		ldrb	r2, [r0]	@ zero_extendqisi2
 235              		.loc 1 144 0
 236 0004 596B     		ldr	r1, [r3, #52]
 237              		.loc 1 145 0
 238 0006 012A     		cmp	r2, #1
 239              		.loc 1 144 0
 240 0008 41F00101 		orr	r1, r1, #1
 241              		.loc 1 142 0
 242 000c 10B5     		push	{r4, lr}
 243              		.cfi_def_cfa_offset 8
 244              		.cfi_offset 4, -8
 245              		.cfi_offset 14, -4
 246              		.loc 1 142 0
 247 000e 0446     		mov	r4, r0
 248              		.loc 1 144 0
 249 0010 5963     		str	r1, [r3, #52]
 250              		.loc 1 145 0
 251 0012 18D0     		beq	.L31
 252              	.LVL13:
 253              	.L29:
 254              		.loc 1 161 0
 255 0014 6369     		ldr	r3, [r4, #20]
 256 0016 23F4F043 		bic	r3, r3, #30720
 257              		.loc 1 162 0
 258 001a 43F4A043 		orr	r3, r3, #20480
 259              		.loc 1 161 0
 260 001e 6361     		str	r3, [r4, #20]
 261              		.loc 1 164 0
 262 0020 B021     		movs	r1, #176
 263 0022 4E20     		movs	r0, #78
 264 0024 FFF7FEFF 		bl	nvicEnableVector
 265              	.LVL14:
 266              		.loc 1 167 0
 267 0028 E368     		ldr	r3, [r4, #12]
 268              		.loc 1 168 0
 269 002a 6268     		ldr	r2, [r4, #4]
 270              		.loc 1 167 0
 271 002c D968     		ldr	r1, [r3, #12]
 272              		.loc 1 168 0
 273 002e 9268     		ldr	r2, [r2, #8]
 274              		.loc 1 167 0
 275 0030 41F00901 		orr	r1, r1, #9
 276 0034 D960     		str	r1, [r3, #12]
 277              		.loc 1 168 0
 278 0036 1968     		ldr	r1, [r3]
 279 0038 22F48042 		bic	r2, r2, #16384
 280 003c 22F00102 		bic	r2, r2, #1
 281 0040 0A43     		orrs	r2, r2, r1
ARM GAS  /var/folders/4k/6h5l9jl178sb4hslwv3xp1mr0000gn/T//cckdPLsp.s 			page 6


 282 0042 1A60     		str	r2, [r3]
 283 0044 10BD     		pop	{r4, pc}
 284              	.LVL15:
 285              	.L31:
 286              		.loc 1 147 0
 287 0046 094B     		ldr	r3, .L33+4
 288 0048 9842     		cmp	r0, r3
 289 004a 05D0     		beq	.L32
 290              	.LVL16:
 291              	.L30:
 292              		.loc 1 157 0
 293 004c 2269     		ldr	r2, [r4, #16]
 294 004e E368     		ldr	r3, [r4, #12]
 295 0050 1268     		ldr	r2, [r2]
 296 0052 2833     		adds	r3, r3, #40
 297 0054 9360     		str	r3, [r2, #8]
 298 0056 DDE7     		b	.L29
 299              	.LVL17:
 300              	.L32:
 301              	.LBB9:
 302              		.loc 1 149 0
 303 0058 054A     		ldr	r2, .L33+8
 304 005a 0069     		ldr	r0, [r0, #16]
 305              	.LVL18:
 306 005c 0A21     		movs	r1, #10
 307 005e 2346     		mov	r3, r4
 308 0060 FFF7FEFF 		bl	dmaStreamAllocate
 309              	.LVL19:
 310 0064 F2E7     		b	.L30
 311              	.L34:
 312 0066 00BF     		.align	2
 313              	.L33:
 314 0068 00380240 		.word	1073887232
 315 006c 00000000 		.word	.LANCHOR0
 316 0070 00000000 		.word	dcmi_lld_serve_dma_rx_interrupt
 317              	.LBE9:
 318              		.cfi_endproc
 319              	.LFE122:
 320              		.size	dcmi_lld_start, .-dcmi_lld_start
 321 0074 AFF30080 		.section	.text.dcmi_lld_stop,"ax",%progbits
 321      AFF30080 
 321      AFF30080 
 322              		.align	2
 323              		.p2align 4,,15
 324              		.global	dcmi_lld_stop
 325              		.thumb
 326              		.thumb_func
 327              		.type	dcmi_lld_stop, %function
 328              	dcmi_lld_stop:
 329              	.LFB123:
 330              		.loc 1 179 0
 331              		.cfi_startproc
 332              		@ args = 0, pretend = 0, frame = 0
 333              		@ frame_needed = 0, uses_anonymous_args = 0
 334              	.LVL20:
 335              		.loc 1 181 0
 336 0000 0378     		ldrb	r3, [r0]	@ zero_extendqisi2
ARM GAS  /var/folders/4k/6h5l9jl178sb4hslwv3xp1mr0000gn/T//cckdPLsp.s 			page 7


 337 0002 022B     		cmp	r3, #2
 338              		.loc 1 179 0
 339 0004 10B5     		push	{r4, lr}
 340              		.cfi_def_cfa_offset 8
 341              		.cfi_offset 4, -8
 342              		.cfi_offset 14, -4
 343              		.loc 1 179 0
 344 0006 0446     		mov	r4, r0
 345              		.loc 1 181 0
 346 0008 02D0     		beq	.L36
 347              		.loc 1 181 0 is_stmt 0 discriminator 1
 348 000a 052B     		cmp	r3, #5
 349 000c 00D0     		beq	.L36
 350 000e 10BD     		pop	{r4, pc}
 351              	.L36:
 352              		.loc 1 183 0 is_stmt 1
 353 0010 E368     		ldr	r3, [r4, #12]
 354              		.loc 1 185 0
 355 0012 2069     		ldr	r0, [r4, #16]
 356              	.LVL21:
 357              		.loc 1 183 0
 358 0014 1A68     		ldr	r2, [r3]
 359 0016 22F48042 		bic	r2, r2, #16384
 360 001a 22F00102 		bic	r2, r2, #1
 361 001e 1A60     		str	r2, [r3]
 362              		.loc 1 184 0
 363 0020 DA68     		ldr	r2, [r3, #12]
 364 0022 22F00902 		bic	r2, r2, #9
 365 0026 DA60     		str	r2, [r3, #12]
 366              		.loc 1 185 0
 367 0028 FFF7FEFF 		bl	dmaStreamRelease
 368              	.LVL22:
 369              		.loc 1 188 0
 370 002c 064B     		ldr	r3, .L43
 371 002e 9C42     		cmp	r4, r3
 372 0030 04D0     		beq	.L42
 373              	.L38:
 374              		.loc 1 191 0
 375 0032 4E20     		movs	r0, #78
 376              		.loc 1 193 0
 377 0034 BDE81040 		pop	{r4, lr}
 378              	.LVL23:
 379              		.loc 1 191 0
 380 0038 FFF7FEBF 		b	nvicDisableVector
 381              	.LVL24:
 382              	.L42:
 383              		.loc 1 189 0
 384 003c 034B     		ldr	r3, .L43+4
 385 003e 5A6B     		ldr	r2, [r3, #52]
 386 0040 22F00102 		bic	r2, r2, #1
 387 0044 5A63     		str	r2, [r3, #52]
 388 0046 F4E7     		b	.L38
 389              	.L44:
 390              		.align	2
 391              	.L43:
 392 0048 00000000 		.word	.LANCHOR0
 393 004c 00380240 		.word	1073887232
ARM GAS  /var/folders/4k/6h5l9jl178sb4hslwv3xp1mr0000gn/T//cckdPLsp.s 			page 8


 394              		.cfi_endproc
 395              	.LFE123:
 396              		.size	dcmi_lld_stop, .-dcmi_lld_stop
 397              		.section	.text.dcmi_lld_receive,"ax",%progbits
 398              		.align	2
 399              		.p2align 4,,15
 400              		.global	dcmi_lld_receive
 401              		.thumb
 402              		.thumb_func
 403              		.type	dcmi_lld_receive, %function
 404              	dcmi_lld_receive:
 405              	.LFB124:
 406              		.loc 1 213 0
 407              		.cfi_startproc
 408              		@ args = 4, pretend = 0, frame = 0
 409              		@ frame_needed = 0, uses_anonymous_args = 0
 410              		@ link register save eliminated.
 411              	.LVL25:
 412 0000 F0B4     		push	{r4, r5, r6, r7}
 413              		.cfi_def_cfa_offset 16
 414              		.cfi_offset 4, -16
 415              		.cfi_offset 5, -12
 416              		.cfi_offset 6, -8
 417              		.cfi_offset 7, -4
 418              		.loc 1 216 0
 419 0002 0469     		ldr	r4, [r0, #16]
 420              		.loc 1 213 0
 421 0004 049D     		ldr	r5, [sp, #16]
 422              		.loc 1 229 0
 423 0006 134F     		ldr	r7, .L51
 424 0008 134E     		ldr	r6, .L51+4
 425              		.loc 1 216 0
 426 000a 2468     		ldr	r4, [r4]
 427              		.loc 1 218 0
 428 000c 4FEA910C 		lsr	ip, r1, #2
 429              		.loc 1 229 0
 430 0010 002D     		cmp	r5, #0
 431 0012 18BF     		it	ne
 432 0014 3E46     		movne	r6, r7
 433              		.loc 1 234 0
 434 0016 0521     		movs	r1, #5
 435              	.LVL26:
 436              		.loc 1 216 0
 437 0018 E360     		str	r3, [r4, #12]
 438              		.loc 1 217 0
 439 001a 2561     		str	r5, [r4, #16]
 440              		.loc 1 218 0
 441 001c C4F804C0 		str	ip, [r4, #4]
 442              	.LVL27:
 443              		.loc 1 233 0
 444 0020 2660     		str	r6, [r4]
 445              		.loc 1 234 0
 446 0022 6161     		str	r1, [r4, #20]
 447              		.loc 1 237 0
 448 0024 2368     		ldr	r3, [r4]
 449              	.LVL28:
 450 0026 43F00103 		orr	r3, r3, #1
ARM GAS  /var/folders/4k/6h5l9jl178sb4hslwv3xp1mr0000gn/T//cckdPLsp.s 			page 9


 451 002a 2360     		str	r3, [r4]
 452              		.loc 1 241 0
 453 002c C368     		ldr	r3, [r0, #12]
 454              		.loc 1 242 0
 455 002e 6AB9     		cbnz	r2, .L50
 456              		.loc 1 242 0 is_stmt 0 discriminator 1
 457 0030 1A68     		ldr	r2, [r3]
 458              	.LVL29:
 459 0032 22F00202 		bic	r2, r2, #2
 460              	.L48:
 461              		.loc 1 241 0 is_stmt 1
 462 0036 1A60     		str	r2, [r3]
 463              		.loc 1 243 0
 464 0038 1A68     		ldr	r2, [r3]
 465 003a 42F48042 		orr	r2, r2, #16384
 466 003e 1A60     		str	r2, [r3]
 467              		.loc 1 244 0
 468 0040 1A68     		ldr	r2, [r3]
 469 0042 42F00102 		orr	r2, r2, #1
 470 0046 1A60     		str	r2, [r3]
 471              		.loc 1 245 0
 472 0048 F0BC     		pop	{r4, r5, r6, r7}
 473              	.LVL30:
 474 004a 7047     		bx	lr
 475              	.LVL31:
 476              	.L50:
 477              		.loc 1 241 0
 478 004c 1A68     		ldr	r2, [r3]
 479              	.LVL32:
 480              		.loc 1 242 0
 481 004e 42F00202 		orr	r2, r2, #2
 482 0052 F0E7     		b	.L48
 483              	.L52:
 484              		.align	2
 485              	.L51:
 486 0054 00540602 		.word	33969152
 487 0058 00540202 		.word	33707008
 488              		.cfi_endproc
 489              	.LFE124:
 490              		.size	dcmi_lld_receive, .-dcmi_lld_receive
 491              		.global	DCMID1
 492 005c AFF30080 		.section	.bss.DCMID1,"aw",%nobits
 493              		.align	2
 494              		.set	.LANCHOR0,. + 0
 495              		.type	DCMID1, %object
 496              		.size	DCMID1, 24
 497              	DCMID1:
 498 0000 00000000 		.space	24
 498      00000000 
 498      00000000 
 498      00000000 
 498      00000000 
 499              		.text
 500              	.Letext0:
 501              		.file 2 "/Users/mikevanis/Documents/workspace/gcc-arm-none-eabi-4_8-2014q1/lib/gcc/arm-none-eabi/4
 502              		.file 3 "/Users/mikevanis/Documents/workspace/gcc-arm-none-eabi-4_8-2014q1/arm-none-eabi/include/m
 503              		.file 4 "/Users/mikevanis/Documents/workspace/gcc-arm-none-eabi-4_8-2014q1/arm-none-eabi/include/s
ARM GAS  /var/folders/4k/6h5l9jl178sb4hslwv3xp1mr0000gn/T//cckdPLsp.s 			page 10


 504              		.file 5 "../ChibiStudio/ChibiOS/os/ports/GCC/ARMCMx/chtypes.h"
 505              		.file 6 "../ChibiStudio/ChibiOS/os/kernel/include/chlists.h"
 506              		.file 7 "../ChibiStudio/ChibiOS/os/kernel/include/chthreads.h"
 507              		.file 8 "../ChibiStudio/ChibiOS/os/ports/GCC/ARMCMx/chcore_v7m.h"
 508              		.file 9 "../ChibiStudio/ChibiOS/os/kernel/include/chmtx.h"
 509              		.file 10 "../ChibiStudio/ChibiOS/os/hal/platforms/STM32F4xx/stm32f4xx.h"
 510              		.file 11 "../ChibiStudio/ChibiOS/os/hal/platforms/STM32F4xx/stm32_dma.h"
 511              		.file 12 "../ChibiStudio/ChibiOS/os/hal/include/dcmi.h"
 512              		.file 13 "../ChibiStudio/ChibiOS/os/hal/platforms/STM32F4xx/dcmi_lld.h"
 513              		.file 14 "../ChibiStudio/ChibiOS/os/ports/common/ARMCMx/CMSIS/include/core_cm4.h"
 514              		.file 15 "../ChibiStudio/ChibiOS/os/kernel/include/chschd.h"
 515              		.file 16 "../ChibiStudio/ChibiOS/os/ports/common/ARMCMx/nvic.h"