ARM GAS  /var/folders/4k/6h5l9jl178sb4hslwv3xp1mr0000gn/T//cckdPLsp.s 			page 1


   1              		.syntax unified
   2              		.cpu cortex-m4
   3              		.fpu softvfp
   4              		.eabi_attribute 20, 1
   5              		.eabi_attribute 21, 1
   6              		.eabi_attribute 23, 3
   7              		.eabi_attribute 24, 1
   8              		.eabi_attribute 25, 1
   9              		.eabi_attribute 26, 1
  10              		.eabi_attribute 30, 2
  11              		.eabi_attribute 34, 1
  12              		.eabi_attribute 18, 4
  13              		.thumb
  14              		.file	"dcmi_lld.c"
  15              		.text
  16              	.Ltext0:
  17              		.cfi_sections	.debug_frame
  18              		.section	.text.dcmi_lld_serve_dma_rx_interrupt,"ax",%progbits
  19              		.align	2
  20              		.p2align 4,,15
  21              		.thumb
  22              		.thumb_func
  23              		.type	dcmi_lld_serve_dma_rx_interrupt, %function
  24              	dcmi_lld_serve_dma_rx_interrupt:
  25              	.LFB119:
  26              		.file 1 "../ChibiStudio/ChibiOS/os/hal/platforms/STM32F4xx/dcmi_lld.c"
  27              		.loc 1 66 0
  28              		.cfi_startproc
  29              		@ args = 0, pretend = 0, frame = 8
  30              		@ frame_needed = 0, uses_anonymous_args = 0
  31              	.LVL0:
  32 0000 00B5     		push	{lr}
  33              		.cfi_def_cfa_offset 4
  34              		.cfi_offset 14, -4
  35              		.loc 1 70 0
  36 0002 11F00C0F 		tst	r1, #12
  37              		.loc 1 66 0
  38 0006 83B0     		sub	sp, sp, #12
  39              		.cfi_def_cfa_offset 16
  40              		.loc 1 70 0
  41 0008 06D1     		bne	.L11
  42              	.LVL1:
  43              	.L2:
  44              		.loc 1 77 0
  45 000a 4368     		ldr	r3, [r0, #4]
  46 000c 5B68     		ldr	r3, [r3, #4]
  47 000e 03B1     		cbz	r3, .L1
  48              		.loc 1 78 0
  49 0010 9847     		blx	r3
  50              	.LVL2:
  51              	.L1:
  52              		.loc 1 80 0
  53 0012 03B0     		add	sp, sp, #12
  54              		@ sp needed
  55 0014 5DF804FB 		ldr	pc, [sp], #4
  56              	.LVL3:
  57              	.L11:
ARM GAS  /var/folders/4k/6h5l9jl178sb4hslwv3xp1mr0000gn/T//cckdPLsp.s 			page 2


  58              		.loc 1 71 0
  59 0018 0190     		str	r0, [sp, #4]
  60 001a FFF7FEFF 		bl	port_halt
  61              	.LVL4:
  62 001e 0198     		ldr	r0, [sp, #4]
  63 0020 F3E7     		b	.L2
  64              		.cfi_endproc
  65              	.LFE119:
  66              		.size	dcmi_lld_serve_dma_rx_interrupt, .-dcmi_lld_serve_dma_rx_interrupt
  67 0022 00BFAFF3 		.section	.text.Vector178,"ax",%progbits
  67      0080AFF3 
  67      0080AFF3 
  67      0080
  68              		.align	2
  69              		.p2align 4,,15
  70              		.global	Vector178
  71              		.thumb
  72              		.thumb_func
  73              		.type	Vector178, %function
  74              	Vector178:
  75              	.LFB120:
  76              		.loc 1 93 0
  77              		.cfi_startproc
  78              		@ args = 0, pretend = 0, frame = 0
  79              		@ frame_needed = 0, uses_anonymous_args = 0
  80 0000 38B5     		push	{r3, r4, r5, lr}
  81              		.cfi_def_cfa_offset 16
  82              		.cfi_offset 3, -16
  83              		.cfi_offset 4, -12
  84              		.cfi_offset 5, -8
  85              		.cfi_offset 14, -4
  86              		.loc 1 97 0
  87 0002 154B     		ldr	r3, .L23
  88              	.LBB2:
  89              		.loc 1 98 0
  90 0004 154C     		ldr	r4, .L23+4
  91              	.LBE2:
  92              		.loc 1 97 0
  93 0006 5969     		ldr	r1, [r3, #20]
  94              	.LBB6:
  95              		.loc 1 98 0
  96 0008 6268     		ldr	r2, [r4, #4]
  97              	.LBE6:
  98              		.loc 1 97 0
  99 000a 41F01F01 		orr	r1, r1, #31
 100 000e 5961     		str	r1, [r3, #20]
 101              	.LBB7:
 102              		.loc 1 98 0
 103 0010 2178     		ldrb	r1, [r4]	@ zero_extendqisi2
 104 0012 1368     		ldr	r3, [r2]
 105 0014 0A1F     		subs	r2, r1, #4
 106 0016 5542     		rsbs	r5, r2, #0
 107 0018 5541     		adcs	r5, r5, r2
 108              	.LVL5:
 109 001a BBB1     		cbz	r3, .L13
 110              		.loc 1 98 0 is_stmt 0 discriminator 1
 111 001c 0522     		movs	r2, #5
ARM GAS  /var/folders/4k/6h5l9jl178sb4hslwv3xp1mr0000gn/T//cckdPLsp.s 			page 3


 112 001e 2270     		strb	r2, [r4]
 113 0020 2046     		mov	r0, r4
 114 0022 9847     		blx	r3
 115              	.LVL6:
 116 0024 2378     		ldrb	r3, [r4]	@ zero_extendqisi2
 117 0026 052B     		cmp	r3, #5
 118 0028 10D0     		beq	.L13
 119              	.L14:
 120              		.loc 1 98 0 discriminator 4
 121 002a A068     		ldr	r0, [r4, #8]
 122 002c 0B4B     		ldr	r3, .L23+4
 123 002e 48B1     		cbz	r0, .L17
 124              	.LVL7:
 125              	.LBB3:
 126              		.loc 1 98 0 discriminator 1
 127 0030 0022     		movs	r2, #0
 128 0032 9A60     		str	r2, [r3, #8]
 129              	.LBB4:
 130 0034 2023     		movs	r3, #32
 131              	@ 98 "../ChibiStudio/ChibiOS/os/hal/platforms/STM32F4xx/dcmi_lld.c" 1
 132 0036 83F31188 		msr     BASEPRI, r3
 133              	@ 0 "" 2
 134              		.thumb
 135              	.LBE4:
 136 003a FFF7FEFF 		bl	chSchReadyI
 137              	.LVL8:
 138              	.LBB5:
 139 003e 0023     		movs	r3, #0
 140              	@ 98 "../ChibiStudio/ChibiOS/os/hal/platforms/STM32F4xx/dcmi_lld.c" 1
 141 0040 83F31188 		msr     BASEPRI, r3
 142              	@ 0 "" 2
 143              		.thumb
 144              	.L17:
 145              	.LBE5:
 146              	.LBE3:
 147              	.LBE7:
 148              		.loc 1 102 0 is_stmt 1
 149 0044 BDE83840 		pop	{r3, r4, r5, lr}
 150              	.LVL9:
 151              		.loc 1 101 0
 152 0048 FFF7FEBF 		b	_port_irq_epilogue
 153              	.LVL10:
 154              	.L13:
 155              	.LBB8:
 156              		.loc 1 98 0 discriminator 2
 157 004c 002D     		cmp	r5, #0
 158 004e 0CBF     		ite	eq
 159 0050 0323     		moveq	r3, #3
 160 0052 0223     		movne	r3, #2
 161 0054 2370     		strb	r3, [r4]
 162 0056 E8E7     		b	.L14
 163              	.L24:
 164              		.align	2
 165              	.L23:
 166 0058 00000550 		.word	1342504960
 167 005c 00000000 		.word	.LANCHOR0
 168              	.LBE8:
ARM GAS  /var/folders/4k/6h5l9jl178sb4hslwv3xp1mr0000gn/T//cckdPLsp.s 			page 4


 169              		.cfi_endproc
 170              	.LFE120:
 171              		.size	Vector178, .-Vector178
 172              		.section	.text.dcmi_lld_init,"ax",%progbits
 173              		.align	2
 174              		.p2align 4,,15
 175              		.global	dcmi_lld_init
 176              		.thumb
 177              		.thumb_func
 178              		.type	dcmi_lld_init, %function
 179              	dcmi_lld_init:
 180              	.LFB121:
 181              		.loc 1 114 0
 182              		.cfi_startproc
 183              		@ args = 0, pretend = 0, frame = 0
 184              		@ frame_needed = 0, uses_anonymous_args = 0
 185 0000 10B5     		push	{r4, lr}
 186              		.cfi_def_cfa_offset 8
 187              		.cfi_offset 4, -8
 188              		.cfi_offset 14, -4
 189              		.loc 1 117 0
 190 0002 054C     		ldr	r4, .L26
 191 0004 2046     		mov	r0, r4
 192 0006 FFF7FEFF 		bl	dcmiObjectInit
 193              	.LVL11:
 194              		.loc 1 118 0
 195 000a 0449     		ldr	r1, .L26+4
 196              		.loc 1 119 0
 197 000c 044A     		ldr	r2, .L26+8
 198              		.loc 1 120 0
 199 000e 054B     		ldr	r3, .L26+12
 200              		.loc 1 118 0
 201 0010 E160     		str	r1, [r4, #12]
 202              		.loc 1 119 0
 203 0012 2261     		str	r2, [r4, #16]
 204              		.loc 1 120 0
 205 0014 6361     		str	r3, [r4, #20]
 206 0016 10BD     		pop	{r4, pc}
 207              	.L27:
 208              		.align	2
 209              	.L26:
 210 0018 00000000 		.word	.LANCHOR0
 211 001c 00000550 		.word	1342504960
 212 0020 6C000000 		.word	_stm32_dma_streams+108
 213 0024 16540202 		.word	33707030
 214              		.cfi_endproc
 215              	.LFE121:
 216              		.size	dcmi_lld_init, .-dcmi_lld_init
 217 0028 AFF30080 		.section	.text.dcmi_lld_start,"ax",%progbits
 217      AFF30080 
 218              		.align	2
 219              		.p2align 4,,15
 220              		.global	dcmi_lld_start
 221              		.thumb
 222              		.thumb_func
 223              		.type	dcmi_lld_start, %function
 224              	dcmi_lld_start:
ARM GAS  /var/folders/4k/6h5l9jl178sb4hslwv3xp1mr0000gn/T//cckdPLsp.s 			page 5


 225              	.LFB122:
 226              		.loc 1 142 0
 227              		.cfi_startproc
 228              		@ args = 0, pretend = 0, frame = 0
 229              		@ frame_needed = 0, uses_anonymous_args = 0
 230              	.LVL12:
 231              		.loc 1 144 0
 232 0000 194B     		ldr	r3, .L33
 233              		.loc 1 145 0
 234 0002 0278     		ldrb	r2, [r0]	@ zero_extendqisi2
 235              		.loc 1 144 0
 236 0004 596B     		ldr	r1, [r3, #52]
 237              		.loc 1 145 0
 238 0006 012A     		cmp	r2, #1
 239              		.loc 1 144 0
 240 0008 41F00101 		orr	r1, r1, #1
 241              		.loc 1 142 0
 242 000c 10B5     		push	{r4, lr}
 243              		.cfi_def_cfa_offset 8
 244              		.cfi_offset 4, -8
 245              		.cfi_offset 14, -4
 246              		.loc 1 142 0
 247 000e 0446     		mov	r4, r0
 248              		.loc 1 144 0
 249 0010 5963     		str	r1, [r3, #52]
 250              		.loc 1 145 0
 251 0012 18D0     		beq	.L31
 252              	.LVL13:
 253              	.L29:
 254              		.loc 1 161 0
 255 0014 6369     		ldr	r3, [r4, #20]
 256 0016 23F4F043 		bic	r3, r3, #30720
 257              		.loc 1 162 0
 258 001a 43F4A043 		orr	r3, r3, #20480
 259              		.loc 1 161 0
 260 001e 6361     		str	r3, [r4, #20]
 261              		.loc 1 164 0
 262 0020 B021     		movs	r1, #176
 263 0022 4E20     		movs	r0, #78
 264 0024 FFF7FEFF 		bl	nvicEnableVector
 265              	.LVL14:
 266              		.loc 1 167 0
 267 0028 E368     		ldr	r3, [r4, #12]
 268              		.loc 1 168 0
 269 002a 6268     		ldr	r2, [r4, #4]
 270              		.loc 1 167 0
 271 002c D968     		ldr	r1, [r3, #12]
 272              		.loc 1 168 0
 273 002e 9268     		ldr	r2, [r2, #8]
 274              		.loc 1 167 0
 275 0030 41F00901 		orr	r1, r1, #9
 276 0034 D960     		str	r1, [r3, #12]
 277              		.loc 1 168 0
 278 0036 1968     		ldr	r1, [r3]
 279 0038 22F48042 		bic	r2, r2, #16384
 280 003c 22F00102 		bic	r2, r2, #1
 281 0040 0A43     		orrs	r2, r2, r1
ARM GAS  /var/folders/4k/6h5l9jl178sb4hslwv3xp1mr0000gn/T//cckdPLsp.s 			page 6


 282 0042 1A60     		str	r2, [r3]
 283 0044 10BD     		pop	{r4, pc}
 284              	.LVL15:
 285              	.L31:
 286              		.loc 1 147 0
 287 0046 094B     		ldr	r3, .L33+4
 288 0048 9842     		cmp	r0, r3
 289 004a 05D0     		beq	.L32
 290              	.LVL16:
 291              	.L30:
 292              		.loc 1 157 0
 293 004c 2269     		ldr	r2, [r4, #16]
 294 004e E368     		ldr	r3, [r4, #12]
 295 0050 1268     		ldr	r2, [r2]
 296 0052 2833     		adds	r3, r3, #40
 297 0054 9360     		str	r3, [r2, #8]
 298 0056 DDE7     		b	.L29
 299              	.LVL17:
 300              	.L32:
 301              	.LBB9:
 302              		.loc 1 149 0
 303 0058 054A     		ldr	r2, .L33+8
 304 005a 0069     		ldr	r0, [r0, #16]
 305              	.LVL18:
 306 005c 0A21     		movs	r1, #10
 307 005e 2346     		mov	r3, r4
 308 0060 FFF7FEFF 		bl	dmaStreamAllocate
 309              	.LVL19:
 310 0064 F2E7     		b	.L30
 311              	.L34:
 312 0066 00BF     		.align	2
 313              	.L33:
 314 0068 00380240 		.word	1073887232
 315 006c 00000000 		.word	.LANCHOR0
 316 0070 00000000 		.word	dcmi_lld_serve_dma_rx_interrupt
 317              	.LBE9:
 318              		.cfi_endproc
 319              	.LFE122:
 320              		.size	dcmi_lld_start, .-dcmi_lld_start
 321 0074 AFF30080 		.section	.text.dcmi_lld_stop,"ax",%progbits
 321      AFF30080 
 321      AFF30080 
 322              		.align	2
 323              		.p2align 4,,15
 324              		.global	dcmi_lld_stop
 325              		.thumb
 326              		.thumb_func
 327              		.type	dcmi_lld_stop, %function
 328              	dcmi_lld_stop:
 329              	.LFB123:
 330              		.loc 1 179 0
 331              		.cfi_startproc
 332              		@ args = 0, pretend = 0, frame = 0
 333              		@ frame_needed = 0, uses_anonymous_args = 0
 334              	.LVL20:
 335              		.loc 1 181 0
 336 0000 0378     		ldrb	r3, [r0]	@ zero_extendqisi2
ARM GAS  /var/folders/4k/6h5l9jl178sb4hslwv3xp1mr0000gn/T//cckdPLsp.s 			page 7


 337 0002 022B     		cmp	r3, #2
 338              		.loc 1 179 0
 339 0004 10B5     		push	{r4, lr}
 340              		.cfi_def_cfa_offset 8
 341              		.cfi_offset 4, -8
 342              		.cfi_offset 14, -4
 343              		.loc 1 179 0
 344 0006 0446     		mov	r4, r0
 345              		.loc 1 181 0
 346 0008 02D0     		beq	.L36
 347              		.loc 1 181 0 is_stmt 0 discriminator 1
 348 000a 052B     		cmp	r3, #5
 349 000c 00D0     		beq	.L36
 350 000e 10BD     		pop	{r4, pc}
 351              	.L36:
 352              		.loc 1 183 0 is_stmt 1
 353 0010 E368     		ldr	r3, [r4, #12]
 354              		.loc 1 185 0
 355 0012 2069     		ldr	r0, [r4, #16]
 356              	.LVL21:
 357              		.loc 1 183 0
 358 0014 1A68     		ldr	r2, [r3]
 359 0016 22F48042 		bic	r2, r2, #16384
 360 001a 22F00102 		bic	r2, r2, #1
 361 001e 1A60     		str	r2, [r3]
 362              		.loc 1 184 0
 363 0020 DA68     		ldr	r2, [r3, #12]
 364 0022 22F00902 		bic	r2, r2, #9
 365 0026 DA60     		str	r2, [r3, #12]
 366              		.loc 1 185 0
 367 0028 FFF7FEFF 		bl	dmaStreamRelease
 368              	.LVL22:
 369              		.loc 1 188 0
 370 002c 064B     		ldr	r3, .L43
 371 002e 9C42     		cmp	r4, r3
 372 0030 04D0     		beq	.L42
 373              	.L38:
 374              		.loc 1 191 0
 375 0032 4E20     		movs	r0, #78
 376              		.loc 1 193 0
 377 0034 BDE81040 		pop	{r4, lr}
 378              	.LVL23:
 379              		.loc 1 191 0
 380 0038 FFF7FEBF 		b	nvicDisableVector
 381              	.LVL24:
 382              	.L42:
 383              		.loc 1 189 0
 384 003c 034B     		ldr	r3, .L43+4
 385 003e 5A6B     		ldr	r2, [r3, #52]
 386 0040 22F00102 		bic	r2, r2, #1
 387 0044 5A63     		str	r2, [r3, #52]
 388 0046 F4E7     		b	.L38
 389              	.L44:
 390              		.align	2
 391              	.L43:
 392 0048 00000000 		.word	.LANCHOR0
 393 004c 00380240 		.word	1073887232
ARM GAS  /var/folders/4k/6h5l9jl178sb4hslwv3xp1mr0000gn/T//cckdPLsp.s 			page 8


 394              		.cfi_endproc
 395              	.LFE123:
 396              		.size	dcmi_lld_stop, .-dcmi_lld_stop
 397              		.section	.text.dcmi_lld_receive,"ax",%progbits
 398              		.align	2
 399              		.p2align 4,,15
 400              		.global	dcmi_lld_receive
 401              		.thumb
 402              		.thumb_func
 403              		.type	dcmi_lld_receive, %function
 404              	dcmi_lld_receive:
 405              	.LFB124:
 406              		.loc 1 213 0
 407              		.cfi_startproc
 408              		@ args = 4, pretend = 0, frame = 0
 409              		@ frame_needed = 0, uses_anonymous_args = 0
 410              		@ link register save eliminated.
 411              	.LVL25:
 412 0000 F0B4     		push	{r4, r5, r6, r7}
 413              		.cfi_def_cfa_offset 16
 414              		.cfi_offset 4, -16
 415              		.cfi_offset 5, -12
 416              		.cfi_offset 6, -8
 417              		.cfi_offset 7, -4
 418              		.loc 1 216 0
 419 0002 0469     		ldr	r4, [r0, #16]
 420              		.loc 1 213 0
 421 0004 049D     		ldr	r5, [sp, #16]
 422              		.loc 1 229 0
 423 0006 134F     		ldr	r7, .L51
 424 0008 134E     		ldr	r6, .L51+4
 425              		.loc 1 216 0
 426 000a 2468     		ldr	r4, [r4]
 427              		.loc 1 218 0
 428 000c 4FEA910C 		lsr	ip, r1, #2
 429              		.loc 1 229 0
 430 0010 002D     		cmp	r5, #0
 431 0012 18BF     		it	ne
 432 0014 3E46     		movne	r6, r7
 433              		.loc 1 234 0
 434 0016 0521     		movs	r1, #5
 435              	.LVL26:
 436              		.loc 1 216 0
 437 0018 E360     		str	r3, [r4, #12]
 438              		.loc 1 217 0
 439 001a 2561     		str	r5, [r4, #16]
 440              		.loc 1 218 0
 441 001c C4F804C0 		str	ip, [r4, #4]
 442              	.LVL27:
 443              		.loc 1 233 0
 444 0020 2660     		str	r6, [r4]
 445              		.loc 1 234 0
 446 0022 6161     		str	r1, [r4, #20]
 447              		.loc 1 237 0
 448 0024 2368     		ldr	r3, [r4]
 449              	.LVL28:
 450 0026 43F00103 		orr	r3, r3, #1
ARM GAS  /var/folders/4k/6h5l9jl178sb4hslwv3xp1mr0000gn/T//cckdPLsp.s 			page 9


 451 002a 2360     		str	r3, [r4]
 452              		.loc 1 241 0
 453 002c C368     		ldr	r3, [r0, #12]
 454              		.loc 1 242 0
 455 002e 6AB9     		cbnz	r2, .L50
 456              		.loc 1 242 0 is_stmt 0 discriminator 1
 457 0030 1A68     		ldr	r2, [r3]
 458              	.LVL29:
 459 0032 22F00202 		bic	r2, r2, #2
 460              	.L48:
 461              		.loc 1 241 0 is_stmt 1
 462 0036 1A60     		str	r2, [r3]
 463              		.loc 1 243 0
 464 0038 1A68     		ldr	r2, [r3]
 465 003a 42F48042 		orr	r2, r2, #16384
 466 003e 1A60     		str	r2, [r3]
 467              		.loc 1 244 0
 468 0040 1A68     		ldr	r2, [r3]
 469 0042 42F00102 		orr	r2, r2, #1
 470 0046 1A60     		str	r2, [r3]
 471              		.loc 1 245 0
 472 0048 F0BC     		pop	{r4, r5, r6, r7}
 473              	.LVL30:
 474 004a 7047     		bx	lr
 475              	.LVL31:
 476              	.L50:
 477              		.loc 1 241 0
 478 004c 1A68     		ldr	r2, [r3]
 479              	.LVL32:
 480              		.loc 1 242 0
 481 004e 42F00202 		orr	r2, r2, #2
 482 0052 F0E7     		b	.L48
 483              	.L52:
 484              		.align	2
 485              	.L51:
 486 0054 00540602 		.word	33969152
 487 0058 00540202 		.word	33707008
 488              		.cfi_endproc
 489              	.LFE124:
 490              		.size	dcmi_lld_receive, .-dcmi_lld_receive
 491              		.global	DCMID1
 492 005c AFF30080 		.section	.bss.DCMID1,"aw",%nobits
 493              		.align	2
 494              		.set	.LANCHOR0,. + 0
 495              		.type	DCMID1, %object
 496              		.size	DCMID1, 24
 497              	DCMID1:
 498 0000 00000000 		.space	24
 498      00000000 
 498      00000000 
 498      00000000 
 498      00000000 
 499              		.text
 500              	.Letext0:
 501              		.file 2 "/Users/mikevanis/Documents/workspace/gcc-arm-none-eabi-4_8-2014q1/lib/gcc/arm-none-eabi/4
 502              		.file 3 "/Users/mikevanis/Documents/workspace/gcc-arm-none-eabi-4_8-2014q1/arm-none-eabi/include/m
 503              		.file 4 "/Users/mikevanis/Documents/workspace/gcc-arm-none-eabi-4_8-2014q1/arm-none-eabi/include/s
ARM GAS  /var/folders/4k/6h5l9jl178sb4hslwv3xp1mr0000gn/T//cckdPLsp.s 			page 10


 504              		.file 5 "../ChibiStudio/ChibiOS/os/ports/GCC/ARMCMx/chtypes.h"
 505              		.file 6 "../ChibiStudio/ChibiOS/os/kernel/include/chlists.h"
 506              		.file 7 "../ChibiStudio/ChibiOS/os/kernel/include/chthreads.h"
 507              		.file 8 "../ChibiStudio/ChibiOS/os/ports/GCC/ARMCMx/chcore_v7m.h"
 508              		.file 9 "../ChibiStudio/ChibiOS/os/kernel/include/chmtx.h"
 509              		.file 10 "../ChibiStudio/ChibiOS/os/hal/platforms/STM32F4xx/stm32f4xx.h"
 510              		.file 11 "../ChibiStudio/ChibiOS/os/hal/platforms/STM32F4xx/stm32_dma.h"
 511              		.file 12 "../ChibiStudio/ChibiOS/os/hal/include/dcmi.h"
 512              		.file 13 "../ChibiStudio/ChibiOS/os/hal/platforms/STM32F4xx/dcmi_lld.h"
 513              		.file 14 "../ChibiStudio/ChibiOS/os/ports/common/ARMCMx/CMSIS/include/core_cm4.h"
 514              		.file 15 "../ChibiStudio/ChibiOS/os/kernel/include/chschd.h"
 515              		.file 16 "../ChibiStudio/ChibiOS/os/ports/common/ARMCMx/nvic.h"
 516              		.section	.debug_info,"",%progbits
 517              	.Ldebug_info0:
 518 0000 430D0000 		.4byte	0xd43
 519 0004 0400     		.2byte	0x4
 520 0006 00000000 		.4byte	.Ldebug_abbrev0
 521 000a 04       		.byte	0x4
 522 000b 01       		.uleb128 0x1
 523 000c 64070000 		.4byte	.LASF238
 524 0010 01       		.byte	0x1
 525 0011 070A0000 		.4byte	.LASF239
 526 0015 2C030000 		.4byte	.LASF240
 527 0019 28000000 		.4byte	.Ldebug_ranges0+0x28
 528 001d 00000000 		.4byte	0
 529 0021 00000000 		.4byte	.Ldebug_line0
 530 0025 02       		.uleb128 0x2
 531 0026 04       		.byte	0x4
 532 0027 05       		.byte	0x5
 533 0028 696E7400 		.ascii	"int\000"
 534 002c 03       		.uleb128 0x3
 535 002d 05000000 		.4byte	.LASF2
 536 0031 02       		.byte	0x2
 537 0032 D4       		.byte	0xd4
 538 0033 37000000 		.4byte	0x37
 539 0037 04       		.uleb128 0x4
 540 0038 04       		.byte	0x4
 541 0039 07       		.byte	0x7
 542 003a 96060000 		.4byte	.LASF0
 543 003e 04       		.uleb128 0x4
 544 003f 01       		.byte	0x1
 545 0040 06       		.byte	0x6
 546 0041 20020000 		.4byte	.LASF1
 547 0045 03       		.uleb128 0x3
 548 0046 FD000000 		.4byte	.LASF3
 549 004a 03       		.byte	0x3
 550 004b 1C       		.byte	0x1c
 551 004c 50000000 		.4byte	0x50
 552 0050 04       		.uleb128 0x4
 553 0051 01       		.byte	0x1
 554 0052 08       		.byte	0x8
 555 0053 82020000 		.4byte	.LASF4
 556 0057 04       		.uleb128 0x4
 557 0058 02       		.byte	0x2
 558 0059 05       		.byte	0x5
 559 005a 570A0000 		.4byte	.LASF5
 560 005e 04       		.uleb128 0x4
ARM GAS  /var/folders/4k/6h5l9jl178sb4hslwv3xp1mr0000gn/T//cckdPLsp.s 			page 11


 561 005f 02       		.byte	0x2
 562 0060 07       		.byte	0x7
 563 0061 760B0000 		.4byte	.LASF6
 564 0065 03       		.uleb128 0x3
 565 0066 DC0B0000 		.4byte	.LASF7
 566 006a 03       		.byte	0x3
 567 006b 37       		.byte	0x37
 568 006c 70000000 		.4byte	0x70
 569 0070 04       		.uleb128 0x4
 570 0071 04       		.byte	0x4
 571 0072 05       		.byte	0x5
 572 0073 52010000 		.4byte	.LASF8
 573 0077 03       		.uleb128 0x3
 574 0078 90050000 		.4byte	.LASF9
 575 007c 03       		.byte	0x3
 576 007d 38       		.byte	0x38
 577 007e 82000000 		.4byte	0x82
 578 0082 04       		.uleb128 0x4
 579 0083 04       		.byte	0x4
 580 0084 07       		.byte	0x7
 581 0085 A3040000 		.4byte	.LASF10
 582 0089 04       		.uleb128 0x4
 583 008a 08       		.byte	0x8
 584 008b 05       		.byte	0x5
 585 008c B8050000 		.4byte	.LASF11
 586 0090 04       		.uleb128 0x4
 587 0091 08       		.byte	0x8
 588 0092 07       		.byte	0x7
 589 0093 DA080000 		.4byte	.LASF12
 590 0097 03       		.uleb128 0x3
 591 0098 36020000 		.4byte	.LASF13
 592 009c 04       		.byte	0x4
 593 009d 2A       		.byte	0x2a
 594 009e 45000000 		.4byte	0x45
 595 00a2 03       		.uleb128 0x3
 596 00a3 56000000 		.4byte	.LASF14
 597 00a7 04       		.byte	0x4
 598 00a8 41       		.byte	0x41
 599 00a9 65000000 		.4byte	0x65
 600 00ad 03       		.uleb128 0x3
 601 00ae 0F0B0000 		.4byte	.LASF15
 602 00b2 04       		.byte	0x4
 603 00b3 42       		.byte	0x42
 604 00b4 77000000 		.4byte	0x77
 605 00b8 03       		.uleb128 0x3
 606 00b9 8D0A0000 		.4byte	.LASF16
 607 00bd 05       		.byte	0x5
 608 00be 2B       		.byte	0x2b
 609 00bf C3000000 		.4byte	0xc3
 610 00c3 04       		.uleb128 0x4
 611 00c4 01       		.byte	0x1
 612 00c5 02       		.byte	0x2
 613 00c6 E3020000 		.4byte	.LASF17
 614 00ca 03       		.uleb128 0x3
 615 00cb 7E090000 		.4byte	.LASF18
 616 00cf 05       		.byte	0x5
 617 00d0 2C       		.byte	0x2c
ARM GAS  /var/folders/4k/6h5l9jl178sb4hslwv3xp1mr0000gn/T//cckdPLsp.s 			page 12


 618 00d1 97000000 		.4byte	0x97
 619 00d5 03       		.uleb128 0x3
 620 00d6 88010000 		.4byte	.LASF19
 621 00da 05       		.byte	0x5
 622 00db 2D       		.byte	0x2d
 623 00dc 97000000 		.4byte	0x97
 624 00e0 03       		.uleb128 0x3
 625 00e1 D40A0000 		.4byte	.LASF20
 626 00e5 05       		.byte	0x5
 627 00e6 2E       		.byte	0x2e
 628 00e7 97000000 		.4byte	0x97
 629 00eb 03       		.uleb128 0x3
 630 00ec 15090000 		.4byte	.LASF21
 631 00f0 05       		.byte	0x5
 632 00f1 2F       		.byte	0x2f
 633 00f2 97000000 		.4byte	0x97
 634 00f6 03       		.uleb128 0x3
 635 00f7 43000000 		.4byte	.LASF22
 636 00fb 05       		.byte	0x5
 637 00fc 30       		.byte	0x30
 638 00fd AD000000 		.4byte	0xad
 639 0101 03       		.uleb128 0x3
 640 0102 F9080000 		.4byte	.LASF23
 641 0106 05       		.byte	0x5
 642 0107 31       		.byte	0x31
 643 0108 A2000000 		.4byte	0xa2
 644 010c 03       		.uleb128 0x3
 645 010d 48020000 		.4byte	.LASF24
 646 0111 05       		.byte	0x5
 647 0112 33       		.byte	0x33
 648 0113 AD000000 		.4byte	0xad
 649 0117 03       		.uleb128 0x3
 650 0118 28000000 		.4byte	.LASF25
 651 011c 05       		.byte	0x5
 652 011d 35       		.byte	0x35
 653 011e AD000000 		.4byte	0xad
 654 0122 03       		.uleb128 0x3
 655 0123 940A0000 		.4byte	.LASF26
 656 0127 06       		.byte	0x6
 657 0128 2A       		.byte	0x2a
 658 0129 2D010000 		.4byte	0x12d
 659 012d 05       		.uleb128 0x5
 660 012e 940A0000 		.4byte	.LASF26
 661 0132 48       		.byte	0x48
 662 0133 07       		.byte	0x7
 663 0134 5E       		.byte	0x5e
 664 0135 2A020000 		.4byte	0x22a
 665 0139 06       		.uleb128 0x6
 666 013a 5B010000 		.4byte	.LASF27
 667 013e 07       		.byte	0x7
 668 013f 5F       		.byte	0x5f
 669 0140 4B020000 		.4byte	0x24b
 670 0144 00       		.byte	0
 671 0145 06       		.uleb128 0x6
 672 0146 67010000 		.4byte	.LASF28
 673 014a 07       		.byte	0x7
 674 014b 61       		.byte	0x61
ARM GAS  /var/folders/4k/6h5l9jl178sb4hslwv3xp1mr0000gn/T//cckdPLsp.s 			page 13


 675 014c 4B020000 		.4byte	0x24b
 676 0150 04       		.byte	0x4
 677 0151 06       		.uleb128 0x6
 678 0152 64030000 		.4byte	.LASF29
 679 0156 07       		.byte	0x7
 680 0157 63       		.byte	0x63
 681 0158 F6000000 		.4byte	0xf6
 682 015c 08       		.byte	0x8
 683 015d 06       		.uleb128 0x6
 684 015e 3D000000 		.4byte	.LASF30
 685 0162 07       		.byte	0x7
 686 0163 64       		.byte	0x64
 687 0164 05030000 		.4byte	0x305
 688 0168 0C       		.byte	0xc
 689 0169 06       		.uleb128 0x6
 690 016a 4A010000 		.4byte	.LASF31
 691 016e 07       		.byte	0x7
 692 016f 66       		.byte	0x66
 693 0170 4B020000 		.4byte	0x24b
 694 0174 10       		.byte	0x10
 695 0175 06       		.uleb128 0x6
 696 0176 F1080000 		.4byte	.LASF32
 697 017a 07       		.byte	0x7
 698 017b 67       		.byte	0x67
 699 017c 4B020000 		.4byte	0x24b
 700 0180 14       		.byte	0x14
 701 0181 06       		.uleb128 0x6
 702 0182 F50B0000 		.4byte	.LASF33
 703 0186 07       		.byte	0x7
 704 0187 6E       		.byte	0x6e
 705 0188 AE030000 		.4byte	0x3ae
 706 018c 18       		.byte	0x18
 707 018d 06       		.uleb128 0x6
 708 018e 230C0000 		.4byte	.LASF34
 709 0192 07       		.byte	0x7
 710 0193 79       		.byte	0x79
 711 0194 D5000000 		.4byte	0xd5
 712 0198 1C       		.byte	0x1c
 713 0199 06       		.uleb128 0x6
 714 019a 75060000 		.4byte	.LASF35
 715 019e 07       		.byte	0x7
 716 019f 7D       		.byte	0x7d
 717 01a0 CA000000 		.4byte	0xca
 718 01a4 1D       		.byte	0x1d
 719 01a5 06       		.uleb128 0x6
 720 01a6 D5060000 		.4byte	.LASF36
 721 01aa 07       		.byte	0x7
 722 01ab 82       		.byte	0x82
 723 01ac E0000000 		.4byte	0xe0
 724 01b0 1E       		.byte	0x1e
 725 01b1 06       		.uleb128 0x6
 726 01b2 2C020000 		.4byte	.LASF37
 727 01b6 07       		.byte	0x7
 728 01b7 88       		.byte	0x88
 729 01b8 EB000000 		.4byte	0xeb
 730 01bc 1F       		.byte	0x1f
 731 01bd 06       		.uleb128 0x6
ARM GAS  /var/folders/4k/6h5l9jl178sb4hslwv3xp1mr0000gn/T//cckdPLsp.s 			page 14


 732 01be 5D070000 		.4byte	.LASF38
 733 01c2 07       		.byte	0x7
 734 01c3 8F       		.byte	0x8f
 735 01c4 32030000 		.4byte	0x332
 736 01c8 20       		.byte	0x20
 737 01c9 07       		.uleb128 0x7
 738 01ca 705F7500 		.ascii	"p_u\000"
 739 01ce 07       		.byte	0x7
 740 01cf B4       		.byte	0xb4
 741 01d0 79030000 		.4byte	0x379
 742 01d4 24       		.byte	0x24
 743 01d5 06       		.uleb128 0x6
 744 01d6 54060000 		.4byte	.LASF39
 745 01da 07       		.byte	0x7
 746 01db B9       		.byte	0xb9
 747 01dc 71020000 		.4byte	0x271
 748 01e0 28       		.byte	0x28
 749 01e1 06       		.uleb128 0x6
 750 01e2 4B000000 		.4byte	.LASF40
 751 01e6 07       		.byte	0x7
 752 01e7 BF       		.byte	0xbf
 753 01e8 51020000 		.4byte	0x251
 754 01ec 2C       		.byte	0x2c
 755 01ed 06       		.uleb128 0x6
 756 01ee 1D0C0000 		.4byte	.LASF41
 757 01f2 07       		.byte	0x7
 758 01f3 C3       		.byte	0xc3
 759 01f4 01010000 		.4byte	0x101
 760 01f8 34       		.byte	0x34
 761 01f9 06       		.uleb128 0x6
 762 01fa D6030000 		.4byte	.LASF42
 763 01fe 07       		.byte	0x7
 764 01ff C9       		.byte	0xc9
 765 0200 0C010000 		.4byte	0x10c
 766 0204 38       		.byte	0x38
 767 0205 06       		.uleb128 0x6
 768 0206 91010000 		.4byte	.LASF43
 769 020a 07       		.byte	0x7
 770 020b D0       		.byte	0xd0
 771 020c C0030000 		.4byte	0x3c0
 772 0210 3C       		.byte	0x3c
 773 0211 06       		.uleb128 0x6
 774 0212 70080000 		.4byte	.LASF44
 775 0216 07       		.byte	0x7
 776 0217 D4       		.byte	0xd4
 777 0218 F6000000 		.4byte	0xf6
 778 021c 40       		.byte	0x40
 779 021d 06       		.uleb128 0x6
 780 021e C0060000 		.4byte	.LASF45
 781 0222 07       		.byte	0x7
 782 0223 DA       		.byte	0xda
 783 0224 87020000 		.4byte	0x287
 784 0228 44       		.byte	0x44
 785 0229 00       		.byte	0
 786 022a 08       		.uleb128 0x8
 787 022b 08       		.byte	0x8
 788 022c 06       		.byte	0x6
ARM GAS  /var/folders/4k/6h5l9jl178sb4hslwv3xp1mr0000gn/T//cckdPLsp.s 			page 15


 789 022d 61       		.byte	0x61
 790 022e 4B020000 		.4byte	0x24b
 791 0232 06       		.uleb128 0x6
 792 0233 5B010000 		.4byte	.LASF27
 793 0237 06       		.byte	0x6
 794 0238 62       		.byte	0x62
 795 0239 4B020000 		.4byte	0x24b
 796 023d 00       		.byte	0
 797 023e 06       		.uleb128 0x6
 798 023f 67010000 		.4byte	.LASF28
 799 0243 06       		.byte	0x6
 800 0244 64       		.byte	0x64
 801 0245 4B020000 		.4byte	0x24b
 802 0249 04       		.byte	0x4
 803 024a 00       		.byte	0
 804 024b 09       		.uleb128 0x9
 805 024c 04       		.byte	0x4
 806 024d 22010000 		.4byte	0x122
 807 0251 03       		.uleb128 0x3
 808 0252 260B0000 		.4byte	.LASF46
 809 0256 06       		.byte	0x6
 810 0257 66       		.byte	0x66
 811 0258 2A020000 		.4byte	0x22a
 812 025c 08       		.uleb128 0x8
 813 025d 04       		.byte	0x4
 814 025e 06       		.byte	0x6
 815 025f 6B       		.byte	0x6b
 816 0260 71020000 		.4byte	0x271
 817 0264 06       		.uleb128 0x6
 818 0265 5B010000 		.4byte	.LASF27
 819 0269 06       		.byte	0x6
 820 026a 6D       		.byte	0x6d
 821 026b 4B020000 		.4byte	0x24b
 822 026f 00       		.byte	0
 823 0270 00       		.byte	0
 824 0271 03       		.uleb128 0x3
 825 0272 FB060000 		.4byte	.LASF47
 826 0276 06       		.byte	0x6
 827 0277 70       		.byte	0x70
 828 0278 5C020000 		.4byte	0x25c
 829 027c 03       		.uleb128 0x3
 830 027d B3010000 		.4byte	.LASF48
 831 0281 08       		.byte	0x8
 832 0282 E5       		.byte	0xe5
 833 0283 87020000 		.4byte	0x287
 834 0287 0A       		.uleb128 0xa
 835 0288 04       		.byte	0x4
 836 0289 0B       		.uleb128 0xb
 837 028a CF030000 		.4byte	.LASF49
 838 028e 24       		.byte	0x24
 839 028f 08       		.byte	0x8
 840 0290 0C01     		.2byte	0x10c
 841 0292 05030000 		.4byte	0x305
 842 0296 0C       		.uleb128 0xc
 843 0297 723400   		.ascii	"r4\000"
 844 029a 08       		.byte	0x8
 845 029b 1F01     		.2byte	0x11f
ARM GAS  /var/folders/4k/6h5l9jl178sb4hslwv3xp1mr0000gn/T//cckdPLsp.s 			page 16


 846 029d 7C020000 		.4byte	0x27c
 847 02a1 00       		.byte	0
 848 02a2 0C       		.uleb128 0xc
 849 02a3 723500   		.ascii	"r5\000"
 850 02a6 08       		.byte	0x8
 851 02a7 2001     		.2byte	0x120
 852 02a9 7C020000 		.4byte	0x27c
 853 02ad 04       		.byte	0x4
 854 02ae 0C       		.uleb128 0xc
 855 02af 723600   		.ascii	"r6\000"
 856 02b2 08       		.byte	0x8
 857 02b3 2101     		.2byte	0x121
 858 02b5 7C020000 		.4byte	0x27c
 859 02b9 08       		.byte	0x8
 860 02ba 0C       		.uleb128 0xc
 861 02bb 723700   		.ascii	"r7\000"
 862 02be 08       		.byte	0x8
 863 02bf 2201     		.2byte	0x122
 864 02c1 7C020000 		.4byte	0x27c
 865 02c5 0C       		.byte	0xc
 866 02c6 0C       		.uleb128 0xc
 867 02c7 723800   		.ascii	"r8\000"
 868 02ca 08       		.byte	0x8
 869 02cb 2301     		.2byte	0x123
 870 02cd 7C020000 		.4byte	0x27c
 871 02d1 10       		.byte	0x10
 872 02d2 0C       		.uleb128 0xc
 873 02d3 723900   		.ascii	"r9\000"
 874 02d6 08       		.byte	0x8
 875 02d7 2401     		.2byte	0x124
 876 02d9 7C020000 		.4byte	0x27c
 877 02dd 14       		.byte	0x14
 878 02de 0C       		.uleb128 0xc
 879 02df 72313000 		.ascii	"r10\000"
 880 02e3 08       		.byte	0x8
 881 02e4 2501     		.2byte	0x125
 882 02e6 7C020000 		.4byte	0x27c
 883 02ea 18       		.byte	0x18
 884 02eb 0C       		.uleb128 0xc
 885 02ec 72313100 		.ascii	"r11\000"
 886 02f0 08       		.byte	0x8
 887 02f1 2601     		.2byte	0x126
 888 02f3 7C020000 		.4byte	0x27c
 889 02f7 1C       		.byte	0x1c
 890 02f8 0C       		.uleb128 0xc
 891 02f9 6C7200   		.ascii	"lr\000"
 892 02fc 08       		.byte	0x8
 893 02fd 2701     		.2byte	0x127
 894 02ff 7C020000 		.4byte	0x27c
 895 0303 20       		.byte	0x20
 896 0304 00       		.byte	0
 897 0305 0B       		.uleb128 0xb
 898 0306 54020000 		.4byte	.LASF50
 899 030a 04       		.byte	0x4
 900 030b 08       		.byte	0x8
 901 030c 3101     		.2byte	0x131
 902 030e 20030000 		.4byte	0x320
ARM GAS  /var/folders/4k/6h5l9jl178sb4hslwv3xp1mr0000gn/T//cckdPLsp.s 			page 17


 903 0312 0C       		.uleb128 0xc
 904 0313 72313300 		.ascii	"r13\000"
 905 0317 08       		.byte	0x8
 906 0318 3201     		.2byte	0x132
 907 031a 20030000 		.4byte	0x320
 908 031e 00       		.byte	0
 909 031f 00       		.byte	0
 910 0320 09       		.uleb128 0x9
 911 0321 04       		.byte	0x4
 912 0322 89020000 		.4byte	0x289
 913 0326 0D       		.uleb128 0xd
 914 0327 AD000000 		.4byte	0xad
 915 032b 04       		.uleb128 0x4
 916 032c 04       		.byte	0x4
 917 032d 07       		.byte	0x7
 918 032e 1F000000 		.4byte	.LASF51
 919 0332 0D       		.uleb128 0xd
 920 0333 17010000 		.4byte	0x117
 921 0337 05       		.uleb128 0x5
 922 0338 A8050000 		.4byte	.LASF52
 923 033c 10       		.byte	0x10
 924 033d 09       		.byte	0x9
 925 033e 2C       		.byte	0x2c
 926 033f 68030000 		.4byte	0x368
 927 0343 06       		.uleb128 0x6
 928 0344 EA050000 		.4byte	.LASF53
 929 0348 09       		.byte	0x9
 930 0349 2D       		.byte	0x2d
 931 034a 51020000 		.4byte	0x251
 932 034e 00       		.byte	0
 933 034f 06       		.uleb128 0x6
 934 0350 EC000000 		.4byte	.LASF54
 935 0354 09       		.byte	0x9
 936 0355 2F       		.byte	0x2f
 937 0356 4B020000 		.4byte	0x24b
 938 035a 08       		.byte	0x8
 939 035b 06       		.uleb128 0x6
 940 035c FC0B0000 		.4byte	.LASF55
 941 0360 09       		.byte	0x9
 942 0361 31       		.byte	0x31
 943 0362 68030000 		.4byte	0x368
 944 0366 0C       		.byte	0xc
 945 0367 00       		.byte	0
 946 0368 09       		.uleb128 0x9
 947 0369 04       		.byte	0x4
 948 036a 37030000 		.4byte	0x337
 949 036e 03       		.uleb128 0x3
 950 036f A8050000 		.4byte	.LASF52
 951 0373 09       		.byte	0x9
 952 0374 33       		.byte	0x33
 953 0375 37030000 		.4byte	0x337
 954 0379 0E       		.uleb128 0xe
 955 037a 04       		.byte	0x4
 956 037b 07       		.byte	0x7
 957 037c 96       		.byte	0x96
 958 037d AE030000 		.4byte	0x3ae
 959 0381 0F       		.uleb128 0xf
ARM GAS  /var/folders/4k/6h5l9jl178sb4hslwv3xp1mr0000gn/T//cckdPLsp.s 			page 18


 960 0382 640B0000 		.4byte	.LASF56
 961 0386 07       		.byte	0x7
 962 0387 9D       		.byte	0x9d
 963 0388 01010000 		.4byte	0x101
 964 038c 0F       		.uleb128 0xf
 965 038d F4000000 		.4byte	.LASF57
 966 0391 07       		.byte	0x7
 967 0392 A4       		.byte	0xa4
 968 0393 01010000 		.4byte	0x101
 969 0397 0F       		.uleb128 0xf
 970 0398 73030000 		.4byte	.LASF58
 971 039c 07       		.byte	0x7
 972 039d AB       		.byte	0xab
 973 039e 87020000 		.4byte	0x287
 974 03a2 0F       		.uleb128 0xf
 975 03a3 18010000 		.4byte	.LASF59
 976 03a7 07       		.byte	0x7
 977 03a8 B2       		.byte	0xb2
 978 03a9 0C010000 		.4byte	0x10c
 979 03ad 00       		.byte	0
 980 03ae 09       		.uleb128 0x9
 981 03af 04       		.byte	0x4
 982 03b0 B4030000 		.4byte	0x3b4
 983 03b4 10       		.uleb128 0x10
 984 03b5 B9030000 		.4byte	0x3b9
 985 03b9 04       		.uleb128 0x4
 986 03ba 01       		.byte	0x1
 987 03bb 08       		.byte	0x8
 988 03bc 17030000 		.4byte	.LASF60
 989 03c0 09       		.uleb128 0x9
 990 03c1 04       		.byte	0x4
 991 03c2 6E030000 		.4byte	0x36e
 992 03c6 11       		.uleb128 0x11
 993 03c7 3E080000 		.4byte	.LASF241
 994 03cb 01       		.byte	0x1
 995 03cc 0A       		.byte	0xa
 996 03cd AA       		.byte	0xaa
 997 03ce 01060000 		.4byte	0x601
 998 03d2 12       		.uleb128 0x12
 999 03d3 85040000 		.4byte	.LASF61
 1000 03d7 72       		.sleb128 -14
 1001 03d8 12       		.uleb128 0x12
 1002 03d9 BD040000 		.4byte	.LASF62
 1003 03dd 74       		.sleb128 -12
 1004 03de 12       		.uleb128 0x12
 1005 03df 56050000 		.4byte	.LASF63
 1006 03e3 75       		.sleb128 -11
 1007 03e4 12       		.uleb128 0x12
 1008 03e5 07030000 		.4byte	.LASF64
 1009 03e9 76       		.sleb128 -10
 1010 03ea 12       		.uleb128 0x12
 1011 03eb 17060000 		.4byte	.LASF65
 1012 03ef 7B       		.sleb128 -5
 1013 03f0 12       		.uleb128 0x12
 1014 03f1 BE090000 		.4byte	.LASF66
 1015 03f5 7C       		.sleb128 -4
 1016 03f6 12       		.uleb128 0x12
ARM GAS  /var/folders/4k/6h5l9jl178sb4hslwv3xp1mr0000gn/T//cckdPLsp.s 			page 19


 1017 03f7 AB0B0000 		.4byte	.LASF67
 1018 03fb 7E       		.sleb128 -2
 1019 03fc 12       		.uleb128 0x12
 1020 03fd DF010000 		.4byte	.LASF68
 1021 0401 7F       		.sleb128 -1
 1022 0402 12       		.uleb128 0x12
 1023 0403 99040000 		.4byte	.LASF69
 1024 0407 00       		.sleb128 0
 1025 0408 12       		.uleb128 0x12
 1026 0409 60090000 		.4byte	.LASF70
 1027 040d 01       		.sleb128 1
 1028 040e 12       		.uleb128 0x12
 1029 040f D3040000 		.4byte	.LASF71
 1030 0413 02       		.sleb128 2
 1031 0414 12       		.uleb128 0x12
 1032 0415 F00A0000 		.4byte	.LASF72
 1033 0419 03       		.sleb128 3
 1034 041a 12       		.uleb128 0x12
 1035 041b 97000000 		.4byte	.LASF73
 1036 041f 04       		.sleb128 4
 1037 0420 12       		.uleb128 0x12
 1038 0421 610A0000 		.4byte	.LASF74
 1039 0425 05       		.sleb128 5
 1040 0426 12       		.uleb128 0x12
 1041 0427 73090000 		.4byte	.LASF75
 1042 042b 06       		.sleb128 6
 1043 042c 12       		.uleb128 0x12
 1044 042d 25040000 		.4byte	.LASF76
 1045 0431 07       		.sleb128 7
 1046 0432 12       		.uleb128 0x12
 1047 0433 1F090000 		.4byte	.LASF77
 1048 0437 08       		.sleb128 8
 1049 0438 12       		.uleb128 0x12
 1050 0439 A00B0000 		.4byte	.LASF78
 1051 043d 09       		.sleb128 9
 1052 043e 12       		.uleb128 0x12
 1053 043f 6B0B0000 		.4byte	.LASF79
 1054 0443 0A       		.sleb128 10
 1055 0444 12       		.uleb128 0x12
 1056 0445 7B080000 		.4byte	.LASF80
 1057 0449 0B       		.sleb128 11
 1058 044a 12       		.uleb128 0x12
 1059 044b 19070000 		.4byte	.LASF81
 1060 044f 0C       		.sleb128 12
 1061 0450 12       		.uleb128 0x12
 1062 0451 5C020000 		.4byte	.LASF82
 1063 0455 0D       		.sleb128 13
 1064 0456 12       		.uleb128 0x12
 1065 0457 7B0A0000 		.4byte	.LASF83
 1066 045b 0E       		.sleb128 14
 1067 045c 12       		.uleb128 0x12
 1068 045d 92090000 		.4byte	.LASF84
 1069 0461 0F       		.sleb128 15
 1070 0462 12       		.uleb128 0x12
 1071 0463 3D040000 		.4byte	.LASF85
 1072 0467 10       		.sleb128 16
 1073 0468 12       		.uleb128 0x12
ARM GAS  /var/folders/4k/6h5l9jl178sb4hslwv3xp1mr0000gn/T//cckdPLsp.s 			page 20


 1074 0469 43080000 		.4byte	.LASF86
 1075 046d 11       		.sleb128 17
 1076 046e 12       		.uleb128 0x12
 1077 046f 4D090000 		.4byte	.LASF87
 1078 0473 12       		.sleb128 18
 1079 0474 12       		.uleb128 0x12
 1080 0475 30040000 		.4byte	.LASF88
 1081 0479 13       		.sleb128 19
 1082 047a 12       		.uleb128 0x12
 1083 047b 7A030000 		.4byte	.LASF89
 1084 047f 14       		.sleb128 20
 1085 0480 12       		.uleb128 0x12
 1086 0481 180B0000 		.4byte	.LASF90
 1087 0485 15       		.sleb128 21
 1088 0486 12       		.uleb128 0x12
 1089 0487 E8040000 		.4byte	.LASF91
 1090 048b 16       		.sleb128 22
 1091 048c 12       		.uleb128 0x12
 1092 048d 410B0000 		.4byte	.LASF92
 1093 0491 17       		.sleb128 23
 1094 0492 12       		.uleb128 0x12
 1095 0493 77050000 		.4byte	.LASF93
 1096 0497 18       		.sleb128 24
 1097 0498 12       		.uleb128 0x12
 1098 0499 A50A0000 		.4byte	.LASF94
 1099 049d 19       		.sleb128 25
 1100 049e 12       		.uleb128 0x12
 1101 049f 9B010000 		.4byte	.LASF95
 1102 04a3 1A       		.sleb128 26
 1103 04a4 12       		.uleb128 0x12
 1104 04a5 0A040000 		.4byte	.LASF96
 1105 04a9 1B       		.sleb128 27
 1106 04aa 12       		.uleb128 0x12
 1107 04ab C8000000 		.4byte	.LASF97
 1108 04af 1C       		.sleb128 28
 1109 04b0 12       		.uleb128 0x12
 1110 04b1 FF080000 		.4byte	.LASF98
 1111 04b5 1D       		.sleb128 29
 1112 04b6 12       		.uleb128 0x12
 1113 04b7 8E030000 		.4byte	.LASF99
 1114 04bb 1E       		.sleb128 30
 1115 04bc 12       		.uleb128 0x12
 1116 04bd C2030000 		.4byte	.LASF100
 1117 04c1 1F       		.sleb128 31
 1118 04c2 12       		.uleb128 0x12
 1119 04c3 C8020000 		.4byte	.LASF101
 1120 04c7 20       		.sleb128 32
 1121 04c8 12       		.uleb128 0x12
 1122 04c9 C8060000 		.4byte	.LASF102
 1123 04cd 21       		.sleb128 33
 1124 04ce 12       		.uleb128 0x12
 1125 04cf 39050000 		.4byte	.LASF103
 1126 04d3 22       		.sleb128 34
 1127 04d4 12       		.uleb128 0x12
 1128 04d5 0D060000 		.4byte	.LASF104
 1129 04d9 23       		.sleb128 35
 1130 04da 12       		.uleb128 0x12
ARM GAS  /var/folders/4k/6h5l9jl178sb4hslwv3xp1mr0000gn/T//cckdPLsp.s 			page 21


 1131 04db D4050000 		.4byte	.LASF105
 1132 04df 24       		.sleb128 36
 1133 04e0 12       		.uleb128 0x12
 1134 04e1 09090000 		.4byte	.LASF106
 1135 04e5 25       		.sleb128 37
 1136 04e6 12       		.uleb128 0x12
 1137 04e7 98030000 		.4byte	.LASF107
 1138 04eb 26       		.sleb128 38
 1139 04ec 12       		.uleb128 0x12
 1140 04ed EC010000 		.4byte	.LASF108
 1141 04f1 27       		.sleb128 39
 1142 04f2 12       		.uleb128 0x12
 1143 04f3 CB080000 		.4byte	.LASF109
 1144 04f7 28       		.sleb128 40
 1145 04f8 12       		.uleb128 0x12
 1146 04f9 A5080000 		.4byte	.LASF110
 1147 04fd 29       		.sleb128 41
 1148 04fe 12       		.uleb128 0x12
 1149 04ff 5E060000 		.4byte	.LASF111
 1150 0503 2A       		.sleb128 42
 1151 0504 12       		.uleb128 0x12
 1152 0505 1F010000 		.4byte	.LASF112
 1153 0509 2B       		.sleb128 43
 1154 050a 12       		.uleb128 0x12
 1155 050b 0C000000 		.4byte	.LASF113
 1156 050f 2C       		.sleb128 44
 1157 0510 12       		.uleb128 0x12
 1158 0511 4F040000 		.4byte	.LASF114
 1159 0515 2D       		.sleb128 45
 1160 0516 12       		.uleb128 0x12
 1161 0517 890B0000 		.4byte	.LASF115
 1162 051b 2E       		.sleb128 46
 1163 051c 12       		.uleb128 0x12
 1164 051d CA0B0000 		.4byte	.LASF116
 1165 0521 2F       		.sleb128 47
 1166 0522 12       		.uleb128 0x12
 1167 0523 69090000 		.4byte	.LASF117
 1168 0527 30       		.sleb128 48
 1169 0528 12       		.uleb128 0x12
 1170 0529 960B0000 		.4byte	.LASF118
 1171 052d 31       		.sleb128 49
 1172 052e 12       		.uleb128 0x12
 1173 052f FD020000 		.4byte	.LASF119
 1174 0533 32       		.sleb128 50
 1175 0534 12       		.uleb128 0x12
 1176 0535 8D000000 		.4byte	.LASF120
 1177 0539 33       		.sleb128 51
 1178 053a 12       		.uleb128 0x12
 1179 053b 35060000 		.4byte	.LASF121
 1180 053f 34       		.sleb128 52
 1181 0540 12       		.uleb128 0x12
 1182 0541 6C050000 		.4byte	.LASF122
 1183 0545 35       		.sleb128 53
 1184 0546 12       		.uleb128 0x12
 1185 0547 A3060000 		.4byte	.LASF123
 1186 054b 36       		.sleb128 54
 1187 054c 12       		.uleb128 0x12
ARM GAS  /var/folders/4k/6h5l9jl178sb4hslwv3xp1mr0000gn/T//cckdPLsp.s 			page 22


 1188 054d AE050000 		.4byte	.LASF124
 1189 0551 37       		.sleb128 55
 1190 0552 12       		.uleb128 0x12
 1191 0553 09050000 		.4byte	.LASF125
 1192 0557 38       		.sleb128 56
 1193 0558 12       		.uleb128 0x12
 1194 0559 7B000000 		.4byte	.LASF126
 1195 055d 39       		.sleb128 57
 1196 055e 12       		.uleb128 0x12
 1197 055f 0B0C0000 		.4byte	.LASF127
 1198 0563 3A       		.sleb128 58
 1199 0564 12       		.uleb128 0x12
 1200 0565 2B070000 		.4byte	.LASF128
 1201 0569 3B       		.sleb128 59
 1202 056a 12       		.uleb128 0x12
 1203 056b 90020000 		.4byte	.LASF129
 1204 056f 3C       		.sleb128 60
 1205 0570 12       		.uleb128 0x12
 1206 0571 FE090000 		.4byte	.LASF130
 1207 0575 3D       		.sleb128 61
 1208 0576 12       		.uleb128 0x12
 1209 0577 C6050000 		.4byte	.LASF131
 1210 057b 3E       		.sleb128 62
 1211 057c 12       		.uleb128 0x12
 1212 057d 3D070000 		.4byte	.LASF132
 1213 0581 3F       		.sleb128 63
 1214 0582 12       		.uleb128 0x12
 1215 0583 D2000000 		.4byte	.LASF133
 1216 0587 C000     		.sleb128 64
 1217 0589 12       		.uleb128 0x12
 1218 058a 38090000 		.4byte	.LASF134
 1219 058e C100     		.sleb128 65
 1220 0590 12       		.uleb128 0x12
 1221 0591 D5020000 		.4byte	.LASF135
 1222 0595 C200     		.sleb128 66
 1223 0597 12       		.uleb128 0x12
 1224 0598 79040000 		.4byte	.LASF136
 1225 059c C300     		.sleb128 67
 1226 059e 12       		.uleb128 0x12
 1227 059f 76010000 		.4byte	.LASF137
 1228 05a3 C400     		.sleb128 68
 1229 05a5 12       		.uleb128 0x12
 1230 05a6 A4090000 		.4byte	.LASF138
 1231 05aa C500     		.sleb128 69
 1232 05ac 12       		.uleb128 0x12
 1233 05ad 67040000 		.4byte	.LASF139
 1234 05b1 C600     		.sleb128 70
 1235 05b3 12       		.uleb128 0x12
 1236 05b4 E0000000 		.4byte	.LASF140
 1237 05b8 C700     		.sleb128 71
 1238 05ba 12       		.uleb128 0x12
 1239 05bb DC090000 		.4byte	.LASF141
 1240 05bf C800     		.sleb128 72
 1241 05c1 12       		.uleb128 0x12
 1242 05c2 B4080000 		.4byte	.LASF142
 1243 05c6 C900     		.sleb128 73
 1244 05c8 12       		.uleb128 0x12
ARM GAS  /var/folders/4k/6h5l9jl178sb4hslwv3xp1mr0000gn/T//cckdPLsp.s 			page 23


 1245 05c9 DC0A0000 		.4byte	.LASF143
 1246 05cd CA00     		.sleb128 74
 1247 05cf 12       		.uleb128 0x12
 1248 05d0 B70B0000 		.4byte	.LASF144
 1249 05d4 CB00     		.sleb128 75
 1250 05d6 12       		.uleb128 0x12
 1251 05d7 07010000 		.4byte	.LASF145
 1252 05db CC00     		.sleb128 76
 1253 05dd 12       		.uleb128 0x12
 1254 05de DE050000 		.4byte	.LASF146
 1255 05e2 CD00     		.sleb128 77
 1256 05e4 12       		.uleb128 0x12
 1257 05e5 A2000000 		.4byte	.LASF147
 1258 05e9 CE00     		.sleb128 78
 1259 05eb 12       		.uleb128 0x12
 1260 05ec C1080000 		.4byte	.LASF148
 1261 05f0 CF00     		.sleb128 79
 1262 05f2 12       		.uleb128 0x12
 1263 05f3 17040000 		.4byte	.LASF149
 1264 05f7 D000     		.sleb128 80
 1265 05f9 12       		.uleb128 0x12
 1266 05fa 2C060000 		.4byte	.LASF150
 1267 05fe D100     		.sleb128 81
 1268 0600 00       		.byte	0
 1269 0601 13       		.uleb128 0x13
 1270 0602 AD000000 		.4byte	0xad
 1271 0606 11060000 		.4byte	0x611
 1272 060a 14       		.uleb128 0x14
 1273 060b 2B030000 		.4byte	0x32b
 1274 060f 01       		.byte	0x1
 1275 0610 00       		.byte	0
 1276 0611 0D       		.uleb128 0xd
 1277 0612 A2000000 		.4byte	0xa2
 1278 0616 15       		.uleb128 0x15
 1279 0617 2C       		.byte	0x2c
 1280 0618 0A       		.byte	0xa
 1281 0619 9E02     		.2byte	0x29e
 1282 061b AC060000 		.4byte	0x6ac
 1283 061f 0C       		.uleb128 0xc
 1284 0620 435200   		.ascii	"CR\000"
 1285 0623 0A       		.byte	0xa
 1286 0624 A002     		.2byte	0x2a0
 1287 0626 26030000 		.4byte	0x326
 1288 062a 00       		.byte	0
 1289 062b 0C       		.uleb128 0xc
 1290 062c 535200   		.ascii	"SR\000"
 1291 062f 0A       		.byte	0xa
 1292 0630 A102     		.2byte	0x2a1
 1293 0632 26030000 		.4byte	0x326
 1294 0636 04       		.byte	0x4
 1295 0637 16       		.uleb128 0x16
 1296 0638 E60B0000 		.4byte	.LASF151
 1297 063c 0A       		.byte	0xa
 1298 063d A202     		.2byte	0x2a2
 1299 063f 26030000 		.4byte	0x326
 1300 0643 08       		.byte	0x8
 1301 0644 0C       		.uleb128 0xc
ARM GAS  /var/folders/4k/6h5l9jl178sb4hslwv3xp1mr0000gn/T//cckdPLsp.s 			page 24


 1302 0645 49455200 		.ascii	"IER\000"
 1303 0649 0A       		.byte	0xa
 1304 064a A302     		.2byte	0x2a3
 1305 064c 26030000 		.4byte	0x326
 1306 0650 0C       		.byte	0xc
 1307 0651 16       		.uleb128 0x16
 1308 0652 E3040000 		.4byte	.LASF152
 1309 0656 0A       		.byte	0xa
 1310 0657 A402     		.2byte	0x2a4
 1311 0659 26030000 		.4byte	0x326
 1312 065d 10       		.byte	0x10
 1313 065e 0C       		.uleb128 0xc
 1314 065f 49435200 		.ascii	"ICR\000"
 1315 0663 0A       		.byte	0xa
 1316 0664 A502     		.2byte	0x2a5
 1317 0666 26030000 		.4byte	0x326
 1318 066a 14       		.byte	0x14
 1319 066b 16       		.uleb128 0x16
 1320 066c CF0A0000 		.4byte	.LASF153
 1321 0670 0A       		.byte	0xa
 1322 0671 A602     		.2byte	0x2a6
 1323 0673 26030000 		.4byte	0x326
 1324 0677 18       		.byte	0x18
 1325 0678 16       		.uleb128 0x16
 1326 0679 51050000 		.4byte	.LASF154
 1327 067d 0A       		.byte	0xa
 1328 067e A702     		.2byte	0x2a7
 1329 0680 26030000 		.4byte	0x326
 1330 0684 1C       		.byte	0x1c
 1331 0685 16       		.uleb128 0x16
 1332 0686 07070000 		.4byte	.LASF155
 1333 068a 0A       		.byte	0xa
 1334 068b A802     		.2byte	0x2a8
 1335 068d 26030000 		.4byte	0x326
 1336 0691 20       		.byte	0x20
 1337 0692 16       		.uleb128 0x16
 1338 0693 6E010000 		.4byte	.LASF156
 1339 0697 0A       		.byte	0xa
 1340 0698 A902     		.2byte	0x2a9
 1341 069a 26030000 		.4byte	0x326
 1342 069e 24       		.byte	0x24
 1343 069f 0C       		.uleb128 0xc
 1344 06a0 445200   		.ascii	"DR\000"
 1345 06a3 0A       		.byte	0xa
 1346 06a4 AA02     		.2byte	0x2aa
 1347 06a6 26030000 		.4byte	0x326
 1348 06aa 28       		.byte	0x28
 1349 06ab 00       		.byte	0
 1350 06ac 17       		.uleb128 0x17
 1351 06ad 9B050000 		.4byte	.LASF157
 1352 06b1 0A       		.byte	0xa
 1353 06b2 AB02     		.2byte	0x2ab
 1354 06b4 16060000 		.4byte	0x616
 1355 06b8 15       		.uleb128 0x15
 1356 06b9 18       		.byte	0x18
 1357 06ba 0A       		.byte	0xa
 1358 06bb B102     		.2byte	0x2b1
ARM GAS  /var/folders/4k/6h5l9jl178sb4hslwv3xp1mr0000gn/T//cckdPLsp.s 			page 25


 1359 06bd 0F070000 		.4byte	0x70f
 1360 06c1 0C       		.uleb128 0xc
 1361 06c2 435200   		.ascii	"CR\000"
 1362 06c5 0A       		.byte	0xa
 1363 06c6 B302     		.2byte	0x2b3
 1364 06c8 26030000 		.4byte	0x326
 1365 06cc 00       		.byte	0
 1366 06cd 16       		.uleb128 0x16
 1367 06ce EB0B0000 		.4byte	.LASF158
 1368 06d2 0A       		.byte	0xa
 1369 06d3 B402     		.2byte	0x2b4
 1370 06d5 26030000 		.4byte	0x326
 1371 06d9 04       		.byte	0x4
 1372 06da 0C       		.uleb128 0xc
 1373 06db 50415200 		.ascii	"PAR\000"
 1374 06df 0A       		.byte	0xa
 1375 06e0 B502     		.2byte	0x2b5
 1376 06e2 26030000 		.4byte	0x326
 1377 06e6 08       		.byte	0x8
 1378 06e7 16       		.uleb128 0x16
 1379 06e8 F9090000 		.4byte	.LASF159
 1380 06ec 0A       		.byte	0xa
 1381 06ed B602     		.2byte	0x2b6
 1382 06ef 26030000 		.4byte	0x326
 1383 06f3 0C       		.byte	0xc
 1384 06f4 16       		.uleb128 0x16
 1385 06f5 00000000 		.4byte	.LASF160
 1386 06f9 0A       		.byte	0xa
 1387 06fa B702     		.2byte	0x2b7
 1388 06fc 26030000 		.4byte	0x326
 1389 0700 10       		.byte	0x10
 1390 0701 0C       		.uleb128 0xc
 1391 0702 46435200 		.ascii	"FCR\000"
 1392 0706 0A       		.byte	0xa
 1393 0707 B802     		.2byte	0x2b8
 1394 0709 26030000 		.4byte	0x326
 1395 070d 14       		.byte	0x14
 1396 070e 00       		.byte	0
 1397 070f 17       		.uleb128 0x17
 1398 0710 4A070000 		.4byte	.LASF161
 1399 0714 0A       		.byte	0xa
 1400 0715 B902     		.2byte	0x2b9
 1401 0717 B8060000 		.4byte	0x6b8
 1402 071b 15       		.uleb128 0x15
 1403 071c 90       		.byte	0x90
 1404 071d 0A       		.byte	0xa
 1405 071e 5804     		.2byte	0x458
 1406 0720 C4080000 		.4byte	0x8c4
 1407 0724 0C       		.uleb128 0xc
 1408 0725 435200   		.ascii	"CR\000"
 1409 0728 0A       		.byte	0xa
 1410 0729 5A04     		.2byte	0x45a
 1411 072b 26030000 		.4byte	0x326
 1412 072f 00       		.byte	0
 1413 0730 16       		.uleb128 0x16
 1414 0731 64050000 		.4byte	.LASF162
 1415 0735 0A       		.byte	0xa
ARM GAS  /var/folders/4k/6h5l9jl178sb4hslwv3xp1mr0000gn/T//cckdPLsp.s 			page 26


 1416 0736 5B04     		.2byte	0x45b
 1417 0738 26030000 		.4byte	0x326
 1418 073c 04       		.byte	0x4
 1419 073d 16       		.uleb128 0x16
 1420 073e 05040000 		.4byte	.LASF163
 1421 0742 0A       		.byte	0xa
 1422 0743 5C04     		.2byte	0x45c
 1423 0745 26030000 		.4byte	0x326
 1424 0749 08       		.byte	0x8
 1425 074a 0C       		.uleb128 0xc
 1426 074b 43495200 		.ascii	"CIR\000"
 1427 074f 0A       		.byte	0xa
 1428 0750 5D04     		.2byte	0x45d
 1429 0752 26030000 		.4byte	0x326
 1430 0756 0C       		.byte	0xc
 1431 0757 16       		.uleb128 0x16
 1432 0758 23030000 		.4byte	.LASF164
 1433 075c 0A       		.byte	0xa
 1434 075d 5E04     		.2byte	0x45e
 1435 075f 26030000 		.4byte	0x326
 1436 0763 10       		.byte	0x10
 1437 0764 16       		.uleb128 0x16
 1438 0765 E9090000 		.4byte	.LASF165
 1439 0769 0A       		.byte	0xa
 1440 076a 5F04     		.2byte	0x45f
 1441 076c 26030000 		.4byte	0x326
 1442 0770 14       		.byte	0x14
 1443 0771 16       		.uleb128 0x16
 1444 0772 55080000 		.4byte	.LASF166
 1445 0776 0A       		.byte	0xa
 1446 0777 6004     		.2byte	0x460
 1447 0779 26030000 		.4byte	0x326
 1448 077d 18       		.byte	0x18
 1449 077e 16       		.uleb128 0x16
 1450 077f 6E020000 		.4byte	.LASF167
 1451 0783 0A       		.byte	0xa
 1452 0784 6104     		.2byte	0x461
 1453 0786 AD000000 		.4byte	0xad
 1454 078a 1C       		.byte	0x1c
 1455 078b 16       		.uleb128 0x16
 1456 078c 8D080000 		.4byte	.LASF168
 1457 0790 0A       		.byte	0xa
 1458 0791 6204     		.2byte	0x462
 1459 0793 26030000 		.4byte	0x326
 1460 0797 20       		.byte	0x20
 1461 0798 16       		.uleb128 0x16
 1462 0799 23060000 		.4byte	.LASF169
 1463 079d 0A       		.byte	0xa
 1464 079e 6304     		.2byte	0x463
 1465 07a0 26030000 		.4byte	0x326
 1466 07a4 24       		.byte	0x24
 1467 07a5 16       		.uleb128 0x16
 1468 07a6 78020000 		.4byte	.LASF170
 1469 07aa 0A       		.byte	0xa
 1470 07ab 6404     		.2byte	0x464
 1471 07ad 01060000 		.4byte	0x601
 1472 07b1 28       		.byte	0x28
ARM GAS  /var/folders/4k/6h5l9jl178sb4hslwv3xp1mr0000gn/T//cckdPLsp.s 			page 27


 1473 07b2 16       		.uleb128 0x16
 1474 07b3 B6090000 		.4byte	.LASF171
 1475 07b7 0A       		.byte	0xa
 1476 07b8 6504     		.2byte	0x465
 1477 07ba 26030000 		.4byte	0x326
 1478 07be 30       		.byte	0x30
 1479 07bf 16       		.uleb128 0x16
 1480 07c0 6B030000 		.4byte	.LASF172
 1481 07c4 0A       		.byte	0xa
 1482 07c5 6604     		.2byte	0x466
 1483 07c7 26030000 		.4byte	0x326
 1484 07cb 34       		.byte	0x34
 1485 07cc 16       		.uleb128 0x16
 1486 07cd 030C0000 		.4byte	.LASF173
 1487 07d1 0A       		.byte	0xa
 1488 07d2 6704     		.2byte	0x467
 1489 07d4 26030000 		.4byte	0x326
 1490 07d8 38       		.byte	0x38
 1491 07d9 16       		.uleb128 0x16
 1492 07da E9020000 		.4byte	.LASF174
 1493 07de 0A       		.byte	0xa
 1494 07df 6804     		.2byte	0x468
 1495 07e1 AD000000 		.4byte	0xad
 1496 07e5 3C       		.byte	0x3c
 1497 07e6 16       		.uleb128 0x16
 1498 07e7 B5040000 		.4byte	.LASF175
 1499 07eb 0A       		.byte	0xa
 1500 07ec 6904     		.2byte	0x469
 1501 07ee 26030000 		.4byte	0x326
 1502 07f2 40       		.byte	0x40
 1503 07f3 16       		.uleb128 0x16
 1504 07f4 CD010000 		.4byte	.LASF176
 1505 07f8 0A       		.byte	0xa
 1506 07f9 6A04     		.2byte	0x46a
 1507 07fb 26030000 		.4byte	0x326
 1508 07ff 44       		.byte	0x44
 1509 0800 16       		.uleb128 0x16
 1510 0801 F3020000 		.4byte	.LASF177
 1511 0805 0A       		.byte	0xa
 1512 0806 6B04     		.2byte	0x46b
 1513 0808 01060000 		.4byte	0x601
 1514 080c 48       		.byte	0x48
 1515 080d 16       		.uleb128 0x16
 1516 080e D5010000 		.4byte	.LASF178
 1517 0812 0A       		.byte	0xa
 1518 0813 6C04     		.2byte	0x46c
 1519 0815 26030000 		.4byte	0x326
 1520 0819 50       		.byte	0x50
 1521 081a 16       		.uleb128 0x16
 1522 081b 33010000 		.4byte	.LASF179
 1523 081f 0A       		.byte	0xa
 1524 0820 6D04     		.2byte	0x46d
 1525 0822 26030000 		.4byte	0x326
 1526 0826 54       		.byte	0x54
 1527 0827 16       		.uleb128 0x16
 1528 0828 56090000 		.4byte	.LASF180
 1529 082c 0A       		.byte	0xa
ARM GAS  /var/folders/4k/6h5l9jl178sb4hslwv3xp1mr0000gn/T//cckdPLsp.s 			page 28


 1530 082d 6E04     		.2byte	0x46e
 1531 082f 26030000 		.4byte	0x326
 1532 0833 58       		.byte	0x58
 1533 0834 16       		.uleb128 0x16
 1534 0835 A2020000 		.4byte	.LASF181
 1535 0839 0A       		.byte	0xa
 1536 083a 6F04     		.2byte	0x46f
 1537 083c AD000000 		.4byte	0xad
 1538 0840 5C       		.byte	0x5c
 1539 0841 16       		.uleb128 0x16
 1540 0842 0F070000 		.4byte	.LASF182
 1541 0846 0A       		.byte	0xa
 1542 0847 7004     		.2byte	0x470
 1543 0849 26030000 		.4byte	0x326
 1544 084d 60       		.byte	0x60
 1545 084e 16       		.uleb128 0x16
 1546 084f 4A060000 		.4byte	.LASF183
 1547 0853 0A       		.byte	0xa
 1548 0854 7104     		.2byte	0x471
 1549 0856 26030000 		.4byte	0x326
 1550 085a 64       		.byte	0x64
 1551 085b 16       		.uleb128 0x16
 1552 085c AC020000 		.4byte	.LASF184
 1553 0860 0A       		.byte	0xa
 1554 0861 7204     		.2byte	0x472
 1555 0863 01060000 		.4byte	0x601
 1556 0867 68       		.byte	0x68
 1557 0868 16       		.uleb128 0x16
 1558 0869 BD030000 		.4byte	.LASF185
 1559 086d 0A       		.byte	0xa
 1560 086e 7304     		.2byte	0x473
 1561 0870 26030000 		.4byte	0x326
 1562 0874 70       		.byte	0x70
 1563 0875 0C       		.uleb128 0xc
 1564 0876 43535200 		.ascii	"CSR\000"
 1565 087a 0A       		.byte	0xa
 1566 087b 7404     		.2byte	0x474
 1567 087d 26030000 		.4byte	0x326
 1568 0881 74       		.byte	0x74
 1569 0882 16       		.uleb128 0x16
 1570 0883 B6020000 		.4byte	.LASF186
 1571 0887 0A       		.byte	0xa
 1572 0888 7504     		.2byte	0x475
 1573 088a 01060000 		.4byte	0x601
 1574 088e 78       		.byte	0x78
 1575 088f 16       		.uleb128 0x16
 1576 0890 F2050000 		.4byte	.LASF187
 1577 0894 0A       		.byte	0xa
 1578 0895 7604     		.2byte	0x476
 1579 0897 26030000 		.4byte	0x326
 1580 089b 80       		.byte	0x80
 1581 089c 16       		.uleb128 0x16
 1582 089d 32000000 		.4byte	.LASF188
 1583 08a1 0A       		.byte	0xa
 1584 08a2 7704     		.2byte	0x477
 1585 08a4 26030000 		.4byte	0x326
 1586 08a8 84       		.byte	0x84
ARM GAS  /var/folders/4k/6h5l9jl178sb4hslwv3xp1mr0000gn/T//cckdPLsp.s 			page 29


 1587 08a9 16       		.uleb128 0x16
 1588 08aa 4E0B0000 		.4byte	.LASF189
 1589 08ae 0A       		.byte	0xa
 1590 08af 7804     		.2byte	0x478
 1591 08b1 26030000 		.4byte	0x326
 1592 08b5 88       		.byte	0x88
 1593 08b6 16       		.uleb128 0x16
 1594 08b7 F8010000 		.4byte	.LASF190
 1595 08bb 0A       		.byte	0xa
 1596 08bc 7904     		.2byte	0x479
 1597 08be 26030000 		.4byte	0x326
 1598 08c2 8C       		.byte	0x8c
 1599 08c3 00       		.byte	0
 1600 08c4 17       		.uleb128 0x17
 1601 08c5 4B0A0000 		.4byte	.LASF191
 1602 08c9 0A       		.byte	0xa
 1603 08ca 7B04     		.2byte	0x47b
 1604 08cc 1B070000 		.4byte	0x71b
 1605 08d0 08       		.uleb128 0x8
 1606 08d1 0C       		.byte	0xc
 1607 08d2 0B       		.byte	0xb
 1608 08d3 DA       		.byte	0xda
 1609 08d4 15090000 		.4byte	0x915
 1610 08d8 06       		.uleb128 0x6
 1611 08d9 A4030000 		.4byte	.LASF192
 1612 08dd 0B       		.byte	0xb
 1613 08de DB       		.byte	0xdb
 1614 08df 15090000 		.4byte	0x915
 1615 08e3 00       		.byte	0
 1616 08e4 06       		.uleb128 0x6
 1617 08e5 F00B0000 		.4byte	.LASF193
 1618 08e9 0B       		.byte	0xb
 1619 08ea DC       		.byte	0xdc
 1620 08eb 1B090000 		.4byte	0x91b
 1621 08ef 04       		.byte	0x4
 1622 08f0 06       		.uleb128 0x6
 1623 08f1 1C030000 		.4byte	.LASF194
 1624 08f5 0B       		.byte	0xb
 1625 08f6 DD       		.byte	0xdd
 1626 08f7 97000000 		.4byte	0x97
 1627 08fb 08       		.byte	0x8
 1628 08fc 06       		.uleb128 0x6
 1629 08fd 8C060000 		.4byte	.LASF195
 1630 0901 0B       		.byte	0xb
 1631 0902 DF       		.byte	0xdf
 1632 0903 97000000 		.4byte	0x97
 1633 0907 09       		.byte	0x9
 1634 0908 06       		.uleb128 0x6
 1635 0909 46090000 		.4byte	.LASF196
 1636 090d 0B       		.byte	0xb
 1637 090e E0       		.byte	0xe0
 1638 090f 97000000 		.4byte	0x97
 1639 0913 0A       		.byte	0xa
 1640 0914 00       		.byte	0
 1641 0915 09       		.uleb128 0x9
 1642 0916 04       		.byte	0x4
 1643 0917 0F070000 		.4byte	0x70f
ARM GAS  /var/folders/4k/6h5l9jl178sb4hslwv3xp1mr0000gn/T//cckdPLsp.s 			page 30


 1644 091b 09       		.uleb128 0x9
 1645 091c 04       		.byte	0x4
 1646 091d 26030000 		.4byte	0x326
 1647 0921 03       		.uleb128 0x3
 1648 0922 1B050000 		.4byte	.LASF197
 1649 0926 0B       		.byte	0xb
 1650 0927 E1       		.byte	0xe1
 1651 0928 D0080000 		.4byte	0x8d0
 1652 092c 03       		.uleb128 0x3
 1653 092d 96080000 		.4byte	.LASF198
 1654 0931 0B       		.byte	0xb
 1655 0932 EA       		.byte	0xea
 1656 0933 37090000 		.4byte	0x937
 1657 0937 09       		.uleb128 0x9
 1658 0938 04       		.byte	0x4
 1659 0939 3D090000 		.4byte	0x93d
 1660 093d 18       		.uleb128 0x18
 1661 093e 4D090000 		.4byte	0x94d
 1662 0942 19       		.uleb128 0x19
 1663 0943 87020000 		.4byte	0x287
 1664 0947 19       		.uleb128 0x19
 1665 0948 AD000000 		.4byte	0xad
 1666 094c 00       		.byte	0
 1667 094d 1A       		.uleb128 0x1a
 1668 094e 01       		.byte	0x1
 1669 094f 0C       		.byte	0xc
 1670 0950 3D       		.byte	0x3d
 1671 0951 7A090000 		.4byte	0x97a
 1672 0955 12       		.uleb128 0x12
 1673 0956 DC060000 		.4byte	.LASF199
 1674 095a 00       		.sleb128 0
 1675 095b 12       		.uleb128 0x12
 1676 095c 3E020000 		.4byte	.LASF200
 1677 0960 01       		.sleb128 1
 1678 0961 12       		.uleb128 0x12
 1679 0962 2E050000 		.4byte	.LASF201
 1680 0966 02       		.sleb128 2
 1681 0967 12       		.uleb128 0x12
 1682 0968 D0090000 		.4byte	.LASF202
 1683 096c 03       		.sleb128 3
 1684 096d 12       		.uleb128 0x12
 1685 096e BC010000 		.4byte	.LASF203
 1686 0972 04       		.sleb128 4
 1687 0973 12       		.uleb128 0x12
 1688 0974 2A090000 		.4byte	.LASF204
 1689 0978 05       		.sleb128 5
 1690 0979 00       		.byte	0
 1691 097a 03       		.uleb128 0x3
 1692 097b 86090000 		.4byte	.LASF205
 1693 097f 0C       		.byte	0xc
 1694 0980 44       		.byte	0x44
 1695 0981 4D090000 		.4byte	0x94d
 1696 0985 03       		.uleb128 0x3
 1697 0986 590B0000 		.4byte	.LASF206
 1698 098a 0D       		.byte	0xd
 1699 098b A3       		.byte	0xa3
 1700 098c 90090000 		.4byte	0x990
ARM GAS  /var/folders/4k/6h5l9jl178sb4hslwv3xp1mr0000gn/T//cckdPLsp.s 			page 31


 1701 0990 05       		.uleb128 0x5
 1702 0991 590B0000 		.4byte	.LASF206
 1703 0995 18       		.byte	0x18
 1704 0996 0D       		.byte	0xd
 1705 0997 C4       		.byte	0xc4
 1706 0998 E5090000 		.4byte	0x9e5
 1707 099c 06       		.uleb128 0x6
 1708 099d B3000000 		.4byte	.LASF207
 1709 09a1 0D       		.byte	0xd
 1710 09a2 C8       		.byte	0xc8
 1711 09a3 7A090000 		.4byte	0x97a
 1712 09a7 00       		.byte	0
 1713 09a8 06       		.uleb128 0x6
 1714 09a9 AC000000 		.4byte	.LASF208
 1715 09ad 0D       		.byte	0xd
 1716 09ae CC       		.byte	0xcc
 1717 09af 3E0A0000 		.4byte	0xa3e
 1718 09b3 04       		.byte	0x4
 1719 09b4 06       		.uleb128 0x6
 1720 09b5 F2090000 		.4byte	.LASF209
 1721 09b9 0D       		.byte	0xd
 1722 09ba D1       		.byte	0xd1
 1723 09bb 4B020000 		.4byte	0x24b
 1724 09bf 08       		.byte	0x8
 1725 09c0 06       		.uleb128 0x6
 1726 09c1 62010000 		.4byte	.LASF210
 1727 09c5 0D       		.byte	0xd
 1728 09c6 DB       		.byte	0xdb
 1729 09c7 490A0000 		.4byte	0xa49
 1730 09cb 0C       		.byte	0xc
 1731 09cc 06       		.uleb128 0x6
 1732 09cd 8A050000 		.4byte	.LASF211
 1733 09d1 0D       		.byte	0xd
 1734 09d2 DF       		.byte	0xdf
 1735 09d3 4F0A0000 		.4byte	0xa4f
 1736 09d7 10       		.byte	0x10
 1737 09d8 06       		.uleb128 0x6
 1738 09d9 40060000 		.4byte	.LASF212
 1739 09dd 0D       		.byte	0xd
 1740 09de E3       		.byte	0xe3
 1741 09df AD000000 		.4byte	0xad
 1742 09e3 14       		.byte	0x14
 1743 09e4 00       		.byte	0
 1744 09e5 03       		.uleb128 0x3
 1745 09e6 B1060000 		.4byte	.LASF213
 1746 09ea 0D       		.byte	0xd
 1747 09eb AB       		.byte	0xab
 1748 09ec F0090000 		.4byte	0x9f0
 1749 09f0 09       		.uleb128 0x9
 1750 09f1 04       		.byte	0x4
 1751 09f2 F6090000 		.4byte	0x9f6
 1752 09f6 18       		.uleb128 0x18
 1753 09f7 010A0000 		.4byte	0xa01
 1754 09fb 19       		.uleb128 0x19
 1755 09fc 010A0000 		.4byte	0xa01
 1756 0a00 00       		.byte	0
 1757 0a01 09       		.uleb128 0x9
ARM GAS  /var/folders/4k/6h5l9jl178sb4hslwv3xp1mr0000gn/T//cckdPLsp.s 			page 32


 1758 0a02 04       		.byte	0x4
 1759 0a03 85090000 		.4byte	0x985
 1760 0a07 08       		.uleb128 0x8
 1761 0a08 0C       		.byte	0xc
 1762 0a09 0D       		.byte	0xd
 1763 0a0a B0       		.byte	0xb0
 1764 0a0b 330A0000 		.4byte	0xa33
 1765 0a0f 06       		.uleb128 0x6
 1766 0a10 3D010000 		.4byte	.LASF214
 1767 0a14 0D       		.byte	0xd
 1768 0a15 B4       		.byte	0xb4
 1769 0a16 E5090000 		.4byte	0x9e5
 1770 0a1a 00       		.byte	0
 1771 0a1b 06       		.uleb128 0x6
 1772 0a1c F8050000 		.4byte	.LASF215
 1773 0a20 0D       		.byte	0xd
 1774 0a21 B8       		.byte	0xb8
 1775 0a22 E5090000 		.4byte	0x9e5
 1776 0a26 04       		.byte	0x4
 1777 0a27 07       		.uleb128 0x7
 1778 0a28 637200   		.ascii	"cr\000"
 1779 0a2b 0D       		.byte	0xd
 1780 0a2c BE       		.byte	0xbe
 1781 0a2d AD000000 		.4byte	0xad
 1782 0a31 08       		.byte	0x8
 1783 0a32 00       		.byte	0
 1784 0a33 03       		.uleb128 0x3
 1785 0a34 46050000 		.4byte	.LASF216
 1786 0a38 0D       		.byte	0xd
 1787 0a39 BF       		.byte	0xbf
 1788 0a3a 070A0000 		.4byte	0xa07
 1789 0a3e 09       		.uleb128 0x9
 1790 0a3f 04       		.byte	0x4
 1791 0a40 440A0000 		.4byte	0xa44
 1792 0a44 10       		.uleb128 0x10
 1793 0a45 330A0000 		.4byte	0xa33
 1794 0a49 09       		.uleb128 0x9
 1795 0a4a 04       		.byte	0x4
 1796 0a4b AC060000 		.4byte	0x6ac
 1797 0a4f 09       		.uleb128 0x9
 1798 0a50 04       		.byte	0x4
 1799 0a51 550A0000 		.4byte	0xa55
 1800 0a55 10       		.uleb128 0x10
 1801 0a56 21090000 		.4byte	0x921
 1802 0a5a 1B       		.uleb128 0x1b
 1803 0a5b 00020000 		.4byte	.LASF242
 1804 0a5f 01       		.byte	0x1
 1805 0a60 42       		.byte	0x42
 1806 0a61 00000000 		.4byte	.LFB119
 1807 0a65 22000000 		.4byte	.LFE119-.LFB119
 1808 0a69 01       		.uleb128 0x1
 1809 0a6a 9C       		.byte	0x9c
 1810 0a6b 970A0000 		.4byte	0xa97
 1811 0a6f 1C       		.uleb128 0x1c
 1812 0a70 6F060000 		.4byte	.LASF217
 1813 0a74 01       		.byte	0x1
 1814 0a75 42       		.byte	0x42
ARM GAS  /var/folders/4k/6h5l9jl178sb4hslwv3xp1mr0000gn/T//cckdPLsp.s 			page 33


 1815 0a76 010A0000 		.4byte	0xa01
 1816 0a7a 00000000 		.4byte	.LLST0
 1817 0a7e 1C       		.uleb128 0x1c
 1818 0a7f 88030000 		.4byte	.LASF218
 1819 0a83 01       		.byte	0x1
 1820 0a84 42       		.byte	0x42
 1821 0a85 AD000000 		.4byte	0xad
 1822 0a89 3A000000 		.4byte	.LLST1
 1823 0a8d 1D       		.uleb128 0x1d
 1824 0a8e 1E000000 		.4byte	.LVL4
 1825 0a92 B40C0000 		.4byte	0xcb4
 1826 0a96 00       		.byte	0
 1827 0a97 1E       		.uleb128 0x1e
 1828 0a98 C50A0000 		.4byte	.LASF220
 1829 0a9c 01       		.byte	0x1
 1830 0a9d 5D       		.byte	0x5d
 1831 0a9e 00000000 		.4byte	.LFB120
 1832 0aa2 60000000 		.4byte	.LFE120-.LFB120
 1833 0aa6 01       		.uleb128 0x1
 1834 0aa7 9C       		.byte	0x9c
 1835 0aa8 360B0000 		.4byte	0xb36
 1836 0aac 1F       		.uleb128 0x1f
 1837 0aad 00000000 		.4byte	.Ldebug_ranges0+0
 1838 0ab1 2C0B0000 		.4byte	0xb2c
 1839 0ab5 20       		.uleb128 0x20
 1840 0ab6 C0020000 		.4byte	.LASF219
 1841 0aba 01       		.byte	0x1
 1842 0abb 62       		.byte	0x62
 1843 0abc B8000000 		.4byte	0xb8
 1844 0ac0 74000000 		.4byte	.LLST2
 1845 0ac4 21       		.uleb128 0x21
 1846 0ac5 30000000 		.4byte	.LBB3
 1847 0ac9 14000000 		.4byte	.LBE3-.LBB3
 1848 0acd 1F0B0000 		.4byte	0xb1f
 1849 0ad1 22       		.uleb128 0x22
 1850 0ad2 747000   		.ascii	"tp\000"
 1851 0ad5 01       		.byte	0x1
 1852 0ad6 62       		.byte	0x62
 1853 0ad7 4B020000 		.4byte	0x24b
 1854 0adb 92000000 		.4byte	.LLST3
 1855 0adf 21       		.uleb128 0x21
 1856 0ae0 34000000 		.4byte	.LBB4
 1857 0ae4 06000000 		.4byte	.LBE4-.LBB4
 1858 0ae8 FA0A0000 		.4byte	0xafa
 1859 0aec 23       		.uleb128 0x23
 1860 0aed 746D7000 		.ascii	"tmp\000"
 1861 0af1 01       		.byte	0x1
 1862 0af2 62       		.byte	0x62
 1863 0af3 AD000000 		.4byte	0xad
 1864 0af7 01       		.uleb128 0x1
 1865 0af8 53       		.byte	0x53
 1866 0af9 00       		.byte	0
 1867 0afa 21       		.uleb128 0x21
 1868 0afb 3E000000 		.4byte	.LBB5
 1869 0aff 06000000 		.4byte	.LBE5-.LBB5
 1870 0b03 150B0000 		.4byte	0xb15
 1871 0b07 23       		.uleb128 0x23
ARM GAS  /var/folders/4k/6h5l9jl178sb4hslwv3xp1mr0000gn/T//cckdPLsp.s 			page 34


 1872 0b08 746D7000 		.ascii	"tmp\000"
 1873 0b0c 01       		.byte	0x1
 1874 0b0d 62       		.byte	0x62
 1875 0b0e AD000000 		.4byte	0xad
 1876 0b12 01       		.uleb128 0x1
 1877 0b13 53       		.byte	0x53
 1878 0b14 00       		.byte	0
 1879 0b15 1D       		.uleb128 0x1d
 1880 0b16 3E000000 		.4byte	.LVL8
 1881 0b1a BC0C0000 		.4byte	0xcbc
 1882 0b1e 00       		.byte	0
 1883 0b1f 24       		.uleb128 0x24
 1884 0b20 24000000 		.4byte	.LVL6
 1885 0b24 25       		.uleb128 0x25
 1886 0b25 01       		.uleb128 0x1
 1887 0b26 50       		.byte	0x50
 1888 0b27 02       		.uleb128 0x2
 1889 0b28 74       		.byte	0x74
 1890 0b29 00       		.sleb128 0
 1891 0b2a 00       		.byte	0
 1892 0b2b 00       		.byte	0
 1893 0b2c 26       		.uleb128 0x26
 1894 0b2d 4C000000 		.4byte	.LVL10
 1895 0b31 D10C0000 		.4byte	0xcd1
 1896 0b35 00       		.byte	0
 1897 0b36 1E       		.uleb128 0x1e
 1898 0b37 330B0000 		.4byte	.LASF221
 1899 0b3b 01       		.byte	0x1
 1900 0b3c 72       		.byte	0x72
 1901 0b3d 00000000 		.4byte	.LFB121
 1902 0b41 28000000 		.4byte	.LFE121-.LFB121
 1903 0b45 01       		.uleb128 0x1
 1904 0b46 9C       		.byte	0x9c
 1905 0b47 5C0B0000 		.4byte	0xb5c
 1906 0b4b 27       		.uleb128 0x27
 1907 0b4c 0A000000 		.4byte	.LVL11
 1908 0b50 D90C0000 		.4byte	0xcd9
 1909 0b54 25       		.uleb128 0x25
 1910 0b55 01       		.uleb128 0x1
 1911 0b56 50       		.byte	0x50
 1912 0b57 02       		.uleb128 0x2
 1913 0b58 74       		.byte	0x74
 1914 0b59 00       		.sleb128 0
 1915 0b5a 00       		.byte	0
 1916 0b5b 00       		.byte	0
 1917 0b5c 1E       		.uleb128 0x1e
 1918 0b5d 7D060000 		.4byte	.LASF222
 1919 0b61 01       		.byte	0x1
 1920 0b62 8E       		.byte	0x8e
 1921 0b63 00000000 		.4byte	.LFB122
 1922 0b67 74000000 		.4byte	.LFE122-.LFB122
 1923 0b6b 01       		.uleb128 0x1
 1924 0b6c 9C       		.byte	0x9c
 1925 0b6d CC0B0000 		.4byte	0xbcc
 1926 0b71 1C       		.uleb128 0x1c
 1927 0b72 6F060000 		.4byte	.LASF217
 1928 0b76 01       		.byte	0x1
ARM GAS  /var/folders/4k/6h5l9jl178sb4hslwv3xp1mr0000gn/T//cckdPLsp.s 			page 35


 1929 0b77 8E       		.byte	0x8e
 1930 0b78 010A0000 		.4byte	0xa01
 1931 0b7c A5000000 		.4byte	.LLST4
 1932 0b80 21       		.uleb128 0x21
 1933 0b81 58000000 		.4byte	.LBB9
 1934 0b85 1C000000 		.4byte	.LBE9-.LBB9
 1935 0b89 B50B0000 		.4byte	0xbb5
 1936 0b8d 28       		.uleb128 0x28
 1937 0b8e 6200     		.ascii	"b\000"
 1938 0b90 01       		.byte	0x1
 1939 0b91 94       		.byte	0x94
 1940 0b92 B8000000 		.4byte	0xb8
 1941 0b96 27       		.uleb128 0x27
 1942 0b97 64000000 		.4byte	.LVL19
 1943 0b9b EA0C0000 		.4byte	0xcea
 1944 0b9f 25       		.uleb128 0x25
 1945 0ba0 01       		.uleb128 0x1
 1946 0ba1 53       		.byte	0x53
 1947 0ba2 02       		.uleb128 0x2
 1948 0ba3 74       		.byte	0x74
 1949 0ba4 00       		.sleb128 0
 1950 0ba5 25       		.uleb128 0x25
 1951 0ba6 01       		.uleb128 0x1
 1952 0ba7 52       		.byte	0x52
 1953 0ba8 05       		.uleb128 0x5
 1954 0ba9 03       		.byte	0x3
 1955 0baa 00000000 		.4byte	dcmi_lld_serve_dma_rx_interrupt
 1956 0bae 25       		.uleb128 0x25
 1957 0baf 01       		.uleb128 0x1
 1958 0bb0 51       		.byte	0x51
 1959 0bb1 01       		.uleb128 0x1
 1960 0bb2 3A       		.byte	0x3a
 1961 0bb3 00       		.byte	0
 1962 0bb4 00       		.byte	0
 1963 0bb5 27       		.uleb128 0x27
 1964 0bb6 28000000 		.4byte	.LVL14
 1965 0bba 0F0D0000 		.4byte	0xd0f
 1966 0bbe 25       		.uleb128 0x25
 1967 0bbf 01       		.uleb128 0x1
 1968 0bc0 51       		.byte	0x51
 1969 0bc1 02       		.uleb128 0x2
 1970 0bc2 08       		.byte	0x8
 1971 0bc3 B0       		.byte	0xb0
 1972 0bc4 25       		.uleb128 0x25
 1973 0bc5 01       		.uleb128 0x1
 1974 0bc6 50       		.byte	0x50
 1975 0bc7 02       		.uleb128 0x2
 1976 0bc8 08       		.byte	0x8
 1977 0bc9 4E       		.byte	0x4e
 1978 0bca 00       		.byte	0
 1979 0bcb 00       		.byte	0
 1980 0bcc 1E       		.uleb128 0x1e
 1981 0bcd EF030000 		.4byte	.LASF223
 1982 0bd1 01       		.byte	0x1
 1983 0bd2 B3       		.byte	0xb3
 1984 0bd3 00000000 		.4byte	.LFB123
 1985 0bd7 50000000 		.4byte	.LFE123-.LFB123
ARM GAS  /var/folders/4k/6h5l9jl178sb4hslwv3xp1mr0000gn/T//cckdPLsp.s 			page 36


 1986 0bdb 01       		.uleb128 0x1
 1987 0bdc 9C       		.byte	0x9c
 1988 0bdd 0A0C0000 		.4byte	0xc0a
 1989 0be1 1C       		.uleb128 0x1c
 1990 0be2 6F060000 		.4byte	.LASF217
 1991 0be6 01       		.byte	0x1
 1992 0be7 B3       		.byte	0xb3
 1993 0be8 010A0000 		.4byte	0xa01
 1994 0bec EF000000 		.4byte	.LLST5
 1995 0bf0 1D       		.uleb128 0x1d
 1996 0bf1 2C000000 		.4byte	.LVL22
 1997 0bf5 260D0000 		.4byte	0xd26
 1998 0bf9 29       		.uleb128 0x29
 1999 0bfa 3C000000 		.4byte	.LVL24
 2000 0bfe 380D0000 		.4byte	0xd38
 2001 0c02 25       		.uleb128 0x25
 2002 0c03 01       		.uleb128 0x1
 2003 0c04 50       		.byte	0x50
 2004 0c05 02       		.uleb128 0x2
 2005 0c06 08       		.byte	0x8
 2006 0c07 4E       		.byte	0x4e
 2007 0c08 00       		.byte	0
 2008 0c09 00       		.byte	0
 2009 0c0a 1E       		.uleb128 0x1e
 2010 0c0b 6A0A0000 		.4byte	.LASF224
 2011 0c0f 01       		.byte	0x1
 2012 0c10 D4       		.byte	0xd4
 2013 0c11 00000000 		.4byte	.LFB124
 2014 0c15 5C000000 		.4byte	.LFE124-.LFB124
 2015 0c19 01       		.uleb128 0x1
 2016 0c1a 9C       		.byte	0x9c
 2017 0c1b 760C0000 		.4byte	0xc76
 2018 0c1f 2A       		.uleb128 0x2a
 2019 0c20 6F060000 		.4byte	.LASF217
 2020 0c24 01       		.byte	0x1
 2021 0c25 D4       		.byte	0xd4
 2022 0c26 010A0000 		.4byte	0xa01
 2023 0c2a 01       		.uleb128 0x1
 2024 0c2b 50       		.byte	0x50
 2025 0c2c 2B       		.uleb128 0x2b
 2026 0c2d 6E00     		.ascii	"n\000"
 2027 0c2f 01       		.byte	0x1
 2028 0c30 D4       		.byte	0xd4
 2029 0c31 2C000000 		.4byte	0x2c
 2030 0c35 26010000 		.4byte	.LLST6
 2031 0c39 1C       		.uleb128 0x1c
 2032 0c3a C0020000 		.4byte	.LASF219
 2033 0c3e 01       		.byte	0x1
 2034 0c3f D4       		.byte	0xd4
 2035 0c40 B8000000 		.4byte	0xb8
 2036 0c44 47010000 		.4byte	.LLST7
 2037 0c48 1C       		.uleb128 0x1c
 2038 0c49 E1030000 		.4byte	.LASF225
 2039 0c4d 01       		.byte	0x1
 2040 0c4e D5       		.byte	0xd5
 2041 0c4f 87020000 		.4byte	0x287
 2042 0c53 81010000 		.4byte	.LLST8
ARM GAS  /var/folders/4k/6h5l9jl178sb4hslwv3xp1mr0000gn/T//cckdPLsp.s 			page 37


 2043 0c57 1C       		.uleb128 0x1c
 2044 0c58 E8030000 		.4byte	.LASF226
 2045 0c5c 01       		.byte	0x1
 2046 0c5d D5       		.byte	0xd5
 2047 0c5e 87020000 		.4byte	0x287
 2048 0c62 A2010000 		.4byte	.LLST9
 2049 0c66 20       		.uleb128 0x20
 2050 0c67 FD030000 		.4byte	.LASF227
 2051 0c6b 01       		.byte	0x1
 2052 0c6c D7       		.byte	0xd7
 2053 0c6d AD000000 		.4byte	0xad
 2054 0c71 CE010000 		.4byte	.LLST10
 2055 0c75 00       		.byte	0
 2056 0c76 2C       		.uleb128 0x2c
 2057 0c77 B80A0000 		.4byte	.LASF228
 2058 0c7b 0E       		.byte	0xe
 2059 0c7c 9806     		.2byte	0x698
 2060 0c7e 11060000 		.4byte	0x611
 2061 0c82 13       		.uleb128 0x13
 2062 0c83 21090000 		.4byte	0x921
 2063 0c87 920C0000 		.4byte	0xc92
 2064 0c8b 14       		.uleb128 0x14
 2065 0c8c 2B030000 		.4byte	0x32b
 2066 0c90 0F       		.byte	0xf
 2067 0c91 00       		.byte	0
 2068 0c92 2C       		.uleb128 0x2c
 2069 0c93 F6040000 		.4byte	.LASF229
 2070 0c97 0B       		.byte	0xb
 2071 0c98 BB01     		.2byte	0x1bb
 2072 0c9a 9E0C0000 		.4byte	0xc9e
 2073 0c9e 10       		.uleb128 0x10
 2074 0c9f 820C0000 		.4byte	0xc82
 2075 0ca3 2D       		.uleb128 0x2d
 2076 0ca4 440A0000 		.4byte	.LASF230
 2077 0ca8 01       		.byte	0x1
 2078 0ca9 31       		.byte	0x31
 2079 0caa 85090000 		.4byte	0x985
 2080 0cae 05       		.uleb128 0x5
 2081 0caf 03       		.byte	0x3
 2082 0cb0 00000000 		.4byte	DCMID1
 2083 0cb4 2E       		.uleb128 0x2e
 2084 0cb5 9B0A0000 		.4byte	.LASF231
 2085 0cb9 08       		.byte	0x8
 2086 0cba 0102     		.2byte	0x201
 2087 0cbc 2F       		.uleb128 0x2f
 2088 0cbd 6F000000 		.4byte	.LASF233
 2089 0cc1 0F       		.byte	0xf
 2090 0cc2 90       		.byte	0x90
 2091 0cc3 4B020000 		.4byte	0x24b
 2092 0cc7 D10C0000 		.4byte	0xcd1
 2093 0ccb 19       		.uleb128 0x19
 2094 0ccc 4B020000 		.4byte	0x24b
 2095 0cd0 00       		.byte	0
 2096 0cd1 2E       		.uleb128 0x2e
 2097 0cd2 E8060000 		.4byte	.LASF232
 2098 0cd6 08       		.byte	0x8
 2099 0cd7 0302     		.2byte	0x203
ARM GAS  /var/folders/4k/6h5l9jl178sb4hslwv3xp1mr0000gn/T//cckdPLsp.s 			page 38


 2100 0cd9 30       		.uleb128 0x30
 2101 0cda B9000000 		.4byte	.LASF235
 2102 0cde 0C       		.byte	0xc
 2103 0cdf CE       		.byte	0xce
 2104 0ce0 EA0C0000 		.4byte	0xcea
 2105 0ce4 19       		.uleb128 0x19
 2106 0ce5 010A0000 		.4byte	0xa01
 2107 0ce9 00       		.byte	0
 2108 0cea 31       		.uleb128 0x31
 2109 0ceb AB030000 		.4byte	.LASF234
 2110 0cef 0B       		.byte	0xb
 2111 0cf0 C201     		.2byte	0x1c2
 2112 0cf2 B8000000 		.4byte	0xb8
 2113 0cf6 0F0D0000 		.4byte	0xd0f
 2114 0cfa 19       		.uleb128 0x19
 2115 0cfb 4F0A0000 		.4byte	0xa4f
 2116 0cff 19       		.uleb128 0x19
 2117 0d00 AD000000 		.4byte	0xad
 2118 0d04 19       		.uleb128 0x19
 2119 0d05 2C090000 		.4byte	0x92c
 2120 0d09 19       		.uleb128 0x19
 2121 0d0a 87020000 		.4byte	0x287
 2122 0d0e 00       		.byte	0
 2123 0d0f 32       		.uleb128 0x32
 2124 0d10 FE0A0000 		.4byte	.LASF236
 2125 0d14 10       		.byte	0x10
 2126 0d15 2301     		.2byte	0x123
 2127 0d17 260D0000 		.4byte	0xd26
 2128 0d1b 19       		.uleb128 0x19
 2129 0d1c AD000000 		.4byte	0xad
 2130 0d20 19       		.uleb128 0x19
 2131 0d21 AD000000 		.4byte	0xad
 2132 0d25 00       		.byte	0
 2133 0d26 32       		.uleb128 0x32
 2134 0d27 5E000000 		.4byte	.LASF237
 2135 0d2b 0B       		.byte	0xb
 2136 0d2c C601     		.2byte	0x1c6
 2137 0d2e 380D0000 		.4byte	0xd38
 2138 0d32 19       		.uleb128 0x19
 2139 0d33 4F0A0000 		.4byte	0xa4f
 2140 0d37 00       		.byte	0
 2141 0d38 33       		.uleb128 0x33
 2142 0d39 5E080000 		.4byte	.LASF243
 2143 0d3d 10       		.byte	0x10
 2144 0d3e 2401     		.2byte	0x124
 2145 0d40 19       		.uleb128 0x19
 2146 0d41 AD000000 		.4byte	0xad
 2147 0d45 00       		.byte	0
 2148 0d46 00       		.byte	0
 2149              		.section	.debug_abbrev,"",%progbits
 2150              	.Ldebug_abbrev0:
 2151 0000 01       		.uleb128 0x1
 2152 0001 11       		.uleb128 0x11
 2153 0002 01       		.byte	0x1
 2154 0003 25       		.uleb128 0x25
 2155 0004 0E       		.uleb128 0xe
 2156 0005 13       		.uleb128 0x13
ARM GAS  /var/folders/4k/6h5l9jl178sb4hslwv3xp1mr0000gn/T//cckdPLsp.s 			page 39


 2157 0006 0B       		.uleb128 0xb
 2158 0007 03       		.uleb128 0x3
 2159 0008 0E       		.uleb128 0xe
 2160 0009 1B       		.uleb128 0x1b
 2161 000a 0E       		.uleb128 0xe
 2162 000b 55       		.uleb128 0x55
 2163 000c 17       		.uleb128 0x17
 2164 000d 11       		.uleb128 0x11
 2165 000e 01       		.uleb128 0x1
 2166 000f 10       		.uleb128 0x10
 2167 0010 17       		.uleb128 0x17
 2168 0011 00       		.byte	0
 2169 0012 00       		.byte	0
 2170 0013 02       		.uleb128 0x2
 2171 0014 24       		.uleb128 0x24
 2172 0015 00       		.byte	0
 2173 0016 0B       		.uleb128 0xb
 2174 0017 0B       		.uleb128 0xb
 2175 0018 3E       		.uleb128 0x3e
 2176 0019 0B       		.uleb128 0xb
 2177 001a 03       		.uleb128 0x3
 2178 001b 08       		.uleb128 0x8
 2179 001c 00       		.byte	0
 2180 001d 00       		.byte	0
 2181 001e 03       		.uleb128 0x3
 2182 001f 16       		.uleb128 0x16
 2183 0020 00       		.byte	0
 2184 0021 03       		.uleb128 0x3
 2185 0022 0E       		.uleb128 0xe
 2186 0023 3A       		.uleb128 0x3a
 2187 0024 0B       		.uleb128 0xb
 2188 0025 3B       		.uleb128 0x3b
 2189 0026 0B       		.uleb128 0xb
 2190 0027 49       		.uleb128 0x49
 2191 0028 13       		.uleb128 0x13
 2192 0029 00       		.byte	0
 2193 002a 00       		.byte	0
 2194 002b 04       		.uleb128 0x4
 2195 002c 24       		.uleb128 0x24
 2196 002d 00       		.byte	0
 2197 002e 0B       		.uleb128 0xb
 2198 002f 0B       		.uleb128 0xb
 2199 0030 3E       		.uleb128 0x3e
 2200 0031 0B       		.uleb128 0xb
 2201 0032 03       		.uleb128 0x3
 2202 0033 0E       		.uleb128 0xe
 2203 0034 00       		.byte	0
 2204 0035 00       		.byte	0
 2205 0036 05       		.uleb128 0x5
 2206 0037 13       		.uleb128 0x13
 2207 0038 01       		.byte	0x1
 2208 0039 03       		.uleb128 0x3
 2209 003a 0E       		.uleb128 0xe
 2210 003b 0B       		.uleb128 0xb
 2211 003c 0B       		.uleb128 0xb
 2212 003d 3A       		.uleb128 0x3a
 2213 003e 0B       		.uleb128 0xb
ARM GAS  /var/folders/4k/6h5l9jl178sb4hslwv3xp1mr0000gn/T//cckdPLsp.s 			page 40


 2214 003f 3B       		.uleb128 0x3b
 2215 0040 0B       		.uleb128 0xb
 2216 0041 01       		.uleb128 0x1
 2217 0042 13       		.uleb128 0x13
 2218 0043 00       		.byte	0
 2219 0044 00       		.byte	0
 2220 0045 06       		.uleb128 0x6
 2221 0046 0D       		.uleb128 0xd
 2222 0047 00       		.byte	0
 2223 0048 03       		.uleb128 0x3
 2224 0049 0E       		.uleb128 0xe
 2225 004a 3A       		.uleb128 0x3a
 2226 004b 0B       		.uleb128 0xb
 2227 004c 3B       		.uleb128 0x3b
 2228 004d 0B       		.uleb128 0xb
 2229 004e 49       		.uleb128 0x49
 2230 004f 13       		.uleb128 0x13
 2231 0050 38       		.uleb128 0x38
 2232 0051 0B       		.uleb128 0xb
 2233 0052 00       		.byte	0
 2234 0053 00       		.byte	0
 2235 0054 07       		.uleb128 0x7
 2236 0055 0D       		.uleb128 0xd
 2237 0056 00       		.byte	0
 2238 0057 03       		.uleb128 0x3
 2239 0058 08       		.uleb128 0x8
 2240 0059 3A       		.uleb128 0x3a
 2241 005a 0B       		.uleb128 0xb
 2242 005b 3B       		.uleb128 0x3b
 2243 005c 0B       		.uleb128 0xb
 2244 005d 49       		.uleb128 0x49
 2245 005e 13       		.uleb128 0x13
 2246 005f 38       		.uleb128 0x38
 2247 0060 0B       		.uleb128 0xb
 2248 0061 00       		.byte	0
 2249 0062 00       		.byte	0
 2250 0063 08       		.uleb128 0x8
 2251 0064 13       		.uleb128 0x13
 2252 0065 01       		.byte	0x1
 2253 0066 0B       		.uleb128 0xb
 2254 0067 0B       		.uleb128 0xb
 2255 0068 3A       		.uleb128 0x3a
 2256 0069 0B       		.uleb128 0xb
 2257 006a 3B       		.uleb128 0x3b
 2258 006b 0B       		.uleb128 0xb
 2259 006c 01       		.uleb128 0x1
 2260 006d 13       		.uleb128 0x13
 2261 006e 00       		.byte	0
 2262 006f 00       		.byte	0
 2263 0070 09       		.uleb128 0x9
 2264 0071 0F       		.uleb128 0xf
 2265 0072 00       		.byte	0
 2266 0073 0B       		.uleb128 0xb
 2267 0074 0B       		.uleb128 0xb
 2268 0075 49       		.uleb128 0x49
 2269 0076 13       		.uleb128 0x13
 2270 0077 00       		.byte	0
ARM GAS  /var/folders/4k/6h5l9jl178sb4hslwv3xp1mr0000gn/T//cckdPLsp.s 			page 41


 2271 0078 00       		.byte	0
 2272 0079 0A       		.uleb128 0xa
 2273 007a 0F       		.uleb128 0xf
 2274 007b 00       		.byte	0
 2275 007c 0B       		.uleb128 0xb
 2276 007d 0B       		.uleb128 0xb
 2277 007e 00       		.byte	0
 2278 007f 00       		.byte	0
 2279 0080 0B       		.uleb128 0xb
 2280 0081 13       		.uleb128 0x13
 2281 0082 01       		.byte	0x1
 2282 0083 03       		.uleb128 0x3
 2283 0084 0E       		.uleb128 0xe
 2284 0085 0B       		.uleb128 0xb
 2285 0086 0B       		.uleb128 0xb
 2286 0087 3A       		.uleb128 0x3a
 2287 0088 0B       		.uleb128 0xb
 2288 0089 3B       		.uleb128 0x3b
 2289 008a 05       		.uleb128 0x5
 2290 008b 01       		.uleb128 0x1
 2291 008c 13       		.uleb128 0x13
 2292 008d 00       		.byte	0
 2293 008e 00       		.byte	0
 2294 008f 0C       		.uleb128 0xc
 2295 0090 0D       		.uleb128 0xd
 2296 0091 00       		.byte	0
 2297 0092 03       		.uleb128 0x3
 2298 0093 08       		.uleb128 0x8
 2299 0094 3A       		.uleb128 0x3a
 2300 0095 0B       		.uleb128 0xb
 2301 0096 3B       		.uleb128 0x3b
 2302 0097 05       		.uleb128 0x5
 2303 0098 49       		.uleb128 0x49
 2304 0099 13       		.uleb128 0x13
 2305 009a 38       		.uleb128 0x38
 2306 009b 0B       		.uleb128 0xb
 2307 009c 00       		.byte	0
 2308 009d 00       		.byte	0
 2309 009e 0D       		.uleb128 0xd
 2310 009f 35       		.uleb128 0x35
 2311 00a0 00       		.byte	0
 2312 00a1 49       		.uleb128 0x49
 2313 00a2 13       		.uleb128 0x13
 2314 00a3 00       		.byte	0
 2315 00a4 00       		.byte	0
 2316 00a5 0E       		.uleb128 0xe
 2317 00a6 17       		.uleb128 0x17
 2318 00a7 01       		.byte	0x1
 2319 00a8 0B       		.uleb128 0xb
 2320 00a9 0B       		.uleb128 0xb
 2321 00aa 3A       		.uleb128 0x3a
 2322 00ab 0B       		.uleb128 0xb
 2323 00ac 3B       		.uleb128 0x3b
 2324 00ad 0B       		.uleb128 0xb
 2325 00ae 01       		.uleb128 0x1
 2326 00af 13       		.uleb128 0x13
 2327 00b0 00       		.byte	0
ARM GAS  /var/folders/4k/6h5l9jl178sb4hslwv3xp1mr0000gn/T//cckdPLsp.s 			page 42


 2328 00b1 00       		.byte	0
 2329 00b2 0F       		.uleb128 0xf
 2330 00b3 0D       		.uleb128 0xd
 2331 00b4 00       		.byte	0
 2332 00b5 03       		.uleb128 0x3
 2333 00b6 0E       		.uleb128 0xe
 2334 00b7 3A       		.uleb128 0x3a
 2335 00b8 0B       		.uleb128 0xb
 2336 00b9 3B       		.uleb128 0x3b
 2337 00ba 0B       		.uleb128 0xb
 2338 00bb 49       		.uleb128 0x49
 2339 00bc 13       		.uleb128 0x13
 2340 00bd 00       		.byte	0
 2341 00be 00       		.byte	0
 2342 00bf 10       		.uleb128 0x10
 2343 00c0 26       		.uleb128 0x26
 2344 00c1 00       		.byte	0
 2345 00c2 49       		.uleb128 0x49
 2346 00c3 13       		.uleb128 0x13
 2347 00c4 00       		.byte	0
 2348 00c5 00       		.byte	0
 2349 00c6 11       		.uleb128 0x11
 2350 00c7 04       		.uleb128 0x4
 2351 00c8 01       		.byte	0x1
 2352 00c9 03       		.uleb128 0x3
 2353 00ca 0E       		.uleb128 0xe
 2354 00cb 0B       		.uleb128 0xb
 2355 00cc 0B       		.uleb128 0xb
 2356 00cd 3A       		.uleb128 0x3a
 2357 00ce 0B       		.uleb128 0xb
 2358 00cf 3B       		.uleb128 0x3b
 2359 00d0 0B       		.uleb128 0xb
 2360 00d1 01       		.uleb128 0x1
 2361 00d2 13       		.uleb128 0x13
 2362 00d3 00       		.byte	0
 2363 00d4 00       		.byte	0
 2364 00d5 12       		.uleb128 0x12
 2365 00d6 28       		.uleb128 0x28
 2366 00d7 00       		.byte	0
 2367 00d8 03       		.uleb128 0x3
 2368 00d9 0E       		.uleb128 0xe
 2369 00da 1C       		.uleb128 0x1c
 2370 00db 0D       		.uleb128 0xd
 2371 00dc 00       		.byte	0
 2372 00dd 00       		.byte	0
 2373 00de 13       		.uleb128 0x13
 2374 00df 01       		.uleb128 0x1
 2375 00e0 01       		.byte	0x1
 2376 00e1 49       		.uleb128 0x49
 2377 00e2 13       		.uleb128 0x13
 2378 00e3 01       		.uleb128 0x1
 2379 00e4 13       		.uleb128 0x13
 2380 00e5 00       		.byte	0
 2381 00e6 00       		.byte	0
 2382 00e7 14       		.uleb128 0x14
 2383 00e8 21       		.uleb128 0x21
 2384 00e9 00       		.byte	0
ARM GAS  /var/folders/4k/6h5l9jl178sb4hslwv3xp1mr0000gn/T//cckdPLsp.s 			page 43


 2385 00ea 49       		.uleb128 0x49
 2386 00eb 13       		.uleb128 0x13
 2387 00ec 2F       		.uleb128 0x2f
 2388 00ed 0B       		.uleb128 0xb
 2389 00ee 00       		.byte	0
 2390 00ef 00       		.byte	0
 2391 00f0 15       		.uleb128 0x15
 2392 00f1 13       		.uleb128 0x13
 2393 00f2 01       		.byte	0x1
 2394 00f3 0B       		.uleb128 0xb
 2395 00f4 0B       		.uleb128 0xb
 2396 00f5 3A       		.uleb128 0x3a
 2397 00f6 0B       		.uleb128 0xb
 2398 00f7 3B       		.uleb128 0x3b
 2399 00f8 05       		.uleb128 0x5
 2400 00f9 01       		.uleb128 0x1
 2401 00fa 13       		.uleb128 0x13
 2402 00fb 00       		.byte	0
 2403 00fc 00       		.byte	0
 2404 00fd 16       		.uleb128 0x16
 2405 00fe 0D       		.uleb128 0xd
 2406 00ff 00       		.byte	0
 2407 0100 03       		.uleb128 0x3
 2408 0101 0E       		.uleb128 0xe
 2409 0102 3A       		.uleb128 0x3a
 2410 0103 0B       		.uleb128 0xb
 2411 0104 3B       		.uleb128 0x3b
 2412 0105 05       		.uleb128 0x5
 2413 0106 49       		.uleb128 0x49
 2414 0107 13       		.uleb128 0x13
 2415 0108 38       		.uleb128 0x38
 2416 0109 0B       		.uleb128 0xb
 2417 010a 00       		.byte	0
 2418 010b 00       		.byte	0
 2419 010c 17       		.uleb128 0x17
 2420 010d 16       		.uleb128 0x16
 2421 010e 00       		.byte	0
 2422 010f 03       		.uleb128 0x3
 2423 0110 0E       		.uleb128 0xe
 2424 0111 3A       		.uleb128 0x3a
 2425 0112 0B       		.uleb128 0xb
 2426 0113 3B       		.uleb128 0x3b
 2427 0114 05       		.uleb128 0x5
 2428 0115 49       		.uleb128 0x49
 2429 0116 13       		.uleb128 0x13
 2430 0117 00       		.byte	0
 2431 0118 00       		.byte	0
 2432 0119 18       		.uleb128 0x18
 2433 011a 15       		.uleb128 0x15
 2434 011b 01       		.byte	0x1
 2435 011c 27       		.uleb128 0x27
 2436 011d 19       		.uleb128 0x19
 2437 011e 01       		.uleb128 0x1
 2438 011f 13       		.uleb128 0x13
 2439 0120 00       		.byte	0
 2440 0121 00       		.byte	0
 2441 0122 19       		.uleb128 0x19
ARM GAS  /var/folders/4k/6h5l9jl178sb4hslwv3xp1mr0000gn/T//cckdPLsp.s 			page 44


 2442 0123 05       		.uleb128 0x5
 2443 0124 00       		.byte	0
 2444 0125 49       		.uleb128 0x49
 2445 0126 13       		.uleb128 0x13
 2446 0127 00       		.byte	0
 2447 0128 00       		.byte	0
 2448 0129 1A       		.uleb128 0x1a
 2449 012a 04       		.uleb128 0x4
 2450 012b 01       		.byte	0x1
 2451 012c 0B       		.uleb128 0xb
 2452 012d 0B       		.uleb128 0xb
 2453 012e 3A       		.uleb128 0x3a
 2454 012f 0B       		.uleb128 0xb
 2455 0130 3B       		.uleb128 0x3b
 2456 0131 0B       		.uleb128 0xb
 2457 0132 01       		.uleb128 0x1
 2458 0133 13       		.uleb128 0x13
 2459 0134 00       		.byte	0
 2460 0135 00       		.byte	0
 2461 0136 1B       		.uleb128 0x1b
 2462 0137 2E       		.uleb128 0x2e
 2463 0138 01       		.byte	0x1
 2464 0139 03       		.uleb128 0x3
 2465 013a 0E       		.uleb128 0xe
 2466 013b 3A       		.uleb128 0x3a
 2467 013c 0B       		.uleb128 0xb
 2468 013d 3B       		.uleb128 0x3b
 2469 013e 0B       		.uleb128 0xb
 2470 013f 27       		.uleb128 0x27
 2471 0140 19       		.uleb128 0x19
 2472 0141 11       		.uleb128 0x11
 2473 0142 01       		.uleb128 0x1
 2474 0143 12       		.uleb128 0x12
 2475 0144 06       		.uleb128 0x6
 2476 0145 40       		.uleb128 0x40
 2477 0146 18       		.uleb128 0x18
 2478 0147 9642     		.uleb128 0x2116
 2479 0149 19       		.uleb128 0x19
 2480 014a 01       		.uleb128 0x1
 2481 014b 13       		.uleb128 0x13
 2482 014c 00       		.byte	0
 2483 014d 00       		.byte	0
 2484 014e 1C       		.uleb128 0x1c
 2485 014f 05       		.uleb128 0x5
 2486 0150 00       		.byte	0
 2487 0151 03       		.uleb128 0x3
 2488 0152 0E       		.uleb128 0xe
 2489 0153 3A       		.uleb128 0x3a
 2490 0154 0B       		.uleb128 0xb
 2491 0155 3B       		.uleb128 0x3b
 2492 0156 0B       		.uleb128 0xb
 2493 0157 49       		.uleb128 0x49
 2494 0158 13       		.uleb128 0x13
 2495 0159 02       		.uleb128 0x2
 2496 015a 17       		.uleb128 0x17
 2497 015b 00       		.byte	0
 2498 015c 00       		.byte	0
ARM GAS  /var/folders/4k/6h5l9jl178sb4hslwv3xp1mr0000gn/T//cckdPLsp.s 			page 45


 2499 015d 1D       		.uleb128 0x1d
 2500 015e 898201   		.uleb128 0x4109
 2501 0161 00       		.byte	0
 2502 0162 11       		.uleb128 0x11
 2503 0163 01       		.uleb128 0x1
 2504 0164 31       		.uleb128 0x31
 2505 0165 13       		.uleb128 0x13
 2506 0166 00       		.byte	0
 2507 0167 00       		.byte	0
 2508 0168 1E       		.uleb128 0x1e
 2509 0169 2E       		.uleb128 0x2e
 2510 016a 01       		.byte	0x1
 2511 016b 3F       		.uleb128 0x3f
 2512 016c 19       		.uleb128 0x19
 2513 016d 03       		.uleb128 0x3
 2514 016e 0E       		.uleb128 0xe
 2515 016f 3A       		.uleb128 0x3a
 2516 0170 0B       		.uleb128 0xb
 2517 0171 3B       		.uleb128 0x3b
 2518 0172 0B       		.uleb128 0xb
 2519 0173 27       		.uleb128 0x27
 2520 0174 19       		.uleb128 0x19
 2521 0175 11       		.uleb128 0x11
 2522 0176 01       		.uleb128 0x1
 2523 0177 12       		.uleb128 0x12
 2524 0178 06       		.uleb128 0x6
 2525 0179 40       		.uleb128 0x40
 2526 017a 18       		.uleb128 0x18
 2527 017b 9742     		.uleb128 0x2117
 2528 017d 19       		.uleb128 0x19
 2529 017e 01       		.uleb128 0x1
 2530 017f 13       		.uleb128 0x13
 2531 0180 00       		.byte	0
 2532 0181 00       		.byte	0
 2533 0182 1F       		.uleb128 0x1f
 2534 0183 0B       		.uleb128 0xb
 2535 0184 01       		.byte	0x1
 2536 0185 55       		.uleb128 0x55
 2537 0186 17       		.uleb128 0x17
 2538 0187 01       		.uleb128 0x1
 2539 0188 13       		.uleb128 0x13
 2540 0189 00       		.byte	0
 2541 018a 00       		.byte	0
 2542 018b 20       		.uleb128 0x20
 2543 018c 34       		.uleb128 0x34
 2544 018d 00       		.byte	0
 2545 018e 03       		.uleb128 0x3
 2546 018f 0E       		.uleb128 0xe
 2547 0190 3A       		.uleb128 0x3a
 2548 0191 0B       		.uleb128 0xb
 2549 0192 3B       		.uleb128 0x3b
 2550 0193 0B       		.uleb128 0xb
 2551 0194 49       		.uleb128 0x49
 2552 0195 13       		.uleb128 0x13
 2553 0196 02       		.uleb128 0x2
 2554 0197 17       		.uleb128 0x17
 2555 0198 00       		.byte	0
ARM GAS  /var/folders/4k/6h5l9jl178sb4hslwv3xp1mr0000gn/T//cckdPLsp.s 			page 46


 2556 0199 00       		.byte	0
 2557 019a 21       		.uleb128 0x21
 2558 019b 0B       		.uleb128 0xb
 2559 019c 01       		.byte	0x1
 2560 019d 11       		.uleb128 0x11
 2561 019e 01       		.uleb128 0x1
 2562 019f 12       		.uleb128 0x12
 2563 01a0 06       		.uleb128 0x6
 2564 01a1 01       		.uleb128 0x1
 2565 01a2 13       		.uleb128 0x13
 2566 01a3 00       		.byte	0
 2567 01a4 00       		.byte	0
 2568 01a5 22       		.uleb128 0x22
 2569 01a6 34       		.uleb128 0x34
 2570 01a7 00       		.byte	0
 2571 01a8 03       		.uleb128 0x3
 2572 01a9 08       		.uleb128 0x8
 2573 01aa 3A       		.uleb128 0x3a
 2574 01ab 0B       		.uleb128 0xb
 2575 01ac 3B       		.uleb128 0x3b
 2576 01ad 0B       		.uleb128 0xb
 2577 01ae 49       		.uleb128 0x49
 2578 01af 13       		.uleb128 0x13
 2579 01b0 02       		.uleb128 0x2
 2580 01b1 17       		.uleb128 0x17
 2581 01b2 00       		.byte	0
 2582 01b3 00       		.byte	0
 2583 01b4 23       		.uleb128 0x23
 2584 01b5 34       		.uleb128 0x34
 2585 01b6 00       		.byte	0
 2586 01b7 03       		.uleb128 0x3
 2587 01b8 08       		.uleb128 0x8
 2588 01b9 3A       		.uleb128 0x3a
 2589 01ba 0B       		.uleb128 0xb
 2590 01bb 3B       		.uleb128 0x3b
 2591 01bc 0B       		.uleb128 0xb
 2592 01bd 49       		.uleb128 0x49
 2593 01be 13       		.uleb128 0x13
 2594 01bf 02       		.uleb128 0x2
 2595 01c0 18       		.uleb128 0x18
 2596 01c1 00       		.byte	0
 2597 01c2 00       		.byte	0
 2598 01c3 24       		.uleb128 0x24
 2599 01c4 898201   		.uleb128 0x4109
 2600 01c7 01       		.byte	0x1
 2601 01c8 11       		.uleb128 0x11
 2602 01c9 01       		.uleb128 0x1
 2603 01ca 00       		.byte	0
 2604 01cb 00       		.byte	0
 2605 01cc 25       		.uleb128 0x25
 2606 01cd 8A8201   		.uleb128 0x410a
 2607 01d0 00       		.byte	0
 2608 01d1 02       		.uleb128 0x2
 2609 01d2 18       		.uleb128 0x18
 2610 01d3 9142     		.uleb128 0x2111
 2611 01d5 18       		.uleb128 0x18
 2612 01d6 00       		.byte	0
ARM GAS  /var/folders/4k/6h5l9jl178sb4hslwv3xp1mr0000gn/T//cckdPLsp.s 			page 47


 2613 01d7 00       		.byte	0
 2614 01d8 26       		.uleb128 0x26
 2615 01d9 898201   		.uleb128 0x4109
 2616 01dc 00       		.byte	0
 2617 01dd 11       		.uleb128 0x11
 2618 01de 01       		.uleb128 0x1
 2619 01df 9542     		.uleb128 0x2115
 2620 01e1 19       		.uleb128 0x19
 2621 01e2 31       		.uleb128 0x31
 2622 01e3 13       		.uleb128 0x13
 2623 01e4 00       		.byte	0
 2624 01e5 00       		.byte	0
 2625 01e6 27       		.uleb128 0x27
 2626 01e7 898201   		.uleb128 0x4109
 2627 01ea 01       		.byte	0x1
 2628 01eb 11       		.uleb128 0x11
 2629 01ec 01       		.uleb128 0x1
 2630 01ed 31       		.uleb128 0x31
 2631 01ee 13       		.uleb128 0x13
 2632 01ef 00       		.byte	0
 2633 01f0 00       		.byte	0
 2634 01f1 28       		.uleb128 0x28
 2635 01f2 34       		.uleb128 0x34
 2636 01f3 00       		.byte	0
 2637 01f4 03       		.uleb128 0x3
 2638 01f5 08       		.uleb128 0x8
 2639 01f6 3A       		.uleb128 0x3a
 2640 01f7 0B       		.uleb128 0xb
 2641 01f8 3B       		.uleb128 0x3b
 2642 01f9 0B       		.uleb128 0xb
 2643 01fa 49       		.uleb128 0x49
 2644 01fb 13       		.uleb128 0x13
 2645 01fc 00       		.byte	0
 2646 01fd 00       		.byte	0
 2647 01fe 29       		.uleb128 0x29
 2648 01ff 898201   		.uleb128 0x4109
 2649 0202 01       		.byte	0x1
 2650 0203 11       		.uleb128 0x11
 2651 0204 01       		.uleb128 0x1
 2652 0205 9542     		.uleb128 0x2115
 2653 0207 19       		.uleb128 0x19
 2654 0208 31       		.uleb128 0x31
 2655 0209 13       		.uleb128 0x13
 2656 020a 00       		.byte	0
 2657 020b 00       		.byte	0
 2658 020c 2A       		.uleb128 0x2a
 2659 020d 05       		.uleb128 0x5
 2660 020e 00       		.byte	0
 2661 020f 03       		.uleb128 0x3
 2662 0210 0E       		.uleb128 0xe
 2663 0211 3A       		.uleb128 0x3a
 2664 0212 0B       		.uleb128 0xb
 2665 0213 3B       		.uleb128 0x3b
 2666 0214 0B       		.uleb128 0xb
 2667 0215 49       		.uleb128 0x49
 2668 0216 13       		.uleb128 0x13
 2669 0217 02       		.uleb128 0x2
ARM GAS  /var/folders/4k/6h5l9jl178sb4hslwv3xp1mr0000gn/T//cckdPLsp.s 			page 48


 2670 0218 18       		.uleb128 0x18
 2671 0219 00       		.byte	0
 2672 021a 00       		.byte	0
 2673 021b 2B       		.uleb128 0x2b
 2674 021c 05       		.uleb128 0x5
 2675 021d 00       		.byte	0
 2676 021e 03       		.uleb128 0x3
 2677 021f 08       		.uleb128 0x8
 2678 0220 3A       		.uleb128 0x3a
 2679 0221 0B       		.uleb128 0xb
 2680 0222 3B       		.uleb128 0x3b
 2681 0223 0B       		.uleb128 0xb
 2682 0224 49       		.uleb128 0x49
 2683 0225 13       		.uleb128 0x13
 2684 0226 02       		.uleb128 0x2
 2685 0227 17       		.uleb128 0x17
 2686 0228 00       		.byte	0
 2687 0229 00       		.byte	0
 2688 022a 2C       		.uleb128 0x2c
 2689 022b 34       		.uleb128 0x34
 2690 022c 00       		.byte	0
 2691 022d 03       		.uleb128 0x3
 2692 022e 0E       		.uleb128 0xe
 2693 022f 3A       		.uleb128 0x3a
 2694 0230 0B       		.uleb128 0xb
 2695 0231 3B       		.uleb128 0x3b
 2696 0232 05       		.uleb128 0x5
 2697 0233 49       		.uleb128 0x49
 2698 0234 13       		.uleb128 0x13
 2699 0235 3F       		.uleb128 0x3f
 2700 0236 19       		.uleb128 0x19
 2701 0237 3C       		.uleb128 0x3c
 2702 0238 19       		.uleb128 0x19
 2703 0239 00       		.byte	0
 2704 023a 00       		.byte	0
 2705 023b 2D       		.uleb128 0x2d
 2706 023c 34       		.uleb128 0x34
 2707 023d 00       		.byte	0
 2708 023e 03       		.uleb128 0x3
 2709 023f 0E       		.uleb128 0xe
 2710 0240 3A       		.uleb128 0x3a
 2711 0241 0B       		.uleb128 0xb
 2712 0242 3B       		.uleb128 0x3b
 2713 0243 0B       		.uleb128 0xb
 2714 0244 49       		.uleb128 0x49
 2715 0245 13       		.uleb128 0x13
 2716 0246 3F       		.uleb128 0x3f
 2717 0247 19       		.uleb128 0x19
 2718 0248 02       		.uleb128 0x2
 2719 0249 18       		.uleb128 0x18
 2720 024a 00       		.byte	0
 2721 024b 00       		.byte	0
 2722 024c 2E       		.uleb128 0x2e
 2723 024d 2E       		.uleb128 0x2e
 2724 024e 00       		.byte	0
 2725 024f 3F       		.uleb128 0x3f
 2726 0250 19       		.uleb128 0x19
ARM GAS  /var/folders/4k/6h5l9jl178sb4hslwv3xp1mr0000gn/T//cckdPLsp.s 			page 49


 2727 0251 03       		.uleb128 0x3
 2728 0252 0E       		.uleb128 0xe
 2729 0253 3A       		.uleb128 0x3a
 2730 0254 0B       		.uleb128 0xb
 2731 0255 3B       		.uleb128 0x3b
 2732 0256 05       		.uleb128 0x5
 2733 0257 27       		.uleb128 0x27
 2734 0258 19       		.uleb128 0x19
 2735 0259 3C       		.uleb128 0x3c
 2736 025a 19       		.uleb128 0x19
 2737 025b 00       		.byte	0
 2738 025c 00       		.byte	0
 2739 025d 2F       		.uleb128 0x2f
 2740 025e 2E       		.uleb128 0x2e
 2741 025f 01       		.byte	0x1
 2742 0260 3F       		.uleb128 0x3f
 2743 0261 19       		.uleb128 0x19
 2744 0262 03       		.uleb128 0x3
 2745 0263 0E       		.uleb128 0xe
 2746 0264 3A       		.uleb128 0x3a
 2747 0265 0B       		.uleb128 0xb
 2748 0266 3B       		.uleb128 0x3b
 2749 0267 0B       		.uleb128 0xb
 2750 0268 27       		.uleb128 0x27
 2751 0269 19       		.uleb128 0x19
 2752 026a 49       		.uleb128 0x49
 2753 026b 13       		.uleb128 0x13
 2754 026c 3C       		.uleb128 0x3c
 2755 026d 19       		.uleb128 0x19
 2756 026e 01       		.uleb128 0x1
 2757 026f 13       		.uleb128 0x13
 2758 0270 00       		.byte	0
 2759 0271 00       		.byte	0
 2760 0272 30       		.uleb128 0x30
 2761 0273 2E       		.uleb128 0x2e
 2762 0274 01       		.byte	0x1
 2763 0275 3F       		.uleb128 0x3f
 2764 0276 19       		.uleb128 0x19
 2765 0277 03       		.uleb128 0x3
 2766 0278 0E       		.uleb128 0xe
 2767 0279 3A       		.uleb128 0x3a
 2768 027a 0B       		.uleb128 0xb
 2769 027b 3B       		.uleb128 0x3b
 2770 027c 0B       		.uleb128 0xb
 2771 027d 27       		.uleb128 0x27
 2772 027e 19       		.uleb128 0x19
 2773 027f 3C       		.uleb128 0x3c
 2774 0280 19       		.uleb128 0x19
 2775 0281 01       		.uleb128 0x1
 2776 0282 13       		.uleb128 0x13
 2777 0283 00       		.byte	0
 2778 0284 00       		.byte	0
 2779 0285 31       		.uleb128 0x31
 2780 0286 2E       		.uleb128 0x2e
 2781 0287 01       		.byte	0x1
 2782 0288 3F       		.uleb128 0x3f
 2783 0289 19       		.uleb128 0x19
ARM GAS  /var/folders/4k/6h5l9jl178sb4hslwv3xp1mr0000gn/T//cckdPLsp.s 			page 50


 2784 028a 03       		.uleb128 0x3
 2785 028b 0E       		.uleb128 0xe
 2786 028c 3A       		.uleb128 0x3a
 2787 028d 0B       		.uleb128 0xb
 2788 028e 3B       		.uleb128 0x3b
 2789 028f 05       		.uleb128 0x5
 2790 0290 27       		.uleb128 0x27
 2791 0291 19       		.uleb128 0x19
 2792 0292 49       		.uleb128 0x49
 2793 0293 13       		.uleb128 0x13
 2794 0294 3C       		.uleb128 0x3c
 2795 0295 19       		.uleb128 0x19
 2796 0296 01       		.uleb128 0x1
 2797 0297 13       		.uleb128 0x13
 2798 0298 00       		.byte	0
 2799 0299 00       		.byte	0
 2800 029a 32       		.uleb128 0x32
 2801 029b 2E       		.uleb128 0x2e
 2802 029c 01       		.byte	0x1
 2803 029d 3F       		.uleb128 0x3f
 2804 029e 19       		.uleb128 0x19
 2805 029f 03       		.uleb128 0x3
 2806 02a0 0E       		.uleb128 0xe
 2807 02a1 3A       		.uleb128 0x3a
 2808 02a2 0B       		.uleb128 0xb
 2809 02a3 3B       		.uleb128 0x3b
 2810 02a4 05       		.uleb128 0x5
 2811 02a5 27       		.uleb128 0x27
 2812 02a6 19       		.uleb128 0x19
 2813 02a7 3C       		.uleb128 0x3c
 2814 02a8 19       		.uleb128 0x19
 2815 02a9 01       		.uleb128 0x1
 2816 02aa 13       		.uleb128 0x13
 2817 02ab 00       		.byte	0
 2818 02ac 00       		.byte	0
 2819 02ad 33       		.uleb128 0x33
 2820 02ae 2E       		.uleb128 0x2e
 2821 02af 01       		.byte	0x1
 2822 02b0 3F       		.uleb128 0x3f
 2823 02b1 19       		.uleb128 0x19
 2824 02b2 03       		.uleb128 0x3
 2825 02b3 0E       		.uleb128 0xe
 2826 02b4 3A       		.uleb128 0x3a
 2827 02b5 0B       		.uleb128 0xb
 2828 02b6 3B       		.uleb128 0x3b
 2829 02b7 05       		.uleb128 0x5
 2830 02b8 27       		.uleb128 0x27
 2831 02b9 19       		.uleb128 0x19
 2832 02ba 3C       		.uleb128 0x3c
 2833 02bb 19       		.uleb128 0x19
 2834 02bc 00       		.byte	0
 2835 02bd 00       		.byte	0
 2836 02be 00       		.byte	0
 2837              		.section	.debug_loc,"",%progbits
 2838              	.Ldebug_loc0:
 2839              	.LLST0:
 2840 0000 00000000 		.4byte	.LVL0
ARM GAS  /var/folders/4k/6h5l9jl178sb4hslwv3xp1mr0000gn/T//cckdPLsp.s 			page 51


 2841 0004 0A000000 		.4byte	.LVL1
 2842 0008 0100     		.2byte	0x1
 2843 000a 50       		.byte	0x50
 2844 000b 0A000000 		.4byte	.LVL1
 2845 000f 18000000 		.4byte	.LVL3
 2846 0013 0400     		.2byte	0x4
 2847 0015 F3       		.byte	0xf3
 2848 0016 01       		.uleb128 0x1
 2849 0017 50       		.byte	0x50
 2850 0018 9F       		.byte	0x9f
 2851 0019 18000000 		.4byte	.LVL3
 2852 001d 1D000000 		.4byte	.LVL4-1
 2853 0021 0100     		.2byte	0x1
 2854 0023 50       		.byte	0x50
 2855 0024 1D000000 		.4byte	.LVL4-1
 2856 0028 22000000 		.4byte	.LFE119
 2857 002c 0400     		.2byte	0x4
 2858 002e F3       		.byte	0xf3
 2859 002f 01       		.uleb128 0x1
 2860 0030 50       		.byte	0x50
 2861 0031 9F       		.byte	0x9f
 2862 0032 00000000 		.4byte	0
 2863 0036 00000000 		.4byte	0
 2864              	.LLST1:
 2865 003a 00000000 		.4byte	.LVL0
 2866 003e 0A000000 		.4byte	.LVL1
 2867 0042 0100     		.2byte	0x1
 2868 0044 51       		.byte	0x51
 2869 0045 0A000000 		.4byte	.LVL1
 2870 0049 18000000 		.4byte	.LVL3
 2871 004d 0400     		.2byte	0x4
 2872 004f F3       		.byte	0xf3
 2873 0050 01       		.uleb128 0x1
 2874 0051 51       		.byte	0x51
 2875 0052 9F       		.byte	0x9f
 2876 0053 18000000 		.4byte	.LVL3
 2877 0057 1D000000 		.4byte	.LVL4-1
 2878 005b 0100     		.2byte	0x1
 2879 005d 51       		.byte	0x51
 2880 005e 1D000000 		.4byte	.LVL4-1
 2881 0062 22000000 		.4byte	.LFE119
 2882 0066 0400     		.2byte	0x4
 2883 0068 F3       		.byte	0xf3
 2884 0069 01       		.uleb128 0x1
 2885 006a 51       		.byte	0x51
 2886 006b 9F       		.byte	0x9f
 2887 006c 00000000 		.4byte	0
 2888 0070 00000000 		.4byte	0
 2889              	.LLST2:
 2890 0074 1A000000 		.4byte	.LVL5
 2891 0078 48000000 		.4byte	.LVL9
 2892 007c 0100     		.2byte	0x1
 2893 007e 55       		.byte	0x55
 2894 007f 4C000000 		.4byte	.LVL10
 2895 0083 60000000 		.4byte	.LFE120
 2896 0087 0100     		.2byte	0x1
 2897 0089 55       		.byte	0x55
ARM GAS  /var/folders/4k/6h5l9jl178sb4hslwv3xp1mr0000gn/T//cckdPLsp.s 			page 52


 2898 008a 00000000 		.4byte	0
 2899 008e 00000000 		.4byte	0
 2900              	.LLST3:
 2901 0092 30000000 		.4byte	.LVL7
 2902 0096 3D000000 		.4byte	.LVL8-1
 2903 009a 0100     		.2byte	0x1
 2904 009c 50       		.byte	0x50
 2905 009d 00000000 		.4byte	0
 2906 00a1 00000000 		.4byte	0
 2907              	.LLST4:
 2908 00a5 00000000 		.4byte	.LVL12
 2909 00a9 14000000 		.4byte	.LVL13
 2910 00ad 0100     		.2byte	0x1
 2911 00af 50       		.byte	0x50
 2912 00b0 14000000 		.4byte	.LVL13
 2913 00b4 46000000 		.4byte	.LVL15
 2914 00b8 0100     		.2byte	0x1
 2915 00ba 54       		.byte	0x54
 2916 00bb 46000000 		.4byte	.LVL15
 2917 00bf 4C000000 		.4byte	.LVL16
 2918 00c3 0100     		.2byte	0x1
 2919 00c5 50       		.byte	0x50
 2920 00c6 4C000000 		.4byte	.LVL16
 2921 00ca 58000000 		.4byte	.LVL17
 2922 00ce 0100     		.2byte	0x1
 2923 00d0 54       		.byte	0x54
 2924 00d1 58000000 		.4byte	.LVL17
 2925 00d5 5C000000 		.4byte	.LVL18
 2926 00d9 0100     		.2byte	0x1
 2927 00db 50       		.byte	0x50
 2928 00dc 5C000000 		.4byte	.LVL18
 2929 00e0 74000000 		.4byte	.LFE122
 2930 00e4 0100     		.2byte	0x1
 2931 00e6 54       		.byte	0x54
 2932 00e7 00000000 		.4byte	0
 2933 00eb 00000000 		.4byte	0
 2934              	.LLST5:
 2935 00ef 00000000 		.4byte	.LVL20
 2936 00f3 14000000 		.4byte	.LVL21
 2937 00f7 0100     		.2byte	0x1
 2938 00f9 50       		.byte	0x50
 2939 00fa 14000000 		.4byte	.LVL21
 2940 00fe 38000000 		.4byte	.LVL23
 2941 0102 0100     		.2byte	0x1
 2942 0104 54       		.byte	0x54
 2943 0105 38000000 		.4byte	.LVL23
 2944 0109 3C000000 		.4byte	.LVL24
 2945 010d 0400     		.2byte	0x4
 2946 010f F3       		.byte	0xf3
 2947 0110 01       		.uleb128 0x1
 2948 0111 50       		.byte	0x50
 2949 0112 9F       		.byte	0x9f
 2950 0113 3C000000 		.4byte	.LVL24
 2951 0117 50000000 		.4byte	.LFE123
 2952 011b 0100     		.2byte	0x1
 2953 011d 54       		.byte	0x54
 2954 011e 00000000 		.4byte	0
ARM GAS  /var/folders/4k/6h5l9jl178sb4hslwv3xp1mr0000gn/T//cckdPLsp.s 			page 53


 2955 0122 00000000 		.4byte	0
 2956              	.LLST6:
 2957 0126 00000000 		.4byte	.LVL25
 2958 012a 18000000 		.4byte	.LVL26
 2959 012e 0100     		.2byte	0x1
 2960 0130 51       		.byte	0x51
 2961 0131 18000000 		.4byte	.LVL26
 2962 0135 5C000000 		.4byte	.LFE124
 2963 0139 0400     		.2byte	0x4
 2964 013b F3       		.byte	0xf3
 2965 013c 01       		.uleb128 0x1
 2966 013d 51       		.byte	0x51
 2967 013e 9F       		.byte	0x9f
 2968 013f 00000000 		.4byte	0
 2969 0143 00000000 		.4byte	0
 2970              	.LLST7:
 2971 0147 00000000 		.4byte	.LVL25
 2972 014b 32000000 		.4byte	.LVL29
 2973 014f 0100     		.2byte	0x1
 2974 0151 52       		.byte	0x52
 2975 0152 32000000 		.4byte	.LVL29
 2976 0156 4C000000 		.4byte	.LVL31
 2977 015a 0400     		.2byte	0x4
 2978 015c F3       		.byte	0xf3
 2979 015d 01       		.uleb128 0x1
 2980 015e 52       		.byte	0x52
 2981 015f 9F       		.byte	0x9f
 2982 0160 4C000000 		.4byte	.LVL31
 2983 0164 4E000000 		.4byte	.LVL32
 2984 0168 0100     		.2byte	0x1
 2985 016a 52       		.byte	0x52
 2986 016b 4E000000 		.4byte	.LVL32
 2987 016f 5C000000 		.4byte	.LFE124
 2988 0173 0400     		.2byte	0x4
 2989 0175 F3       		.byte	0xf3
 2990 0176 01       		.uleb128 0x1
 2991 0177 52       		.byte	0x52
 2992 0178 9F       		.byte	0x9f
 2993 0179 00000000 		.4byte	0
 2994 017d 00000000 		.4byte	0
 2995              	.LLST8:
 2996 0181 00000000 		.4byte	.LVL25
 2997 0185 26000000 		.4byte	.LVL28
 2998 0189 0100     		.2byte	0x1
 2999 018b 53       		.byte	0x53
 3000 018c 26000000 		.4byte	.LVL28
 3001 0190 5C000000 		.4byte	.LFE124
 3002 0194 0400     		.2byte	0x4
 3003 0196 F3       		.byte	0xf3
 3004 0197 01       		.uleb128 0x1
 3005 0198 53       		.byte	0x53
 3006 0199 9F       		.byte	0x9f
 3007 019a 00000000 		.4byte	0
 3008 019e 00000000 		.4byte	0
 3009              	.LLST9:
 3010 01a2 00000000 		.4byte	.LVL25
 3011 01a6 4A000000 		.4byte	.LVL30
ARM GAS  /var/folders/4k/6h5l9jl178sb4hslwv3xp1mr0000gn/T//cckdPLsp.s 			page 54


 3012 01aa 0200     		.2byte	0x2
 3013 01ac 91       		.byte	0x91
 3014 01ad 00       		.sleb128 0
 3015 01ae 4A000000 		.4byte	.LVL30
 3016 01b2 4C000000 		.4byte	.LVL31
 3017 01b6 0200     		.2byte	0x2
 3018 01b8 7D       		.byte	0x7d
 3019 01b9 00       		.sleb128 0
 3020 01ba 4C000000 		.4byte	.LVL31
 3021 01be 5C000000 		.4byte	.LFE124
 3022 01c2 0200     		.2byte	0x2
 3023 01c4 7D       		.byte	0x7d
 3024 01c5 10       		.sleb128 16
 3025 01c6 00000000 		.4byte	0
 3026 01ca 00000000 		.4byte	0
 3027              	.LLST10:
 3028 01ce 20000000 		.4byte	.LVL27
 3029 01d2 4A000000 		.4byte	.LVL30
 3030 01d6 0100     		.2byte	0x1
 3031 01d8 56       		.byte	0x56
 3032 01d9 4A000000 		.4byte	.LVL30
 3033 01dd 4C000000 		.4byte	.LVL31
 3034 01e1 1500     		.2byte	0x15
 3035 01e3 0C       		.byte	0xc
 3036 01e4 00540602 		.4byte	0x2065400
 3037 01e8 0C       		.byte	0xc
 3038 01e9 00540202 		.4byte	0x2025400
 3039 01ed 7D       		.byte	0x7d
 3040 01ee 00       		.sleb128 0
 3041 01ef 06       		.byte	0x6
 3042 01f0 30       		.byte	0x30
 3043 01f1 2E       		.byte	0x2e
 3044 01f2 28       		.byte	0x28
 3045 01f3 0100     		.2byte	0x1
 3046 01f5 16       		.byte	0x16
 3047 01f6 13       		.byte	0x13
 3048 01f7 9F       		.byte	0x9f
 3049 01f8 4C000000 		.4byte	.LVL31
 3050 01fc 5C000000 		.4byte	.LFE124
 3051 0200 0100     		.2byte	0x1
 3052 0202 56       		.byte	0x56
 3053 0203 00000000 		.4byte	0
 3054 0207 00000000 		.4byte	0
 3055              		.section	.debug_aranges,"",%progbits
 3056 0000 44000000 		.4byte	0x44
 3057 0004 0200     		.2byte	0x2
 3058 0006 00000000 		.4byte	.Ldebug_info0
 3059 000a 04       		.byte	0x4
 3060 000b 00       		.byte	0
 3061 000c 0000     		.2byte	0
 3062 000e 0000     		.2byte	0
 3063 0010 00000000 		.4byte	.LFB119
 3064 0014 22000000 		.4byte	.LFE119-.LFB119
 3065 0018 00000000 		.4byte	.LFB120
 3066 001c 60000000 		.4byte	.LFE120-.LFB120
 3067 0020 00000000 		.4byte	.LFB121
 3068 0024 28000000 		.4byte	.LFE121-.LFB121
ARM GAS  /var/folders/4k/6h5l9jl178sb4hslwv3xp1mr0000gn/T//cckdPLsp.s 			page 55


 3069 0028 00000000 		.4byte	.LFB122
 3070 002c 74000000 		.4byte	.LFE122-.LFB122
 3071 0030 00000000 		.4byte	.LFB123
 3072 0034 50000000 		.4byte	.LFE123-.LFB123
 3073 0038 00000000 		.4byte	.LFB124
 3074 003c 5C000000 		.4byte	.LFE124-.LFB124
 3075 0040 00000000 		.4byte	0
 3076 0044 00000000 		.4byte	0
 3077              		.section	.debug_ranges,"",%progbits
 3078              	.Ldebug_ranges0:
 3079 0000 04000000 		.4byte	.LBB2
 3080 0004 06000000 		.4byte	.LBE2
 3081 0008 08000000 		.4byte	.LBB6
 3082 000c 0A000000 		.4byte	.LBE6
 3083 0010 10000000 		.4byte	.LBB7
 3084 0014 44000000 		.4byte	.LBE7
 3085 0018 4C000000 		.4byte	.LBB8
 3086 001c 60000000 		.4byte	.LBE8
 3087 0020 00000000 		.4byte	0
 3088 0024 00000000 		.4byte	0
 3089 0028 00000000 		.4byte	.LFB119
 3090 002c 22000000 		.4byte	.LFE119
 3091 0030 00000000 		.4byte	.LFB120
 3092 0034 60000000 		.4byte	.LFE120
 3093 0038 00000000 		.4byte	.LFB121
 3094 003c 28000000 		.4byte	.LFE121
 3095 0040 00000000 		.4byte	.LFB122
 3096 0044 74000000 		.4byte	.LFE122
 3097 0048 00000000 		.4byte	.LFB123
 3098 004c 50000000 		.4byte	.LFE123
 3099 0050 00000000 		.4byte	.LFB124
 3100 0054 5C000000 		.4byte	.LFE124
 3101 0058 00000000 		.4byte	0
 3102 005c 00000000 		.4byte	0
 3103              		.section	.debug_line,"",%progbits
 3104              	.Ldebug_line0:
 3105 0000 0C040000 		.section	.debug_str,"MS",%progbits,1
 3105      02001F03 
 3105      00000201 
 3105      FB0E0D00 
 3105      01010101 
 3106              	.LASF160:
 3107 0000 4D314152 		.ascii	"M1AR\000"
 3107      00
 3108              	.LASF2:
 3109 0005 73697A65 		.ascii	"size_t\000"
 3109      5F7400
 3110              	.LASF113:
 3111 000c 54494D38 		.ascii	"TIM8_UP_TIM13_IRQn\000"
 3111      5F55505F 
 3111      54494D31 
 3111      335F4952 
 3111      516E00
 3112              	.LASF51:
 3113 001f 73697A65 		.ascii	"sizetype\000"
 3113      74797065 
 3113      00
ARM GAS  /var/folders/4k/6h5l9jl178sb4hslwv3xp1mr0000gn/T//cckdPLsp.s 			page 56


 3114              	.LASF25:
 3115 0028 73797374 		.ascii	"systime_t\000"
 3115      696D655F 
 3115      7400
 3116              	.LASF188:
 3117 0032 504C4C49 		.ascii	"PLLI2SCFGR\000"
 3117      32534346 
 3117      475200
 3118              	.LASF30:
 3119 003d 705F6374 		.ascii	"p_ctx\000"
 3119      7800
 3120              	.LASF22:
 3121 0043 74707269 		.ascii	"tprio_t\000"
 3121      6F5F7400 
 3122              	.LASF40:
 3123 004b 705F6D73 		.ascii	"p_msgqueue\000"
 3123      67717565 
 3123      756500
 3124              	.LASF14:
 3125 0056 696E7433 		.ascii	"int32_t\000"
 3125      325F7400 
 3126              	.LASF237:
 3127 005e 646D6153 		.ascii	"dmaStreamRelease\000"
 3127      74726561 
 3127      6D52656C 
 3127      65617365 
 3127      00
 3128              	.LASF233:
 3129 006f 63685363 		.ascii	"chSchReadyI\000"
 3129      68526561 
 3129      64794900 
 3130              	.LASF126:
 3131 007b 444D4132 		.ascii	"DMA2_Stream1_IRQn\000"
 3131      5F537472 
 3131      65616D31 
 3131      5F495251 
 3131      6E00
 3132              	.LASF120:
 3133 008d 53504933 		.ascii	"SPI3_IRQn\000"
 3133      5F495251 
 3133      6E00
 3134              	.LASF73:
 3135 0097 464C4153 		.ascii	"FLASH_IRQn\000"
 3135      485F4952 
 3135      516E00
 3136              	.LASF147:
 3137 00a2 44434D49 		.ascii	"DCMI_IRQn\000"
 3137      5F495251 
 3137      6E00
 3138              	.LASF208:
 3139 00ac 636F6E66 		.ascii	"config\000"
 3139      696700
 3140              	.LASF207:
 3141 00b3 73746174 		.ascii	"state\000"
 3141      6500
 3142              	.LASF235:
 3143 00b9 64636D69 		.ascii	"dcmiObjectInit\000"
ARM GAS  /var/folders/4k/6h5l9jl178sb4hslwv3xp1mr0000gn/T//cckdPLsp.s 			page 57


 3143      4F626A65 
 3143      6374496E 
 3143      697400
 3144              	.LASF97:
 3145 00c8 54494D32 		.ascii	"TIM2_IRQn\000"
 3145      5F495251 
 3145      6E00
 3146              	.LASF133:
 3147 00d2 43414E32 		.ascii	"CAN2_RX0_IRQn\000"
 3147      5F525830 
 3147      5F495251 
 3147      6E00
 3148              	.LASF140:
 3149 00e0 55534152 		.ascii	"USART6_IRQn\000"
 3149      54365F49 
 3149      52516E00 
 3150              	.LASF54:
 3151 00ec 6D5F6F77 		.ascii	"m_owner\000"
 3151      6E657200 
 3152              	.LASF57:
 3153 00f4 65786974 		.ascii	"exitcode\000"
 3153      636F6465 
 3153      00
 3154              	.LASF3:
 3155 00fd 5F5F7569 		.ascii	"__uint8_t\000"
 3155      6E74385F 
 3155      7400
 3156              	.LASF145:
 3157 0107 4F54475F 		.ascii	"OTG_HS_WKUP_IRQn\000"
 3157      48535F57 
 3157      4B55505F 
 3157      4952516E 
 3157      00
 3158              	.LASF59:
 3159 0118 65776D61 		.ascii	"ewmask\000"
 3159      736B00
 3160              	.LASF112:
 3161 011f 54494D38 		.ascii	"TIM8_BRK_TIM12_IRQn\000"
 3161      5F42524B 
 3161      5F54494D 
 3161      31325F49 
 3161      52516E00 
 3162              	.LASF179:
 3163 0133 41484232 		.ascii	"AHB2LPENR\000"
 3163      4C50454E 
 3163      5200
 3164              	.LASF214:
 3165 013d 6672616D 		.ascii	"frame_end_cb\000"
 3165      655F656E 
 3165      645F6362 
 3165      00
 3166              	.LASF31:
 3167 014a 705F6E65 		.ascii	"p_newer\000"
 3167      77657200 
 3168              	.LASF8:
 3169 0152 6C6F6E67 		.ascii	"long int\000"
 3169      20696E74 
ARM GAS  /var/folders/4k/6h5l9jl178sb4hslwv3xp1mr0000gn/T//cckdPLsp.s 			page 58


 3169      00
 3170              	.LASF27:
 3171 015b 705F6E65 		.ascii	"p_next\000"
 3171      787400
 3172              	.LASF210:
 3173 0162 64636D69 		.ascii	"dcmi\000"
 3173      00
 3174              	.LASF28:
 3175 0167 705F7072 		.ascii	"p_prev\000"
 3175      657600
 3176              	.LASF156:
 3177 016e 43575349 		.ascii	"CWSIZER\000"
 3177      5A455200 
 3178              	.LASF137:
 3179 0176 444D4132 		.ascii	"DMA2_Stream5_IRQn\000"
 3179      5F537472 
 3179      65616D35 
 3179      5F495251 
 3179      6E00
 3180              	.LASF19:
 3181 0188 74737461 		.ascii	"tstate_t\000"
 3181      74655F74 
 3181      00
 3182              	.LASF43:
 3183 0191 705F6D74 		.ascii	"p_mtxlist\000"
 3183      786C6973 
 3183      7400
 3184              	.LASF95:
 3185 019b 54494D31 		.ascii	"TIM1_TRG_COM_TIM11_IRQn\000"
 3185      5F545247 
 3185      5F434F4D 
 3185      5F54494D 
 3185      31315F49 
 3186              	.LASF48:
 3187 01b3 72656761 		.ascii	"regarm_t\000"
 3187      726D5F74 
 3187      00
 3188              	.LASF203:
 3189 01bc 44434D49 		.ascii	"DCMI_LISTEN_ONCE\000"
 3189      5F4C4953 
 3189      54454E5F 
 3189      4F4E4345 
 3189      00
 3190              	.LASF176:
 3191 01cd 41504232 		.ascii	"APB2ENR\000"
 3191      454E5200 
 3192              	.LASF178:
 3193 01d5 41484231 		.ascii	"AHB1LPENR\000"
 3193      4C50454E 
 3193      5200
 3194              	.LASF68:
 3195 01df 53797354 		.ascii	"SysTick_IRQn\000"
 3195      69636B5F 
 3195      4952516E 
 3195      00
 3196              	.LASF108:
 3197 01ec 55534152 		.ascii	"USART3_IRQn\000"
ARM GAS  /var/folders/4k/6h5l9jl178sb4hslwv3xp1mr0000gn/T//cckdPLsp.s 			page 59


 3197      54335F49 
 3197      52516E00 
 3198              	.LASF190:
 3199 01f8 44434B43 		.ascii	"DCKCFGR\000"
 3199      46475200 
 3200              	.LASF242:
 3201 0200 64636D69 		.ascii	"dcmi_lld_serve_dma_rx_interrupt\000"
 3201      5F6C6C64 
 3201      5F736572 
 3201      76655F64 
 3201      6D615F72 
 3202              	.LASF1:
 3203 0220 7369676E 		.ascii	"signed char\000"
 3203      65642063 
 3203      68617200 
 3204              	.LASF37:
 3205 022c 705F7072 		.ascii	"p_preempt\000"
 3205      65656D70 
 3205      7400
 3206              	.LASF13:
 3207 0236 75696E74 		.ascii	"uint8_t\000"
 3207      385F7400 
 3208              	.LASF200:
 3209 023e 44434D49 		.ascii	"DCMI_STOP\000"
 3209      5F53544F 
 3209      5000
 3210              	.LASF24:
 3211 0248 6576656E 		.ascii	"eventmask_t\000"
 3211      746D6173 
 3211      6B5F7400 
 3212              	.LASF50:
 3213 0254 636F6E74 		.ascii	"context\000"
 3213      65787400 
 3214              	.LASF82:
 3215 025c 444D4131 		.ascii	"DMA1_Stream2_IRQn\000"
 3215      5F537472 
 3215      65616D32 
 3215      5F495251 
 3215      6E00
 3216              	.LASF167:
 3217 026e 52455345 		.ascii	"RESERVED0\000"
 3217      52564544 
 3217      3000
 3218              	.LASF170:
 3219 0278 52455345 		.ascii	"RESERVED1\000"
 3219      52564544 
 3219      3100
 3220              	.LASF4:
 3221 0282 756E7369 		.ascii	"unsigned char\000"
 3221      676E6564 
 3221      20636861 
 3221      7200
 3222              	.LASF129:
 3223 0290 444D4132 		.ascii	"DMA2_Stream4_IRQn\000"
 3223      5F537472 
 3223      65616D34 
 3223      5F495251 
ARM GAS  /var/folders/4k/6h5l9jl178sb4hslwv3xp1mr0000gn/T//cckdPLsp.s 			page 60


 3223      6E00
 3224              	.LASF181:
 3225 02a2 52455345 		.ascii	"RESERVED4\000"
 3225      52564544 
 3225      3400
 3226              	.LASF184:
 3227 02ac 52455345 		.ascii	"RESERVED5\000"
 3227      52564544 
 3227      3500
 3228              	.LASF186:
 3229 02b6 52455345 		.ascii	"RESERVED6\000"
 3229      52564544 
 3229      3600
 3230              	.LASF219:
 3231 02c0 6F6E6553 		.ascii	"oneShot\000"
 3231      686F7400 
 3232              	.LASF101:
 3233 02c8 49324331 		.ascii	"I2C1_ER_IRQn\000"
 3233      5F45525F 
 3233      4952516E 
 3233      00
 3234              	.LASF135:
 3235 02d5 43414E32 		.ascii	"CAN2_SCE_IRQn\000"
 3235      5F534345 
 3235      5F495251 
 3235      6E00
 3236              	.LASF17:
 3237 02e3 5F426F6F 		.ascii	"_Bool\000"
 3237      6C00
 3238              	.LASF174:
 3239 02e9 52455345 		.ascii	"RESERVED2\000"
 3239      52564544 
 3239      3200
 3240              	.LASF177:
 3241 02f3 52455345 		.ascii	"RESERVED3\000"
 3241      52564544 
 3241      3300
 3242              	.LASF119:
 3243 02fd 54494D35 		.ascii	"TIM5_IRQn\000"
 3243      5F495251 
 3243      6E00
 3244              	.LASF64:
 3245 0307 55736167 		.ascii	"UsageFault_IRQn\000"
 3245      65466175 
 3245      6C745F49 
 3245      52516E00 
 3246              	.LASF60:
 3247 0317 63686172 		.ascii	"char\000"
 3247      00
 3248              	.LASF194:
 3249 031c 69736869 		.ascii	"ishift\000"
 3249      667400
 3250              	.LASF164:
 3251 0323 41484231 		.ascii	"AHB1RSTR\000"
 3251      52535452 
 3251      00
 3252              	.LASF240:
ARM GAS  /var/folders/4k/6h5l9jl178sb4hslwv3xp1mr0000gn/T//cckdPLsp.s 			page 61


 3253 032c 2F557365 		.ascii	"/Users/mikevanis/Documents/workspace/STM32_DCMI_CAM"
 3253      72732F6D 
 3253      696B6576 
 3253      616E6973 
 3253      2F446F63 
 3254 035f 4552412F 		.ascii	"ERA/\000"
 3254      00
 3255              	.LASF29:
 3256 0364 705F7072 		.ascii	"p_prio\000"
 3256      696F00
 3257              	.LASF172:
 3258 036b 41484232 		.ascii	"AHB2ENR\000"
 3258      454E5200 
 3259              	.LASF58:
 3260 0373 77746F62 		.ascii	"wtobjp\000"
 3260      6A7000
 3261              	.LASF89:
 3262 037a 43414E31 		.ascii	"CAN1_RX0_IRQn\000"
 3262      5F525830 
 3262      5F495251 
 3262      6E00
 3263              	.LASF218:
 3264 0388 666C6167 		.ascii	"flags\000"
 3264      7300
 3265              	.LASF99:
 3266 038e 54494D34 		.ascii	"TIM4_IRQn\000"
 3266      5F495251 
 3266      6E00
 3267              	.LASF107:
 3268 0398 55534152 		.ascii	"USART2_IRQn\000"
 3268      54325F49 
 3268      52516E00 
 3269              	.LASF192:
 3270 03a4 73747265 		.ascii	"stream\000"
 3270      616D00
 3271              	.LASF234:
 3272 03ab 646D6153 		.ascii	"dmaStreamAllocate\000"
 3272      74726561 
 3272      6D416C6C 
 3272      6F636174 
 3272      6500
 3273              	.LASF185:
 3274 03bd 42444352 		.ascii	"BDCR\000"
 3274      00
 3275              	.LASF100:
 3276 03c2 49324331 		.ascii	"I2C1_EV_IRQn\000"
 3276      5F45565F 
 3276      4952516E 
 3276      00
 3277              	.LASF49:
 3278 03cf 696E7463 		.ascii	"intctx\000"
 3278      747800
 3279              	.LASF42:
 3280 03d6 705F6570 		.ascii	"p_epending\000"
 3280      656E6469 
 3280      6E6700
 3281              	.LASF225:
ARM GAS  /var/folders/4k/6h5l9jl178sb4hslwv3xp1mr0000gn/T//cckdPLsp.s 			page 62


 3282 03e1 72786275 		.ascii	"rxbuf0\000"
 3282      663000
 3283              	.LASF226:
 3284 03e8 72786275 		.ascii	"rxbuf1\000"
 3284      663100
 3285              	.LASF223:
 3286 03ef 64636D69 		.ascii	"dcmi_lld_stop\000"
 3286      5F6C6C64 
 3286      5F73746F 
 3286      7000
 3287              	.LASF227:
 3288 03fd 646D614D 		.ascii	"dmaMode\000"
 3288      6F646500 
 3289              	.LASF163:
 3290 0405 43464752 		.ascii	"CFGR\000"
 3290      00
 3291              	.LASF96:
 3292 040a 54494D31 		.ascii	"TIM1_CC_IRQn\000"
 3292      5F43435F 
 3292      4952516E 
 3292      00
 3293              	.LASF149:
 3294 0417 48415348 		.ascii	"HASH_RNG_IRQn\000"
 3294      5F524E47 
 3294      5F495251 
 3294      6E00
 3295              	.LASF76:
 3296 0425 45585449 		.ascii	"EXTI1_IRQn\000"
 3296      315F4952 
 3296      516E00
 3297              	.LASF88:
 3298 0430 43414E31 		.ascii	"CAN1_TX_IRQn\000"
 3298      5F54585F 
 3298      4952516E 
 3298      00
 3299              	.LASF85:
 3300 043d 444D4131 		.ascii	"DMA1_Stream5_IRQn\000"
 3300      5F537472 
 3300      65616D35 
 3300      5F495251 
 3300      6E00
 3301              	.LASF114:
 3302 044f 54494D38 		.ascii	"TIM8_TRG_COM_TIM14_IRQn\000"
 3302      5F545247 
 3302      5F434F4D 
 3302      5F54494D 
 3302      31345F49 
 3303              	.LASF139:
 3304 0467 444D4132 		.ascii	"DMA2_Stream7_IRQn\000"
 3304      5F537472 
 3304      65616D37 
 3304      5F495251 
 3304      6E00
 3305              	.LASF136:
 3306 0479 4F54475F 		.ascii	"OTG_FS_IRQn\000"
 3306      46535F49 
 3306      52516E00 
ARM GAS  /var/folders/4k/6h5l9jl178sb4hslwv3xp1mr0000gn/T//cckdPLsp.s 			page 63


 3307              	.LASF61:
 3308 0485 4E6F6E4D 		.ascii	"NonMaskableInt_IRQn\000"
 3308      61736B61 
 3308      626C6549 
 3308      6E745F49 
 3308      52516E00 
 3309              	.LASF69:
 3310 0499 57574447 		.ascii	"WWDG_IRQn\000"
 3310      5F495251 
 3310      6E00
 3311              	.LASF10:
 3312 04a3 6C6F6E67 		.ascii	"long unsigned int\000"
 3312      20756E73 
 3312      69676E65 
 3312      6420696E 
 3312      7400
 3313              	.LASF175:
 3314 04b5 41504231 		.ascii	"APB1ENR\000"
 3314      454E5200 
 3315              	.LASF62:
 3316 04bd 4D656D6F 		.ascii	"MemoryManagement_IRQn\000"
 3316      72794D61 
 3316      6E616765 
 3316      6D656E74 
 3316      5F495251 
 3317              	.LASF71:
 3318 04d3 54414D50 		.ascii	"TAMP_STAMP_IRQn\000"
 3318      5F535441 
 3318      4D505F49 
 3318      52516E00 
 3319              	.LASF152:
 3320 04e3 4D495352 		.ascii	"MISR\000"
 3320      00
 3321              	.LASF91:
 3322 04e8 43414E31 		.ascii	"CAN1_SCE_IRQn\000"
 3322      5F534345 
 3322      5F495251 
 3322      6E00
 3323              	.LASF229:
 3324 04f6 5F73746D 		.ascii	"_stm32_dma_streams\000"
 3324      33325F64 
 3324      6D615F73 
 3324      74726561 
 3324      6D7300
 3325              	.LASF125:
 3326 0509 444D4132 		.ascii	"DMA2_Stream0_IRQn\000"
 3326      5F537472 
 3326      65616D30 
 3326      5F495251 
 3326      6E00
 3327              	.LASF197:
 3328 051b 73746D33 		.ascii	"stm32_dma_stream_t\000"
 3328      325F646D 
 3328      615F7374 
 3328      7265616D 
 3328      5F7400
 3329              	.LASF201:
ARM GAS  /var/folders/4k/6h5l9jl178sb4hslwv3xp1mr0000gn/T//cckdPLsp.s 			page 64


 3330 052e 44434D49 		.ascii	"DCMI_READY\000"
 3330      5F524541 
 3330      445900
 3331              	.LASF103:
 3332 0539 49324332 		.ascii	"I2C2_ER_IRQn\000"
 3332      5F45525F 
 3332      4952516E 
 3332      00
 3333              	.LASF216:
 3334 0546 44434D49 		.ascii	"DCMIConfig\000"
 3334      436F6E66 
 3334      696700
 3335              	.LASF154:
 3336 0551 45535552 		.ascii	"ESUR\000"
 3336      00
 3337              	.LASF63:
 3338 0556 42757346 		.ascii	"BusFault_IRQn\000"
 3338      61756C74 
 3338      5F495251 
 3338      6E00
 3339              	.LASF162:
 3340 0564 504C4C43 		.ascii	"PLLCFGR\000"
 3340      46475200 
 3341              	.LASF122:
 3342 056c 55415254 		.ascii	"UART5_IRQn\000"
 3342      355F4952 
 3342      516E00
 3343              	.LASF93:
 3344 0577 54494D31 		.ascii	"TIM1_BRK_TIM9_IRQn\000"
 3344      5F42524B 
 3344      5F54494D 
 3344      395F4952 
 3344      516E00
 3345              	.LASF211:
 3346 058a 646D6172 		.ascii	"dmarx\000"
 3346      7800
 3347              	.LASF9:
 3348 0590 5F5F7569 		.ascii	"__uint32_t\000"
 3348      6E743332 
 3348      5F7400
 3349              	.LASF157:
 3350 059b 44434D49 		.ascii	"DCMI_TypeDef\000"
 3350      5F547970 
 3350      65446566 
 3350      00
 3351              	.LASF52:
 3352 05a8 4D757465 		.ascii	"Mutex\000"
 3352      7800
 3353              	.LASF124:
 3354 05ae 54494D37 		.ascii	"TIM7_IRQn\000"
 3354      5F495251 
 3354      6E00
 3355              	.LASF11:
 3356 05b8 6C6F6E67 		.ascii	"long long int\000"
 3356      206C6F6E 
 3356      6720696E 
 3356      7400
ARM GAS  /var/folders/4k/6h5l9jl178sb4hslwv3xp1mr0000gn/T//cckdPLsp.s 			page 65


 3357              	.LASF131:
 3358 05c6 4554485F 		.ascii	"ETH_WKUP_IRQn\000"
 3358      574B5550 
 3358      5F495251 
 3358      6E00
 3359              	.LASF105:
 3360 05d4 53504932 		.ascii	"SPI2_IRQn\000"
 3360      5F495251 
 3360      6E00
 3361              	.LASF146:
 3362 05de 4F54475F 		.ascii	"OTG_HS_IRQn\000"
 3362      48535F49 
 3362      52516E00 
 3363              	.LASF53:
 3364 05ea 6D5F7175 		.ascii	"m_queue\000"
 3364      65756500 
 3365              	.LASF187:
 3366 05f2 53534347 		.ascii	"SSCGR\000"
 3366      5200
 3367              	.LASF215:
 3368 05f8 7472616E 		.ascii	"transfer_complete_cb\000"
 3368      73666572 
 3368      5F636F6D 
 3368      706C6574 
 3368      655F6362 
 3369              	.LASF104:
 3370 060d 53504931 		.ascii	"SPI1_IRQn\000"
 3370      5F495251 
 3370      6E00
 3371              	.LASF65:
 3372 0617 53564361 		.ascii	"SVCall_IRQn\000"
 3372      6C6C5F49 
 3372      52516E00 
 3373              	.LASF169:
 3374 0623 41504232 		.ascii	"APB2RSTR\000"
 3374      52535452 
 3374      00
 3375              	.LASF150:
 3376 062c 4650555F 		.ascii	"FPU_IRQn\000"
 3376      4952516E 
 3376      00
 3377              	.LASF121:
 3378 0635 55415254 		.ascii	"UART4_IRQn\000"
 3378      345F4952 
 3378      516E00
 3379              	.LASF212:
 3380 0640 7278646D 		.ascii	"rxdmamode\000"
 3380      616D6F64 
 3380      6500
 3381              	.LASF183:
 3382 064a 41504232 		.ascii	"APB2LPENR\000"
 3382      4C50454E 
 3382      5200
 3383              	.LASF39:
 3384 0654 705F7761 		.ascii	"p_waiting\000"
 3384      6974696E 
 3384      6700
ARM GAS  /var/folders/4k/6h5l9jl178sb4hslwv3xp1mr0000gn/T//cckdPLsp.s 			page 66


 3385              	.LASF111:
 3386 065e 4F54475F 		.ascii	"OTG_FS_WKUP_IRQn\000"
 3386      46535F57 
 3386      4B55505F 
 3386      4952516E 
 3386      00
 3387              	.LASF217:
 3388 066f 64636D69 		.ascii	"dcmip\000"
 3388      7000
 3389              	.LASF35:
 3390 0675 705F666C 		.ascii	"p_flags\000"
 3390      61677300 
 3391              	.LASF222:
 3392 067d 64636D69 		.ascii	"dcmi_lld_start\000"
 3392      5F6C6C64 
 3392      5F737461 
 3392      727400
 3393              	.LASF195:
 3394 068c 73656C66 		.ascii	"selfindex\000"
 3394      696E6465 
 3394      7800
 3395              	.LASF0:
 3396 0696 756E7369 		.ascii	"unsigned int\000"
 3396      676E6564 
 3396      20696E74 
 3396      00
 3397              	.LASF123:
 3398 06a3 54494D36 		.ascii	"TIM6_DAC_IRQn\000"
 3398      5F444143 
 3398      5F495251 
 3398      6E00
 3399              	.LASF213:
 3400 06b1 64636D69 		.ascii	"dcmicallback_t\000"
 3400      63616C6C 
 3400      6261636B 
 3400      5F7400
 3401              	.LASF45:
 3402 06c0 705F6D70 		.ascii	"p_mpool\000"
 3402      6F6F6C00 
 3403              	.LASF102:
 3404 06c8 49324332 		.ascii	"I2C2_EV_IRQn\000"
 3404      5F45565F 
 3404      4952516E 
 3404      00
 3405              	.LASF36:
 3406 06d5 705F7265 		.ascii	"p_refs\000"
 3406      667300
 3407              	.LASF199:
 3408 06dc 44434D49 		.ascii	"DCMI_UNINIT\000"
 3408      5F554E49 
 3408      4E495400 
 3409              	.LASF232:
 3410 06e8 5F706F72 		.ascii	"_port_irq_epilogue\000"
 3410      745F6972 
 3410      715F6570 
 3410      696C6F67 
 3410      756500
ARM GAS  /var/folders/4k/6h5l9jl178sb4hslwv3xp1mr0000gn/T//cckdPLsp.s 			page 67


 3411              	.LASF47:
 3412 06fb 54687265 		.ascii	"ThreadsList\000"
 3412      6164734C 
 3412      69737400 
 3413              	.LASF155:
 3414 0707 43575354 		.ascii	"CWSTRTR\000"
 3414      52545200 
 3415              	.LASF182:
 3416 070f 41504231 		.ascii	"APB1LPENR\000"
 3416      4C50454E 
 3416      5200
 3417              	.LASF81:
 3418 0719 444D4131 		.ascii	"DMA1_Stream1_IRQn\000"
 3418      5F537472 
 3418      65616D31 
 3418      5F495251 
 3418      6E00
 3419              	.LASF128:
 3420 072b 444D4132 		.ascii	"DMA2_Stream3_IRQn\000"
 3420      5F537472 
 3420      65616D33 
 3420      5F495251 
 3420      6E00
 3421              	.LASF132:
 3422 073d 43414E32 		.ascii	"CAN2_TX_IRQn\000"
 3422      5F54585F 
 3422      4952516E 
 3422      00
 3423              	.LASF161:
 3424 074a 444D415F 		.ascii	"DMA_Stream_TypeDef\000"
 3424      53747265 
 3424      616D5F54 
 3424      79706544 
 3424      656600
 3425              	.LASF38:
 3426 075d 705F7469 		.ascii	"p_time\000"
 3426      6D6500
 3427              	.LASF238:
 3428 0764 474E5520 		.ascii	"GNU C 4.8.3 20140228 (release) [ARM/embedded-4_8-br"
 3428      4320342E 
 3428      382E3320 
 3428      32303134 
 3428      30323238 
 3429 0797 616E6368 		.ascii	"anch revision 208322] -mcpu=cortex-m4 -mno-thumb-in"
 3429      20726576 
 3429      6973696F 
 3429      6E203230 
 3429      38333232 
 3430 07ca 74657277 		.ascii	"terwork -mthumb -ggdb -O2 -fomit-frame-pointer -fal"
 3430      6F726B20 
 3430      2D6D7468 
 3430      756D6220 
 3430      2D676764 
 3431 07fd 69676E2D 		.ascii	"ign-functions=16 -ffunction-sections -fdata-section"
 3431      66756E63 
 3431      74696F6E 
 3431      733D3136 
ARM GAS  /var/folders/4k/6h5l9jl178sb4hslwv3xp1mr0000gn/T//cckdPLsp.s 			page 68


 3431      202D6666 
 3432 0830 73202D66 		.ascii	"s -fno-common\000"
 3432      6E6F2D63 
 3432      6F6D6D6F 
 3432      6E00
 3433              	.LASF241:
 3434 083e 4952516E 		.ascii	"IRQn\000"
 3434      00
 3435              	.LASF86:
 3436 0843 444D4131 		.ascii	"DMA1_Stream6_IRQn\000"
 3436      5F537472 
 3436      65616D36 
 3436      5F495251 
 3436      6E00
 3437              	.LASF166:
 3438 0855 41484233 		.ascii	"AHB3RSTR\000"
 3438      52535452 
 3438      00
 3439              	.LASF243:
 3440 085e 6E766963 		.ascii	"nvicDisableVector\000"
 3440      44697361 
 3440      626C6556 
 3440      6563746F 
 3440      7200
 3441              	.LASF44:
 3442 0870 705F7265 		.ascii	"p_realprio\000"
 3442      616C7072 
 3442      696F00
 3443              	.LASF80:
 3444 087b 444D4131 		.ascii	"DMA1_Stream0_IRQn\000"
 3444      5F537472 
 3444      65616D30 
 3444      5F495251 
 3444      6E00
 3445              	.LASF168:
 3446 088d 41504231 		.ascii	"APB1RSTR\000"
 3446      52535452 
 3446      00
 3447              	.LASF198:
 3448 0896 73746D33 		.ascii	"stm32_dmaisr_t\000"
 3448      325F646D 
 3448      61697372 
 3448      5F7400
 3449              	.LASF110:
 3450 08a5 5254435F 		.ascii	"RTC_Alarm_IRQn\000"
 3450      416C6172 
 3450      6D5F4952 
 3450      516E00
 3451              	.LASF142:
 3452 08b4 49324333 		.ascii	"I2C3_ER_IRQn\000"
 3452      5F45525F 
 3452      4952516E 
 3452      00
 3453              	.LASF148:
 3454 08c1 43525950 		.ascii	"CRYP_IRQn\000"
 3454      5F495251 
 3454      6E00
ARM GAS  /var/folders/4k/6h5l9jl178sb4hslwv3xp1mr0000gn/T//cckdPLsp.s 			page 69


 3455              	.LASF109:
 3456 08cb 45585449 		.ascii	"EXTI15_10_IRQn\000"
 3456      31355F31 
 3456      305F4952 
 3456      516E00
 3457              	.LASF12:
 3458 08da 6C6F6E67 		.ascii	"long long unsigned int\000"
 3458      206C6F6E 
 3458      6720756E 
 3458      7369676E 
 3458      65642069 
 3459              	.LASF32:
 3460 08f1 705F6F6C 		.ascii	"p_older\000"
 3460      64657200 
 3461              	.LASF23:
 3462 08f9 6D73675F 		.ascii	"msg_t\000"
 3462      7400
 3463              	.LASF98:
 3464 08ff 54494D33 		.ascii	"TIM3_IRQn\000"
 3464      5F495251 
 3464      6E00
 3465              	.LASF106:
 3466 0909 55534152 		.ascii	"USART1_IRQn\000"
 3466      54315F49 
 3466      52516E00 
 3467              	.LASF21:
 3468 0915 74736C69 		.ascii	"tslices_t\000"
 3468      6365735F 
 3468      7400
 3469              	.LASF77:
 3470 091f 45585449 		.ascii	"EXTI2_IRQn\000"
 3470      325F4952 
 3470      516E00
 3471              	.LASF204:
 3472 092a 44434D49 		.ascii	"DCMI_COMPLETE\000"
 3472      5F434F4D 
 3472      504C4554 
 3472      4500
 3473              	.LASF134:
 3474 0938 43414E32 		.ascii	"CAN2_RX1_IRQn\000"
 3474      5F525831 
 3474      5F495251 
 3474      6E00
 3475              	.LASF196:
 3476 0946 76656374 		.ascii	"vector\000"
 3476      6F7200
 3477              	.LASF87:
 3478 094d 4144435F 		.ascii	"ADC_IRQn\000"
 3478      4952516E 
 3478      00
 3479              	.LASF180:
 3480 0956 41484233 		.ascii	"AHB3LPENR\000"
 3480      4C50454E 
 3480      5200
 3481              	.LASF70:
 3482 0960 5056445F 		.ascii	"PVD_IRQn\000"
 3482      4952516E 
ARM GAS  /var/folders/4k/6h5l9jl178sb4hslwv3xp1mr0000gn/T//cckdPLsp.s 			page 70


 3482      00
 3483              	.LASF117:
 3484 0969 46534D43 		.ascii	"FSMC_IRQn\000"
 3484      5F495251 
 3484      6E00
 3485              	.LASF75:
 3486 0973 45585449 		.ascii	"EXTI0_IRQn\000"
 3486      305F4952 
 3486      516E00
 3487              	.LASF18:
 3488 097e 746D6F64 		.ascii	"tmode_t\000"
 3488      655F7400 
 3489              	.LASF205:
 3490 0986 64636D69 		.ascii	"dcmistate_t\000"
 3490      73746174 
 3490      655F7400 
 3491              	.LASF84:
 3492 0992 444D4131 		.ascii	"DMA1_Stream4_IRQn\000"
 3492      5F537472 
 3492      65616D34 
 3492      5F495251 
 3492      6E00
 3493              	.LASF138:
 3494 09a4 444D4132 		.ascii	"DMA2_Stream6_IRQn\000"
 3494      5F537472 
 3494      65616D36 
 3494      5F495251 
 3494      6E00
 3495              	.LASF171:
 3496 09b6 41484231 		.ascii	"AHB1ENR\000"
 3496      454E5200 
 3497              	.LASF66:
 3498 09be 44656275 		.ascii	"DebugMonitor_IRQn\000"
 3498      674D6F6E 
 3498      69746F72 
 3498      5F495251 
 3498      6E00
 3499              	.LASF202:
 3500 09d0 44434D49 		.ascii	"DCMI_LISTEN\000"
 3500      5F4C4953 
 3500      54454E00 
 3501              	.LASF141:
 3502 09dc 49324333 		.ascii	"I2C3_EV_IRQn\000"
 3502      5F45565F 
 3502      4952516E 
 3502      00
 3503              	.LASF165:
 3504 09e9 41484232 		.ascii	"AHB2RSTR\000"
 3504      52535452 
 3504      00
 3505              	.LASF209:
 3506 09f2 74687265 		.ascii	"thread\000"
 3506      616400
 3507              	.LASF159:
 3508 09f9 4D304152 		.ascii	"M0AR\000"
 3508      00
 3509              	.LASF130:
ARM GAS  /var/folders/4k/6h5l9jl178sb4hslwv3xp1mr0000gn/T//cckdPLsp.s 			page 71


 3510 09fe 4554485F 		.ascii	"ETH_IRQn\000"
 3510      4952516E 
 3510      00
 3511              	.LASF239:
 3512 0a07 2E2E2F43 		.ascii	"../ChibiStudio/ChibiOS/os/hal/platforms/STM32F4xx/d"
 3512      68696269 
 3512      53747564 
 3512      696F2F43 
 3512      68696269 
 3513 0a3a 636D695F 		.ascii	"cmi_lld.c\000"
 3513      6C6C642E 
 3513      6300
 3514              	.LASF230:
 3515 0a44 44434D49 		.ascii	"DCMID1\000"
 3515      443100
 3516              	.LASF191:
 3517 0a4b 5243435F 		.ascii	"RCC_TypeDef\000"
 3517      54797065 
 3517      44656600 
 3518              	.LASF5:
 3519 0a57 73686F72 		.ascii	"short int\000"
 3519      7420696E 
 3519      7400
 3520              	.LASF74:
 3521 0a61 5243435F 		.ascii	"RCC_IRQn\000"
 3521      4952516E 
 3521      00
 3522              	.LASF224:
 3523 0a6a 64636D69 		.ascii	"dcmi_lld_receive\000"
 3523      5F6C6C64 
 3523      5F726563 
 3523      65697665 
 3523      00
 3524              	.LASF83:
 3525 0a7b 444D4131 		.ascii	"DMA1_Stream3_IRQn\000"
 3525      5F537472 
 3525      65616D33 
 3525      5F495251 
 3525      6E00
 3526              	.LASF16:
 3527 0a8d 626F6F6C 		.ascii	"bool_t\000"
 3527      5F7400
 3528              	.LASF26:
 3529 0a94 54687265 		.ascii	"Thread\000"
 3529      616400
 3530              	.LASF231:
 3531 0a9b 706F7274 		.ascii	"port_halt\000"
 3531      5F68616C 
 3531      7400
 3532              	.LASF94:
 3533 0aa5 54494D31 		.ascii	"TIM1_UP_TIM10_IRQn\000"
 3533      5F55505F 
 3533      54494D31 
 3533      305F4952 
 3533      516E00
 3534              	.LASF228:
 3535 0ab8 49544D5F 		.ascii	"ITM_RxBuffer\000"
ARM GAS  /var/folders/4k/6h5l9jl178sb4hslwv3xp1mr0000gn/T//cckdPLsp.s 			page 72


 3535      52784275 
 3535      66666572 
 3535      00
 3536              	.LASF220:
 3537 0ac5 56656374 		.ascii	"Vector178\000"
 3537      6F723137 
 3537      3800
 3538              	.LASF153:
 3539 0acf 45534352 		.ascii	"ESCR\000"
 3539      00
 3540              	.LASF20:
 3541 0ad4 74726566 		.ascii	"trefs_t\000"
 3541      735F7400 
 3542              	.LASF143:
 3543 0adc 4F54475F 		.ascii	"OTG_HS_EP1_OUT_IRQn\000"
 3543      48535F45 
 3543      50315F4F 
 3543      55545F49 
 3543      52516E00 
 3544              	.LASF72:
 3545 0af0 5254435F 		.ascii	"RTC_WKUP_IRQn\000"
 3545      574B5550 
 3545      5F495251 
 3545      6E00
 3546              	.LASF236:
 3547 0afe 6E766963 		.ascii	"nvicEnableVector\000"
 3547      456E6162 
 3547      6C655665 
 3547      63746F72 
 3547      00
 3548              	.LASF15:
 3549 0b0f 75696E74 		.ascii	"uint32_t\000"
 3549      33325F74 
 3549      00
 3550              	.LASF90:
 3551 0b18 43414E31 		.ascii	"CAN1_RX1_IRQn\000"
 3551      5F525831 
 3551      5F495251 
 3551      6E00
 3552              	.LASF46:
 3553 0b26 54687265 		.ascii	"ThreadsQueue\000"
 3553      61647351 
 3553      75657565 
 3553      00
 3554              	.LASF221:
 3555 0b33 64636D69 		.ascii	"dcmi_lld_init\000"
 3555      5F6C6C64 
 3555      5F696E69 
 3555      7400
 3556              	.LASF92:
 3557 0b41 45585449 		.ascii	"EXTI9_5_IRQn\000"
 3557      395F355F 
 3557      4952516E 
 3557      00
 3558              	.LASF189:
 3559 0b4e 504C4C53 		.ascii	"PLLSAICFGR\000"
 3559      41494346 
ARM GAS  /var/folders/4k/6h5l9jl178sb4hslwv3xp1mr0000gn/T//cckdPLsp.s 			page 73


 3559      475200
 3560              	.LASF206:
 3561 0b59 44434D49 		.ascii	"DCMIDriver\000"
 3561      44726976 
 3561      657200
 3562              	.LASF56:
 3563 0b64 7264796D 		.ascii	"rdymsg\000"
 3563      736700
 3564              	.LASF79:
 3565 0b6b 45585449 		.ascii	"EXTI4_IRQn\000"
 3565      345F4952 
 3565      516E00
 3566              	.LASF6:
 3567 0b76 73686F72 		.ascii	"short unsigned int\000"
 3567      7420756E 
 3567      7369676E 
 3567      65642069 
 3567      6E7400
 3568              	.LASF115:
 3569 0b89 54494D38 		.ascii	"TIM8_CC_IRQn\000"
 3569      5F43435F 
 3569      4952516E 
 3569      00
 3570              	.LASF118:
 3571 0b96 5344494F 		.ascii	"SDIO_IRQn\000"
 3571      5F495251 
 3571      6E00
 3572              	.LASF78:
 3573 0ba0 45585449 		.ascii	"EXTI3_IRQn\000"
 3573      335F4952 
 3573      516E00
 3574              	.LASF67:
 3575 0bab 50656E64 		.ascii	"PendSV_IRQn\000"
 3575      53565F49 
 3575      52516E00 
 3576              	.LASF144:
 3577 0bb7 4F54475F 		.ascii	"OTG_HS_EP1_IN_IRQn\000"
 3577      48535F45 
 3577      50315F49 
 3577      4E5F4952 
 3577      516E00
 3578              	.LASF116:
 3579 0bca 444D4131 		.ascii	"DMA1_Stream7_IRQn\000"
 3579      5F537472 
 3579      65616D37 
 3579      5F495251 
 3579      6E00
 3580              	.LASF7:
 3581 0bdc 5F5F696E 		.ascii	"__int32_t\000"
 3581      7433325F 
 3581      7400
 3582              	.LASF151:
 3583 0be6 52495352 		.ascii	"RISR\000"
 3583      00
 3584              	.LASF158:
 3585 0beb 4E445452 		.ascii	"NDTR\000"
 3585      00
ARM GAS  /var/folders/4k/6h5l9jl178sb4hslwv3xp1mr0000gn/T//cckdPLsp.s 			page 74


 3586              	.LASF193:
 3587 0bf0 69666372 		.ascii	"ifcr\000"
 3587      00
 3588              	.LASF33:
 3589 0bf5 705F6E61 		.ascii	"p_name\000"
 3589      6D6500
 3590              	.LASF55:
 3591 0bfc 6D5F6E65 		.ascii	"m_next\000"
 3591      787400
 3592              	.LASF173:
 3593 0c03 41484233 		.ascii	"AHB3ENR\000"
 3593      454E5200 
 3594              	.LASF127:
 3595 0c0b 444D4132 		.ascii	"DMA2_Stream2_IRQn\000"
 3595      5F537472 
 3595      65616D32 
 3595      5F495251 
 3595      6E00
 3596              	.LASF41:
 3597 0c1d 705F6D73 		.ascii	"p_msg\000"
 3597      6700
 3598              	.LASF34:
 3599 0c23 705F7374 		.ascii	"p_state\000"
 3599      61746500 
 3600              		.ident	"GCC: (GNU Tools for ARM Embedded Processors) 4.8.3 20140228 (release) [ARM/embedded-4_8-br
ARM GAS  /var/folders/4k/6h5l9jl178sb4hslwv3xp1mr0000gn/T//cckdPLsp.s 			page 75


DEFINED SYMBOLS
                            *ABS*:0000000000000000 dcmi_lld.c
/var/folders/4k/6h5l9jl178sb4hslwv3xp1mr0000gn/T//cckdPLsp.s:19     .text.dcmi_lld_serve_dma_rx_interrupt:0000000000000000 $t
/var/folders/4k/6h5l9jl178sb4hslwv3xp1mr0000gn/T//cckdPLsp.s:24     .text.dcmi_lld_serve_dma_rx_interrupt:0000000000000000 dcmi_lld_serve_dma_rx_interrupt
/var/folders/4k/6h5l9jl178sb4hslwv3xp1mr0000gn/T//cckdPLsp.s:68     .text.Vector178:0000000000000000 $t
/var/folders/4k/6h5l9jl178sb4hslwv3xp1mr0000gn/T//cckdPLsp.s:74     .text.Vector178:0000000000000000 Vector178
/var/folders/4k/6h5l9jl178sb4hslwv3xp1mr0000gn/T//cckdPLsp.s:166    .text.Vector178:0000000000000058 $d
/var/folders/4k/6h5l9jl178sb4hslwv3xp1mr0000gn/T//cckdPLsp.s:173    .text.dcmi_lld_init:0000000000000000 $t
/var/folders/4k/6h5l9jl178sb4hslwv3xp1mr0000gn/T//cckdPLsp.s:179    .text.dcmi_lld_init:0000000000000000 dcmi_lld_init
/var/folders/4k/6h5l9jl178sb4hslwv3xp1mr0000gn/T//cckdPLsp.s:210    .text.dcmi_lld_init:0000000000000018 $d
/var/folders/4k/6h5l9jl178sb4hslwv3xp1mr0000gn/T//cckdPLsp.s:218    .text.dcmi_lld_start:0000000000000000 $t
/var/folders/4k/6h5l9jl178sb4hslwv3xp1mr0000gn/T//cckdPLsp.s:224    .text.dcmi_lld_start:0000000000000000 dcmi_lld_start
/var/folders/4k/6h5l9jl178sb4hslwv3xp1mr0000gn/T//cckdPLsp.s:314    .text.dcmi_lld_start:0000000000000068 $d
/var/folders/4k/6h5l9jl178sb4hslwv3xp1mr0000gn/T//cckdPLsp.s:322    .text.dcmi_lld_stop:0000000000000000 $t
/var/folders/4k/6h5l9jl178sb4hslwv3xp1mr0000gn/T//cckdPLsp.s:328    .text.dcmi_lld_stop:0000000000000000 dcmi_lld_stop
/var/folders/4k/6h5l9jl178sb4hslwv3xp1mr0000gn/T//cckdPLsp.s:392    .text.dcmi_lld_stop:0000000000000048 $d
/var/folders/4k/6h5l9jl178sb4hslwv3xp1mr0000gn/T//cckdPLsp.s:398    .text.dcmi_lld_receive:0000000000000000 $t
/var/folders/4k/6h5l9jl178sb4hslwv3xp1mr0000gn/T//cckdPLsp.s:404    .text.dcmi_lld_receive:0000000000000000 dcmi_lld_receive
/var/folders/4k/6h5l9jl178sb4hslwv3xp1mr0000gn/T//cckdPLsp.s:486    .text.dcmi_lld_receive:0000000000000054 $d
/var/folders/4k/6h5l9jl178sb4hslwv3xp1mr0000gn/T//cckdPLsp.s:497    .bss.DCMID1:0000000000000000 DCMID1
/var/folders/4k/6h5l9jl178sb4hslwv3xp1mr0000gn/T//cckdPLsp.s:493    .bss.DCMID1:0000000000000000 $d
                     .debug_frame:0000000000000010 $d
/var/folders/4k/6h5l9jl178sb4hslwv3xp1mr0000gn/T//cckdPLsp.s:217    .text.dcmi_lld_init:0000000000000028 $t
/var/folders/4k/6h5l9jl178sb4hslwv3xp1mr0000gn/T//cckdPLsp.s:321    .text.dcmi_lld_start:0000000000000074 $t
/var/folders/4k/6h5l9jl178sb4hslwv3xp1mr0000gn/T//cckdPLsp.s:492    .text.dcmi_lld_receive:000000000000005c $t

UNDEFINED SYMBOLS
port_halt
chSchReadyI
_port_irq_epilogue
dcmiObjectInit
_stm32_dma_streams
nvicEnableVector
dmaStreamAllocate
dmaStreamRelease
nvicDisableVector
