ARM GAS  /var/folders/4k/6h5l9jl178sb4hslwv3xp1mr0000gn/T//ccl6lYcp.s 			page 1


   1              		.syntax unified
   2              		.cpu cortex-m4
   3              		.fpu softvfp
   4              		.eabi_attribute 20, 1
   5              		.eabi_attribute 21, 1
   6              		.eabi_attribute 23, 3
   7              		.eabi_attribute 24, 1
   8              		.eabi_attribute 25, 1
   9              		.eabi_attribute 26, 1
  10              		.eabi_attribute 30, 2
  11              		.eabi_attribute 34, 1
  12              		.eabi_attribute 18, 4
  13              		.thumb
  14              		.file	"dcmi.c"
  15              		.text
  16              	.Ltext0:
  17              		.cfi_sections	.debug_frame
  18              		.section	.text.dcmiInit,"ax",%progbits
  19              		.align	2
  20              		.p2align 4,,15
  21              		.global	dcmiInit
  22              		.thumb
  23              		.thumb_func
  24              		.type	dcmiInit, %function
  25              	dcmiInit:
  26              	.LFB118:
  27              		.file 1 "../ChibiStudio/ChibiOS/os/hal/src/dcmi.c"
  28              		.loc 1 61 0
  29              		.cfi_startproc
  30              		@ args = 0, pretend = 0, frame = 0
  31              		@ frame_needed = 0, uses_anonymous_args = 0
  32              		@ link register save eliminated.
  33              		.loc 1 63 0
  34 0000 FFF7FEBF 		b	dcmi_lld_init
  35              	.LVL0:
  36              		.cfi_endproc
  37              	.LFE118:
  38              		.size	dcmiInit, .-dcmiInit
  39 0004 AFF30080 		.section	.text.dcmiObjectInit,"ax",%progbits
  39      AFF30080 
  39      AFF30080 
  40              		.align	2
  41              		.p2align 4,,15
  42              		.global	dcmiObjectInit
  43              		.thumb
  44              		.thumb_func
  45              		.type	dcmiObjectInit, %function
  46              	dcmiObjectInit:
  47              	.LFB119:
  48              		.loc 1 73 0
  49              		.cfi_startproc
  50              		@ args = 0, pretend = 0, frame = 0
  51              		@ frame_needed = 0, uses_anonymous_args = 0
  52              		@ link register save eliminated.
  53              	.LVL1:
  54              		.loc 1 75 0
  55 0000 0023     		movs	r3, #0
ARM GAS  /var/folders/4k/6h5l9jl178sb4hslwv3xp1mr0000gn/T//ccl6lYcp.s 			page 2


  56              		.loc 1 74 0
  57 0002 0122     		movs	r2, #1
  58 0004 0270     		strb	r2, [r0]
  59              		.loc 1 75 0
  60 0006 4360     		str	r3, [r0, #4]
  61              		.loc 1 77 0
  62 0008 8360     		str	r3, [r0, #8]
  63 000a 7047     		bx	lr
  64              		.cfi_endproc
  65              	.LFE119:
  66              		.size	dcmiObjectInit, .-dcmiObjectInit
  67 000c AFF30080 		.section	.text.dcmiStart,"ax",%progbits
  68              		.align	2
  69              		.p2align 4,,15
  70              		.global	dcmiStart
  71              		.thumb
  72              		.thumb_func
  73              		.type	dcmiStart, %function
  74              	dcmiStart:
  75              	.LFB120:
  76              		.loc 1 93 0
  77              		.cfi_startproc
  78              		@ args = 0, pretend = 0, frame = 0
  79              		@ frame_needed = 0, uses_anonymous_args = 0
  80              	.LVL2:
  81 0000 10B5     		push	{r4, lr}
  82              		.cfi_def_cfa_offset 8
  83              		.cfi_offset 4, -8
  84              		.cfi_offset 14, -4
  85              	.LBB2:
  86              		.loc 1 96 0
  87 0002 2023     		movs	r3, #32
  88              	.LBE2:
  89              		.loc 1 93 0
  90 0004 0446     		mov	r4, r0
  91              	.LBB3:
  92              		.loc 1 96 0
  93              	@ 96 "../ChibiStudio/ChibiOS/os/hal/src/dcmi.c" 1
  94 0006 83F31188 		msr     BASEPRI, r3
  95              	@ 0 "" 2
  96              		.thumb
  97              	.LBE3:
  98              		.loc 1 99 0
  99 000a 4160     		str	r1, [r0, #4]
 100              		.loc 1 100 0
 101 000c FFF7FEFF 		bl	dcmi_lld_start
 102              	.LVL3:
 103              		.loc 1 101 0
 104 0010 0223     		movs	r3, #2
 105 0012 2370     		strb	r3, [r4]
 106              	.LBB4:
 107              		.loc 1 102 0
 108 0014 0023     		movs	r3, #0
 109              	@ 102 "../ChibiStudio/ChibiOS/os/hal/src/dcmi.c" 1
 110 0016 83F31188 		msr     BASEPRI, r3
 111              	@ 0 "" 2
 112              		.thumb
ARM GAS  /var/folders/4k/6h5l9jl178sb4hslwv3xp1mr0000gn/T//ccl6lYcp.s 			page 3


 113 001a 10BD     		pop	{r4, pc}
 114              	.LBE4:
 115              		.cfi_endproc
 116              	.LFE120:
 117              		.size	dcmiStart, .-dcmiStart
 118 001c AFF30080 		.section	.text.dcmiStop,"ax",%progbits
 119              		.align	2
 120              		.p2align 4,,15
 121              		.global	dcmiStop
 122              		.thumb
 123              		.thumb_func
 124              		.type	dcmiStop, %function
 125              	dcmiStop:
 126              	.LFB121:
 127              		.loc 1 113 0
 128              		.cfi_startproc
 129              		@ args = 0, pretend = 0, frame = 0
 130              		@ frame_needed = 0, uses_anonymous_args = 0
 131              	.LVL4:
 132 0000 10B5     		push	{r4, lr}
 133              		.cfi_def_cfa_offset 8
 134              		.cfi_offset 4, -8
 135              		.cfi_offset 14, -4
 136              	.LBB5:
 137              		.loc 1 117 0
 138 0002 2023     		movs	r3, #32
 139              	.LBE5:
 140              		.loc 1 113 0
 141 0004 0446     		mov	r4, r0
 142              	.LBB6:
 143              		.loc 1 117 0
 144              	@ 117 "../ChibiStudio/ChibiOS/os/hal/src/dcmi.c" 1
 145 0006 83F31188 		msr     BASEPRI, r3
 146              	@ 0 "" 2
 147              		.thumb
 148              	.LBE6:
 149              		.loc 1 120 0
 150 000a FFF7FEFF 		bl	dcmi_lld_stop
 151              	.LVL5:
 152              		.loc 1 121 0
 153 000e 0123     		movs	r3, #1
 154 0010 2370     		strb	r3, [r4]
 155              	.LBB7:
 156              		.loc 1 122 0
 157 0012 0023     		movs	r3, #0
 158              	@ 122 "../ChibiStudio/ChibiOS/os/hal/src/dcmi.c" 1
 159 0014 83F31188 		msr     BASEPRI, r3
 160              	@ 0 "" 2
 161              		.thumb
 162 0018 10BD     		pop	{r4, pc}
 163              	.LBE7:
 164              		.cfi_endproc
 165              	.LFE121:
 166              		.size	dcmiStop, .-dcmiStop
 167 001a 00BFAFF3 		.section	.text.dcmiStartReceive,"ax",%progbits
 167      0080
 168              		.align	2
ARM GAS  /var/folders/4k/6h5l9jl178sb4hslwv3xp1mr0000gn/T//ccl6lYcp.s 			page 4


 169              		.p2align 4,,15
 170              		.global	dcmiStartReceive
 171              		.thumb
 172              		.thumb_func
 173              		.type	dcmiStartReceive, %function
 174              	dcmiStartReceive:
 175              	.LFB122:
 176              		.loc 1 142 0
 177              		.cfi_startproc
 178              		@ args = 0, pretend = 0, frame = 0
 179              		@ frame_needed = 0, uses_anonymous_args = 0
 180              	.LVL6:
 181 0000 30B5     		push	{r4, r5, lr}
 182              		.cfi_def_cfa_offset 12
 183              		.cfi_offset 4, -12
 184              		.cfi_offset 5, -8
 185              		.cfi_offset 14, -4
 186 0002 1C46     		mov	r4, r3
 187 0004 83B0     		sub	sp, sp, #12
 188              		.cfi_def_cfa_offset 24
 189              	.LBB8:
 190              		.loc 1 147 0
 191 0006 2023     		movs	r3, #32
 192              	.LVL7:
 193              	@ 147 "../ChibiStudio/ChibiOS/os/hal/src/dcmi.c" 1
 194 0008 83F31188 		msr     BASEPRI, r3
 195              	@ 0 "" 2
 196              		.thumb
 197              	.LBE8:
 198              		.loc 1 149 0
 199 000c 0325     		movs	r5, #3
 200 000e 1346     		mov	r3, r2
 201 0010 0094     		str	r4, [sp]
 202 0012 0570     		strb	r5, [r0]
 203 0014 0022     		movs	r2, #0
 204              	.LVL8:
 205 0016 FFF7FEFF 		bl	dcmi_lld_receive
 206              	.LVL9:
 207              	.LBB9:
 208              		.loc 1 150 0
 209 001a 0023     		movs	r3, #0
 210              	@ 150 "../ChibiStudio/ChibiOS/os/hal/src/dcmi.c" 1
 211 001c 83F31188 		msr     BASEPRI, r3
 212              	@ 0 "" 2
 213              		.thumb
 214              	.LBE9:
 215              		.loc 1 151 0
 216 0020 03B0     		add	sp, sp, #12
 217              		@ sp needed
 218 0022 30BD     		pop	{r4, r5, pc}
 219              		.cfi_endproc
 220              	.LFE122:
 221              		.size	dcmiStartReceive, .-dcmiStartReceive
 222 0024 AFF30080 		.section	.text.dcmiStartReceiveOneShot,"ax",%progbits
 222      AFF30080 
 222      AFF30080 
 223              		.align	2
ARM GAS  /var/folders/4k/6h5l9jl178sb4hslwv3xp1mr0000gn/T//ccl6lYcp.s 			page 5


 224              		.p2align 4,,15
 225              		.global	dcmiStartReceiveOneShot
 226              		.thumb
 227              		.thumb_func
 228              		.type	dcmiStartReceiveOneShot, %function
 229              	dcmiStartReceiveOneShot:
 230              	.LFB123:
 231              		.loc 1 169 0
 232              		.cfi_startproc
 233              		@ args = 0, pretend = 0, frame = 0
 234              		@ frame_needed = 0, uses_anonymous_args = 0
 235              	.LVL10:
 236 0000 30B5     		push	{r4, r5, lr}
 237              		.cfi_def_cfa_offset 12
 238              		.cfi_offset 4, -12
 239              		.cfi_offset 5, -8
 240              		.cfi_offset 14, -4
 241 0002 1C46     		mov	r4, r3
 242 0004 83B0     		sub	sp, sp, #12
 243              		.cfi_def_cfa_offset 24
 244              	.LBB10:
 245              		.loc 1 173 0
 246 0006 2023     		movs	r3, #32
 247              	.LVL11:
 248              	@ 173 "../ChibiStudio/ChibiOS/os/hal/src/dcmi.c" 1
 249 0008 83F31188 		msr     BASEPRI, r3
 250              	@ 0 "" 2
 251              		.thumb
 252              	.LBE10:
 253              		.loc 1 175 0
 254 000c 0425     		movs	r5, #4
 255 000e 1346     		mov	r3, r2
 256 0010 0094     		str	r4, [sp]
 257 0012 0570     		strb	r5, [r0]
 258 0014 0122     		movs	r2, #1
 259              	.LVL12:
 260 0016 FFF7FEFF 		bl	dcmi_lld_receive
 261              	.LVL13:
 262              	.LBB11:
 263              		.loc 1 176 0
 264 001a 0023     		movs	r3, #0
 265              	@ 176 "../ChibiStudio/ChibiOS/os/hal/src/dcmi.c" 1
 266 001c 83F31188 		msr     BASEPRI, r3
 267              	@ 0 "" 2
 268              		.thumb
 269              	.LBE11:
 270              		.loc 1 177 0
 271 0020 03B0     		add	sp, sp, #12
 272              		@ sp needed
 273 0022 30BD     		pop	{r4, r5, pc}
 274              		.cfi_endproc
 275              	.LFE123:
 276              		.size	dcmiStartReceiveOneShot, .-dcmiStartReceiveOneShot
 277 0024 AFF30080 		.section	.text.dcmiReceiveOneShot,"ax",%progbits
 277      AFF30080 
 277      AFF30080 
 278              		.align	2
ARM GAS  /var/folders/4k/6h5l9jl178sb4hslwv3xp1mr0000gn/T//ccl6lYcp.s 			page 6


 279              		.p2align 4,,15
 280              		.global	dcmiReceiveOneShot
 281              		.thumb
 282              		.thumb_func
 283              		.type	dcmiReceiveOneShot, %function
 284              	dcmiReceiveOneShot:
 285              	.LFB124:
 286              		.loc 1 197 0
 287              		.cfi_startproc
 288              		@ args = 0, pretend = 0, frame = 0
 289              		@ frame_needed = 0, uses_anonymous_args = 0
 290              	.LVL14:
 291 0000 30B5     		push	{r4, r5, lr}
 292              		.cfi_def_cfa_offset 12
 293              		.cfi_offset 4, -12
 294              		.cfi_offset 5, -8
 295              		.cfi_offset 14, -4
 296 0002 1D46     		mov	r5, r3
 297 0004 83B0     		sub	sp, sp, #12
 298              		.cfi_def_cfa_offset 24
 299              		.loc 1 197 0
 300 0006 0446     		mov	r4, r0
 301              	.LBB12:
 302              		.loc 1 201 0
 303 0008 2023     		movs	r3, #32
 304              	.LVL15:
 305              	@ 201 "../ChibiStudio/ChibiOS/os/hal/src/dcmi.c" 1
 306 000a 83F31188 		msr     BASEPRI, r3
 307              	@ 0 "" 2
 308              		.thumb
 309              	.LBE12:
 310              		.loc 1 205 0
 311 000e 0420     		movs	r0, #4
 312              	.LVL16:
 313 0010 0095     		str	r5, [sp]
 314 0012 1346     		mov	r3, r2
 315 0014 2070     		strb	r0, [r4]
 316 0016 0122     		movs	r2, #1
 317              	.LVL17:
 318 0018 2046     		mov	r0, r4
 319 001a FFF7FEFF 		bl	dcmi_lld_receive
 320              	.LVL18:
 321              	.LBB13:
 322              		.loc 1 206 0
 323 001e 0023     		movs	r3, #0
 324              	@ 206 "../ChibiStudio/ChibiOS/os/hal/src/dcmi.c" 1
 325 0020 83F31188 		msr     BASEPRI, r3
 326              	@ 0 "" 2
 327              		.thumb
 328              	.LBE13:
 329              		.loc 1 207 0
 330 0024 044B     		ldr	r3, .L8
 331 0026 9B69     		ldr	r3, [r3, #24]
 332 0028 A360     		str	r3, [r4, #8]
 333 002a 0220     		movs	r0, #2
 334              		.loc 1 208 0
 335 002c 03B0     		add	sp, sp, #12
ARM GAS  /var/folders/4k/6h5l9jl178sb4hslwv3xp1mr0000gn/T//ccl6lYcp.s 			page 7


 336              		@ sp needed
 337 002e BDE83040 		pop	{r4, r5, lr}
 338              	.LVL19:
 339              		.loc 1 207 0
 340 0032 FFF7FEBF 		b	chSchGoSleepS
 341              	.LVL20:
 342              	.L9:
 343 0036 00BF     		.align	2
 344              	.L8:
 345 0038 00000000 		.word	rlist
 346              		.cfi_endproc
 347              	.LFE124:
 348              		.size	dcmiReceiveOneShot, .-dcmiReceiveOneShot
 349 003c AFF30080 		.text
 350              	.Letext0:
 351              		.file 2 "/Users/mikevanis/Documents/workspace/gcc-arm-none-eabi-4_8-2014q1/lib/gcc/arm-none-eabi/4
 352              		.file 3 "/Users/mikevanis/Documents/workspace/gcc-arm-none-eabi-4_8-2014q1/arm-none-eabi/include/m
 353              		.file 4 "/Users/mikevanis/Documents/workspace/gcc-arm-none-eabi-4_8-2014q1/arm-none-eabi/include/s
 354              		.file 5 "../ChibiStudio/ChibiOS/os/ports/GCC/ARMCMx/chtypes.h"
 355              		.file 6 "../ChibiStudio/ChibiOS/os/kernel/include/chlists.h"
 356              		.file 7 "../ChibiStudio/ChibiOS/os/kernel/include/chthreads.h"
 357              		.file 8 "../ChibiStudio/ChibiOS/os/ports/GCC/ARMCMx/chcore_v7m.h"
 358              		.file 9 "../ChibiStudio/ChibiOS/os/kernel/include/chschd.h"
 359              		.file 10 "../ChibiStudio/ChibiOS/os/kernel/include/chmtx.h"
 360              		.file 11 "../ChibiStudio/ChibiOS/os/hal/platforms/STM32F4xx/stm32f4xx.h"
 361              		.file 12 "../ChibiStudio/ChibiOS/os/hal/platforms/STM32F4xx/stm32_dma.h"
 362              		.file 13 "../ChibiStudio/ChibiOS/os/hal/include/dcmi.h"
 363              		.file 14 "../ChibiStudio/ChibiOS/os/hal/platforms/STM32F4xx/dcmi_lld.h"
 364              		.file 15 "../ChibiStudio/ChibiOS/os/ports/common/ARMCMx/CMSIS/include/core_cm4.h"