ARM GAS  /var/folders/4k/6h5l9jl178sb4hslwv3xp1mr0000gn/T//ccl6lYcp.s 			page 1


   1              		.syntax unified
   2              		.cpu cortex-m4
   3              		.fpu softvfp
   4              		.eabi_attribute 20, 1
   5              		.eabi_attribute 21, 1
   6              		.eabi_attribute 23, 3
   7              		.eabi_attribute 24, 1
   8              		.eabi_attribute 25, 1
   9              		.eabi_attribute 26, 1
  10              		.eabi_attribute 30, 2
  11              		.eabi_attribute 34, 1
  12              		.eabi_attribute 18, 4
  13              		.thumb
  14              		.file	"dcmi.c"
  15              		.text
  16              	.Ltext0:
  17              		.cfi_sections	.debug_frame
  18              		.section	.text.dcmiInit,"ax",%progbits
  19              		.align	2
  20              		.p2align 4,,15
  21              		.global	dcmiInit
  22              		.thumb
  23              		.thumb_func
  24              		.type	dcmiInit, %function
  25              	dcmiInit:
  26              	.LFB118:
  27              		.file 1 "../ChibiStudio/ChibiOS/os/hal/src/dcmi.c"
  28              		.loc 1 61 0
  29              		.cfi_startproc
  30              		@ args = 0, pretend = 0, frame = 0
  31              		@ frame_needed = 0, uses_anonymous_args = 0
  32              		@ link register save eliminated.
  33              		.loc 1 63 0
  34 0000 FFF7FEBF 		b	dcmi_lld_init
  35              	.LVL0:
  36              		.cfi_endproc
  37              	.LFE118:
  38              		.size	dcmiInit, .-dcmiInit
  39 0004 AFF30080 		.section	.text.dcmiObjectInit,"ax",%progbits
  39      AFF30080 
  39      AFF30080 
  40              		.align	2
  41              		.p2align 4,,15
  42              		.global	dcmiObjectInit
  43              		.thumb
  44              		.thumb_func
  45              		.type	dcmiObjectInit, %function
  46              	dcmiObjectInit:
  47              	.LFB119:
  48              		.loc 1 73 0
  49              		.cfi_startproc
  50              		@ args = 0, pretend = 0, frame = 0
  51              		@ frame_needed = 0, uses_anonymous_args = 0
  52              		@ link register save eliminated.
  53              	.LVL1:
  54              		.loc 1 75 0
  55 0000 0023     		movs	r3, #0
ARM GAS  /var/folders/4k/6h5l9jl178sb4hslwv3xp1mr0000gn/T//ccl6lYcp.s 			page 2


  56              		.loc 1 74 0
  57 0002 0122     		movs	r2, #1
  58 0004 0270     		strb	r2, [r0]
  59              		.loc 1 75 0
  60 0006 4360     		str	r3, [r0, #4]
  61              		.loc 1 77 0
  62 0008 8360     		str	r3, [r0, #8]
  63 000a 7047     		bx	lr
  64              		.cfi_endproc
  65              	.LFE119:
  66              		.size	dcmiObjectInit, .-dcmiObjectInit
  67 000c AFF30080 		.section	.text.dcmiStart,"ax",%progbits
  68              		.align	2
  69              		.p2align 4,,15
  70              		.global	dcmiStart
  71              		.thumb
  72              		.thumb_func
  73              		.type	dcmiStart, %function
  74              	dcmiStart:
  75              	.LFB120:
  76              		.loc 1 93 0
  77              		.cfi_startproc
  78              		@ args = 0, pretend = 0, frame = 0
  79              		@ frame_needed = 0, uses_anonymous_args = 0
  80              	.LVL2:
  81 0000 10B5     		push	{r4, lr}
  82              		.cfi_def_cfa_offset 8
  83              		.cfi_offset 4, -8
  84              		.cfi_offset 14, -4
  85              	.LBB2:
  86              		.loc 1 96 0
  87 0002 2023     		movs	r3, #32
  88              	.LBE2:
  89              		.loc 1 93 0
  90 0004 0446     		mov	r4, r0
  91              	.LBB3:
  92              		.loc 1 96 0
  93              	@ 96 "../ChibiStudio/ChibiOS/os/hal/src/dcmi.c" 1
  94 0006 83F31188 		msr     BASEPRI, r3
  95              	@ 0 "" 2
  96              		.thumb
  97              	.LBE3:
  98              		.loc 1 99 0
  99 000a 4160     		str	r1, [r0, #4]
 100              		.loc 1 100 0
 101 000c FFF7FEFF 		bl	dcmi_lld_start
 102              	.LVL3:
 103              		.loc 1 101 0
 104 0010 0223     		movs	r3, #2
 105 0012 2370     		strb	r3, [r4]
 106              	.LBB4:
 107              		.loc 1 102 0
 108 0014 0023     		movs	r3, #0
 109              	@ 102 "../ChibiStudio/ChibiOS/os/hal/src/dcmi.c" 1
 110 0016 83F31188 		msr     BASEPRI, r3
 111              	@ 0 "" 2
 112              		.thumb
ARM GAS  /var/folders/4k/6h5l9jl178sb4hslwv3xp1mr0000gn/T//ccl6lYcp.s 			page 3


 113 001a 10BD     		pop	{r4, pc}
 114              	.LBE4:
 115              		.cfi_endproc
 116              	.LFE120:
 117              		.size	dcmiStart, .-dcmiStart
 118 001c AFF30080 		.section	.text.dcmiStop,"ax",%progbits
 119              		.align	2
 120              		.p2align 4,,15
 121              		.global	dcmiStop
 122              		.thumb
 123              		.thumb_func
 124              		.type	dcmiStop, %function
 125              	dcmiStop:
 126              	.LFB121:
 127              		.loc 1 113 0
 128              		.cfi_startproc
 129              		@ args = 0, pretend = 0, frame = 0
 130              		@ frame_needed = 0, uses_anonymous_args = 0
 131              	.LVL4:
 132 0000 10B5     		push	{r4, lr}
 133              		.cfi_def_cfa_offset 8
 134              		.cfi_offset 4, -8
 135              		.cfi_offset 14, -4
 136              	.LBB5:
 137              		.loc 1 117 0
 138 0002 2023     		movs	r3, #32
 139              	.LBE5:
 140              		.loc 1 113 0
 141 0004 0446     		mov	r4, r0
 142              	.LBB6:
 143              		.loc 1 117 0
 144              	@ 117 "../ChibiStudio/ChibiOS/os/hal/src/dcmi.c" 1
 145 0006 83F31188 		msr     BASEPRI, r3
 146              	@ 0 "" 2
 147              		.thumb
 148              	.LBE6:
 149              		.loc 1 120 0
 150 000a FFF7FEFF 		bl	dcmi_lld_stop
 151              	.LVL5:
 152              		.loc 1 121 0
 153 000e 0123     		movs	r3, #1
 154 0010 2370     		strb	r3, [r4]
 155              	.LBB7:
 156              		.loc 1 122 0
 157 0012 0023     		movs	r3, #0
 158              	@ 122 "../ChibiStudio/ChibiOS/os/hal/src/dcmi.c" 1
 159 0014 83F31188 		msr     BASEPRI, r3
 160              	@ 0 "" 2
 161              		.thumb
 162 0018 10BD     		pop	{r4, pc}
 163              	.LBE7:
 164              		.cfi_endproc
 165              	.LFE121:
 166              		.size	dcmiStop, .-dcmiStop
 167 001a 00BFAFF3 		.section	.text.dcmiStartReceive,"ax",%progbits
 167      0080
 168              		.align	2
ARM GAS  /var/folders/4k/6h5l9jl178sb4hslwv3xp1mr0000gn/T//ccl6lYcp.s 			page 4


 169              		.p2align 4,,15
 170              		.global	dcmiStartReceive
 171              		.thumb
 172              		.thumb_func
 173              		.type	dcmiStartReceive, %function
 174              	dcmiStartReceive:
 175              	.LFB122:
 176              		.loc 1 142 0
 177              		.cfi_startproc
 178              		@ args = 0, pretend = 0, frame = 0
 179              		@ frame_needed = 0, uses_anonymous_args = 0
 180              	.LVL6:
 181 0000 30B5     		push	{r4, r5, lr}
 182              		.cfi_def_cfa_offset 12
 183              		.cfi_offset 4, -12
 184              		.cfi_offset 5, -8
 185              		.cfi_offset 14, -4
 186 0002 1C46     		mov	r4, r3
 187 0004 83B0     		sub	sp, sp, #12
 188              		.cfi_def_cfa_offset 24
 189              	.LBB8:
 190              		.loc 1 147 0
 191 0006 2023     		movs	r3, #32
 192              	.LVL7:
 193              	@ 147 "../ChibiStudio/ChibiOS/os/hal/src/dcmi.c" 1
 194 0008 83F31188 		msr     BASEPRI, r3
 195              	@ 0 "" 2
 196              		.thumb
 197              	.LBE8:
 198              		.loc 1 149 0
 199 000c 0325     		movs	r5, #3
 200 000e 1346     		mov	r3, r2
 201 0010 0094     		str	r4, [sp]
 202 0012 0570     		strb	r5, [r0]
 203 0014 0022     		movs	r2, #0
 204              	.LVL8:
 205 0016 FFF7FEFF 		bl	dcmi_lld_receive
 206              	.LVL9:
 207              	.LBB9:
 208              		.loc 1 150 0
 209 001a 0023     		movs	r3, #0
 210              	@ 150 "../ChibiStudio/ChibiOS/os/hal/src/dcmi.c" 1
 211 001c 83F31188 		msr     BASEPRI, r3
 212              	@ 0 "" 2
 213              		.thumb
 214              	.LBE9:
 215              		.loc 1 151 0
 216 0020 03B0     		add	sp, sp, #12
 217              		@ sp needed
 218 0022 30BD     		pop	{r4, r5, pc}
 219              		.cfi_endproc
 220              	.LFE122:
 221              		.size	dcmiStartReceive, .-dcmiStartReceive
 222 0024 AFF30080 		.section	.text.dcmiStartReceiveOneShot,"ax",%progbits
 222      AFF30080 
 222      AFF30080 
 223              		.align	2
ARM GAS  /var/folders/4k/6h5l9jl178sb4hslwv3xp1mr0000gn/T//ccl6lYcp.s 			page 5


 224              		.p2align 4,,15
 225              		.global	dcmiStartReceiveOneShot
 226              		.thumb
 227              		.thumb_func
 228              		.type	dcmiStartReceiveOneShot, %function
 229              	dcmiStartReceiveOneShot:
 230              	.LFB123:
 231              		.loc 1 169 0
 232              		.cfi_startproc
 233              		@ args = 0, pretend = 0, frame = 0
 234              		@ frame_needed = 0, uses_anonymous_args = 0
 235              	.LVL10:
 236 0000 30B5     		push	{r4, r5, lr}
 237              		.cfi_def_cfa_offset 12
 238              		.cfi_offset 4, -12
 239              		.cfi_offset 5, -8
 240              		.cfi_offset 14, -4
 241 0002 1C46     		mov	r4, r3
 242 0004 83B0     		sub	sp, sp, #12
 243              		.cfi_def_cfa_offset 24
 244              	.LBB10:
 245              		.loc 1 173 0
 246 0006 2023     		movs	r3, #32
 247              	.LVL11:
 248              	@ 173 "../ChibiStudio/ChibiOS/os/hal/src/dcmi.c" 1
 249 0008 83F31188 		msr     BASEPRI, r3
 250              	@ 0 "" 2
 251              		.thumb
 252              	.LBE10:
 253              		.loc 1 175 0
 254 000c 0425     		movs	r5, #4
 255 000e 1346     		mov	r3, r2
 256 0010 0094     		str	r4, [sp]
 257 0012 0570     		strb	r5, [r0]
 258 0014 0122     		movs	r2, #1
 259              	.LVL12:
 260 0016 FFF7FEFF 		bl	dcmi_lld_receive
 261              	.LVL13:
 262              	.LBB11:
 263              		.loc 1 176 0
 264 001a 0023     		movs	r3, #0
 265              	@ 176 "../ChibiStudio/ChibiOS/os/hal/src/dcmi.c" 1
 266 001c 83F31188 		msr     BASEPRI, r3
 267              	@ 0 "" 2
 268              		.thumb
 269              	.LBE11:
 270              		.loc 1 177 0
 271 0020 03B0     		add	sp, sp, #12
 272              		@ sp needed
 273 0022 30BD     		pop	{r4, r5, pc}
 274              		.cfi_endproc
 275              	.LFE123:
 276              		.size	dcmiStartReceiveOneShot, .-dcmiStartReceiveOneShot
 277 0024 AFF30080 		.section	.text.dcmiReceiveOneShot,"ax",%progbits
 277      AFF30080 
 277      AFF30080 
 278              		.align	2
ARM GAS  /var/folders/4k/6h5l9jl178sb4hslwv3xp1mr0000gn/T//ccl6lYcp.s 			page 6


 279              		.p2align 4,,15
 280              		.global	dcmiReceiveOneShot
 281              		.thumb
 282              		.thumb_func
 283              		.type	dcmiReceiveOneShot, %function
 284              	dcmiReceiveOneShot:
 285              	.LFB124:
 286              		.loc 1 197 0
 287              		.cfi_startproc
 288              		@ args = 0, pretend = 0, frame = 0
 289              		@ frame_needed = 0, uses_anonymous_args = 0
 290              	.LVL14:
 291 0000 30B5     		push	{r4, r5, lr}
 292              		.cfi_def_cfa_offset 12
 293              		.cfi_offset 4, -12
 294              		.cfi_offset 5, -8
 295              		.cfi_offset 14, -4
 296 0002 1D46     		mov	r5, r3
 297 0004 83B0     		sub	sp, sp, #12
 298              		.cfi_def_cfa_offset 24
 299              		.loc 1 197 0
 300 0006 0446     		mov	r4, r0
 301              	.LBB12:
 302              		.loc 1 201 0
 303 0008 2023     		movs	r3, #32
 304              	.LVL15:
 305              	@ 201 "../ChibiStudio/ChibiOS/os/hal/src/dcmi.c" 1
 306 000a 83F31188 		msr     BASEPRI, r3
 307              	@ 0 "" 2
 308              		.thumb
 309              	.LBE12:
 310              		.loc 1 205 0
 311 000e 0420     		movs	r0, #4
 312              	.LVL16:
 313 0010 0095     		str	r5, [sp]
 314 0012 1346     		mov	r3, r2
 315 0014 2070     		strb	r0, [r4]
 316 0016 0122     		movs	r2, #1
 317              	.LVL17:
 318 0018 2046     		mov	r0, r4
 319 001a FFF7FEFF 		bl	dcmi_lld_receive
 320              	.LVL18:
 321              	.LBB13:
 322              		.loc 1 206 0
 323 001e 0023     		movs	r3, #0
 324              	@ 206 "../ChibiStudio/ChibiOS/os/hal/src/dcmi.c" 1
 325 0020 83F31188 		msr     BASEPRI, r3
 326              	@ 0 "" 2
 327              		.thumb
 328              	.LBE13:
 329              		.loc 1 207 0
 330 0024 044B     		ldr	r3, .L8
 331 0026 9B69     		ldr	r3, [r3, #24]
 332 0028 A360     		str	r3, [r4, #8]
 333 002a 0220     		movs	r0, #2
 334              		.loc 1 208 0
 335 002c 03B0     		add	sp, sp, #12
ARM GAS  /var/folders/4k/6h5l9jl178sb4hslwv3xp1mr0000gn/T//ccl6lYcp.s 			page 7


 336              		@ sp needed
 337 002e BDE83040 		pop	{r4, r5, lr}
 338              	.LVL19:
 339              		.loc 1 207 0
 340 0032 FFF7FEBF 		b	chSchGoSleepS
 341              	.LVL20:
 342              	.L9:
 343 0036 00BF     		.align	2
 344              	.L8:
 345 0038 00000000 		.word	rlist
 346              		.cfi_endproc
 347              	.LFE124:
 348              		.size	dcmiReceiveOneShot, .-dcmiReceiveOneShot
 349 003c AFF30080 		.text
 350              	.Letext0:
 351              		.file 2 "/Users/mikevanis/Documents/workspace/gcc-arm-none-eabi-4_8-2014q1/lib/gcc/arm-none-eabi/4
 352              		.file 3 "/Users/mikevanis/Documents/workspace/gcc-arm-none-eabi-4_8-2014q1/arm-none-eabi/include/m
 353              		.file 4 "/Users/mikevanis/Documents/workspace/gcc-arm-none-eabi-4_8-2014q1/arm-none-eabi/include/s
 354              		.file 5 "../ChibiStudio/ChibiOS/os/ports/GCC/ARMCMx/chtypes.h"
 355              		.file 6 "../ChibiStudio/ChibiOS/os/kernel/include/chlists.h"
 356              		.file 7 "../ChibiStudio/ChibiOS/os/kernel/include/chthreads.h"
 357              		.file 8 "../ChibiStudio/ChibiOS/os/ports/GCC/ARMCMx/chcore_v7m.h"
 358              		.file 9 "../ChibiStudio/ChibiOS/os/kernel/include/chschd.h"
 359              		.file 10 "../ChibiStudio/ChibiOS/os/kernel/include/chmtx.h"
 360              		.file 11 "../ChibiStudio/ChibiOS/os/hal/platforms/STM32F4xx/stm32f4xx.h"
 361              		.file 12 "../ChibiStudio/ChibiOS/os/hal/platforms/STM32F4xx/stm32_dma.h"
 362              		.file 13 "../ChibiStudio/ChibiOS/os/hal/include/dcmi.h"
 363              		.file 14 "../ChibiStudio/ChibiOS/os/hal/platforms/STM32F4xx/dcmi_lld.h"
 364              		.file 15 "../ChibiStudio/ChibiOS/os/ports/common/ARMCMx/CMSIS/include/core_cm4.h"
 365              		.section	.debug_info,"",%progbits
 366              	.Ldebug_info0:
 367 0000 410A0000 		.4byte	0xa41
 368 0004 0400     		.2byte	0x4
 369 0006 00000000 		.4byte	.Ldebug_abbrev0
 370 000a 04       		.byte	0x4
 371 000b 01       		.uleb128 0x1
 372 000c D5020000 		.4byte	.LASF118
 373 0010 01       		.byte	0x1
 374 0011 19000000 		.4byte	.LASF119
 375 0015 2E040000 		.4byte	.LASF120
 376 0019 30000000 		.4byte	.Ldebug_ranges0+0x30
 377 001d 00000000 		.4byte	0
 378 0021 00000000 		.4byte	.Ldebug_line0
 379 0025 02       		.uleb128 0x2
 380 0026 04       		.byte	0x4
 381 0027 05       		.byte	0x5
 382 0028 696E7400 		.ascii	"int\000"
 383 002c 03       		.uleb128 0x3
 384 002d 0B000000 		.4byte	.LASF2
 385 0031 02       		.byte	0x2
 386 0032 D4       		.byte	0xd4
 387 0033 37000000 		.4byte	0x37
 388 0037 04       		.uleb128 0x4
 389 0038 04       		.byte	0x4
 390 0039 07       		.byte	0x7
 391 003a 6A010000 		.4byte	.LASF0
 392 003e 04       		.uleb128 0x4
ARM GAS  /var/folders/4k/6h5l9jl178sb4hslwv3xp1mr0000gn/T//ccl6lYcp.s 			page 8


 393 003f 01       		.byte	0x1
 394 0040 06       		.byte	0x6
 395 0041 97000000 		.4byte	.LASF1
 396 0045 03       		.uleb128 0x3
 397 0046 42000000 		.4byte	.LASF3
 398 004a 03       		.byte	0x3
 399 004b 1C       		.byte	0x1c
 400 004c 50000000 		.4byte	0x50
 401 0050 04       		.uleb128 0x4
 402 0051 01       		.byte	0x1
 403 0052 08       		.byte	0x8
 404 0053 C7020000 		.4byte	.LASF4
 405 0057 04       		.uleb128 0x4
 406 0058 02       		.byte	0x2
 407 0059 05       		.byte	0x5
 408 005a C6030000 		.4byte	.LASF5
 409 005e 04       		.uleb128 0x4
 410 005f 02       		.byte	0x2
 411 0060 07       		.byte	0x7
 412 0061 BA010000 		.4byte	.LASF6
 413 0065 03       		.uleb128 0x3
 414 0066 E3040000 		.4byte	.LASF7
 415 006a 03       		.byte	0x3
 416 006b 37       		.byte	0x37
 417 006c 70000000 		.4byte	0x70
 418 0070 04       		.uleb128 0x4
 419 0071 04       		.byte	0x4
 420 0072 05       		.byte	0x5
 421 0073 F0000000 		.4byte	.LASF8
 422 0077 03       		.uleb128 0x3
 423 0078 ED040000 		.4byte	.LASF9
 424 007c 03       		.byte	0x3
 425 007d 38       		.byte	0x38
 426 007e 82000000 		.4byte	0x82
 427 0082 04       		.uleb128 0x4
 428 0083 04       		.byte	0x4
 429 0084 07       		.byte	0x7
 430 0085 A9040000 		.4byte	.LASF10
 431 0089 04       		.uleb128 0x4
 432 008a 08       		.byte	0x8
 433 008b 05       		.byte	0x5
 434 008c 89000000 		.4byte	.LASF11
 435 0090 04       		.uleb128 0x4
 436 0091 08       		.byte	0x8
 437 0092 07       		.byte	0x7
 438 0093 4C000000 		.4byte	.LASF12
 439 0097 03       		.uleb128 0x3
 440 0098 8E050000 		.4byte	.LASF13
 441 009c 04       		.byte	0x4
 442 009d 2A       		.byte	0x2a
 443 009e 45000000 		.4byte	0x45
 444 00a2 03       		.uleb128 0x3
 445 00a3 BF020000 		.4byte	.LASF14
 446 00a7 04       		.byte	0x4
 447 00a8 41       		.byte	0x41
 448 00a9 65000000 		.4byte	0x65
 449 00ad 03       		.uleb128 0x3
ARM GAS  /var/folders/4k/6h5l9jl178sb4hslwv3xp1mr0000gn/T//ccl6lYcp.s 			page 9


 450 00ae 8A040000 		.4byte	.LASF15
 451 00b2 04       		.byte	0x4
 452 00b3 42       		.byte	0x42
 453 00b4 77000000 		.4byte	0x77
 454 00b8 03       		.uleb128 0x3
 455 00b9 C0000000 		.4byte	.LASF16
 456 00bd 05       		.byte	0x5
 457 00be 2B       		.byte	0x2b
 458 00bf C3000000 		.4byte	0xc3
 459 00c3 04       		.uleb128 0x4
 460 00c4 01       		.byte	0x1
 461 00c5 02       		.byte	0x2
 462 00c6 B9020000 		.4byte	.LASF17
 463 00ca 03       		.uleb128 0x3
 464 00cb EF010000 		.4byte	.LASF18
 465 00cf 05       		.byte	0x5
 466 00d0 2C       		.byte	0x2c
 467 00d1 97000000 		.4byte	0x97
 468 00d5 03       		.uleb128 0x3
 469 00d6 12010000 		.4byte	.LASF19
 470 00da 05       		.byte	0x5
 471 00db 2D       		.byte	0x2d
 472 00dc 97000000 		.4byte	0x97
 473 00e0 03       		.uleb128 0x3
 474 00e1 72020000 		.4byte	.LASF20
 475 00e5 05       		.byte	0x5
 476 00e6 2E       		.byte	0x2e
 477 00e7 97000000 		.4byte	0x97
 478 00eb 03       		.uleb128 0x3
 479 00ec CF000000 		.4byte	.LASF21
 480 00f0 05       		.byte	0x5
 481 00f1 2F       		.byte	0x2f
 482 00f2 97000000 		.4byte	0x97
 483 00f6 03       		.uleb128 0x3
 484 00f7 94020000 		.4byte	.LASF22
 485 00fb 05       		.byte	0x5
 486 00fc 30       		.byte	0x30
 487 00fd AD000000 		.4byte	0xad
 488 0101 03       		.uleb128 0x3
 489 0102 D8010000 		.4byte	.LASF23
 490 0106 05       		.byte	0x5
 491 0107 31       		.byte	0x31
 492 0108 A2000000 		.4byte	0xa2
 493 010c 03       		.uleb128 0x3
 494 010d 03020000 		.4byte	.LASF24
 495 0111 05       		.byte	0x5
 496 0112 33       		.byte	0x33
 497 0113 AD000000 		.4byte	0xad
 498 0117 03       		.uleb128 0x3
 499 0118 CE040000 		.4byte	.LASF25
 500 011c 05       		.byte	0x5
 501 011d 35       		.byte	0x35
 502 011e AD000000 		.4byte	0xad
 503 0122 03       		.uleb128 0x3
 504 0123 27040000 		.4byte	.LASF26
 505 0127 06       		.byte	0x6
 506 0128 2A       		.byte	0x2a
ARM GAS  /var/folders/4k/6h5l9jl178sb4hslwv3xp1mr0000gn/T//ccl6lYcp.s 			page 10


 507 0129 2D010000 		.4byte	0x12d
 508 012d 05       		.uleb128 0x5
 509 012e 27040000 		.4byte	.LASF26
 510 0132 48       		.byte	0x48
 511 0133 07       		.byte	0x7
 512 0134 5E       		.byte	0x5e
 513 0135 2A020000 		.4byte	0x22a
 514 0139 06       		.uleb128 0x6
 515 013a FC030000 		.4byte	.LASF27
 516 013e 07       		.byte	0x7
 517 013f 5F       		.byte	0x5f
 518 0140 4B020000 		.4byte	0x24b
 519 0144 00       		.byte	0
 520 0145 06       		.uleb128 0x6
 521 0146 7A020000 		.4byte	.LASF28
 522 014a 07       		.byte	0x7
 523 014b 61       		.byte	0x61
 524 014c 4B020000 		.4byte	0x24b
 525 0150 04       		.byte	0x4
 526 0151 06       		.uleb128 0x6
 527 0152 82000000 		.4byte	.LASF29
 528 0156 07       		.byte	0x7
 529 0157 63       		.byte	0x63
 530 0158 F6000000 		.4byte	0xf6
 531 015c 08       		.byte	0x8
 532 015d 06       		.uleb128 0x6
 533 015e C3050000 		.4byte	.LASF30
 534 0162 07       		.byte	0x7
 535 0163 64       		.byte	0x64
 536 0164 05030000 		.4byte	0x305
 537 0168 0C       		.byte	0xc
 538 0169 06       		.uleb128 0x6
 539 016a 3D010000 		.4byte	.LASF31
 540 016e 07       		.byte	0x7
 541 016f 66       		.byte	0x66
 542 0170 4B020000 		.4byte	0x24b
 543 0174 10       		.byte	0x10
 544 0175 06       		.uleb128 0x6
 545 0176 27020000 		.4byte	.LASF32
 546 017a 07       		.byte	0x7
 547 017b 67       		.byte	0x67
 548 017c 4B020000 		.4byte	0x24b
 549 0180 14       		.byte	0x14
 550 0181 06       		.uleb128 0x6
 551 0182 9D050000 		.4byte	.LASF33
 552 0186 07       		.byte	0x7
 553 0187 6E       		.byte	0x6e
 554 0188 0A040000 		.4byte	0x40a
 555 018c 18       		.byte	0x18
 556 018d 06       		.uleb128 0x6
 557 018e D0030000 		.4byte	.LASF34
 558 0192 07       		.byte	0x7
 559 0193 79       		.byte	0x79
 560 0194 D5000000 		.4byte	0xd5
 561 0198 1C       		.byte	0x1c
 562 0199 06       		.uleb128 0x6
 563 019a 10040000 		.4byte	.LASF35
ARM GAS  /var/folders/4k/6h5l9jl178sb4hslwv3xp1mr0000gn/T//ccl6lYcp.s 			page 11


 564 019e 07       		.byte	0x7
 565 019f 7D       		.byte	0x7d
 566 01a0 CA000000 		.4byte	0xca
 567 01a4 1D       		.byte	0x1d
 568 01a5 06       		.uleb128 0x6
 569 01a6 20010000 		.4byte	.LASF36
 570 01aa 07       		.byte	0x7
 571 01ab 82       		.byte	0x82
 572 01ac E0000000 		.4byte	0xe0
 573 01b0 1E       		.byte	0x1e
 574 01b1 06       		.uleb128 0x6
 575 01b2 D8030000 		.4byte	.LASF37
 576 01b6 07       		.byte	0x7
 577 01b7 88       		.byte	0x88
 578 01b8 EB000000 		.4byte	0xeb
 579 01bc 1F       		.byte	0x1f
 580 01bd 06       		.uleb128 0x6
 581 01be 36010000 		.4byte	.LASF38
 582 01c2 07       		.byte	0x7
 583 01c3 8F       		.byte	0x8f
 584 01c4 32030000 		.4byte	0x332
 585 01c8 20       		.byte	0x20
 586 01c9 07       		.uleb128 0x7
 587 01ca 705F7500 		.ascii	"p_u\000"
 588 01ce 07       		.byte	0x7
 589 01cf B4       		.byte	0xb4
 590 01d0 D5030000 		.4byte	0x3d5
 591 01d4 24       		.byte	0x24
 592 01d5 06       		.uleb128 0x6
 593 01d6 C9050000 		.4byte	.LASF39
 594 01da 07       		.byte	0x7
 595 01db B9       		.byte	0xb9
 596 01dc 71020000 		.4byte	0x271
 597 01e0 28       		.byte	0x28
 598 01e1 06       		.uleb128 0x6
 599 01e2 9C010000 		.4byte	.LASF40
 600 01e6 07       		.byte	0x7
 601 01e7 BF       		.byte	0xbf
 602 01e8 51020000 		.4byte	0x251
 603 01ec 2C       		.byte	0x2c
 604 01ed 06       		.uleb128 0x6
 605 01ee A4050000 		.4byte	.LASF41
 606 01f2 07       		.byte	0x7
 607 01f3 C3       		.byte	0xc3
 608 01f4 01010000 		.4byte	0x101
 609 01f8 34       		.byte	0x34
 610 01f9 06       		.uleb128 0x6
 611 01fa 74040000 		.4byte	.LASF42
 612 01fe 07       		.byte	0x7
 613 01ff C9       		.byte	0xc9
 614 0200 0C010000 		.4byte	0x10c
 615 0204 38       		.byte	0x38
 616 0205 06       		.uleb128 0x6
 617 0206 BC030000 		.4byte	.LASF43
 618 020a 07       		.byte	0x7
 619 020b D0       		.byte	0xd0
 620 020c 1C040000 		.4byte	0x41c
ARM GAS  /var/folders/4k/6h5l9jl178sb4hslwv3xp1mr0000gn/T//ccl6lYcp.s 			page 12


 621 0210 3C       		.byte	0x3c
 622 0211 06       		.uleb128 0x6
 623 0212 D8040000 		.4byte	.LASF44
 624 0216 07       		.byte	0x7
 625 0217 D4       		.byte	0xd4
 626 0218 F6000000 		.4byte	0xf6
 627 021c 40       		.byte	0x40
 628 021d 06       		.uleb128 0x6
 629 021e B8000000 		.4byte	.LASF45
 630 0222 07       		.byte	0x7
 631 0223 DA       		.byte	0xda
 632 0224 87020000 		.4byte	0x287
 633 0228 44       		.byte	0x44
 634 0229 00       		.byte	0
 635 022a 08       		.uleb128 0x8
 636 022b 08       		.byte	0x8
 637 022c 06       		.byte	0x6
 638 022d 61       		.byte	0x61
 639 022e 4B020000 		.4byte	0x24b
 640 0232 06       		.uleb128 0x6
 641 0233 FC030000 		.4byte	.LASF27
 642 0237 06       		.byte	0x6
 643 0238 62       		.byte	0x62
 644 0239 4B020000 		.4byte	0x24b
 645 023d 00       		.byte	0
 646 023e 06       		.uleb128 0x6
 647 023f 7A020000 		.4byte	.LASF28
 648 0243 06       		.byte	0x6
 649 0244 64       		.byte	0x64
 650 0245 4B020000 		.4byte	0x24b
 651 0249 04       		.byte	0x4
 652 024a 00       		.byte	0
 653 024b 09       		.uleb128 0x9
 654 024c 04       		.byte	0x4
 655 024d 22010000 		.4byte	0x122
 656 0251 03       		.uleb128 0x3
 657 0252 41020000 		.4byte	.LASF46
 658 0256 06       		.byte	0x6
 659 0257 66       		.byte	0x66
 660 0258 2A020000 		.4byte	0x22a
 661 025c 08       		.uleb128 0x8
 662 025d 04       		.byte	0x4
 663 025e 06       		.byte	0x6
 664 025f 6B       		.byte	0x6b
 665 0260 71020000 		.4byte	0x271
 666 0264 06       		.uleb128 0x6
 667 0265 FC030000 		.4byte	.LASF27
 668 0269 06       		.byte	0x6
 669 026a 6D       		.byte	0x6d
 670 026b 4B020000 		.4byte	0x24b
 671 026f 00       		.byte	0
 672 0270 00       		.byte	0
 673 0271 03       		.uleb128 0x3
 674 0272 F7010000 		.4byte	.LASF47
 675 0276 06       		.byte	0x6
 676 0277 70       		.byte	0x70
 677 0278 5C020000 		.4byte	0x25c
ARM GAS  /var/folders/4k/6h5l9jl178sb4hslwv3xp1mr0000gn/T//ccl6lYcp.s 			page 13


 678 027c 03       		.uleb128 0x3
 679 027d 57010000 		.4byte	.LASF48
 680 0281 08       		.byte	0x8
 681 0282 E5       		.byte	0xe5
 682 0283 87020000 		.4byte	0x287
 683 0287 0A       		.uleb128 0xa
 684 0288 04       		.byte	0x4
 685 0289 0B       		.uleb128 0xb
 686 028a 2D050000 		.4byte	.LASF49
 687 028e 24       		.byte	0x24
 688 028f 08       		.byte	0x8
 689 0290 0C01     		.2byte	0x10c
 690 0292 05030000 		.4byte	0x305
 691 0296 0C       		.uleb128 0xc
 692 0297 723400   		.ascii	"r4\000"
 693 029a 08       		.byte	0x8
 694 029b 1F01     		.2byte	0x11f
 695 029d 7C020000 		.4byte	0x27c
 696 02a1 00       		.byte	0
 697 02a2 0C       		.uleb128 0xc
 698 02a3 723500   		.ascii	"r5\000"
 699 02a6 08       		.byte	0x8
 700 02a7 2001     		.2byte	0x120
 701 02a9 7C020000 		.4byte	0x27c
 702 02ad 04       		.byte	0x4
 703 02ae 0C       		.uleb128 0xc
 704 02af 723600   		.ascii	"r6\000"
 705 02b2 08       		.byte	0x8
 706 02b3 2101     		.2byte	0x121
 707 02b5 7C020000 		.4byte	0x27c
 708 02b9 08       		.byte	0x8
 709 02ba 0C       		.uleb128 0xc
 710 02bb 723700   		.ascii	"r7\000"
 711 02be 08       		.byte	0x8
 712 02bf 2201     		.2byte	0x122
 713 02c1 7C020000 		.4byte	0x27c
 714 02c5 0C       		.byte	0xc
 715 02c6 0C       		.uleb128 0xc
 716 02c7 723800   		.ascii	"r8\000"
 717 02ca 08       		.byte	0x8
 718 02cb 2301     		.2byte	0x123
 719 02cd 7C020000 		.4byte	0x27c
 720 02d1 10       		.byte	0x10
 721 02d2 0C       		.uleb128 0xc
 722 02d3 723900   		.ascii	"r9\000"
 723 02d6 08       		.byte	0x8
 724 02d7 2401     		.2byte	0x124
 725 02d9 7C020000 		.4byte	0x27c
 726 02dd 14       		.byte	0x14
 727 02de 0C       		.uleb128 0xc
 728 02df 72313000 		.ascii	"r10\000"
 729 02e3 08       		.byte	0x8
 730 02e4 2501     		.2byte	0x125
 731 02e6 7C020000 		.4byte	0x27c
 732 02ea 18       		.byte	0x18
 733 02eb 0C       		.uleb128 0xc
 734 02ec 72313100 		.ascii	"r11\000"
ARM GAS  /var/folders/4k/6h5l9jl178sb4hslwv3xp1mr0000gn/T//ccl6lYcp.s 			page 14


 735 02f0 08       		.byte	0x8
 736 02f1 2601     		.2byte	0x126
 737 02f3 7C020000 		.4byte	0x27c
 738 02f7 1C       		.byte	0x1c
 739 02f8 0C       		.uleb128 0xc
 740 02f9 6C7200   		.ascii	"lr\000"
 741 02fc 08       		.byte	0x8
 742 02fd 2701     		.2byte	0x127
 743 02ff 7C020000 		.4byte	0x27c
 744 0303 20       		.byte	0x20
 745 0304 00       		.byte	0
 746 0305 0B       		.uleb128 0xb
 747 0306 10050000 		.4byte	.LASF50
 748 030a 04       		.byte	0x4
 749 030b 08       		.byte	0x8
 750 030c 3101     		.2byte	0x131
 751 030e 20030000 		.4byte	0x320
 752 0312 0C       		.uleb128 0xc
 753 0313 72313300 		.ascii	"r13\000"
 754 0317 08       		.byte	0x8
 755 0318 3201     		.2byte	0x132
 756 031a 20030000 		.4byte	0x320
 757 031e 00       		.byte	0
 758 031f 00       		.byte	0
 759 0320 09       		.uleb128 0x9
 760 0321 04       		.byte	0x4
 761 0322 89020000 		.4byte	0x289
 762 0326 0D       		.uleb128 0xd
 763 0327 AD000000 		.4byte	0xad
 764 032b 04       		.uleb128 0x4
 765 032c 04       		.byte	0x4
 766 032d 07       		.byte	0x7
 767 032e 18020000 		.4byte	.LASF51
 768 0332 0D       		.uleb128 0xd
 769 0333 17010000 		.4byte	0x117
 770 0337 08       		.uleb128 0x8
 771 0338 1C       		.byte	0x1c
 772 0339 09       		.byte	0x9
 773 033a 5E       		.byte	0x5e
 774 033b 88030000 		.4byte	0x388
 775 033f 06       		.uleb128 0x6
 776 0340 93040000 		.4byte	.LASF52
 777 0344 09       		.byte	0x9
 778 0345 5F       		.byte	0x5f
 779 0346 51020000 		.4byte	0x251
 780 034a 00       		.byte	0
 781 034b 06       		.uleb128 0x6
 782 034c E2030000 		.4byte	.LASF53
 783 0350 09       		.byte	0x9
 784 0351 60       		.byte	0x60
 785 0352 F6000000 		.4byte	0xf6
 786 0356 08       		.byte	0x8
 787 0357 06       		.uleb128 0x6
 788 0358 2F020000 		.4byte	.LASF54
 789 035c 09       		.byte	0x9
 790 035d 62       		.byte	0x62
 791 035e 05030000 		.4byte	0x305
ARM GAS  /var/folders/4k/6h5l9jl178sb4hslwv3xp1mr0000gn/T//ccl6lYcp.s 			page 15


 792 0362 0C       		.byte	0xc
 793 0363 06       		.uleb128 0x6
 794 0364 4F010000 		.4byte	.LASF55
 795 0368 09       		.byte	0x9
 796 0369 65       		.byte	0x65
 797 036a 4B020000 		.4byte	0x24b
 798 036e 10       		.byte	0x10
 799 036f 06       		.uleb128 0x6
 800 0370 58020000 		.4byte	.LASF56
 801 0374 09       		.byte	0x9
 802 0375 66       		.byte	0x66
 803 0376 4B020000 		.4byte	0x24b
 804 037a 14       		.byte	0x14
 805 037b 06       		.uleb128 0x6
 806 037c 4E020000 		.4byte	.LASF57
 807 0380 09       		.byte	0x9
 808 0381 69       		.byte	0x69
 809 0382 4B020000 		.4byte	0x24b
 810 0386 18       		.byte	0x18
 811 0387 00       		.byte	0
 812 0388 03       		.uleb128 0x3
 813 0389 75050000 		.4byte	.LASF58
 814 038d 09       		.byte	0x9
 815 038e 6B       		.byte	0x6b
 816 038f 37030000 		.4byte	0x337
 817 0393 05       		.uleb128 0x5
 818 0394 21020000 		.4byte	.LASF59
 819 0398 10       		.byte	0x10
 820 0399 0A       		.byte	0xa
 821 039a 2C       		.byte	0x2c
 822 039b C4030000 		.4byte	0x3c4
 823 039f 06       		.uleb128 0x6
 824 03a0 C7000000 		.4byte	.LASF60
 825 03a4 0A       		.byte	0xa
 826 03a5 2D       		.byte	0x2d
 827 03a6 51020000 		.4byte	0x251
 828 03aa 00       		.byte	0
 829 03ab 06       		.uleb128 0x6
 830 03ac BB050000 		.4byte	.LASF61
 831 03b0 0A       		.byte	0xa
 832 03b1 2F       		.byte	0x2f
 833 03b2 4B020000 		.4byte	0x24b
 834 03b6 08       		.byte	0x8
 835 03b7 06       		.uleb128 0x6
 836 03b8 C7040000 		.4byte	.LASF62
 837 03bc 0A       		.byte	0xa
 838 03bd 31       		.byte	0x31
 839 03be C4030000 		.4byte	0x3c4
 840 03c2 0C       		.byte	0xc
 841 03c3 00       		.byte	0
 842 03c4 09       		.uleb128 0x9
 843 03c5 04       		.byte	0x4
 844 03c6 93030000 		.4byte	0x393
 845 03ca 03       		.uleb128 0x3
 846 03cb 21020000 		.4byte	.LASF59
 847 03cf 0A       		.byte	0xa
 848 03d0 33       		.byte	0x33
ARM GAS  /var/folders/4k/6h5l9jl178sb4hslwv3xp1mr0000gn/T//ccl6lYcp.s 			page 16


 849 03d1 93030000 		.4byte	0x393
 850 03d5 0E       		.uleb128 0xe
 851 03d6 04       		.byte	0x4
 852 03d7 07       		.byte	0x7
 853 03d8 96       		.byte	0x96
 854 03d9 0A040000 		.4byte	0x40a
 855 03dd 0F       		.uleb128 0xf
 856 03de 12000000 		.4byte	.LASF63
 857 03e2 07       		.byte	0x7
 858 03e3 9D       		.byte	0x9d
 859 03e4 01010000 		.4byte	0x101
 860 03e8 0F       		.uleb128 0xf
 861 03e9 63000000 		.4byte	.LASF64
 862 03ed 07       		.byte	0x7
 863 03ee A4       		.byte	0xa4
 864 03ef 01010000 		.4byte	0x101
 865 03f3 0F       		.uleb128 0xf
 866 03f4 96050000 		.4byte	.LASF65
 867 03f8 07       		.byte	0x7
 868 03f9 AB       		.byte	0xab
 869 03fa 87020000 		.4byte	0x287
 870 03fe 0F       		.uleb128 0xf
 871 03ff F5030000 		.4byte	.LASF66
 872 0403 07       		.byte	0x7
 873 0404 B2       		.byte	0xb2
 874 0405 0C010000 		.4byte	0x10c
 875 0409 00       		.byte	0
 876 040a 09       		.uleb128 0x9
 877 040b 04       		.byte	0x4
 878 040c 10040000 		.4byte	0x410
 879 0410 10       		.uleb128 0x10
 880 0411 15040000 		.4byte	0x415
 881 0415 04       		.uleb128 0x4
 882 0416 01       		.byte	0x1
 883 0417 08       		.byte	0x8
 884 0418 BB040000 		.4byte	.LASF67
 885 041c 09       		.uleb128 0x9
 886 041d 04       		.byte	0x4
 887 041e CA030000 		.4byte	0x3ca
 888 0422 0D       		.uleb128 0xd
 889 0423 A2000000 		.4byte	0xa2
 890 0427 11       		.uleb128 0x11
 891 0428 2C       		.byte	0x2c
 892 0429 0B       		.byte	0xb
 893 042a 9E02     		.2byte	0x29e
 894 042c BD040000 		.4byte	0x4bd
 895 0430 0C       		.uleb128 0xc
 896 0431 435200   		.ascii	"CR\000"
 897 0434 0B       		.byte	0xb
 898 0435 A002     		.2byte	0x2a0
 899 0437 26030000 		.4byte	0x326
 900 043b 00       		.byte	0
 901 043c 0C       		.uleb128 0xc
 902 043d 535200   		.ascii	"SR\000"
 903 0440 0B       		.byte	0xb
 904 0441 A102     		.2byte	0x2a1
 905 0443 26030000 		.4byte	0x326
ARM GAS  /var/folders/4k/6h5l9jl178sb4hslwv3xp1mr0000gn/T//ccl6lYcp.s 			page 17


 906 0447 04       		.byte	0x4
 907 0448 12       		.uleb128 0x12
 908 0449 77010000 		.4byte	.LASF68
 909 044d 0B       		.byte	0xb
 910 044e A202     		.2byte	0x2a2
 911 0450 26030000 		.4byte	0x326
 912 0454 08       		.byte	0x8
 913 0455 0C       		.uleb128 0xc
 914 0456 49455200 		.ascii	"IER\000"
 915 045a 0B       		.byte	0xb
 916 045b A302     		.2byte	0x2a3
 917 045d 26030000 		.4byte	0x326
 918 0461 0C       		.byte	0xc
 919 0462 12       		.uleb128 0x12
 920 0463 70050000 		.4byte	.LASF69
 921 0467 0B       		.byte	0xb
 922 0468 A402     		.2byte	0x2a4
 923 046a 26030000 		.4byte	0x326
 924 046e 10       		.byte	0x10
 925 046f 0C       		.uleb128 0xc
 926 0470 49435200 		.ascii	"ICR\000"
 927 0474 0B       		.byte	0xb
 928 0475 A502     		.2byte	0x2a5
 929 0477 26030000 		.4byte	0x326
 930 047b 14       		.byte	0x14
 931 047c 12       		.uleb128 0x12
 932 047d 34050000 		.4byte	.LASF70
 933 0481 0B       		.byte	0xb
 934 0482 A602     		.2byte	0x2a6
 935 0484 26030000 		.4byte	0x326
 936 0488 18       		.byte	0x18
 937 0489 12       		.uleb128 0x12
 938 048a 1B010000 		.4byte	.LASF71
 939 048e 0B       		.byte	0xb
 940 048f A702     		.2byte	0x2a7
 941 0491 26030000 		.4byte	0x326
 942 0495 1C       		.byte	0x1c
 943 0496 12       		.uleb128 0x12
 944 0497 60020000 		.4byte	.LASF72
 945 049b 0B       		.byte	0xb
 946 049c A802     		.2byte	0x2a8
 947 049e 26030000 		.4byte	0x326
 948 04a2 20       		.byte	0x20
 949 04a3 12       		.uleb128 0x12
 950 04a4 B2010000 		.4byte	.LASF73
 951 04a8 0B       		.byte	0xb
 952 04a9 A902     		.2byte	0x2a9
 953 04ab 26030000 		.4byte	0x326
 954 04af 24       		.byte	0x24
 955 04b0 0C       		.uleb128 0xc
 956 04b1 445200   		.ascii	"DR\000"
 957 04b4 0B       		.byte	0xb
 958 04b5 AA02     		.2byte	0x2aa
 959 04b7 26030000 		.4byte	0x326
 960 04bb 28       		.byte	0x28
 961 04bc 00       		.byte	0
 962 04bd 13       		.uleb128 0x13
ARM GAS  /var/folders/4k/6h5l9jl178sb4hslwv3xp1mr0000gn/T//ccl6lYcp.s 			page 18


 963 04be 7C010000 		.4byte	.LASF74
 964 04c2 0B       		.byte	0xb
 965 04c3 AB02     		.2byte	0x2ab
 966 04c5 27040000 		.4byte	0x427
 967 04c9 11       		.uleb128 0x11
 968 04ca 18       		.byte	0x18
 969 04cb 0B       		.byte	0xb
 970 04cc B102     		.2byte	0x2b1
 971 04ce 20050000 		.4byte	0x520
 972 04d2 0C       		.uleb128 0xc
 973 04d3 435200   		.ascii	"CR\000"
 974 04d6 0B       		.byte	0xb
 975 04d7 B302     		.2byte	0x2b3
 976 04d9 26030000 		.4byte	0x326
 977 04dd 00       		.byte	0
 978 04de 12       		.uleb128 0x12
 979 04df F8040000 		.4byte	.LASF75
 980 04e3 0B       		.byte	0xb
 981 04e4 B402     		.2byte	0x2b4
 982 04e6 26030000 		.4byte	0x326
 983 04ea 04       		.byte	0x4
 984 04eb 0C       		.uleb128 0xc
 985 04ec 50415200 		.ascii	"PAR\000"
 986 04f0 0B       		.byte	0xb
 987 04f1 B502     		.2byte	0x2b5
 988 04f3 26030000 		.4byte	0x326
 989 04f7 08       		.byte	0x8
 990 04f8 12       		.uleb128 0x12
 991 04f9 06000000 		.4byte	.LASF76
 992 04fd 0B       		.byte	0xb
 993 04fe B602     		.2byte	0x2b6
 994 0500 26030000 		.4byte	0x326
 995 0504 0C       		.byte	0xc
 996 0505 12       		.uleb128 0x12
 997 0506 39050000 		.4byte	.LASF77
 998 050a 0B       		.byte	0xb
 999 050b B702     		.2byte	0x2b7
 1000 050d 26030000 		.4byte	0x326
 1001 0511 10       		.byte	0x10
 1002 0512 0C       		.uleb128 0xc
 1003 0513 46435200 		.ascii	"FCR\000"
 1004 0517 0B       		.byte	0xb
 1005 0518 B802     		.2byte	0x2b8
 1006 051a 26030000 		.4byte	0x326
 1007 051e 14       		.byte	0x14
 1008 051f 00       		.byte	0
 1009 0520 13       		.uleb128 0x13
 1010 0521 FD040000 		.4byte	.LASF78
 1011 0525 0B       		.byte	0xb
 1012 0526 B902     		.2byte	0x2b9
 1013 0528 C9040000 		.4byte	0x4c9
 1014 052c 08       		.uleb128 0x8
 1015 052d 0C       		.byte	0xc
 1016 052e 0C       		.byte	0xc
 1017 052f DA       		.byte	0xda
 1018 0530 71050000 		.4byte	0x571
 1019 0534 06       		.uleb128 0x6
ARM GAS  /var/folders/4k/6h5l9jl178sb4hslwv3xp1mr0000gn/T//ccl6lYcp.s 			page 19


 1020 0535 AB020000 		.4byte	.LASF79
 1021 0539 0C       		.byte	0xc
 1022 053a DB       		.byte	0xdb
 1023 053b 71050000 		.4byte	0x571
 1024 053f 00       		.byte	0
 1025 0540 06       		.uleb128 0x6
 1026 0541 7F040000 		.4byte	.LASF80
 1027 0545 0C       		.byte	0xc
 1028 0546 DC       		.byte	0xdc
 1029 0547 77050000 		.4byte	0x577
 1030 054b 04       		.byte	0x4
 1031 054c 06       		.uleb128 0x6
 1032 054d A3000000 		.4byte	.LASF81
 1033 0551 0C       		.byte	0xc
 1034 0552 DD       		.byte	0xdd
 1035 0553 97000000 		.4byte	0x97
 1036 0557 08       		.byte	0x8
 1037 0558 06       		.uleb128 0x6
 1038 0559 60010000 		.4byte	.LASF82
 1039 055d 0C       		.byte	0xc
 1040 055e DF       		.byte	0xdf
 1041 055f 97000000 		.4byte	0x97
 1042 0563 09       		.byte	0x9
 1043 0564 06       		.uleb128 0x6
 1044 0565 6C000000 		.4byte	.LASF83
 1045 0569 0C       		.byte	0xc
 1046 056a E0       		.byte	0xe0
 1047 056b 97000000 		.4byte	0x97
 1048 056f 0A       		.byte	0xa
 1049 0570 00       		.byte	0
 1050 0571 09       		.uleb128 0x9
 1051 0572 04       		.byte	0x4
 1052 0573 20050000 		.4byte	0x520
 1053 0577 09       		.uleb128 0x9
 1054 0578 04       		.byte	0x4
 1055 0579 26030000 		.4byte	0x326
 1056 057d 03       		.uleb128 0x3
 1057 057e 81020000 		.4byte	.LASF84
 1058 0582 0C       		.byte	0xc
 1059 0583 E1       		.byte	0xe1
 1060 0584 2C050000 		.4byte	0x52c
 1061 0588 14       		.uleb128 0x14
 1062 0589 01       		.byte	0x1
 1063 058a 0D       		.byte	0xd
 1064 058b 3D       		.byte	0x3d
 1065 058c B5050000 		.4byte	0x5b5
 1066 0590 15       		.uleb128 0x15
 1067 0591 35020000 		.4byte	.LASF85
 1068 0595 00       		.sleb128 0
 1069 0596 15       		.uleb128 0x15
 1070 0597 78000000 		.4byte	.LASF86
 1071 059b 01       		.sleb128 1
 1072 059c 15       		.uleb128 0x15
 1073 059d CD010000 		.4byte	.LASF87
 1074 05a1 02       		.sleb128 2
 1075 05a2 15       		.uleb128 0x15
 1076 05a3 E9030000 		.4byte	.LASF88
ARM GAS  /var/folders/4k/6h5l9jl178sb4hslwv3xp1mr0000gn/T//ccl6lYcp.s 			page 20


 1077 05a7 03       		.sleb128 3
 1078 05a8 15       		.uleb128 0x15
 1079 05a9 DF000000 		.4byte	.LASF89
 1080 05ad 04       		.sleb128 4
 1081 05ae 15       		.uleb128 0x15
 1082 05af 04010000 		.4byte	.LASF90
 1083 05b3 05       		.sleb128 5
 1084 05b4 00       		.byte	0
 1085 05b5 03       		.uleb128 0x3
 1086 05b6 3E050000 		.4byte	.LASF91
 1087 05ba 0D       		.byte	0xd
 1088 05bb 44       		.byte	0x44
 1089 05bc 88050000 		.4byte	0x588
 1090 05c0 03       		.uleb128 0x3
 1091 05c1 A7010000 		.4byte	.LASF92
 1092 05c5 0E       		.byte	0xe
 1093 05c6 A3       		.byte	0xa3
 1094 05c7 CB050000 		.4byte	0x5cb
 1095 05cb 05       		.uleb128 0x5
 1096 05cc A7010000 		.4byte	.LASF92
 1097 05d0 18       		.byte	0x18
 1098 05d1 0E       		.byte	0xe
 1099 05d2 C4       		.byte	0xc4
 1100 05d3 20060000 		.4byte	0x620
 1101 05d7 06       		.uleb128 0x6
 1102 05d8 D9000000 		.4byte	.LASF93
 1103 05dc 0E       		.byte	0xe
 1104 05dd C8       		.byte	0xc8
 1105 05de B5050000 		.4byte	0x5b5
 1106 05e2 00       		.byte	0
 1107 05e3 06       		.uleb128 0x6
 1108 05e4 C0040000 		.4byte	.LASF94
 1109 05e8 0E       		.byte	0xe
 1110 05e9 CC       		.byte	0xcc
 1111 05ea 79060000 		.4byte	0x679
 1112 05ee 04       		.byte	0x4
 1113 05ef 06       		.uleb128 0x6
 1114 05f0 B2020000 		.4byte	.LASF95
 1115 05f4 0E       		.byte	0xe
 1116 05f5 D1       		.byte	0xd1
 1117 05f6 4B020000 		.4byte	0x24b
 1118 05fa 08       		.byte	0x8
 1119 05fb 06       		.uleb128 0x6
 1120 05fc 73000000 		.4byte	.LASF96
 1121 0600 0E       		.byte	0xe
 1122 0601 DB       		.byte	0xdb
 1123 0602 84060000 		.4byte	0x684
 1124 0606 0C       		.byte	0xc
 1125 0607 06       		.uleb128 0x6
 1126 0608 00000000 		.4byte	.LASF97
 1127 060c 0E       		.byte	0xe
 1128 060d DF       		.byte	0xdf
 1129 060e 8A060000 		.4byte	0x68a
 1130 0612 10       		.byte	0x10
 1131 0613 06       		.uleb128 0x6
 1132 0614 45010000 		.4byte	.LASF98
 1133 0618 0E       		.byte	0xe
ARM GAS  /var/folders/4k/6h5l9jl178sb4hslwv3xp1mr0000gn/T//ccl6lYcp.s 			page 21


 1134 0619 E3       		.byte	0xe3
 1135 061a AD000000 		.4byte	0xad
 1136 061e 14       		.byte	0x14
 1137 061f 00       		.byte	0
 1138 0620 03       		.uleb128 0x3
 1139 0621 9C020000 		.4byte	.LASF99
 1140 0625 0E       		.byte	0xe
 1141 0626 AB       		.byte	0xab
 1142 0627 2B060000 		.4byte	0x62b
 1143 062b 09       		.uleb128 0x9
 1144 062c 04       		.byte	0x4
 1145 062d 31060000 		.4byte	0x631
 1146 0631 16       		.uleb128 0x16
 1147 0632 3C060000 		.4byte	0x63c
 1148 0636 17       		.uleb128 0x17
 1149 0637 3C060000 		.4byte	0x63c
 1150 063b 00       		.byte	0
 1151 063c 09       		.uleb128 0x9
 1152 063d 04       		.byte	0x4
 1153 063e C0050000 		.4byte	0x5c0
 1154 0642 08       		.uleb128 0x8
 1155 0643 0C       		.byte	0xc
 1156 0644 0E       		.byte	0xe
 1157 0645 B0       		.byte	0xb0
 1158 0646 6E060000 		.4byte	0x66e
 1159 064a 06       		.uleb128 0x6
 1160 064b 03040000 		.4byte	.LASF100
 1161 064f 0E       		.byte	0xe
 1162 0650 B4       		.byte	0xb4
 1163 0651 20060000 		.4byte	0x620
 1164 0655 00       		.byte	0
 1165 0656 06       		.uleb128 0x6
 1166 0657 18050000 		.4byte	.LASF101
 1167 065b 0E       		.byte	0xe
 1168 065c B8       		.byte	0xb8
 1169 065d 20060000 		.4byte	0x620
 1170 0661 04       		.byte	0x4
 1171 0662 07       		.uleb128 0x7
 1172 0663 637200   		.ascii	"cr\000"
 1173 0666 0E       		.byte	0xe
 1174 0667 BE       		.byte	0xbe
 1175 0668 AD000000 		.4byte	0xad
 1176 066c 08       		.byte	0x8
 1177 066d 00       		.byte	0
 1178 066e 03       		.uleb128 0x3
 1179 066f F9000000 		.4byte	.LASF102
 1180 0673 0E       		.byte	0xe
 1181 0674 BF       		.byte	0xbf
 1182 0675 42060000 		.4byte	0x642
 1183 0679 09       		.uleb128 0x9
 1184 067a 04       		.byte	0x4
 1185 067b 7F060000 		.4byte	0x67f
 1186 067f 10       		.uleb128 0x10
 1187 0680 6E060000 		.4byte	0x66e
 1188 0684 09       		.uleb128 0x9
 1189 0685 04       		.byte	0x4
 1190 0686 BD040000 		.4byte	0x4bd
ARM GAS  /var/folders/4k/6h5l9jl178sb4hslwv3xp1mr0000gn/T//ccl6lYcp.s 			page 22


 1191 068a 09       		.uleb128 0x9
 1192 068b 04       		.byte	0x4
 1193 068c 90060000 		.4byte	0x690
 1194 0690 10       		.uleb128 0x10
 1195 0691 7D050000 		.4byte	0x57d
 1196 0695 18       		.uleb128 0x18
 1197 0696 85050000 		.4byte	.LASF103
 1198 069a 01       		.byte	0x1
 1199 069b 3D       		.byte	0x3d
 1200 069c 00000000 		.4byte	.LFB118
 1201 06a0 04000000 		.4byte	.LFE118-.LFB118
 1202 06a4 01       		.uleb128 0x1
 1203 06a5 9C       		.byte	0x9c
 1204 06a6 B4060000 		.4byte	0x6b4
 1205 06aa 19       		.uleb128 0x19
 1206 06ab 04000000 		.4byte	.LVL0
 1207 06af E9090000 		.4byte	0x9e9
 1208 06b3 00       		.byte	0
 1209 06b4 18       		.uleb128 0x18
 1210 06b5 18040000 		.4byte	.LASF104
 1211 06b9 01       		.byte	0x1
 1212 06ba 49       		.byte	0x49
 1213 06bb 00000000 		.4byte	.LFB119
 1214 06bf 0C000000 		.4byte	.LFE119-.LFB119
 1215 06c3 01       		.uleb128 0x1
 1216 06c4 9C       		.byte	0x9c
 1217 06c5 D7060000 		.4byte	0x6d7
 1218 06c9 1A       		.uleb128 0x1a
 1219 06ca 84040000 		.4byte	.LASF106
 1220 06ce 01       		.byte	0x1
 1221 06cf 49       		.byte	0x49
 1222 06d0 3C060000 		.4byte	0x63c
 1223 06d4 01       		.uleb128 0x1
 1224 06d5 50       		.byte	0x50
 1225 06d6 00       		.byte	0
 1226 06d7 18       		.uleb128 0x18
 1227 06d8 68020000 		.4byte	.LASF105
 1228 06dc 01       		.byte	0x1
 1229 06dd 5D       		.byte	0x5d
 1230 06de 00000000 		.4byte	.LFB120
 1231 06e2 1C000000 		.4byte	.LFE120-.LFB120
 1232 06e6 01       		.uleb128 0x1
 1233 06e7 9C       		.byte	0x9c
 1234 06e8 4D070000 		.4byte	0x74d
 1235 06ec 1B       		.uleb128 0x1b
 1236 06ed 84040000 		.4byte	.LASF106
 1237 06f1 01       		.byte	0x1
 1238 06f2 5D       		.byte	0x5d
 1239 06f3 3C060000 		.4byte	0x63c
 1240 06f7 00000000 		.4byte	.LLST0
 1241 06fb 1B       		.uleb128 0x1b
 1242 06fc C0040000 		.4byte	.LASF94
 1243 0700 01       		.byte	0x1
 1244 0701 5D       		.byte	0x5d
 1245 0702 79060000 		.4byte	0x679
 1246 0706 1E000000 		.4byte	.LLST1
 1247 070a 1C       		.uleb128 0x1c
ARM GAS  /var/folders/4k/6h5l9jl178sb4hslwv3xp1mr0000gn/T//ccl6lYcp.s 			page 23


 1248 070b 00000000 		.4byte	.Ldebug_ranges0+0
 1249 070f 21070000 		.4byte	0x721
 1250 0713 1D       		.uleb128 0x1d
 1251 0714 746D7000 		.ascii	"tmp\000"
 1252 0718 01       		.byte	0x1
 1253 0719 60       		.byte	0x60
 1254 071a AD000000 		.4byte	0xad
 1255 071e 01       		.uleb128 0x1
 1256 071f 53       		.byte	0x53
 1257 0720 00       		.byte	0
 1258 0721 1E       		.uleb128 0x1e
 1259 0722 14000000 		.4byte	.LBB4
 1260 0726 08000000 		.4byte	.LBE4-.LBB4
 1261 072a 3C070000 		.4byte	0x73c
 1262 072e 1D       		.uleb128 0x1d
 1263 072f 746D7000 		.ascii	"tmp\000"
 1264 0733 01       		.byte	0x1
 1265 0734 66       		.byte	0x66
 1266 0735 AD000000 		.4byte	0xad
 1267 0739 01       		.uleb128 0x1
 1268 073a 53       		.byte	0x53
 1269 073b 00       		.byte	0
 1270 073c 1F       		.uleb128 0x1f
 1271 073d 10000000 		.4byte	.LVL3
 1272 0741 F0090000 		.4byte	0x9f0
 1273 0745 20       		.uleb128 0x20
 1274 0746 01       		.uleb128 0x1
 1275 0747 50       		.byte	0x50
 1276 0748 02       		.uleb128 0x2
 1277 0749 74       		.byte	0x74
 1278 074a 00       		.sleb128 0
 1279 074b 00       		.byte	0
 1280 074c 00       		.byte	0
 1281 074d 18       		.uleb128 0x18
 1282 074e 0F020000 		.4byte	.LASF107
 1283 0752 01       		.byte	0x1
 1284 0753 71       		.byte	0x71
 1285 0754 00000000 		.4byte	.LFB121
 1286 0758 1A000000 		.4byte	.LFE121-.LFB121
 1287 075c 01       		.uleb128 0x1
 1288 075d 9C       		.byte	0x9c
 1289 075e B4070000 		.4byte	0x7b4
 1290 0762 1B       		.uleb128 0x1b
 1291 0763 84040000 		.4byte	.LASF106
 1292 0767 01       		.byte	0x1
 1293 0768 71       		.byte	0x71
 1294 0769 3C060000 		.4byte	0x63c
 1295 076d 3F000000 		.4byte	.LLST2
 1296 0771 1C       		.uleb128 0x1c
 1297 0772 18000000 		.4byte	.Ldebug_ranges0+0x18
 1298 0776 88070000 		.4byte	0x788
 1299 077a 1D       		.uleb128 0x1d
 1300 077b 746D7000 		.ascii	"tmp\000"
 1301 077f 01       		.byte	0x1
 1302 0780 75       		.byte	0x75
 1303 0781 AD000000 		.4byte	0xad
 1304 0785 01       		.uleb128 0x1
ARM GAS  /var/folders/4k/6h5l9jl178sb4hslwv3xp1mr0000gn/T//ccl6lYcp.s 			page 24


 1305 0786 53       		.byte	0x53
 1306 0787 00       		.byte	0
 1307 0788 1E       		.uleb128 0x1e
 1308 0789 12000000 		.4byte	.LBB7
 1309 078d 08000000 		.4byte	.LBE7-.LBB7
 1310 0791 A3070000 		.4byte	0x7a3
 1311 0795 1D       		.uleb128 0x1d
 1312 0796 746D7000 		.ascii	"tmp\000"
 1313 079a 01       		.byte	0x1
 1314 079b 7A       		.byte	0x7a
 1315 079c AD000000 		.4byte	0xad
 1316 07a0 01       		.uleb128 0x1
 1317 07a1 53       		.byte	0x53
 1318 07a2 00       		.byte	0
 1319 07a3 1F       		.uleb128 0x1f
 1320 07a4 0E000000 		.4byte	.LVL5
 1321 07a8 010A0000 		.4byte	0xa01
 1322 07ac 20       		.uleb128 0x20
 1323 07ad 01       		.uleb128 0x1
 1324 07ae 50       		.byte	0x50
 1325 07af 02       		.uleb128 0x2
 1326 07b0 74       		.byte	0x74
 1327 07b1 00       		.sleb128 0
 1328 07b2 00       		.byte	0
 1329 07b3 00       		.byte	0
 1330 07b4 18       		.uleb128 0x18
 1331 07b5 AA050000 		.4byte	.LASF108
 1332 07b9 01       		.byte	0x1
 1333 07ba 8E       		.byte	0x8e
 1334 07bb 00000000 		.4byte	.LFB122
 1335 07bf 24000000 		.4byte	.LFE122-.LFB122
 1336 07c3 01       		.uleb128 0x1
 1337 07c4 9C       		.byte	0x9c
 1338 07c5 65080000 		.4byte	0x865
 1339 07c9 1B       		.uleb128 0x1b
 1340 07ca 84040000 		.4byte	.LASF106
 1341 07ce 01       		.byte	0x1
 1342 07cf 8E       		.byte	0x8e
 1343 07d0 3C060000 		.4byte	0x63c
 1344 07d4 5D000000 		.4byte	.LLST3
 1345 07d8 21       		.uleb128 0x21
 1346 07d9 6E00     		.ascii	"n\000"
 1347 07db 01       		.byte	0x1
 1348 07dc 8E       		.byte	0x8e
 1349 07dd 2C000000 		.4byte	0x2c
 1350 07e1 7E000000 		.4byte	.LLST4
 1351 07e5 1B       		.uleb128 0x1b
 1352 07e6 62050000 		.4byte	.LASF109
 1353 07ea 01       		.byte	0x1
 1354 07eb 8E       		.byte	0x8e
 1355 07ec 87020000 		.4byte	0x287
 1356 07f0 9F000000 		.4byte	.LLST5
 1357 07f4 1B       		.uleb128 0x1b
 1358 07f5 69050000 		.4byte	.LASF110
 1359 07f9 01       		.byte	0x1
 1360 07fa 8E       		.byte	0x8e
 1361 07fb 87020000 		.4byte	0x287
ARM GAS  /var/folders/4k/6h5l9jl178sb4hslwv3xp1mr0000gn/T//ccl6lYcp.s 			page 25


 1362 07ff CB000000 		.4byte	.LLST6
 1363 0803 1E       		.uleb128 0x1e
 1364 0804 06000000 		.4byte	.LBB8
 1365 0808 06000000 		.4byte	.LBE8-.LBB8
 1366 080c 1E080000 		.4byte	0x81e
 1367 0810 1D       		.uleb128 0x1d
 1368 0811 746D7000 		.ascii	"tmp\000"
 1369 0815 01       		.byte	0x1
 1370 0816 93       		.byte	0x93
 1371 0817 AD000000 		.4byte	0xad
 1372 081b 01       		.uleb128 0x1
 1373 081c 53       		.byte	0x53
 1374 081d 00       		.byte	0
 1375 081e 1E       		.uleb128 0x1e
 1376 081f 1A000000 		.4byte	.LBB9
 1377 0823 06000000 		.4byte	.LBE9-.LBB9
 1378 0827 39080000 		.4byte	0x839
 1379 082b 1D       		.uleb128 0x1d
 1380 082c 746D7000 		.ascii	"tmp\000"
 1381 0830 01       		.byte	0x1
 1382 0831 96       		.byte	0x96
 1383 0832 AD000000 		.4byte	0xad
 1384 0836 01       		.uleb128 0x1
 1385 0837 53       		.byte	0x53
 1386 0838 00       		.byte	0
 1387 0839 1F       		.uleb128 0x1f
 1388 083a 1A000000 		.4byte	.LVL9
 1389 083e 120A0000 		.4byte	0xa12
 1390 0842 20       		.uleb128 0x20
 1391 0843 01       		.uleb128 0x1
 1392 0844 53       		.byte	0x53
 1393 0845 03       		.uleb128 0x3
 1394 0846 F3       		.byte	0xf3
 1395 0847 01       		.uleb128 0x1
 1396 0848 52       		.byte	0x52
 1397 0849 20       		.uleb128 0x20
 1398 084a 01       		.uleb128 0x1
 1399 084b 52       		.byte	0x52
 1400 084c 01       		.uleb128 0x1
 1401 084d 30       		.byte	0x30
 1402 084e 20       		.uleb128 0x20
 1403 084f 01       		.uleb128 0x1
 1404 0850 51       		.byte	0x51
 1405 0851 03       		.uleb128 0x3
 1406 0852 F3       		.byte	0xf3
 1407 0853 01       		.uleb128 0x1
 1408 0854 51       		.byte	0x51
 1409 0855 20       		.uleb128 0x20
 1410 0856 01       		.uleb128 0x1
 1411 0857 50       		.byte	0x50
 1412 0858 03       		.uleb128 0x3
 1413 0859 F3       		.byte	0xf3
 1414 085a 01       		.uleb128 0x1
 1415 085b 50       		.byte	0x50
 1416 085c 20       		.uleb128 0x20
 1417 085d 02       		.uleb128 0x2
 1418 085e 7D       		.byte	0x7d
ARM GAS  /var/folders/4k/6h5l9jl178sb4hslwv3xp1mr0000gn/T//ccl6lYcp.s 			page 26


 1419 085f 00       		.sleb128 0
 1420 0860 02       		.uleb128 0x2
 1421 0861 74       		.byte	0x74
 1422 0862 00       		.sleb128 0
 1423 0863 00       		.byte	0
 1424 0864 00       		.byte	0
 1425 0865 18       		.uleb128 0x18
 1426 0866 4A050000 		.4byte	.LASF111
 1427 086a 01       		.byte	0x1
 1428 086b A9       		.byte	0xa9
 1429 086c 00000000 		.4byte	.LFB123
 1430 0870 24000000 		.4byte	.LFE123-.LFB123
 1431 0874 01       		.uleb128 0x1
 1432 0875 9C       		.byte	0x9c
 1433 0876 16090000 		.4byte	0x916
 1434 087a 1B       		.uleb128 0x1b
 1435 087b 84040000 		.4byte	.LASF106
 1436 087f 01       		.byte	0x1
 1437 0880 A9       		.byte	0xa9
 1438 0881 3C060000 		.4byte	0x63c
 1439 0885 E9000000 		.4byte	.LLST7
 1440 0889 21       		.uleb128 0x21
 1441 088a 6E00     		.ascii	"n\000"
 1442 088c 01       		.byte	0x1
 1443 088d A9       		.byte	0xa9
 1444 088e 2C000000 		.4byte	0x2c
 1445 0892 0A010000 		.4byte	.LLST8
 1446 0896 1B       		.uleb128 0x1b
 1447 0897 62050000 		.4byte	.LASF109
 1448 089b 01       		.byte	0x1
 1449 089c A9       		.byte	0xa9
 1450 089d 87020000 		.4byte	0x287
 1451 08a1 2B010000 		.4byte	.LLST9
 1452 08a5 1B       		.uleb128 0x1b
 1453 08a6 69050000 		.4byte	.LASF110
 1454 08aa 01       		.byte	0x1
 1455 08ab A9       		.byte	0xa9
 1456 08ac 87020000 		.4byte	0x287
 1457 08b0 57010000 		.4byte	.LLST10
 1458 08b4 1E       		.uleb128 0x1e
 1459 08b5 06000000 		.4byte	.LBB10
 1460 08b9 06000000 		.4byte	.LBE10-.LBB10
 1461 08bd CF080000 		.4byte	0x8cf
 1462 08c1 1D       		.uleb128 0x1d
 1463 08c2 746D7000 		.ascii	"tmp\000"
 1464 08c6 01       		.byte	0x1
 1465 08c7 AD       		.byte	0xad
 1466 08c8 AD000000 		.4byte	0xad
 1467 08cc 01       		.uleb128 0x1
 1468 08cd 53       		.byte	0x53
 1469 08ce 00       		.byte	0
 1470 08cf 1E       		.uleb128 0x1e
 1471 08d0 1A000000 		.4byte	.LBB11
 1472 08d4 06000000 		.4byte	.LBE11-.LBB11
 1473 08d8 EA080000 		.4byte	0x8ea
 1474 08dc 1D       		.uleb128 0x1d
 1475 08dd 746D7000 		.ascii	"tmp\000"
ARM GAS  /var/folders/4k/6h5l9jl178sb4hslwv3xp1mr0000gn/T//ccl6lYcp.s 			page 27


 1476 08e1 01       		.byte	0x1
 1477 08e2 B0       		.byte	0xb0
 1478 08e3 AD000000 		.4byte	0xad
 1479 08e7 01       		.uleb128 0x1
 1480 08e8 53       		.byte	0x53
 1481 08e9 00       		.byte	0
 1482 08ea 1F       		.uleb128 0x1f
 1483 08eb 1A000000 		.4byte	.LVL13
 1484 08ef 120A0000 		.4byte	0xa12
 1485 08f3 20       		.uleb128 0x20
 1486 08f4 01       		.uleb128 0x1
 1487 08f5 53       		.byte	0x53
 1488 08f6 03       		.uleb128 0x3
 1489 08f7 F3       		.byte	0xf3
 1490 08f8 01       		.uleb128 0x1
 1491 08f9 52       		.byte	0x52
 1492 08fa 20       		.uleb128 0x20
 1493 08fb 01       		.uleb128 0x1
 1494 08fc 52       		.byte	0x52
 1495 08fd 01       		.uleb128 0x1
 1496 08fe 31       		.byte	0x31
 1497 08ff 20       		.uleb128 0x20
 1498 0900 01       		.uleb128 0x1
 1499 0901 51       		.byte	0x51
 1500 0902 03       		.uleb128 0x3
 1501 0903 F3       		.byte	0xf3
 1502 0904 01       		.uleb128 0x1
 1503 0905 51       		.byte	0x51
 1504 0906 20       		.uleb128 0x20
 1505 0907 01       		.uleb128 0x1
 1506 0908 50       		.byte	0x50
 1507 0909 03       		.uleb128 0x3
 1508 090a F3       		.byte	0xf3
 1509 090b 01       		.uleb128 0x1
 1510 090c 50       		.byte	0x50
 1511 090d 20       		.uleb128 0x20
 1512 090e 02       		.uleb128 0x2
 1513 090f 7D       		.byte	0x7d
 1514 0910 00       		.sleb128 0
 1515 0911 02       		.uleb128 0x2
 1516 0912 74       		.byte	0x74
 1517 0913 00       		.sleb128 0
 1518 0914 00       		.byte	0
 1519 0915 00       		.byte	0
 1520 0916 18       		.uleb128 0x18
 1521 0917 89010000 		.4byte	.LASF112
 1522 091b 01       		.byte	0x1
 1523 091c C5       		.byte	0xc5
 1524 091d 00000000 		.4byte	.LFB124
 1525 0921 3C000000 		.4byte	.LFE124-.LFB124
 1526 0925 01       		.uleb128 0x1
 1527 0926 9C       		.byte	0x9c
 1528 0927 D2090000 		.4byte	0x9d2
 1529 092b 1B       		.uleb128 0x1b
 1530 092c 84040000 		.4byte	.LASF106
 1531 0930 01       		.byte	0x1
 1532 0931 C5       		.byte	0xc5
ARM GAS  /var/folders/4k/6h5l9jl178sb4hslwv3xp1mr0000gn/T//ccl6lYcp.s 			page 28


 1533 0932 3C060000 		.4byte	0x63c
 1534 0936 75010000 		.4byte	.LLST11
 1535 093a 21       		.uleb128 0x21
 1536 093b 6E00     		.ascii	"n\000"
 1537 093d 01       		.byte	0x1
 1538 093e C5       		.byte	0xc5
 1539 093f 2C000000 		.4byte	0x2c
 1540 0943 A1010000 		.4byte	.LLST12
 1541 0947 1B       		.uleb128 0x1b
 1542 0948 62050000 		.4byte	.LASF109
 1543 094c 01       		.byte	0x1
 1544 094d C5       		.byte	0xc5
 1545 094e 87020000 		.4byte	0x287
 1546 0952 C2010000 		.4byte	.LLST13
 1547 0956 1B       		.uleb128 0x1b
 1548 0957 69050000 		.4byte	.LASF110
 1549 095b 01       		.byte	0x1
 1550 095c C5       		.byte	0xc5
 1551 095d 87020000 		.4byte	0x287
 1552 0961 EE010000 		.4byte	.LLST14
 1553 0965 1E       		.uleb128 0x1e
 1554 0966 08000000 		.4byte	.LBB12
 1555 096a 06000000 		.4byte	.LBE12-.LBB12
 1556 096e 80090000 		.4byte	0x980
 1557 0972 1D       		.uleb128 0x1d
 1558 0973 746D7000 		.ascii	"tmp\000"
 1559 0977 01       		.byte	0x1
 1560 0978 C9       		.byte	0xc9
 1561 0979 AD000000 		.4byte	0xad
 1562 097d 01       		.uleb128 0x1
 1563 097e 53       		.byte	0x53
 1564 097f 00       		.byte	0
 1565 0980 1E       		.uleb128 0x1e
 1566 0981 1E000000 		.4byte	.LBB13
 1567 0985 06000000 		.4byte	.LBE13-.LBB13
 1568 0989 9B090000 		.4byte	0x99b
 1569 098d 1D       		.uleb128 0x1d
 1570 098e 746D7000 		.ascii	"tmp\000"
 1571 0992 01       		.byte	0x1
 1572 0993 CE       		.byte	0xce
 1573 0994 AD000000 		.4byte	0xad
 1574 0998 01       		.uleb128 0x1
 1575 0999 53       		.byte	0x53
 1576 099a 00       		.byte	0
 1577 099b 22       		.uleb128 0x22
 1578 099c 1E000000 		.4byte	.LVL18
 1579 09a0 120A0000 		.4byte	0xa12
 1580 09a4 C2090000 		.4byte	0x9c2
 1581 09a8 20       		.uleb128 0x20
 1582 09a9 01       		.uleb128 0x1
 1583 09aa 53       		.byte	0x53
 1584 09ab 03       		.uleb128 0x3
 1585 09ac F3       		.byte	0xf3
 1586 09ad 01       		.uleb128 0x1
 1587 09ae 52       		.byte	0x52
 1588 09af 20       		.uleb128 0x20
 1589 09b0 01       		.uleb128 0x1
ARM GAS  /var/folders/4k/6h5l9jl178sb4hslwv3xp1mr0000gn/T//ccl6lYcp.s 			page 29


 1590 09b1 52       		.byte	0x52
 1591 09b2 01       		.uleb128 0x1
 1592 09b3 31       		.byte	0x31
 1593 09b4 20       		.uleb128 0x20
 1594 09b5 01       		.uleb128 0x1
 1595 09b6 51       		.byte	0x51
 1596 09b7 03       		.uleb128 0x3
 1597 09b8 F3       		.byte	0xf3
 1598 09b9 01       		.uleb128 0x1
 1599 09ba 51       		.byte	0x51
 1600 09bb 20       		.uleb128 0x20
 1601 09bc 01       		.uleb128 0x1
 1602 09bd 50       		.byte	0x50
 1603 09be 02       		.uleb128 0x2
 1604 09bf 74       		.byte	0x74
 1605 09c0 00       		.sleb128 0
 1606 09c1 00       		.byte	0
 1607 09c2 23       		.uleb128 0x23
 1608 09c3 36000000 		.4byte	.LVL20
 1609 09c7 370A0000 		.4byte	0xa37
 1610 09cb 20       		.uleb128 0x20
 1611 09cc 01       		.uleb128 0x1
 1612 09cd 50       		.byte	0x50
 1613 09ce 01       		.uleb128 0x1
 1614 09cf 32       		.byte	0x32
 1615 09d0 00       		.byte	0
 1616 09d1 00       		.byte	0
 1617 09d2 24       		.uleb128 0x24
 1618 09d3 7F050000 		.4byte	.LASF113
 1619 09d7 09       		.byte	0x9
 1620 09d8 6F       		.byte	0x6f
 1621 09d9 88030000 		.4byte	0x388
 1622 09dd 25       		.uleb128 0x25
 1623 09de AF030000 		.4byte	.LASF114
 1624 09e2 0F       		.byte	0xf
 1625 09e3 9806     		.2byte	0x698
 1626 09e5 22040000 		.4byte	0x422
 1627 09e9 26       		.uleb128 0x26
 1628 09ea AA000000 		.4byte	.LASF121
 1629 09ee 0E       		.byte	0xe
 1630 09ef F5       		.byte	0xf5
 1631 09f0 27       		.uleb128 0x27
 1632 09f1 27010000 		.4byte	.LASF115
 1633 09f5 0E       		.byte	0xe
 1634 09f6 F6       		.byte	0xf6
 1635 09f7 010A0000 		.4byte	0xa01
 1636 09fb 17       		.uleb128 0x17
 1637 09fc 3C060000 		.4byte	0x63c
 1638 0a00 00       		.byte	0
 1639 0a01 27       		.uleb128 0x27
 1640 0a02 9B040000 		.4byte	.LASF116
 1641 0a06 0E       		.byte	0xe
 1642 0a07 F7       		.byte	0xf7
 1643 0a08 120A0000 		.4byte	0xa12
 1644 0a0c 17       		.uleb128 0x17
 1645 0a0d 3C060000 		.4byte	0x63c
 1646 0a11 00       		.byte	0
ARM GAS  /var/folders/4k/6h5l9jl178sb4hslwv3xp1mr0000gn/T//ccl6lYcp.s 			page 30


 1647 0a12 27       		.uleb128 0x27
 1648 0a13 DE010000 		.4byte	.LASF117
 1649 0a17 0E       		.byte	0xe
 1650 0a18 F8       		.byte	0xf8
 1651 0a19 370A0000 		.4byte	0xa37
 1652 0a1d 17       		.uleb128 0x17
 1653 0a1e 3C060000 		.4byte	0x63c
 1654 0a22 17       		.uleb128 0x17
 1655 0a23 2C000000 		.4byte	0x2c
 1656 0a27 17       		.uleb128 0x17
 1657 0a28 B8000000 		.4byte	0xb8
 1658 0a2c 17       		.uleb128 0x17
 1659 0a2d 87020000 		.4byte	0x287
 1660 0a31 17       		.uleb128 0x17
 1661 0a32 87020000 		.4byte	0x287
 1662 0a36 00       		.byte	0
 1663 0a37 28       		.uleb128 0x28
 1664 0a38 66040000 		.4byte	.LASF122
 1665 0a3c 09       		.byte	0x9
 1666 0a3d 93       		.byte	0x93
 1667 0a3e 17       		.uleb128 0x17
 1668 0a3f D5000000 		.4byte	0xd5
 1669 0a43 00       		.byte	0
 1670 0a44 00       		.byte	0
 1671              		.section	.debug_abbrev,"",%progbits
 1672              	.Ldebug_abbrev0:
 1673 0000 01       		.uleb128 0x1
 1674 0001 11       		.uleb128 0x11
 1675 0002 01       		.byte	0x1
 1676 0003 25       		.uleb128 0x25
 1677 0004 0E       		.uleb128 0xe
 1678 0005 13       		.uleb128 0x13
 1679 0006 0B       		.uleb128 0xb
 1680 0007 03       		.uleb128 0x3
 1681 0008 0E       		.uleb128 0xe
 1682 0009 1B       		.uleb128 0x1b
 1683 000a 0E       		.uleb128 0xe
 1684 000b 55       		.uleb128 0x55
 1685 000c 17       		.uleb128 0x17
 1686 000d 11       		.uleb128 0x11
 1687 000e 01       		.uleb128 0x1
 1688 000f 10       		.uleb128 0x10
 1689 0010 17       		.uleb128 0x17
 1690 0011 00       		.byte	0
 1691 0012 00       		.byte	0
 1692 0013 02       		.uleb128 0x2
 1693 0014 24       		.uleb128 0x24
 1694 0015 00       		.byte	0
 1695 0016 0B       		.uleb128 0xb
 1696 0017 0B       		.uleb128 0xb
 1697 0018 3E       		.uleb128 0x3e
 1698 0019 0B       		.uleb128 0xb
 1699 001a 03       		.uleb128 0x3
 1700 001b 08       		.uleb128 0x8
 1701 001c 00       		.byte	0
 1702 001d 00       		.byte	0
 1703 001e 03       		.uleb128 0x3
ARM GAS  /var/folders/4k/6h5l9jl178sb4hslwv3xp1mr0000gn/T//ccl6lYcp.s 			page 31


 1704 001f 16       		.uleb128 0x16
 1705 0020 00       		.byte	0
 1706 0021 03       		.uleb128 0x3
 1707 0022 0E       		.uleb128 0xe
 1708 0023 3A       		.uleb128 0x3a
 1709 0024 0B       		.uleb128 0xb
 1710 0025 3B       		.uleb128 0x3b
 1711 0026 0B       		.uleb128 0xb
 1712 0027 49       		.uleb128 0x49
 1713 0028 13       		.uleb128 0x13
 1714 0029 00       		.byte	0
 1715 002a 00       		.byte	0
 1716 002b 04       		.uleb128 0x4
 1717 002c 24       		.uleb128 0x24
 1718 002d 00       		.byte	0
 1719 002e 0B       		.uleb128 0xb
 1720 002f 0B       		.uleb128 0xb
 1721 0030 3E       		.uleb128 0x3e
 1722 0031 0B       		.uleb128 0xb
 1723 0032 03       		.uleb128 0x3
 1724 0033 0E       		.uleb128 0xe
 1725 0034 00       		.byte	0
 1726 0035 00       		.byte	0
 1727 0036 05       		.uleb128 0x5
 1728 0037 13       		.uleb128 0x13
 1729 0038 01       		.byte	0x1
 1730 0039 03       		.uleb128 0x3
 1731 003a 0E       		.uleb128 0xe
 1732 003b 0B       		.uleb128 0xb
 1733 003c 0B       		.uleb128 0xb
 1734 003d 3A       		.uleb128 0x3a
 1735 003e 0B       		.uleb128 0xb
 1736 003f 3B       		.uleb128 0x3b
 1737 0040 0B       		.uleb128 0xb
 1738 0041 01       		.uleb128 0x1
 1739 0042 13       		.uleb128 0x13
 1740 0043 00       		.byte	0
 1741 0044 00       		.byte	0
 1742 0045 06       		.uleb128 0x6
 1743 0046 0D       		.uleb128 0xd
 1744 0047 00       		.byte	0
 1745 0048 03       		.uleb128 0x3
 1746 0049 0E       		.uleb128 0xe
 1747 004a 3A       		.uleb128 0x3a
 1748 004b 0B       		.uleb128 0xb
 1749 004c 3B       		.uleb128 0x3b
 1750 004d 0B       		.uleb128 0xb
 1751 004e 49       		.uleb128 0x49
 1752 004f 13       		.uleb128 0x13
 1753 0050 38       		.uleb128 0x38
 1754 0051 0B       		.uleb128 0xb
 1755 0052 00       		.byte	0
 1756 0053 00       		.byte	0
 1757 0054 07       		.uleb128 0x7
 1758 0055 0D       		.uleb128 0xd
 1759 0056 00       		.byte	0
 1760 0057 03       		.uleb128 0x3
ARM GAS  /var/folders/4k/6h5l9jl178sb4hslwv3xp1mr0000gn/T//ccl6lYcp.s 			page 32


 1761 0058 08       		.uleb128 0x8
 1762 0059 3A       		.uleb128 0x3a
 1763 005a 0B       		.uleb128 0xb
 1764 005b 3B       		.uleb128 0x3b
 1765 005c 0B       		.uleb128 0xb
 1766 005d 49       		.uleb128 0x49
 1767 005e 13       		.uleb128 0x13
 1768 005f 38       		.uleb128 0x38
 1769 0060 0B       		.uleb128 0xb
 1770 0061 00       		.byte	0
 1771 0062 00       		.byte	0
 1772 0063 08       		.uleb128 0x8
 1773 0064 13       		.uleb128 0x13
 1774 0065 01       		.byte	0x1
 1775 0066 0B       		.uleb128 0xb
 1776 0067 0B       		.uleb128 0xb
 1777 0068 3A       		.uleb128 0x3a
 1778 0069 0B       		.uleb128 0xb
 1779 006a 3B       		.uleb128 0x3b
 1780 006b 0B       		.uleb128 0xb
 1781 006c 01       		.uleb128 0x1
 1782 006d 13       		.uleb128 0x13
 1783 006e 00       		.byte	0
 1784 006f 00       		.byte	0
 1785 0070 09       		.uleb128 0x9
 1786 0071 0F       		.uleb128 0xf
 1787 0072 00       		.byte	0
 1788 0073 0B       		.uleb128 0xb
 1789 0074 0B       		.uleb128 0xb
 1790 0075 49       		.uleb128 0x49
 1791 0076 13       		.uleb128 0x13
 1792 0077 00       		.byte	0
 1793 0078 00       		.byte	0
 1794 0079 0A       		.uleb128 0xa
 1795 007a 0F       		.uleb128 0xf
 1796 007b 00       		.byte	0
 1797 007c 0B       		.uleb128 0xb
 1798 007d 0B       		.uleb128 0xb
 1799 007e 00       		.byte	0
 1800 007f 00       		.byte	0
 1801 0080 0B       		.uleb128 0xb
 1802 0081 13       		.uleb128 0x13
 1803 0082 01       		.byte	0x1
 1804 0083 03       		.uleb128 0x3
 1805 0084 0E       		.uleb128 0xe
 1806 0085 0B       		.uleb128 0xb
 1807 0086 0B       		.uleb128 0xb
 1808 0087 3A       		.uleb128 0x3a
 1809 0088 0B       		.uleb128 0xb
 1810 0089 3B       		.uleb128 0x3b
 1811 008a 05       		.uleb128 0x5
 1812 008b 01       		.uleb128 0x1
 1813 008c 13       		.uleb128 0x13
 1814 008d 00       		.byte	0
 1815 008e 00       		.byte	0
 1816 008f 0C       		.uleb128 0xc
 1817 0090 0D       		.uleb128 0xd
ARM GAS  /var/folders/4k/6h5l9jl178sb4hslwv3xp1mr0000gn/T//ccl6lYcp.s 			page 33


 1818 0091 00       		.byte	0
 1819 0092 03       		.uleb128 0x3
 1820 0093 08       		.uleb128 0x8
 1821 0094 3A       		.uleb128 0x3a
 1822 0095 0B       		.uleb128 0xb
 1823 0096 3B       		.uleb128 0x3b
 1824 0097 05       		.uleb128 0x5
 1825 0098 49       		.uleb128 0x49
 1826 0099 13       		.uleb128 0x13
 1827 009a 38       		.uleb128 0x38
 1828 009b 0B       		.uleb128 0xb
 1829 009c 00       		.byte	0
 1830 009d 00       		.byte	0
 1831 009e 0D       		.uleb128 0xd
 1832 009f 35       		.uleb128 0x35
 1833 00a0 00       		.byte	0
 1834 00a1 49       		.uleb128 0x49
 1835 00a2 13       		.uleb128 0x13
 1836 00a3 00       		.byte	0
 1837 00a4 00       		.byte	0
 1838 00a5 0E       		.uleb128 0xe
 1839 00a6 17       		.uleb128 0x17
 1840 00a7 01       		.byte	0x1
 1841 00a8 0B       		.uleb128 0xb
 1842 00a9 0B       		.uleb128 0xb
 1843 00aa 3A       		.uleb128 0x3a
 1844 00ab 0B       		.uleb128 0xb
 1845 00ac 3B       		.uleb128 0x3b
 1846 00ad 0B       		.uleb128 0xb
 1847 00ae 01       		.uleb128 0x1
 1848 00af 13       		.uleb128 0x13
 1849 00b0 00       		.byte	0
 1850 00b1 00       		.byte	0
 1851 00b2 0F       		.uleb128 0xf
 1852 00b3 0D       		.uleb128 0xd
 1853 00b4 00       		.byte	0
 1854 00b5 03       		.uleb128 0x3
 1855 00b6 0E       		.uleb128 0xe
 1856 00b7 3A       		.uleb128 0x3a
 1857 00b8 0B       		.uleb128 0xb
 1858 00b9 3B       		.uleb128 0x3b
 1859 00ba 0B       		.uleb128 0xb
 1860 00bb 49       		.uleb128 0x49
 1861 00bc 13       		.uleb128 0x13
 1862 00bd 00       		.byte	0
 1863 00be 00       		.byte	0
 1864 00bf 10       		.uleb128 0x10
 1865 00c0 26       		.uleb128 0x26
 1866 00c1 00       		.byte	0
 1867 00c2 49       		.uleb128 0x49
 1868 00c3 13       		.uleb128 0x13
 1869 00c4 00       		.byte	0
 1870 00c5 00       		.byte	0
 1871 00c6 11       		.uleb128 0x11
 1872 00c7 13       		.uleb128 0x13
 1873 00c8 01       		.byte	0x1
 1874 00c9 0B       		.uleb128 0xb
ARM GAS  /var/folders/4k/6h5l9jl178sb4hslwv3xp1mr0000gn/T//ccl6lYcp.s 			page 34


 1875 00ca 0B       		.uleb128 0xb
 1876 00cb 3A       		.uleb128 0x3a
 1877 00cc 0B       		.uleb128 0xb
 1878 00cd 3B       		.uleb128 0x3b
 1879 00ce 05       		.uleb128 0x5
 1880 00cf 01       		.uleb128 0x1
 1881 00d0 13       		.uleb128 0x13
 1882 00d1 00       		.byte	0
 1883 00d2 00       		.byte	0
 1884 00d3 12       		.uleb128 0x12
 1885 00d4 0D       		.uleb128 0xd
 1886 00d5 00       		.byte	0
 1887 00d6 03       		.uleb128 0x3
 1888 00d7 0E       		.uleb128 0xe
 1889 00d8 3A       		.uleb128 0x3a
 1890 00d9 0B       		.uleb128 0xb
 1891 00da 3B       		.uleb128 0x3b
 1892 00db 05       		.uleb128 0x5
 1893 00dc 49       		.uleb128 0x49
 1894 00dd 13       		.uleb128 0x13
 1895 00de 38       		.uleb128 0x38
 1896 00df 0B       		.uleb128 0xb
 1897 00e0 00       		.byte	0
 1898 00e1 00       		.byte	0
 1899 00e2 13       		.uleb128 0x13
 1900 00e3 16       		.uleb128 0x16
 1901 00e4 00       		.byte	0
 1902 00e5 03       		.uleb128 0x3
 1903 00e6 0E       		.uleb128 0xe
 1904 00e7 3A       		.uleb128 0x3a
 1905 00e8 0B       		.uleb128 0xb
 1906 00e9 3B       		.uleb128 0x3b
 1907 00ea 05       		.uleb128 0x5
 1908 00eb 49       		.uleb128 0x49
 1909 00ec 13       		.uleb128 0x13
 1910 00ed 00       		.byte	0
 1911 00ee 00       		.byte	0
 1912 00ef 14       		.uleb128 0x14
 1913 00f0 04       		.uleb128 0x4
 1914 00f1 01       		.byte	0x1
 1915 00f2 0B       		.uleb128 0xb
 1916 00f3 0B       		.uleb128 0xb
 1917 00f4 3A       		.uleb128 0x3a
 1918 00f5 0B       		.uleb128 0xb
 1919 00f6 3B       		.uleb128 0x3b
 1920 00f7 0B       		.uleb128 0xb
 1921 00f8 01       		.uleb128 0x1
 1922 00f9 13       		.uleb128 0x13
 1923 00fa 00       		.byte	0
 1924 00fb 00       		.byte	0
 1925 00fc 15       		.uleb128 0x15
 1926 00fd 28       		.uleb128 0x28
 1927 00fe 00       		.byte	0
 1928 00ff 03       		.uleb128 0x3
 1929 0100 0E       		.uleb128 0xe
 1930 0101 1C       		.uleb128 0x1c
 1931 0102 0D       		.uleb128 0xd
ARM GAS  /var/folders/4k/6h5l9jl178sb4hslwv3xp1mr0000gn/T//ccl6lYcp.s 			page 35


 1932 0103 00       		.byte	0
 1933 0104 00       		.byte	0
 1934 0105 16       		.uleb128 0x16
 1935 0106 15       		.uleb128 0x15
 1936 0107 01       		.byte	0x1
 1937 0108 27       		.uleb128 0x27
 1938 0109 19       		.uleb128 0x19
 1939 010a 01       		.uleb128 0x1
 1940 010b 13       		.uleb128 0x13
 1941 010c 00       		.byte	0
 1942 010d 00       		.byte	0
 1943 010e 17       		.uleb128 0x17
 1944 010f 05       		.uleb128 0x5
 1945 0110 00       		.byte	0
 1946 0111 49       		.uleb128 0x49
 1947 0112 13       		.uleb128 0x13
 1948 0113 00       		.byte	0
 1949 0114 00       		.byte	0
 1950 0115 18       		.uleb128 0x18
 1951 0116 2E       		.uleb128 0x2e
 1952 0117 01       		.byte	0x1
 1953 0118 3F       		.uleb128 0x3f
 1954 0119 19       		.uleb128 0x19
 1955 011a 03       		.uleb128 0x3
 1956 011b 0E       		.uleb128 0xe
 1957 011c 3A       		.uleb128 0x3a
 1958 011d 0B       		.uleb128 0xb
 1959 011e 3B       		.uleb128 0x3b
 1960 011f 0B       		.uleb128 0xb
 1961 0120 27       		.uleb128 0x27
 1962 0121 19       		.uleb128 0x19
 1963 0122 11       		.uleb128 0x11
 1964 0123 01       		.uleb128 0x1
 1965 0124 12       		.uleb128 0x12
 1966 0125 06       		.uleb128 0x6
 1967 0126 40       		.uleb128 0x40
 1968 0127 18       		.uleb128 0x18
 1969 0128 9742     		.uleb128 0x2117
 1970 012a 19       		.uleb128 0x19
 1971 012b 01       		.uleb128 0x1
 1972 012c 13       		.uleb128 0x13
 1973 012d 00       		.byte	0
 1974 012e 00       		.byte	0
 1975 012f 19       		.uleb128 0x19
 1976 0130 898201   		.uleb128 0x4109
 1977 0133 00       		.byte	0
 1978 0134 11       		.uleb128 0x11
 1979 0135 01       		.uleb128 0x1
 1980 0136 9542     		.uleb128 0x2115
 1981 0138 19       		.uleb128 0x19
 1982 0139 31       		.uleb128 0x31
 1983 013a 13       		.uleb128 0x13
 1984 013b 00       		.byte	0
 1985 013c 00       		.byte	0
 1986 013d 1A       		.uleb128 0x1a
 1987 013e 05       		.uleb128 0x5
 1988 013f 00       		.byte	0
ARM GAS  /var/folders/4k/6h5l9jl178sb4hslwv3xp1mr0000gn/T//ccl6lYcp.s 			page 36


 1989 0140 03       		.uleb128 0x3
 1990 0141 0E       		.uleb128 0xe
 1991 0142 3A       		.uleb128 0x3a
 1992 0143 0B       		.uleb128 0xb
 1993 0144 3B       		.uleb128 0x3b
 1994 0145 0B       		.uleb128 0xb
 1995 0146 49       		.uleb128 0x49
 1996 0147 13       		.uleb128 0x13
 1997 0148 02       		.uleb128 0x2
 1998 0149 18       		.uleb128 0x18
 1999 014a 00       		.byte	0
 2000 014b 00       		.byte	0
 2001 014c 1B       		.uleb128 0x1b
 2002 014d 05       		.uleb128 0x5
 2003 014e 00       		.byte	0
 2004 014f 03       		.uleb128 0x3
 2005 0150 0E       		.uleb128 0xe
 2006 0151 3A       		.uleb128 0x3a
 2007 0152 0B       		.uleb128 0xb
 2008 0153 3B       		.uleb128 0x3b
 2009 0154 0B       		.uleb128 0xb
 2010 0155 49       		.uleb128 0x49
 2011 0156 13       		.uleb128 0x13
 2012 0157 02       		.uleb128 0x2
 2013 0158 17       		.uleb128 0x17
 2014 0159 00       		.byte	0
 2015 015a 00       		.byte	0
 2016 015b 1C       		.uleb128 0x1c
 2017 015c 0B       		.uleb128 0xb
 2018 015d 01       		.byte	0x1
 2019 015e 55       		.uleb128 0x55
 2020 015f 17       		.uleb128 0x17
 2021 0160 01       		.uleb128 0x1
 2022 0161 13       		.uleb128 0x13
 2023 0162 00       		.byte	0
 2024 0163 00       		.byte	0
 2025 0164 1D       		.uleb128 0x1d
 2026 0165 34       		.uleb128 0x34
 2027 0166 00       		.byte	0
 2028 0167 03       		.uleb128 0x3
 2029 0168 08       		.uleb128 0x8
 2030 0169 3A       		.uleb128 0x3a
 2031 016a 0B       		.uleb128 0xb
 2032 016b 3B       		.uleb128 0x3b
 2033 016c 0B       		.uleb128 0xb
 2034 016d 49       		.uleb128 0x49
 2035 016e 13       		.uleb128 0x13
 2036 016f 02       		.uleb128 0x2
 2037 0170 18       		.uleb128 0x18
 2038 0171 00       		.byte	0
 2039 0172 00       		.byte	0
 2040 0173 1E       		.uleb128 0x1e
 2041 0174 0B       		.uleb128 0xb
 2042 0175 01       		.byte	0x1
 2043 0176 11       		.uleb128 0x11
 2044 0177 01       		.uleb128 0x1
 2045 0178 12       		.uleb128 0x12
ARM GAS  /var/folders/4k/6h5l9jl178sb4hslwv3xp1mr0000gn/T//ccl6lYcp.s 			page 37


 2046 0179 06       		.uleb128 0x6
 2047 017a 01       		.uleb128 0x1
 2048 017b 13       		.uleb128 0x13
 2049 017c 00       		.byte	0
 2050 017d 00       		.byte	0
 2051 017e 1F       		.uleb128 0x1f
 2052 017f 898201   		.uleb128 0x4109
 2053 0182 01       		.byte	0x1
 2054 0183 11       		.uleb128 0x11
 2055 0184 01       		.uleb128 0x1
 2056 0185 31       		.uleb128 0x31
 2057 0186 13       		.uleb128 0x13
 2058 0187 00       		.byte	0
 2059 0188 00       		.byte	0
 2060 0189 20       		.uleb128 0x20
 2061 018a 8A8201   		.uleb128 0x410a
 2062 018d 00       		.byte	0
 2063 018e 02       		.uleb128 0x2
 2064 018f 18       		.uleb128 0x18
 2065 0190 9142     		.uleb128 0x2111
 2066 0192 18       		.uleb128 0x18
 2067 0193 00       		.byte	0
 2068 0194 00       		.byte	0
 2069 0195 21       		.uleb128 0x21
 2070 0196 05       		.uleb128 0x5
 2071 0197 00       		.byte	0
 2072 0198 03       		.uleb128 0x3
 2073 0199 08       		.uleb128 0x8
 2074 019a 3A       		.uleb128 0x3a
 2075 019b 0B       		.uleb128 0xb
 2076 019c 3B       		.uleb128 0x3b
 2077 019d 0B       		.uleb128 0xb
 2078 019e 49       		.uleb128 0x49
 2079 019f 13       		.uleb128 0x13
 2080 01a0 02       		.uleb128 0x2
 2081 01a1 17       		.uleb128 0x17
 2082 01a2 00       		.byte	0
 2083 01a3 00       		.byte	0
 2084 01a4 22       		.uleb128 0x22
 2085 01a5 898201   		.uleb128 0x4109
 2086 01a8 01       		.byte	0x1
 2087 01a9 11       		.uleb128 0x11
 2088 01aa 01       		.uleb128 0x1
 2089 01ab 31       		.uleb128 0x31
 2090 01ac 13       		.uleb128 0x13
 2091 01ad 01       		.uleb128 0x1
 2092 01ae 13       		.uleb128 0x13
 2093 01af 00       		.byte	0
 2094 01b0 00       		.byte	0
 2095 01b1 23       		.uleb128 0x23
 2096 01b2 898201   		.uleb128 0x4109
 2097 01b5 01       		.byte	0x1
 2098 01b6 11       		.uleb128 0x11
 2099 01b7 01       		.uleb128 0x1
 2100 01b8 9542     		.uleb128 0x2115
 2101 01ba 19       		.uleb128 0x19
 2102 01bb 31       		.uleb128 0x31
ARM GAS  /var/folders/4k/6h5l9jl178sb4hslwv3xp1mr0000gn/T//ccl6lYcp.s 			page 38


 2103 01bc 13       		.uleb128 0x13
 2104 01bd 00       		.byte	0
 2105 01be 00       		.byte	0
 2106 01bf 24       		.uleb128 0x24
 2107 01c0 34       		.uleb128 0x34
 2108 01c1 00       		.byte	0
 2109 01c2 03       		.uleb128 0x3
 2110 01c3 0E       		.uleb128 0xe
 2111 01c4 3A       		.uleb128 0x3a
 2112 01c5 0B       		.uleb128 0xb
 2113 01c6 3B       		.uleb128 0x3b
 2114 01c7 0B       		.uleb128 0xb
 2115 01c8 49       		.uleb128 0x49
 2116 01c9 13       		.uleb128 0x13
 2117 01ca 3F       		.uleb128 0x3f
 2118 01cb 19       		.uleb128 0x19
 2119 01cc 3C       		.uleb128 0x3c
 2120 01cd 19       		.uleb128 0x19
 2121 01ce 00       		.byte	0
 2122 01cf 00       		.byte	0
 2123 01d0 25       		.uleb128 0x25
 2124 01d1 34       		.uleb128 0x34
 2125 01d2 00       		.byte	0
 2126 01d3 03       		.uleb128 0x3
 2127 01d4 0E       		.uleb128 0xe
 2128 01d5 3A       		.uleb128 0x3a
 2129 01d6 0B       		.uleb128 0xb
 2130 01d7 3B       		.uleb128 0x3b
 2131 01d8 05       		.uleb128 0x5
 2132 01d9 49       		.uleb128 0x49
 2133 01da 13       		.uleb128 0x13
 2134 01db 3F       		.uleb128 0x3f
 2135 01dc 19       		.uleb128 0x19
 2136 01dd 3C       		.uleb128 0x3c
 2137 01de 19       		.uleb128 0x19
 2138 01df 00       		.byte	0
 2139 01e0 00       		.byte	0
 2140 01e1 26       		.uleb128 0x26
 2141 01e2 2E       		.uleb128 0x2e
 2142 01e3 00       		.byte	0
 2143 01e4 3F       		.uleb128 0x3f
 2144 01e5 19       		.uleb128 0x19
 2145 01e6 03       		.uleb128 0x3
 2146 01e7 0E       		.uleb128 0xe
 2147 01e8 3A       		.uleb128 0x3a
 2148 01e9 0B       		.uleb128 0xb
 2149 01ea 3B       		.uleb128 0x3b
 2150 01eb 0B       		.uleb128 0xb
 2151 01ec 27       		.uleb128 0x27
 2152 01ed 19       		.uleb128 0x19
 2153 01ee 3C       		.uleb128 0x3c
 2154 01ef 19       		.uleb128 0x19
 2155 01f0 00       		.byte	0
 2156 01f1 00       		.byte	0
 2157 01f2 27       		.uleb128 0x27
 2158 01f3 2E       		.uleb128 0x2e
 2159 01f4 01       		.byte	0x1
ARM GAS  /var/folders/4k/6h5l9jl178sb4hslwv3xp1mr0000gn/T//ccl6lYcp.s 			page 39


 2160 01f5 3F       		.uleb128 0x3f
 2161 01f6 19       		.uleb128 0x19
 2162 01f7 03       		.uleb128 0x3
 2163 01f8 0E       		.uleb128 0xe
 2164 01f9 3A       		.uleb128 0x3a
 2165 01fa 0B       		.uleb128 0xb
 2166 01fb 3B       		.uleb128 0x3b
 2167 01fc 0B       		.uleb128 0xb
 2168 01fd 27       		.uleb128 0x27
 2169 01fe 19       		.uleb128 0x19
 2170 01ff 3C       		.uleb128 0x3c
 2171 0200 19       		.uleb128 0x19
 2172 0201 01       		.uleb128 0x1
 2173 0202 13       		.uleb128 0x13
 2174 0203 00       		.byte	0
 2175 0204 00       		.byte	0
 2176 0205 28       		.uleb128 0x28
 2177 0206 2E       		.uleb128 0x2e
 2178 0207 01       		.byte	0x1
 2179 0208 3F       		.uleb128 0x3f
 2180 0209 19       		.uleb128 0x19
 2181 020a 03       		.uleb128 0x3
 2182 020b 0E       		.uleb128 0xe
 2183 020c 3A       		.uleb128 0x3a
 2184 020d 0B       		.uleb128 0xb
 2185 020e 3B       		.uleb128 0x3b
 2186 020f 0B       		.uleb128 0xb
 2187 0210 27       		.uleb128 0x27
 2188 0211 19       		.uleb128 0x19
 2189 0212 3C       		.uleb128 0x3c
 2190 0213 19       		.uleb128 0x19
 2191 0214 00       		.byte	0
 2192 0215 00       		.byte	0
 2193 0216 00       		.byte	0
 2194              		.section	.debug_loc,"",%progbits
 2195              	.Ldebug_loc0:
 2196              	.LLST0:
 2197 0000 00000000 		.4byte	.LVL2
 2198 0004 0F000000 		.4byte	.LVL3-1
 2199 0008 0100     		.2byte	0x1
 2200 000a 50       		.byte	0x50
 2201 000b 0F000000 		.4byte	.LVL3-1
 2202 000f 1C000000 		.4byte	.LFE120
 2203 0013 0100     		.2byte	0x1
 2204 0015 54       		.byte	0x54
 2205 0016 00000000 		.4byte	0
 2206 001a 00000000 		.4byte	0
 2207              	.LLST1:
 2208 001e 00000000 		.4byte	.LVL2
 2209 0022 0F000000 		.4byte	.LVL3-1
 2210 0026 0100     		.2byte	0x1
 2211 0028 51       		.byte	0x51
 2212 0029 0F000000 		.4byte	.LVL3-1
 2213 002d 1C000000 		.4byte	.LFE120
 2214 0031 0400     		.2byte	0x4
 2215 0033 F3       		.byte	0xf3
 2216 0034 01       		.uleb128 0x1
ARM GAS  /var/folders/4k/6h5l9jl178sb4hslwv3xp1mr0000gn/T//ccl6lYcp.s 			page 40


 2217 0035 51       		.byte	0x51
 2218 0036 9F       		.byte	0x9f
 2219 0037 00000000 		.4byte	0
 2220 003b 00000000 		.4byte	0
 2221              	.LLST2:
 2222 003f 00000000 		.4byte	.LVL4
 2223 0043 0D000000 		.4byte	.LVL5-1
 2224 0047 0100     		.2byte	0x1
 2225 0049 50       		.byte	0x50
 2226 004a 0D000000 		.4byte	.LVL5-1
 2227 004e 1A000000 		.4byte	.LFE121
 2228 0052 0100     		.2byte	0x1
 2229 0054 54       		.byte	0x54
 2230 0055 00000000 		.4byte	0
 2231 0059 00000000 		.4byte	0
 2232              	.LLST3:
 2233 005d 00000000 		.4byte	.LVL6
 2234 0061 19000000 		.4byte	.LVL9-1
 2235 0065 0100     		.2byte	0x1
 2236 0067 50       		.byte	0x50
 2237 0068 19000000 		.4byte	.LVL9-1
 2238 006c 24000000 		.4byte	.LFE122
 2239 0070 0400     		.2byte	0x4
 2240 0072 F3       		.byte	0xf3
 2241 0073 01       		.uleb128 0x1
 2242 0074 50       		.byte	0x50
 2243 0075 9F       		.byte	0x9f
 2244 0076 00000000 		.4byte	0
 2245 007a 00000000 		.4byte	0
 2246              	.LLST4:
 2247 007e 00000000 		.4byte	.LVL6
 2248 0082 19000000 		.4byte	.LVL9-1
 2249 0086 0100     		.2byte	0x1
 2250 0088 51       		.byte	0x51
 2251 0089 19000000 		.4byte	.LVL9-1
 2252 008d 24000000 		.4byte	.LFE122
 2253 0091 0400     		.2byte	0x4
 2254 0093 F3       		.byte	0xf3
 2255 0094 01       		.uleb128 0x1
 2256 0095 51       		.byte	0x51
 2257 0096 9F       		.byte	0x9f
 2258 0097 00000000 		.4byte	0
 2259 009b 00000000 		.4byte	0
 2260              	.LLST5:
 2261 009f 00000000 		.4byte	.LVL6
 2262 00a3 16000000 		.4byte	.LVL8
 2263 00a7 0100     		.2byte	0x1
 2264 00a9 52       		.byte	0x52
 2265 00aa 16000000 		.4byte	.LVL8
 2266 00ae 19000000 		.4byte	.LVL9-1
 2267 00b2 0100     		.2byte	0x1
 2268 00b4 53       		.byte	0x53
 2269 00b5 19000000 		.4byte	.LVL9-1
 2270 00b9 24000000 		.4byte	.LFE122
 2271 00bd 0400     		.2byte	0x4
 2272 00bf F3       		.byte	0xf3
 2273 00c0 01       		.uleb128 0x1
ARM GAS  /var/folders/4k/6h5l9jl178sb4hslwv3xp1mr0000gn/T//ccl6lYcp.s 			page 41


 2274 00c1 52       		.byte	0x52
 2275 00c2 9F       		.byte	0x9f
 2276 00c3 00000000 		.4byte	0
 2277 00c7 00000000 		.4byte	0
 2278              	.LLST6:
 2279 00cb 00000000 		.4byte	.LVL6
 2280 00cf 08000000 		.4byte	.LVL7
 2281 00d3 0100     		.2byte	0x1
 2282 00d5 53       		.byte	0x53
 2283 00d6 08000000 		.4byte	.LVL7
 2284 00da 24000000 		.4byte	.LFE122
 2285 00de 0100     		.2byte	0x1
 2286 00e0 54       		.byte	0x54
 2287 00e1 00000000 		.4byte	0
 2288 00e5 00000000 		.4byte	0
 2289              	.LLST7:
 2290 00e9 00000000 		.4byte	.LVL10
 2291 00ed 19000000 		.4byte	.LVL13-1
 2292 00f1 0100     		.2byte	0x1
 2293 00f3 50       		.byte	0x50
 2294 00f4 19000000 		.4byte	.LVL13-1
 2295 00f8 24000000 		.4byte	.LFE123
 2296 00fc 0400     		.2byte	0x4
 2297 00fe F3       		.byte	0xf3
 2298 00ff 01       		.uleb128 0x1
 2299 0100 50       		.byte	0x50
 2300 0101 9F       		.byte	0x9f
 2301 0102 00000000 		.4byte	0
 2302 0106 00000000 		.4byte	0
 2303              	.LLST8:
 2304 010a 00000000 		.4byte	.LVL10
 2305 010e 19000000 		.4byte	.LVL13-1
 2306 0112 0100     		.2byte	0x1
 2307 0114 51       		.byte	0x51
 2308 0115 19000000 		.4byte	.LVL13-1
 2309 0119 24000000 		.4byte	.LFE123
 2310 011d 0400     		.2byte	0x4
 2311 011f F3       		.byte	0xf3
 2312 0120 01       		.uleb128 0x1
 2313 0121 51       		.byte	0x51
 2314 0122 9F       		.byte	0x9f
 2315 0123 00000000 		.4byte	0
 2316 0127 00000000 		.4byte	0
 2317              	.LLST9:
 2318 012b 00000000 		.4byte	.LVL10
 2319 012f 16000000 		.4byte	.LVL12
 2320 0133 0100     		.2byte	0x1
 2321 0135 52       		.byte	0x52
 2322 0136 16000000 		.4byte	.LVL12
 2323 013a 19000000 		.4byte	.LVL13-1
 2324 013e 0100     		.2byte	0x1
 2325 0140 53       		.byte	0x53
 2326 0141 19000000 		.4byte	.LVL13-1
 2327 0145 24000000 		.4byte	.LFE123
 2328 0149 0400     		.2byte	0x4
 2329 014b F3       		.byte	0xf3
 2330 014c 01       		.uleb128 0x1
ARM GAS  /var/folders/4k/6h5l9jl178sb4hslwv3xp1mr0000gn/T//ccl6lYcp.s 			page 42


 2331 014d 52       		.byte	0x52
 2332 014e 9F       		.byte	0x9f
 2333 014f 00000000 		.4byte	0
 2334 0153 00000000 		.4byte	0
 2335              	.LLST10:
 2336 0157 00000000 		.4byte	.LVL10
 2337 015b 08000000 		.4byte	.LVL11
 2338 015f 0100     		.2byte	0x1
 2339 0161 53       		.byte	0x53
 2340 0162 08000000 		.4byte	.LVL11
 2341 0166 24000000 		.4byte	.LFE123
 2342 016a 0100     		.2byte	0x1
 2343 016c 54       		.byte	0x54
 2344 016d 00000000 		.4byte	0
 2345 0171 00000000 		.4byte	0
 2346              	.LLST11:
 2347 0175 00000000 		.4byte	.LVL14
 2348 0179 10000000 		.4byte	.LVL16
 2349 017d 0100     		.2byte	0x1
 2350 017f 50       		.byte	0x50
 2351 0180 10000000 		.4byte	.LVL16
 2352 0184 32000000 		.4byte	.LVL19
 2353 0188 0100     		.2byte	0x1
 2354 018a 54       		.byte	0x54
 2355 018b 32000000 		.4byte	.LVL19
 2356 018f 3C000000 		.4byte	.LFE124
 2357 0193 0400     		.2byte	0x4
 2358 0195 F3       		.byte	0xf3
 2359 0196 01       		.uleb128 0x1
 2360 0197 50       		.byte	0x50
 2361 0198 9F       		.byte	0x9f
 2362 0199 00000000 		.4byte	0
 2363 019d 00000000 		.4byte	0
 2364              	.LLST12:
 2365 01a1 00000000 		.4byte	.LVL14
 2366 01a5 1D000000 		.4byte	.LVL18-1
 2367 01a9 0100     		.2byte	0x1
 2368 01ab 51       		.byte	0x51
 2369 01ac 1D000000 		.4byte	.LVL18-1
 2370 01b0 3C000000 		.4byte	.LFE124
 2371 01b4 0400     		.2byte	0x4
 2372 01b6 F3       		.byte	0xf3
 2373 01b7 01       		.uleb128 0x1
 2374 01b8 51       		.byte	0x51
 2375 01b9 9F       		.byte	0x9f
 2376 01ba 00000000 		.4byte	0
 2377 01be 00000000 		.4byte	0
 2378              	.LLST13:
 2379 01c2 00000000 		.4byte	.LVL14
 2380 01c6 18000000 		.4byte	.LVL17
 2381 01ca 0100     		.2byte	0x1
 2382 01cc 52       		.byte	0x52
 2383 01cd 18000000 		.4byte	.LVL17
 2384 01d1 1D000000 		.4byte	.LVL18-1
 2385 01d5 0100     		.2byte	0x1
 2386 01d7 53       		.byte	0x53
 2387 01d8 1D000000 		.4byte	.LVL18-1
ARM GAS  /var/folders/4k/6h5l9jl178sb4hslwv3xp1mr0000gn/T//ccl6lYcp.s 			page 43


 2388 01dc 3C000000 		.4byte	.LFE124
 2389 01e0 0400     		.2byte	0x4
 2390 01e2 F3       		.byte	0xf3
 2391 01e3 01       		.uleb128 0x1
 2392 01e4 52       		.byte	0x52
 2393 01e5 9F       		.byte	0x9f
 2394 01e6 00000000 		.4byte	0
 2395 01ea 00000000 		.4byte	0
 2396              	.LLST14:
 2397 01ee 00000000 		.4byte	.LVL14
 2398 01f2 0A000000 		.4byte	.LVL15
 2399 01f6 0100     		.2byte	0x1
 2400 01f8 53       		.byte	0x53
 2401 01f9 0A000000 		.4byte	.LVL15
 2402 01fd 32000000 		.4byte	.LVL19
 2403 0201 0100     		.2byte	0x1
 2404 0203 55       		.byte	0x55
 2405 0204 32000000 		.4byte	.LVL19
 2406 0208 3C000000 		.4byte	.LFE124
 2407 020c 0400     		.2byte	0x4
 2408 020e F3       		.byte	0xf3
 2409 020f 01       		.uleb128 0x1
 2410 0210 53       		.byte	0x53
 2411 0211 9F       		.byte	0x9f
 2412 0212 00000000 		.4byte	0
 2413 0216 00000000 		.4byte	0
 2414              		.section	.debug_aranges,"",%progbits
 2415 0000 4C000000 		.4byte	0x4c
 2416 0004 0200     		.2byte	0x2
 2417 0006 00000000 		.4byte	.Ldebug_info0
 2418 000a 04       		.byte	0x4
 2419 000b 00       		.byte	0
 2420 000c 0000     		.2byte	0
 2421 000e 0000     		.2byte	0
 2422 0010 00000000 		.4byte	.LFB118
 2423 0014 04000000 		.4byte	.LFE118-.LFB118
 2424 0018 00000000 		.4byte	.LFB119
 2425 001c 0C000000 		.4byte	.LFE119-.LFB119
 2426 0020 00000000 		.4byte	.LFB120
 2427 0024 1C000000 		.4byte	.LFE120-.LFB120
 2428 0028 00000000 		.4byte	.LFB121
 2429 002c 1A000000 		.4byte	.LFE121-.LFB121
 2430 0030 00000000 		.4byte	.LFB122
 2431 0034 24000000 		.4byte	.LFE122-.LFB122
 2432 0038 00000000 		.4byte	.LFB123
 2433 003c 24000000 		.4byte	.LFE123-.LFB123
 2434 0040 00000000 		.4byte	.LFB124
 2435 0044 3C000000 		.4byte	.LFE124-.LFB124
 2436 0048 00000000 		.4byte	0
 2437 004c 00000000 		.4byte	0
 2438              		.section	.debug_ranges,"",%progbits
 2439              	.Ldebug_ranges0:
 2440 0000 02000000 		.4byte	.LBB2
 2441 0004 04000000 		.4byte	.LBE2
 2442 0008 06000000 		.4byte	.LBB3
 2443 000c 0A000000 		.4byte	.LBE3
 2444 0010 00000000 		.4byte	0
ARM GAS  /var/folders/4k/6h5l9jl178sb4hslwv3xp1mr0000gn/T//ccl6lYcp.s 			page 44


 2445 0014 00000000 		.4byte	0
 2446 0018 02000000 		.4byte	.LBB5
 2447 001c 04000000 		.4byte	.LBE5
 2448 0020 06000000 		.4byte	.LBB6
 2449 0024 0A000000 		.4byte	.LBE6
 2450 0028 00000000 		.4byte	0
 2451 002c 00000000 		.4byte	0
 2452 0030 00000000 		.4byte	.LFB118
 2453 0034 04000000 		.4byte	.LFE118
 2454 0038 00000000 		.4byte	.LFB119
 2455 003c 0C000000 		.4byte	.LFE119
 2456 0040 00000000 		.4byte	.LFB120
 2457 0044 1C000000 		.4byte	.LFE120
 2458 0048 00000000 		.4byte	.LFB121
 2459 004c 1A000000 		.4byte	.LFE121
 2460 0050 00000000 		.4byte	.LFB122
 2461 0054 24000000 		.4byte	.LFE122
 2462 0058 00000000 		.4byte	.LFB123
 2463 005c 24000000 		.4byte	.LFE123
 2464 0060 00000000 		.4byte	.LFB124
 2465 0064 3C000000 		.4byte	.LFE124
 2466 0068 00000000 		.4byte	0
 2467 006c 00000000 		.4byte	0
 2468              		.section	.debug_line,"",%progbits
 2469              	.Ldebug_line0:
 2470 0000 9B030000 		.section	.debug_str,"MS",%progbits,1
 2470      02000503 
 2470      00000201 
 2470      FB0E0D00 
 2470      01010101 
 2471              	.LASF97:
 2472 0000 646D6172 		.ascii	"dmarx\000"
 2472      7800
 2473              	.LASF76:
 2474 0006 4D304152 		.ascii	"M0AR\000"
 2474      00
 2475              	.LASF2:
 2476 000b 73697A65 		.ascii	"size_t\000"
 2476      5F7400
 2477              	.LASF63:
 2478 0012 7264796D 		.ascii	"rdymsg\000"
 2478      736700
 2479              	.LASF119:
 2480 0019 2E2E2F43 		.ascii	"../ChibiStudio/ChibiOS/os/hal/src/dcmi.c\000"
 2480      68696269 
 2480      53747564 
 2480      696F2F43 
 2480      68696269 
 2481              	.LASF3:
 2482 0042 5F5F7569 		.ascii	"__uint8_t\000"
 2482      6E74385F 
 2482      7400
 2483              	.LASF12:
 2484 004c 6C6F6E67 		.ascii	"long long unsigned int\000"
 2484      206C6F6E 
 2484      6720756E 
 2484      7369676E 
ARM GAS  /var/folders/4k/6h5l9jl178sb4hslwv3xp1mr0000gn/T//ccl6lYcp.s 			page 45


 2484      65642069 
 2485              	.LASF64:
 2486 0063 65786974 		.ascii	"exitcode\000"
 2486      636F6465 
 2486      00
 2487              	.LASF83:
 2488 006c 76656374 		.ascii	"vector\000"
 2488      6F7200
 2489              	.LASF96:
 2490 0073 64636D69 		.ascii	"dcmi\000"
 2490      00
 2491              	.LASF86:
 2492 0078 44434D49 		.ascii	"DCMI_STOP\000"
 2492      5F53544F 
 2492      5000
 2493              	.LASF29:
 2494 0082 705F7072 		.ascii	"p_prio\000"
 2494      696F00
 2495              	.LASF11:
 2496 0089 6C6F6E67 		.ascii	"long long int\000"
 2496      206C6F6E 
 2496      6720696E 
 2496      7400
 2497              	.LASF1:
 2498 0097 7369676E 		.ascii	"signed char\000"
 2498      65642063 
 2498      68617200 
 2499              	.LASF81:
 2500 00a3 69736869 		.ascii	"ishift\000"
 2500      667400
 2501              	.LASF121:
 2502 00aa 64636D69 		.ascii	"dcmi_lld_init\000"
 2502      5F6C6C64 
 2502      5F696E69 
 2502      7400
 2503              	.LASF45:
 2504 00b8 705F6D70 		.ascii	"p_mpool\000"
 2504      6F6F6C00 
 2505              	.LASF16:
 2506 00c0 626F6F6C 		.ascii	"bool_t\000"
 2506      5F7400
 2507              	.LASF60:
 2508 00c7 6D5F7175 		.ascii	"m_queue\000"
 2508      65756500 
 2509              	.LASF21:
 2510 00cf 74736C69 		.ascii	"tslices_t\000"
 2510      6365735F 
 2510      7400
 2511              	.LASF93:
 2512 00d9 73746174 		.ascii	"state\000"
 2512      6500
 2513              	.LASF89:
 2514 00df 44434D49 		.ascii	"DCMI_LISTEN_ONCE\000"
 2514      5F4C4953 
 2514      54454E5F 
 2514      4F4E4345 
 2514      00
ARM GAS  /var/folders/4k/6h5l9jl178sb4hslwv3xp1mr0000gn/T//ccl6lYcp.s 			page 46


 2515              	.LASF8:
 2516 00f0 6C6F6E67 		.ascii	"long int\000"
 2516      20696E74 
 2516      00
 2517              	.LASF102:
 2518 00f9 44434D49 		.ascii	"DCMIConfig\000"
 2518      436F6E66 
 2518      696700
 2519              	.LASF90:
 2520 0104 44434D49 		.ascii	"DCMI_COMPLETE\000"
 2520      5F434F4D 
 2520      504C4554 
 2520      4500
 2521              	.LASF19:
 2522 0112 74737461 		.ascii	"tstate_t\000"
 2522      74655F74 
 2522      00
 2523              	.LASF71:
 2524 011b 45535552 		.ascii	"ESUR\000"
 2524      00
 2525              	.LASF36:
 2526 0120 705F7265 		.ascii	"p_refs\000"
 2526      667300
 2527              	.LASF115:
 2528 0127 64636D69 		.ascii	"dcmi_lld_start\000"
 2528      5F6C6C64 
 2528      5F737461 
 2528      727400
 2529              	.LASF38:
 2530 0136 705F7469 		.ascii	"p_time\000"
 2530      6D6500
 2531              	.LASF31:
 2532 013d 705F6E65 		.ascii	"p_newer\000"
 2532      77657200 
 2533              	.LASF98:
 2534 0145 7278646D 		.ascii	"rxdmamode\000"
 2534      616D6F64 
 2534      6500
 2535              	.LASF55:
 2536 014f 725F6E65 		.ascii	"r_newer\000"
 2536      77657200 
 2537              	.LASF48:
 2538 0157 72656761 		.ascii	"regarm_t\000"
 2538      726D5F74 
 2538      00
 2539              	.LASF82:
 2540 0160 73656C66 		.ascii	"selfindex\000"
 2540      696E6465 
 2540      7800
 2541              	.LASF0:
 2542 016a 756E7369 		.ascii	"unsigned int\000"
 2542      676E6564 
 2542      20696E74 
 2542      00
 2543              	.LASF68:
 2544 0177 52495352 		.ascii	"RISR\000"
 2544      00
ARM GAS  /var/folders/4k/6h5l9jl178sb4hslwv3xp1mr0000gn/T//ccl6lYcp.s 			page 47


 2545              	.LASF74:
 2546 017c 44434D49 		.ascii	"DCMI_TypeDef\000"
 2546      5F547970 
 2546      65446566 
 2546      00
 2547              	.LASF112:
 2548 0189 64636D69 		.ascii	"dcmiReceiveOneShot\000"
 2548      52656365 
 2548      6976654F 
 2548      6E655368 
 2548      6F7400
 2549              	.LASF40:
 2550 019c 705F6D73 		.ascii	"p_msgqueue\000"
 2550      67717565 
 2550      756500
 2551              	.LASF92:
 2552 01a7 44434D49 		.ascii	"DCMIDriver\000"
 2552      44726976 
 2552      657200
 2553              	.LASF73:
 2554 01b2 43575349 		.ascii	"CWSIZER\000"
 2554      5A455200 
 2555              	.LASF6:
 2556 01ba 73686F72 		.ascii	"short unsigned int\000"
 2556      7420756E 
 2556      7369676E 
 2556      65642069 
 2556      6E7400
 2557              	.LASF87:
 2558 01cd 44434D49 		.ascii	"DCMI_READY\000"
 2558      5F524541 
 2558      445900
 2559              	.LASF23:
 2560 01d8 6D73675F 		.ascii	"msg_t\000"
 2560      7400
 2561              	.LASF117:
 2562 01de 64636D69 		.ascii	"dcmi_lld_receive\000"
 2562      5F6C6C64 
 2562      5F726563 
 2562      65697665 
 2562      00
 2563              	.LASF18:
 2564 01ef 746D6F64 		.ascii	"tmode_t\000"
 2564      655F7400 
 2565              	.LASF47:
 2566 01f7 54687265 		.ascii	"ThreadsList\000"
 2566      6164734C 
 2566      69737400 
 2567              	.LASF24:
 2568 0203 6576656E 		.ascii	"eventmask_t\000"
 2568      746D6173 
 2568      6B5F7400 
 2569              	.LASF107:
 2570 020f 64636D69 		.ascii	"dcmiStop\000"
 2570      53746F70 
 2570      00
 2571              	.LASF51:
ARM GAS  /var/folders/4k/6h5l9jl178sb4hslwv3xp1mr0000gn/T//ccl6lYcp.s 			page 48


 2572 0218 73697A65 		.ascii	"sizetype\000"
 2572      74797065 
 2572      00
 2573              	.LASF59:
 2574 0221 4D757465 		.ascii	"Mutex\000"
 2574      7800
 2575              	.LASF32:
 2576 0227 705F6F6C 		.ascii	"p_older\000"
 2576      64657200 
 2577              	.LASF54:
 2578 022f 725F6374 		.ascii	"r_ctx\000"
 2578      7800
 2579              	.LASF85:
 2580 0235 44434D49 		.ascii	"DCMI_UNINIT\000"
 2580      5F554E49 
 2580      4E495400 
 2581              	.LASF46:
 2582 0241 54687265 		.ascii	"ThreadsQueue\000"
 2582      61647351 
 2582      75657565 
 2582      00
 2583              	.LASF57:
 2584 024e 725F6375 		.ascii	"r_current\000"
 2584      7272656E 
 2584      7400
 2585              	.LASF56:
 2586 0258 725F6F6C 		.ascii	"r_older\000"
 2586      64657200 
 2587              	.LASF72:
 2588 0260 43575354 		.ascii	"CWSTRTR\000"
 2588      52545200 
 2589              	.LASF105:
 2590 0268 64636D69 		.ascii	"dcmiStart\000"
 2590      53746172 
 2590      7400
 2591              	.LASF20:
 2592 0272 74726566 		.ascii	"trefs_t\000"
 2592      735F7400 
 2593              	.LASF28:
 2594 027a 705F7072 		.ascii	"p_prev\000"
 2594      657600
 2595              	.LASF84:
 2596 0281 73746D33 		.ascii	"stm32_dma_stream_t\000"
 2596      325F646D 
 2596      615F7374 
 2596      7265616D 
 2596      5F7400
 2597              	.LASF22:
 2598 0294 74707269 		.ascii	"tprio_t\000"
 2598      6F5F7400 
 2599              	.LASF99:
 2600 029c 64636D69 		.ascii	"dcmicallback_t\000"
 2600      63616C6C 
 2600      6261636B 
 2600      5F7400
 2601              	.LASF79:
 2602 02ab 73747265 		.ascii	"stream\000"
ARM GAS  /var/folders/4k/6h5l9jl178sb4hslwv3xp1mr0000gn/T//ccl6lYcp.s 			page 49


 2602      616D00
 2603              	.LASF95:
 2604 02b2 74687265 		.ascii	"thread\000"
 2604      616400
 2605              	.LASF17:
 2606 02b9 5F426F6F 		.ascii	"_Bool\000"
 2606      6C00
 2607              	.LASF14:
 2608 02bf 696E7433 		.ascii	"int32_t\000"
 2608      325F7400 
 2609              	.LASF4:
 2610 02c7 756E7369 		.ascii	"unsigned char\000"
 2610      676E6564 
 2610      20636861 
 2610      7200
 2611              	.LASF118:
 2612 02d5 474E5520 		.ascii	"GNU C 4.8.3 20140228 (release) [ARM/embedded-4_8-br"
 2612      4320342E 
 2612      382E3320 
 2612      32303134 
 2612      30323238 
 2613 0308 616E6368 		.ascii	"anch revision 208322] -mcpu=cortex-m4 -mno-thumb-in"
 2613      20726576 
 2613      6973696F 
 2613      6E203230 
 2613      38333232 
 2614 033b 74657277 		.ascii	"terwork -mthumb -ggdb -O2 -fomit-frame-pointer -fal"
 2614      6F726B20 
 2614      2D6D7468 
 2614      756D6220 
 2614      2D676764 
 2615 036e 69676E2D 		.ascii	"ign-functions=16 -ffunction-sections -fdata-section"
 2615      66756E63 
 2615      74696F6E 
 2615      733D3136 
 2615      202D6666 
 2616 03a1 73202D66 		.ascii	"s -fno-common\000"
 2616      6E6F2D63 
 2616      6F6D6D6F 
 2616      6E00
 2617              	.LASF114:
 2618 03af 49544D5F 		.ascii	"ITM_RxBuffer\000"
 2618      52784275 
 2618      66666572 
 2618      00
 2619              	.LASF43:
 2620 03bc 705F6D74 		.ascii	"p_mtxlist\000"
 2620      786C6973 
 2620      7400
 2621              	.LASF5:
 2622 03c6 73686F72 		.ascii	"short int\000"
 2622      7420696E 
 2622      7400
 2623              	.LASF34:
 2624 03d0 705F7374 		.ascii	"p_state\000"
 2624      61746500 
 2625              	.LASF37:
ARM GAS  /var/folders/4k/6h5l9jl178sb4hslwv3xp1mr0000gn/T//ccl6lYcp.s 			page 50


 2626 03d8 705F7072 		.ascii	"p_preempt\000"
 2626      65656D70 
 2626      7400
 2627              	.LASF53:
 2628 03e2 725F7072 		.ascii	"r_prio\000"
 2628      696F00
 2629              	.LASF88:
 2630 03e9 44434D49 		.ascii	"DCMI_LISTEN\000"
 2630      5F4C4953 
 2630      54454E00 
 2631              	.LASF66:
 2632 03f5 65776D61 		.ascii	"ewmask\000"
 2632      736B00
 2633              	.LASF27:
 2634 03fc 705F6E65 		.ascii	"p_next\000"
 2634      787400
 2635              	.LASF100:
 2636 0403 6672616D 		.ascii	"frame_end_cb\000"
 2636      655F656E 
 2636      645F6362 
 2636      00
 2637              	.LASF35:
 2638 0410 705F666C 		.ascii	"p_flags\000"
 2638      61677300 
 2639              	.LASF104:
 2640 0418 64636D69 		.ascii	"dcmiObjectInit\000"
 2640      4F626A65 
 2640      6374496E 
 2640      697400
 2641              	.LASF26:
 2642 0427 54687265 		.ascii	"Thread\000"
 2642      616400
 2643              	.LASF120:
 2644 042e 2F557365 		.ascii	"/Users/mikevanis/Documents/workspace/STM32_DCMI_CAM"
 2644      72732F6D 
 2644      696B6576 
 2644      616E6973 
 2644      2F446F63 
 2645 0461 4552412F 		.ascii	"ERA/\000"
 2645      00
 2646              	.LASF122:
 2647 0466 63685363 		.ascii	"chSchGoSleepS\000"
 2647      68476F53 
 2647      6C656570 
 2647      5300
 2648              	.LASF42:
 2649 0474 705F6570 		.ascii	"p_epending\000"
 2649      656E6469 
 2649      6E6700
 2650              	.LASF80:
 2651 047f 69666372 		.ascii	"ifcr\000"
 2651      00
 2652              	.LASF106:
 2653 0484 64636D69 		.ascii	"dcmip\000"
 2653      7000
 2654              	.LASF15:
 2655 048a 75696E74 		.ascii	"uint32_t\000"
ARM GAS  /var/folders/4k/6h5l9jl178sb4hslwv3xp1mr0000gn/T//ccl6lYcp.s 			page 51


 2655      33325F74 
 2655      00
 2656              	.LASF52:
 2657 0493 725F7175 		.ascii	"r_queue\000"
 2657      65756500 
 2658              	.LASF116:
 2659 049b 64636D69 		.ascii	"dcmi_lld_stop\000"
 2659      5F6C6C64 
 2659      5F73746F 
 2659      7000
 2660              	.LASF10:
 2661 04a9 6C6F6E67 		.ascii	"long unsigned int\000"
 2661      20756E73 
 2661      69676E65 
 2661      6420696E 
 2661      7400
 2662              	.LASF67:
 2663 04bb 63686172 		.ascii	"char\000"
 2663      00
 2664              	.LASF94:
 2665 04c0 636F6E66 		.ascii	"config\000"
 2665      696700
 2666              	.LASF62:
 2667 04c7 6D5F6E65 		.ascii	"m_next\000"
 2667      787400
 2668              	.LASF25:
 2669 04ce 73797374 		.ascii	"systime_t\000"
 2669      696D655F 
 2669      7400
 2670              	.LASF44:
 2671 04d8 705F7265 		.ascii	"p_realprio\000"
 2671      616C7072 
 2671      696F00
 2672              	.LASF7:
 2673 04e3 5F5F696E 		.ascii	"__int32_t\000"
 2673      7433325F 
 2673      7400
 2674              	.LASF9:
 2675 04ed 5F5F7569 		.ascii	"__uint32_t\000"
 2675      6E743332 
 2675      5F7400
 2676              	.LASF75:
 2677 04f8 4E445452 		.ascii	"NDTR\000"
 2677      00
 2678              	.LASF78:
 2679 04fd 444D415F 		.ascii	"DMA_Stream_TypeDef\000"
 2679      53747265 
 2679      616D5F54 
 2679      79706544 
 2679      656600
 2680              	.LASF50:
 2681 0510 636F6E74 		.ascii	"context\000"
 2681      65787400 
 2682              	.LASF101:
 2683 0518 7472616E 		.ascii	"transfer_complete_cb\000"
 2683      73666572 
 2683      5F636F6D 
ARM GAS  /var/folders/4k/6h5l9jl178sb4hslwv3xp1mr0000gn/T//ccl6lYcp.s 			page 52


 2683      706C6574 
 2683      655F6362 
 2684              	.LASF49:
 2685 052d 696E7463 		.ascii	"intctx\000"
 2685      747800
 2686              	.LASF70:
 2687 0534 45534352 		.ascii	"ESCR\000"
 2687      00
 2688              	.LASF77:
 2689 0539 4D314152 		.ascii	"M1AR\000"
 2689      00
 2690              	.LASF91:
 2691 053e 64636D69 		.ascii	"dcmistate_t\000"
 2691      73746174 
 2691      655F7400 
 2692              	.LASF111:
 2693 054a 64636D69 		.ascii	"dcmiStartReceiveOneShot\000"
 2693      53746172 
 2693      74526563 
 2693      65697665 
 2693      4F6E6553 
 2694              	.LASF109:
 2695 0562 72786275 		.ascii	"rxbuf0\000"
 2695      663000
 2696              	.LASF110:
 2697 0569 72786275 		.ascii	"rxbuf1\000"
 2697      663100
 2698              	.LASF69:
 2699 0570 4D495352 		.ascii	"MISR\000"
 2699      00
 2700              	.LASF58:
 2701 0575 52656164 		.ascii	"ReadyList\000"
 2701      794C6973 
 2701      7400
 2702              	.LASF113:
 2703 057f 726C6973 		.ascii	"rlist\000"
 2703      7400
 2704              	.LASF103:
 2705 0585 64636D69 		.ascii	"dcmiInit\000"
 2705      496E6974 
 2705      00
 2706              	.LASF13:
 2707 058e 75696E74 		.ascii	"uint8_t\000"
 2707      385F7400 
 2708              	.LASF65:
 2709 0596 77746F62 		.ascii	"wtobjp\000"
 2709      6A7000
 2710              	.LASF33:
 2711 059d 705F6E61 		.ascii	"p_name\000"
 2711      6D6500
 2712              	.LASF41:
 2713 05a4 705F6D73 		.ascii	"p_msg\000"
 2713      6700
 2714              	.LASF108:
 2715 05aa 64636D69 		.ascii	"dcmiStartReceive\000"
 2715      53746172 
 2715      74526563 
ARM GAS  /var/folders/4k/6h5l9jl178sb4hslwv3xp1mr0000gn/T//ccl6lYcp.s 			page 53


 2715      65697665 
 2715      00
 2716              	.LASF61:
 2717 05bb 6D5F6F77 		.ascii	"m_owner\000"
 2717      6E657200 
 2718              	.LASF30:
 2719 05c3 705F6374 		.ascii	"p_ctx\000"
 2719      7800
 2720              	.LASF39:
 2721 05c9 705F7761 		.ascii	"p_waiting\000"
 2721      6974696E 
 2721      6700
 2722              		.ident	"GCC: (GNU Tools for ARM Embedded Processors) 4.8.3 20140228 (release) [ARM/embedded-4_8-br
ARM GAS  /var/folders/4k/6h5l9jl178sb4hslwv3xp1mr0000gn/T//ccl6lYcp.s 			page 54


DEFINED SYMBOLS
                            *ABS*:0000000000000000 dcmi.c
/var/folders/4k/6h5l9jl178sb4hslwv3xp1mr0000gn/T//ccl6lYcp.s:19     .text.dcmiInit:0000000000000000 $t
/var/folders/4k/6h5l9jl178sb4hslwv3xp1mr0000gn/T//ccl6lYcp.s:25     .text.dcmiInit:0000000000000000 dcmiInit
/var/folders/4k/6h5l9jl178sb4hslwv3xp1mr0000gn/T//ccl6lYcp.s:40     .text.dcmiObjectInit:0000000000000000 $t
/var/folders/4k/6h5l9jl178sb4hslwv3xp1mr0000gn/T//ccl6lYcp.s:46     .text.dcmiObjectInit:0000000000000000 dcmiObjectInit
/var/folders/4k/6h5l9jl178sb4hslwv3xp1mr0000gn/T//ccl6lYcp.s:68     .text.dcmiStart:0000000000000000 $t
/var/folders/4k/6h5l9jl178sb4hslwv3xp1mr0000gn/T//ccl6lYcp.s:74     .text.dcmiStart:0000000000000000 dcmiStart
/var/folders/4k/6h5l9jl178sb4hslwv3xp1mr0000gn/T//ccl6lYcp.s:119    .text.dcmiStop:0000000000000000 $t
/var/folders/4k/6h5l9jl178sb4hslwv3xp1mr0000gn/T//ccl6lYcp.s:125    .text.dcmiStop:0000000000000000 dcmiStop
/var/folders/4k/6h5l9jl178sb4hslwv3xp1mr0000gn/T//ccl6lYcp.s:168    .text.dcmiStartReceive:0000000000000000 $t
/var/folders/4k/6h5l9jl178sb4hslwv3xp1mr0000gn/T//ccl6lYcp.s:174    .text.dcmiStartReceive:0000000000000000 dcmiStartReceive
/var/folders/4k/6h5l9jl178sb4hslwv3xp1mr0000gn/T//ccl6lYcp.s:223    .text.dcmiStartReceiveOneShot:0000000000000000 $t
/var/folders/4k/6h5l9jl178sb4hslwv3xp1mr0000gn/T//ccl6lYcp.s:229    .text.dcmiStartReceiveOneShot:0000000000000000 dcmiStartReceiveOneShot
/var/folders/4k/6h5l9jl178sb4hslwv3xp1mr0000gn/T//ccl6lYcp.s:278    .text.dcmiReceiveOneShot:0000000000000000 $t
/var/folders/4k/6h5l9jl178sb4hslwv3xp1mr0000gn/T//ccl6lYcp.s:284    .text.dcmiReceiveOneShot:0000000000000000 dcmiReceiveOneShot
/var/folders/4k/6h5l9jl178sb4hslwv3xp1mr0000gn/T//ccl6lYcp.s:345    .text.dcmiReceiveOneShot:0000000000000038 $d
                     .debug_frame:0000000000000010 $d
/var/folders/4k/6h5l9jl178sb4hslwv3xp1mr0000gn/T//ccl6lYcp.s:349    .text.dcmiReceiveOneShot:000000000000003c $t

UNDEFINED SYMBOLS
dcmi_lld_init
dcmi_lld_start
dcmi_lld_stop
dcmi_lld_receive
chSchGoSleepS
rlist
