ARM GAS  /var/folders/4k/6h5l9jl178sb4hslwv3xp1mr0000gn/T//ccbqUqza.s 			page 1


   1              		.syntax unified
   2              		.cpu cortex-m4
   3              		.fpu softvfp
   4              		.eabi_attribute 20, 1
   5              		.eabi_attribute 21, 1
   6              		.eabi_attribute 23, 3
   7              		.eabi_attribute 24, 1
   8              		.eabi_attribute 25, 1
   9              		.eabi_attribute 26, 1
  10              		.eabi_attribute 30, 2
  11              		.eabi_attribute 34, 1
  12              		.eabi_attribute 18, 4
  13              		.thumb
  14              		.file	"evtimer.c"
  15              		.text
  16              	.Ltext0:
  17              		.cfi_sections	.debug_frame
  18              		.section	.text.tmrcb,"ax",%progbits
  19              		.align	2
  20              		.p2align 4,,15
  21              		.thumb
  22              		.thumb_func
  23              		.type	tmrcb, %function
  24              	tmrcb:
  25              	.LFB7:
  26              		.file 1 "../ChibiStudio/ChibiOS/os/various/evtimer.c"
  27              		.loc 1 28 0
  28              		.cfi_startproc
  29              		@ args = 0, pretend = 0, frame = 0
  30              		@ frame_needed = 0, uses_anonymous_args = 0
  31              	.LVL0:
  32 0000 10B5     		push	{r4, lr}
  33              		.cfi_def_cfa_offset 8
  34              		.cfi_offset 4, -8
  35              		.cfi_offset 14, -4
  36              	.LBB2:
  37              		.loc 1 31 0
  38 0002 2023     		movs	r3, #32
  39              	.LBE2:
  40              		.loc 1 28 0
  41 0004 0446     		mov	r4, r0
  42              	.LVL1:
  43              	.LBB3:
  44              		.loc 1 31 0
  45              	@ 31 "../ChibiStudio/ChibiOS/os/various/evtimer.c" 1
  46 0006 83F31188 		msr     BASEPRI, r3
  47              	@ 0 "" 2
  48              		.thumb
  49              	.LBE3:
  50              		.loc 1 32 0
  51 000a 0021     		movs	r1, #0
  52 000c 1430     		adds	r0, r0, #20
  53              	.LVL2:
  54 000e FFF7FEFF 		bl	chEvtBroadcastFlagsI
  55              	.LVL3:
  56              		.loc 1 33 0
  57 0012 2346     		mov	r3, r4
ARM GAS  /var/folders/4k/6h5l9jl178sb4hslwv3xp1mr0000gn/T//ccbqUqza.s 			page 2


  58 0014 2046     		mov	r0, r4
  59 0016 A169     		ldr	r1, [r4, #24]
  60 0018 034A     		ldr	r2, .L2
  61 001a FFF7FEFF 		bl	chVTSetI
  62              	.LVL4:
  63              	.LBB4:
  64              		.loc 1 34 0
  65 001e 0023     		movs	r3, #0
  66              	@ 34 "../ChibiStudio/ChibiOS/os/various/evtimer.c" 1
  67 0020 83F31188 		msr     BASEPRI, r3
  68              	@ 0 "" 2
  69              		.thumb
  70 0024 10BD     		pop	{r4, pc}
  71              	.LVL5:
  72              	.L3:
  73 0026 00BF     		.align	2
  74              	.L2:
  75 0028 00000000 		.word	tmrcb
  76              	.LBE4:
  77              		.cfi_endproc
  78              	.LFE7:
  79              		.size	tmrcb, .-tmrcb
  80 002c AFF30080 		.section	.text.evtStart,"ax",%progbits
  81              		.align	2
  82              		.p2align 4,,15
  83              		.global	evtStart
  84              		.thumb
  85              		.thumb_func
  86              		.type	evtStart, %function
  87              	evtStart:
  88              	.LFB8:
  89              		.loc 1 43 0
  90              		.cfi_startproc
  91              		@ args = 0, pretend = 0, frame = 0
  92              		@ frame_needed = 0, uses_anonymous_args = 0
  93              	.LVL6:
  94 0000 08B5     		push	{r3, lr}
  95              		.cfi_def_cfa_offset 8
  96              		.cfi_offset 3, -8
  97              		.cfi_offset 14, -4
  98              	.LBB5:
  99              		.loc 1 45 0
 100 0002 2023     		movs	r3, #32
 101              	@ 45 "../ChibiStudio/ChibiOS/os/various/evtimer.c" 1
 102 0004 83F31188 		msr     BASEPRI, r3
 103              	@ 0 "" 2
 104              		.thumb
 105              	.LBE5:
 106              		.loc 1 47 0
 107 0008 C368     		ldr	r3, [r0, #12]
 108 000a 1BB1     		cbz	r3, .L7
 109              	.LBB6:
 110              		.loc 1 50 0
 111 000c 0023     		movs	r3, #0
 112              	@ 50 "../ChibiStudio/ChibiOS/os/various/evtimer.c" 1
 113 000e 83F31188 		msr     BASEPRI, r3
 114              	@ 0 "" 2
ARM GAS  /var/folders/4k/6h5l9jl178sb4hslwv3xp1mr0000gn/T//ccbqUqza.s 			page 3


 115              		.thumb
 116 0012 08BD     		pop	{r3, pc}
 117              	.L7:
 118              	.LBE6:
 119              		.loc 1 48 0
 120 0014 0346     		mov	r3, r0
 121 0016 8169     		ldr	r1, [r0, #24]
 122 0018 034A     		ldr	r2, .L8
 123 001a FFF7FEFF 		bl	chVTSetI
 124              	.LVL7:
 125              	.LBB7:
 126              		.loc 1 50 0
 127 001e 0023     		movs	r3, #0
 128              	@ 50 "../ChibiStudio/ChibiOS/os/various/evtimer.c" 1
 129 0020 83F31188 		msr     BASEPRI, r3
 130              	@ 0 "" 2
 131              		.thumb
 132 0024 08BD     		pop	{r3, pc}
 133              	.L9:
 134 0026 00BF     		.align	2
 135              	.L8:
 136 0028 00000000 		.word	tmrcb
 137              	.LBE7:
 138              		.cfi_endproc
 139              	.LFE8:
 140              		.size	evtStart, .-evtStart
 141 002c AFF30080 		.section	.text.evtStop,"ax",%progbits
 142              		.align	2
 143              		.p2align 4,,15
 144              		.global	evtStop
 145              		.thumb
 146              		.thumb_func
 147              		.type	evtStop, %function
 148              	evtStop:
 149              	.LFB9:
 150              		.loc 1 59 0
 151              		.cfi_startproc
 152              		@ args = 0, pretend = 0, frame = 0
 153              		@ frame_needed = 0, uses_anonymous_args = 0
 154              	.LVL8:
 155 0000 08B5     		push	{r3, lr}
 156              		.cfi_def_cfa_offset 8
 157              		.cfi_offset 3, -8
 158              		.cfi_offset 14, -4
 159              	.LBB8:
 160              		.loc 1 61 0
 161 0002 2023     		movs	r3, #32
 162              	@ 61 "../ChibiStudio/ChibiOS/os/various/evtimer.c" 1
 163 0004 83F31188 		msr     BASEPRI, r3
 164              	@ 0 "" 2
 165              		.thumb
 166              	.LBE8:
 167 0008 C368     		ldr	r3, [r0, #12]
 168 000a 0BB1     		cbz	r3, .L11
 169              		.loc 1 61 0 is_stmt 0 discriminator 1
 170 000c FFF7FEFF 		bl	chVTResetI
 171              	.LVL9:
ARM GAS  /var/folders/4k/6h5l9jl178sb4hslwv3xp1mr0000gn/T//ccbqUqza.s 			page 4


 172              	.L11:
 173              	.LBB9:
 174              		.loc 1 61 0 discriminator 2
 175 0010 0023     		movs	r3, #0
 176              	@ 61 "../ChibiStudio/ChibiOS/os/various/evtimer.c" 1
 177 0012 83F31188 		msr     BASEPRI, r3
 178              	@ 0 "" 2
 179              		.thumb
 180 0016 08BD     		pop	{r3, pc}
 181              	.LBE9:
 182              		.cfi_endproc
 183              	.LFE9:
 184              		.size	evtStop, .-evtStop
 185 0018 AFF30080 		.text
 185      AFF30080 
 186              	.Letext0:
 187              		.file 2 "/Users/mikevanis/Documents/workspace/gcc-arm-none-eabi-4_8-2014q1/arm-none-eabi/include/m
 188              		.file 3 "/Users/mikevanis/Documents/workspace/gcc-arm-none-eabi-4_8-2014q1/arm-none-eabi/include/s
 189              		.file 4 "../ChibiStudio/ChibiOS/os/ports/GCC/ARMCMx/chtypes.h"
 190              		.file 5 "../ChibiStudio/ChibiOS/os/kernel/include/chlists.h"
 191              		.file 6 "../ChibiStudio/ChibiOS/os/kernel/include/chthreads.h"
 192              		.file 7 "../ChibiStudio/ChibiOS/os/ports/GCC/ARMCMx/chcore_v7m.h"
 193              		.file 8 "../ChibiStudio/ChibiOS/os/kernel/include/chvt.h"
 194              		.file 9 "../ChibiStudio/ChibiOS/os/kernel/include/chmtx.h"
 195              		.file 10 "../ChibiStudio/ChibiOS/os/kernel/include/chevents.h"
 196              		.file 11 "../ChibiStudio/ChibiOS/os/various/evtimer.h"