ARM GAS  /var/folders/4k/6h5l9jl178sb4hslwv3xp1mr0000gn/T//ccpLbRxk.s 			page 1


   1              		.syntax unified
   2              		.cpu cortex-m4
   3              		.fpu softvfp
   4              		.eabi_attribute 20, 1
   5              		.eabi_attribute 21, 1
   6              		.eabi_attribute 23, 3
   7              		.eabi_attribute 24, 1
   8              		.eabi_attribute 25, 1
   9              		.eabi_attribute 26, 1
  10              		.eabi_attribute 30, 2
  11              		.eabi_attribute 34, 1
  12              		.eabi_attribute 18, 4
  13              		.thumb
  14              		.file	"fatfs_diskio.c"
  15              		.text
  16              	.Ltext0:
  17              		.cfi_sections	.debug_frame
  18              		.section	.text.disk_initialize,"ax",%progbits
  19              		.align	2
  20              		.p2align 4,,15
  21              		.global	disk_initialize
  22              		.thumb
  23              		.thumb_func
  24              		.type	disk_initialize, %function
  25              	disk_initialize:
  26              	.LFB118:
  27              		.file 1 "../ChibiStudio/ChibiOS/os/various/fatfs_bindings/fatfs_diskio.c"
  28              		.loc 1 44 0
  29              		.cfi_startproc
  30              		@ args = 0, pretend = 0, frame = 0
  31              		@ frame_needed = 0, uses_anonymous_args = 0
  32              	.LVL0:
  33 0000 10B5     		push	{r4, lr}
  34              		.cfi_def_cfa_offset 8
  35              		.cfi_offset 4, -8
  36              		.cfi_offset 14, -4
  37              		.loc 1 47 0
  38 0002 10B1     		cbz	r0, .L10
  39              		.loc 1 68 0
  40 0004 0224     		movs	r4, #2
  41              	.LVL1:
  42              	.L2:
  43              		.loc 1 69 0
  44 0006 2046     		mov	r0, r4
  45 0008 10BD     		pop	{r4, pc}
  46              	.LVL2:
  47              	.L10:
  48              		.loc 1 52 0
  49 000a 0748     		ldr	r0, .L11
  50              	.LVL3:
  51 000c 0479     		ldrb	r4, [r0, #4]	@ zero_extendqisi2
  52              		.loc 1 50 0
  53 000e 053C     		subs	r4, r4, #5
  54 0010 18BF     		it	ne
  55 0012 0124     		movne	r4, #1
  56              	.LVL4:
  57              		.loc 1 54 0
ARM GAS  /var/folders/4k/6h5l9jl178sb4hslwv3xp1mr0000gn/T//ccpLbRxk.s 			page 2


  58 0014 FFF7FEFF 		bl	mmc_lld_is_write_protected
  59              	.LVL5:
  60 0018 0028     		cmp	r0, #0
  61 001a F4D0     		beq	.L2
  62              		.loc 1 55 0
  63 001c 44F00404 		orr	r4, r4, #4
  64              	.LVL6:
  65 0020 E4B2     		uxtb	r4, r4
  66              		.loc 1 69 0
  67 0022 2046     		mov	r0, r4
  68 0024 10BD     		pop	{r4, pc}
  69              	.L12:
  70 0026 00BF     		.align	2
  71              	.L11:
  72 0028 00000000 		.word	MMCD1
  73              		.cfi_endproc
  74              	.LFE118:
  75              		.size	disk_initialize, .-disk_initialize
  76 002c AFF30080 		.section	.text.disk_status,"ax",%progbits
  77              		.align	2
  78              		.p2align 4,,15
  79              		.global	disk_status
  80              		.thumb
  81              		.thumb_func
  82              		.type	disk_status, %function
  83              	disk_status:
  84              	.LFB119:
  85              		.loc 1 79 0
  86              		.cfi_startproc
  87              		@ args = 0, pretend = 0, frame = 0
  88              		@ frame_needed = 0, uses_anonymous_args = 0
  89              	.LVL7:
  90 0000 10B5     		push	{r4, lr}
  91              		.cfi_def_cfa_offset 8
  92              		.cfi_offset 4, -8
  93              		.cfi_offset 14, -4
  94              		.loc 1 82 0
  95 0002 10B1     		cbz	r0, .L21
  96              		.loc 1 103 0
  97 0004 0224     		movs	r4, #2
  98              	.LVL8:
  99              	.L14:
 100              		.loc 1 104 0
 101 0006 2046     		mov	r0, r4
 102 0008 10BD     		pop	{r4, pc}
 103              	.LVL9:
 104              	.L21:
 105              		.loc 1 87 0
 106 000a 0748     		ldr	r0, .L22
 107              	.LVL10:
 108 000c 0479     		ldrb	r4, [r0, #4]	@ zero_extendqisi2
 109              		.loc 1 85 0
 110 000e 053C     		subs	r4, r4, #5
 111 0010 18BF     		it	ne
 112 0012 0124     		movne	r4, #1
 113              	.LVL11:
 114              		.loc 1 89 0
ARM GAS  /var/folders/4k/6h5l9jl178sb4hslwv3xp1mr0000gn/T//ccpLbRxk.s 			page 3


 115 0014 FFF7FEFF 		bl	mmc_lld_is_write_protected
 116              	.LVL12:
 117 0018 0028     		cmp	r0, #0
 118 001a F4D0     		beq	.L14
 119              		.loc 1 90 0
 120 001c 44F00404 		orr	r4, r4, #4
 121              	.LVL13:
 122 0020 E4B2     		uxtb	r4, r4
 123              		.loc 1 104 0
 124 0022 2046     		mov	r0, r4
 125 0024 10BD     		pop	{r4, pc}
 126              	.L23:
 127 0026 00BF     		.align	2
 128              	.L22:
 129 0028 00000000 		.word	MMCD1
 130              		.cfi_endproc
 131              	.LFE119:
 132              		.size	disk_status, .-disk_status
 133 002c AFF30080 		.section	.text.disk_read,"ax",%progbits
 134              		.align	2
 135              		.p2align 4,,15
 136              		.global	disk_read
 137              		.thumb
 138              		.thumb_func
 139              		.type	disk_read, %function
 140              	disk_read:
 141              	.LFB120:
 142              		.loc 1 117 0
 143              		.cfi_startproc
 144              		@ args = 0, pretend = 0, frame = 8
 145              		@ frame_needed = 0, uses_anonymous_args = 0
 146              	.LVL14:
 147 0000 30B5     		push	{r4, r5, lr}
 148              		.cfi_def_cfa_offset 12
 149              		.cfi_offset 4, -12
 150              		.cfi_offset 5, -8
 151              		.cfi_offset 14, -4
 152 0002 0C46     		mov	r4, r1
 153 0004 83B0     		sub	sp, sp, #12
 154              		.cfi_def_cfa_offset 24
 155              		.loc 1 118 0
 156 0006 10B1     		cbz	r0, .L35
 157              		.loc 1 143 0
 158 0008 0420     		movs	r0, #4
 159              	.LVL15:
 160              	.L25:
 161              		.loc 1 144 0
 162 000a 03B0     		add	sp, sp, #12
 163              		@ sp needed
 164 000c 30BD     		pop	{r4, r5, pc}
 165              	.LVL16:
 166              	.L35:
 167              		.loc 1 121 0
 168 000e 1248     		ldr	r0, .L37
 169              	.LVL17:
 170 0010 0179     		ldrb	r1, [r0, #4]	@ zero_extendqisi2
 171              	.LVL18:
ARM GAS  /var/folders/4k/6h5l9jl178sb4hslwv3xp1mr0000gn/T//ccpLbRxk.s 			page 4


 172 0012 0529     		cmp	r1, #5
 173              		.loc 1 122 0
 174 0014 18BF     		it	ne
 175 0016 0320     		movne	r0, #3
 176              		.loc 1 121 0
 177 0018 F7D1     		bne	.L25
 178              		.loc 1 123 0
 179 001a 1146     		mov	r1, r2
 180 001c 0193     		str	r3, [sp, #4]
 181 001e FFF7FEFF 		bl	mmcStartSequentialRead
 182              	.LVL19:
 183 0022 019B     		ldr	r3, [sp, #4]
 184 0024 80B9     		cbnz	r0, .L29
 185              	.LVL20:
 186              		.loc 1 125 0 discriminator 1
 187 0026 8BB1     		cbz	r3, .L30
 188 0028 013B     		subs	r3, r3, #1
 189              	.LVL21:
 190 002a DDB2     		uxtb	r5, r3
 191 002c 0135     		adds	r5, r5, #1
 192 002e 04EB4525 		add	r5, r4, r5, lsl #9
 193 0032 01E0     		b	.L31
 194              	.LVL22:
 195              	.L36:
 196              		.loc 1 125 0 is_stmt 0
 197 0034 AC42     		cmp	r4, r5
 198 0036 09D0     		beq	.L30
 199              	.L31:
 200              		.loc 1 126 0 is_stmt 1
 201 0038 2146     		mov	r1, r4
 202 003a 0748     		ldr	r0, .L37
 203              		.loc 1 128 0
 204 003c 04F50074 		add	r4, r4, #512
 205              	.LVL23:
 206              		.loc 1 126 0
 207 0040 FFF7FEFF 		bl	mmcSequentialRead
 208              	.LVL24:
 209 0044 0028     		cmp	r0, #0
 210 0046 F5D0     		beq	.L36
 211              	.L29:
 212              		.loc 1 124 0
 213 0048 0120     		movs	r0, #1
 214 004a DEE7     		b	.L25
 215              	.L30:
 216              		.loc 1 131 0
 217 004c 0248     		ldr	r0, .L37
 218              		.loc 1 144 0
 219 004e 03B0     		add	sp, sp, #12
 220              		@ sp needed
 221 0050 BDE83040 		pop	{r4, r5, lr}
 222              	.LVL25:
 223              		.loc 1 131 0
 224 0054 FFF7FEBF 		b	mmcStopSequentialRead
 225              	.LVL26:
 226              	.L38:
 227              		.align	2
 228              	.L37:
ARM GAS  /var/folders/4k/6h5l9jl178sb4hslwv3xp1mr0000gn/T//ccpLbRxk.s 			page 5


 229 0058 00000000 		.word	MMCD1
 230              		.cfi_endproc
 231              	.LFE120:
 232              		.size	disk_read, .-disk_read
 233 005c AFF30080 		.section	.text.disk_write,"ax",%progbits
 234              		.align	2
 235              		.p2align 4,,15
 236              		.global	disk_write
 237              		.thumb
 238              		.thumb_func
 239              		.type	disk_write, %function
 240              	disk_write:
 241              	.LFB121:
 242              		.loc 1 158 0
 243              		.cfi_startproc
 244              		@ args = 0, pretend = 0, frame = 8
 245              		@ frame_needed = 0, uses_anonymous_args = 0
 246              	.LVL27:
 247 0000 30B5     		push	{r4, r5, lr}
 248              		.cfi_def_cfa_offset 12
 249              		.cfi_offset 4, -12
 250              		.cfi_offset 5, -8
 251              		.cfi_offset 14, -4
 252 0002 0C46     		mov	r4, r1
 253 0004 83B0     		sub	sp, sp, #12
 254              		.cfi_def_cfa_offset 24
 255              		.loc 1 159 0
 256 0006 10B1     		cbz	r0, .L51
 257              		.loc 1 186 0
 258 0008 0420     		movs	r0, #4
 259              	.LVL28:
 260              	.L40:
 261              		.loc 1 187 0
 262 000a 03B0     		add	sp, sp, #12
 263              		@ sp needed
 264 000c 30BD     		pop	{r4, r5, pc}
 265              	.LVL29:
 266              	.L51:
 267              		.loc 1 162 0
 268 000e 174D     		ldr	r5, .L54
 269 0010 2979     		ldrb	r1, [r5, #4]	@ zero_extendqisi2
 270              	.LVL30:
 271 0012 0529     		cmp	r1, #5
 272              		.loc 1 163 0
 273 0014 18BF     		it	ne
 274 0016 0320     		movne	r0, #3
 275              	.LVL31:
 276              		.loc 1 162 0
 277 0018 F7D1     		bne	.L40
 278              		.loc 1 164 0
 279 001a 2846     		mov	r0, r5
 280 001c 0192     		str	r2, [sp, #4]
 281 001e 0093     		str	r3, [sp]
 282 0020 FFF7FEFF 		bl	mmc_lld_is_write_protected
 283              	.LVL32:
 284 0024 019A     		ldr	r2, [sp, #4]
 285 0026 08B1     		cbz	r0, .L52
ARM GAS  /var/folders/4k/6h5l9jl178sb4hslwv3xp1mr0000gn/T//ccpLbRxk.s 			page 6


 286              		.loc 1 165 0
 287 0028 0220     		movs	r0, #2
 288 002a EEE7     		b	.L40
 289              	.L52:
 290              		.loc 1 166 0
 291 002c 2846     		mov	r0, r5
 292 002e 1146     		mov	r1, r2
 293 0030 FFF7FEFF 		bl	mmcStartSequentialWrite
 294              	.LVL33:
 295 0034 009B     		ldr	r3, [sp]
 296 0036 80B9     		cbnz	r0, .L44
 297              	.LVL34:
 298              		.loc 1 168 0 discriminator 1
 299 0038 8BB1     		cbz	r3, .L45
 300 003a 013B     		subs	r3, r3, #1
 301              	.LVL35:
 302 003c DDB2     		uxtb	r5, r3
 303 003e 0135     		adds	r5, r5, #1
 304 0040 04EB4525 		add	r5, r4, r5, lsl #9
 305 0044 01E0     		b	.L46
 306              	.LVL36:
 307              	.L53:
 308              		.loc 1 168 0 is_stmt 0
 309 0046 AC42     		cmp	r4, r5
 310 0048 09D0     		beq	.L45
 311              	.L46:
 312              		.loc 1 169 0 is_stmt 1
 313 004a 2146     		mov	r1, r4
 314 004c 0748     		ldr	r0, .L54
 315              		.loc 1 171 0
 316 004e 04F50074 		add	r4, r4, #512
 317              	.LVL37:
 318              		.loc 1 169 0
 319 0052 FFF7FEFF 		bl	mmcSequentialWrite
 320              	.LVL38:
 321 0056 0028     		cmp	r0, #0
 322 0058 F5D0     		beq	.L53
 323              	.L44:
 324              		.loc 1 167 0
 325 005a 0120     		movs	r0, #1
 326 005c D5E7     		b	.L40
 327              	.L45:
 328              		.loc 1 174 0
 329 005e 0348     		ldr	r0, .L54
 330              		.loc 1 187 0
 331 0060 03B0     		add	sp, sp, #12
 332              		@ sp needed
 333 0062 BDE83040 		pop	{r4, r5, lr}
 334              	.LVL39:
 335              		.loc 1 174 0
 336 0066 FFF7FEBF 		b	mmcStopSequentialWrite
 337              	.LVL40:
 338              	.L55:
 339 006a 00BF     		.align	2
 340              	.L54:
 341 006c 00000000 		.word	MMCD1
 342              		.cfi_endproc
ARM GAS  /var/folders/4k/6h5l9jl178sb4hslwv3xp1mr0000gn/T//ccpLbRxk.s 			page 7


 343              	.LFE121:
 344              		.size	disk_write, .-disk_write
 345              		.section	.text.disk_ioctl,"ax",%progbits
 346              		.align	2
 347              		.p2align 4,,15
 348              		.global	disk_ioctl
 349              		.thumb
 350              		.thumb_func
 351              		.type	disk_ioctl, %function
 352              	disk_ioctl:
 353              	.LFB122:
 354              		.loc 1 200 0
 355              		.cfi_startproc
 356              		@ args = 0, pretend = 0, frame = 0
 357              		@ frame_needed = 0, uses_anonymous_args = 0
 358              		@ link register save eliminated.
 359              	.LVL41:
 360              		.loc 1 201 0
 361 0000 08B1     		cbz	r0, .L65
 362              	.L64:
 363              		.loc 1 216 0
 364 0002 0420     		movs	r0, #4
 365              	.LVL42:
 366              		.loc 1 243 0
 367 0004 7047     		bx	lr
 368              	.LVL43:
 369              	.L65:
 370              		.loc 1 204 0
 371 0006 29B1     		cbz	r1, .L59
 372 0008 0229     		cmp	r1, #2
 373 000a FAD1     		bne	.L64
 374              		.loc 1 208 0
 375 000c 4FF40073 		mov	r3, #512
 376 0010 1380     		strh	r3, [r2]	@ movhi
 377              		.loc 1 209 0
 378 0012 7047     		bx	lr
 379              	.L59:
 380              		.loc 1 206 0
 381 0014 0846     		mov	r0, r1
 382              	.LVL44:
 383 0016 7047     		bx	lr
 384              		.cfi_endproc
 385              	.LFE122:
 386              		.size	disk_ioctl, .-disk_ioctl
 387 0018 AFF30080 		.section	.text.get_fattime,"ax",%progbits
 387      AFF30080 
 388              		.align	2
 389              		.p2align 4,,15
 390              		.global	get_fattime
 391              		.thumb
 392              		.thumb_func
 393              		.type	get_fattime, %function
 394              	get_fattime:
 395              	.LFB123:
 396              		.loc 1 245 0
 397              		.cfi_startproc
 398              		@ args = 0, pretend = 0, frame = 0
ARM GAS  /var/folders/4k/6h5l9jl178sb4hslwv3xp1mr0000gn/T//ccpLbRxk.s 			page 8


 399              		@ frame_needed = 0, uses_anonymous_args = 0
 400              		@ link register save eliminated.
 401              		.loc 1 251 0
 402 0000 4FF40410 		mov	r0, #2162688
 403 0004 7047     		bx	lr
 404              		.cfi_endproc
 405              	.LFE123:
 406              		.size	get_fattime, .-get_fattime
 407 0006 00BFAFF3 		.text
 407      0080AFF3 
 407      0080
 408              	.Letext0:
 409              		.file 2 "/Users/mikevanis/Documents/workspace/gcc-arm-none-eabi-4_8-2014q1/arm-none-eabi/include/m
 410              		.file 3 "/Users/mikevanis/Documents/workspace/gcc-arm-none-eabi-4_8-2014q1/arm-none-eabi/include/s
 411              		.file 4 "../ChibiStudio/ChibiOS/os/ports/GCC/ARMCMx/chtypes.h"
 412              		.file 5 "../ChibiStudio/ChibiOS/os/kernel/include/chlists.h"
 413              		.file 6 "../ChibiStudio/ChibiOS/os/kernel/include/chthreads.h"
 414              		.file 7 "../ChibiStudio/ChibiOS/os/ports/GCC/ARMCMx/chcore_v7m.h"
 415              		.file 8 "../ChibiStudio/ChibiOS/os/kernel/include/chmtx.h"
 416              		.file 9 "../ChibiStudio/ChibiOS/os/hal/platforms/STM32F4xx/stm32f4xx.h"
 417              		.file 10 "../ChibiStudio/ChibiOS/os/hal/platforms/STM32F4xx/stm32_dma.h"
 418              		.file 11 "../ChibiStudio/ChibiOS/os/hal/include/io_block.h"
 419              		.file 12 "../ChibiStudio/ChibiOS/os/hal/platforms/STM32/GPIOv2/pal_lld.h"
 420              		.file 13 "../ChibiStudio/ChibiOS/os/hal/include/spi.h"
 421              		.file 14 "../ChibiStudio/ChibiOS/os/hal/platforms/STM32/SPIv1/spi_lld.h"
 422              		.file 15 "../ChibiStudio/ChibiOS/os/hal/include/mmc_spi.h"
 423              		.file 16 "../ChibiStudio/ChibiOS/ext/fatfs/src/integer.h"
 424              		.file 17 "../ChibiStudio/ChibiOS/ext/fatfs/src/diskio.h"
 425              		.file 18 "../ChibiStudio/ChibiOS/os/ports/common/ARMCMx/CMSIS/include/core_cm4.h"
 426              		.section	.debug_info,"",%progbits
 427              	.Ldebug_info0:
 428 0000 220D0000 		.4byte	0xd22
 429 0004 0400     		.2byte	0x4
 430 0006 00000000 		.4byte	.Ldebug_abbrev0
 431 000a 04       		.byte	0x4
 432 000b 01       		.uleb128 0x1
 433 000c D8040000 		.4byte	.LASF175
 434 0010 01       		.byte	0x1
 435 0011 BE020000 		.4byte	.LASF176
 436 0015 19060000 		.4byte	.LASF177
 437 0019 00000000 		.4byte	.Ldebug_ranges0+0
 438 001d 00000000 		.4byte	0
 439 0021 00000000 		.4byte	.Ldebug_line0
 440 0025 02       		.uleb128 0x2
 441 0026 04       		.byte	0x4
 442 0027 05       		.byte	0x5
 443 0028 696E7400 		.ascii	"int\000"
 444 002c 03       		.uleb128 0x3
 445 002d 04       		.byte	0x4
 446 002e 07       		.byte	0x7
 447 002f 76020000 		.4byte	.LASF0
 448 0033 03       		.uleb128 0x3
 449 0034 01       		.byte	0x1
 450 0035 06       		.byte	0x6
 451 0036 38010000 		.4byte	.LASF1
 452 003a 04       		.uleb128 0x4
 453 003b 5E000000 		.4byte	.LASF4
ARM GAS  /var/folders/4k/6h5l9jl178sb4hslwv3xp1mr0000gn/T//ccpLbRxk.s 			page 9


 454 003f 02       		.byte	0x2
 455 0040 1C       		.byte	0x1c
 456 0041 45000000 		.4byte	0x45
 457 0045 03       		.uleb128 0x3
 458 0046 01       		.byte	0x1
 459 0047 08       		.byte	0x8
 460 0048 B7040000 		.4byte	.LASF2
 461 004c 03       		.uleb128 0x3
 462 004d 02       		.byte	0x2
 463 004e 05       		.byte	0x5
 464 004f BC050000 		.4byte	.LASF3
 465 0053 04       		.uleb128 0x4
 466 0054 EA060000 		.4byte	.LASF5
 467 0058 02       		.byte	0x2
 468 0059 26       		.byte	0x26
 469 005a 5E000000 		.4byte	0x5e
 470 005e 03       		.uleb128 0x3
 471 005f 02       		.byte	0x2
 472 0060 07       		.byte	0x7
 473 0061 FE020000 		.4byte	.LASF6
 474 0065 04       		.uleb128 0x4
 475 0066 6E030000 		.4byte	.LASF7
 476 006a 02       		.byte	0x2
 477 006b 37       		.byte	0x37
 478 006c 70000000 		.4byte	0x70
 479 0070 03       		.uleb128 0x3
 480 0071 04       		.byte	0x4
 481 0072 05       		.byte	0x5
 482 0073 96010000 		.4byte	.LASF8
 483 0077 04       		.uleb128 0x4
 484 0078 37020000 		.4byte	.LASF9
 485 007c 02       		.byte	0x2
 486 007d 38       		.byte	0x38
 487 007e 82000000 		.4byte	0x82
 488 0082 03       		.uleb128 0x3
 489 0083 04       		.byte	0x4
 490 0084 07       		.byte	0x7
 491 0085 9C060000 		.4byte	.LASF10
 492 0089 03       		.uleb128 0x3
 493 008a 08       		.byte	0x8
 494 008b 05       		.byte	0x5
 495 008c 2A010000 		.4byte	.LASF11
 496 0090 03       		.uleb128 0x3
 497 0091 08       		.byte	0x8
 498 0092 07       		.byte	0x7
 499 0093 A6000000 		.4byte	.LASF12
 500 0097 04       		.uleb128 0x4
 501 0098 A0070000 		.4byte	.LASF13
 502 009c 03       		.byte	0x3
 503 009d 2A       		.byte	0x2a
 504 009e 3A000000 		.4byte	0x3a
 505 00a2 04       		.uleb128 0x4
 506 00a3 DE010000 		.4byte	.LASF14
 507 00a7 03       		.byte	0x3
 508 00a8 36       		.byte	0x36
 509 00a9 53000000 		.4byte	0x53
 510 00ad 04       		.uleb128 0x4
ARM GAS  /var/folders/4k/6h5l9jl178sb4hslwv3xp1mr0000gn/T//ccpLbRxk.s 			page 10


 511 00ae AF040000 		.4byte	.LASF15
 512 00b2 03       		.byte	0x3
 513 00b3 41       		.byte	0x41
 514 00b4 65000000 		.4byte	0x65
 515 00b8 04       		.uleb128 0x4
 516 00b9 83060000 		.4byte	.LASF16
 517 00bd 03       		.byte	0x3
 518 00be 42       		.byte	0x42
 519 00bf 77000000 		.4byte	0x77
 520 00c3 04       		.uleb128 0x4
 521 00c4 55010000 		.4byte	.LASF17
 522 00c8 04       		.byte	0x4
 523 00c9 2B       		.byte	0x2b
 524 00ca CE000000 		.4byte	0xce
 525 00ce 03       		.uleb128 0x3
 526 00cf 01       		.byte	0x1
 527 00d0 02       		.byte	0x2
 528 00d1 A9040000 		.4byte	.LASF18
 529 00d5 04       		.uleb128 0x4
 530 00d6 47030000 		.4byte	.LASF19
 531 00da 04       		.byte	0x4
 532 00db 2C       		.byte	0x2c
 533 00dc 97000000 		.4byte	0x97
 534 00e0 04       		.uleb128 0x4
 535 00e1 9F010000 		.4byte	.LASF20
 536 00e5 04       		.byte	0x4
 537 00e6 2D       		.byte	0x2d
 538 00e7 97000000 		.4byte	0x97
 539 00eb 04       		.uleb128 0x4
 540 00ec 8C060000 		.4byte	.LASF21
 541 00f0 04       		.byte	0x4
 542 00f1 2E       		.byte	0x2e
 543 00f2 97000000 		.4byte	0x97
 544 00f6 04       		.uleb128 0x4
 545 00f7 6F010000 		.4byte	.LASF22
 546 00fb 04       		.byte	0x4
 547 00fc 2F       		.byte	0x2f
 548 00fd 97000000 		.4byte	0x97
 549 0101 04       		.uleb128 0x4
 550 0102 9B040000 		.4byte	.LASF23
 551 0106 04       		.byte	0x4
 552 0107 30       		.byte	0x30
 553 0108 B8000000 		.4byte	0xb8
 554 010c 04       		.uleb128 0x4
 555 010d 32030000 		.4byte	.LASF24
 556 0111 04       		.byte	0x4
 557 0112 31       		.byte	0x31
 558 0113 AD000000 		.4byte	0xad
 559 0117 04       		.uleb128 0x4
 560 0118 62030000 		.4byte	.LASF25
 561 011c 04       		.byte	0x4
 562 011d 33       		.byte	0x33
 563 011e B8000000 		.4byte	0xb8
 564 0122 04       		.uleb128 0x4
 565 0123 07070000 		.4byte	.LASF26
 566 0127 04       		.byte	0x4
 567 0128 35       		.byte	0x35
ARM GAS  /var/folders/4k/6h5l9jl178sb4hslwv3xp1mr0000gn/T//ccpLbRxk.s 			page 11


 568 0129 B8000000 		.4byte	0xb8
 569 012d 04       		.uleb128 0x4
 570 012e 12060000 		.4byte	.LASF27
 571 0132 05       		.byte	0x5
 572 0133 2A       		.byte	0x2a
 573 0134 38010000 		.4byte	0x138
 574 0138 05       		.uleb128 0x5
 575 0139 12060000 		.4byte	.LASF27
 576 013d 48       		.byte	0x48
 577 013e 06       		.byte	0x6
 578 013f 5E       		.byte	0x5e
 579 0140 35020000 		.4byte	0x235
 580 0144 06       		.uleb128 0x6
 581 0145 EB050000 		.4byte	.LASF28
 582 0149 06       		.byte	0x6
 583 014a 5F       		.byte	0x5f
 584 014b 56020000 		.4byte	0x256
 585 014f 00       		.byte	0
 586 0150 06       		.uleb128 0x6
 587 0151 76040000 		.4byte	.LASF29
 588 0155 06       		.byte	0x6
 589 0156 61       		.byte	0x61
 590 0157 56020000 		.4byte	0x256
 591 015b 04       		.byte	0x4
 592 015c 06       		.uleb128 0x6
 593 015d 1E010000 		.4byte	.LASF30
 594 0161 06       		.byte	0x6
 595 0162 63       		.byte	0x63
 596 0163 01010000 		.4byte	0x101
 597 0167 08       		.byte	0x8
 598 0168 06       		.uleb128 0x6
 599 0169 F1070000 		.4byte	.LASF31
 600 016d 06       		.byte	0x6
 601 016e 64       		.byte	0x64
 602 016f 10030000 		.4byte	0x310
 603 0173 0C       		.byte	0xc
 604 0174 06       		.uleb128 0x6
 605 0175 FA010000 		.4byte	.LASF32
 606 0179 06       		.byte	0x6
 607 017a 66       		.byte	0x66
 608 017b 56020000 		.4byte	0x256
 609 017f 10       		.byte	0x10
 610 0180 06       		.uleb128 0x6
 611 0181 C6030000 		.4byte	.LASF33
 612 0185 06       		.byte	0x6
 613 0186 67       		.byte	0x67
 614 0187 56020000 		.4byte	0x256
 615 018b 14       		.byte	0x14
 616 018c 06       		.uleb128 0x6
 617 018d 87070000 		.4byte	.LASF34
 618 0191 06       		.byte	0x6
 619 0192 6E       		.byte	0x6e
 620 0193 B9030000 		.4byte	0x3b9
 621 0197 18       		.byte	0x18
 622 0198 06       		.uleb128 0x6
 623 0199 C6050000 		.4byte	.LASF35
 624 019d 06       		.byte	0x6
ARM GAS  /var/folders/4k/6h5l9jl178sb4hslwv3xp1mr0000gn/T//ccpLbRxk.s 			page 12


 625 019e 79       		.byte	0x79
 626 019f E0000000 		.4byte	0xe0
 627 01a3 1C       		.byte	0x1c
 628 01a4 06       		.uleb128 0x6
 629 01a5 F2050000 		.4byte	.LASF36
 630 01a9 06       		.byte	0x6
 631 01aa 7D       		.byte	0x7d
 632 01ab D5000000 		.4byte	0xd5
 633 01af 1D       		.byte	0x1d
 634 01b0 06       		.uleb128 0x6
 635 01b1 8E070000 		.4byte	.LASF37
 636 01b5 06       		.byte	0x6
 637 01b6 82       		.byte	0x82
 638 01b7 EB000000 		.4byte	0xeb
 639 01bb 1E       		.byte	0x1e
 640 01bc 06       		.uleb128 0x6
 641 01bd DA050000 		.4byte	.LASF38
 642 01c1 06       		.byte	0x6
 643 01c2 88       		.byte	0x88
 644 01c3 F6000000 		.4byte	0xf6
 645 01c7 1F       		.byte	0x1f
 646 01c8 06       		.uleb128 0x6
 647 01c9 E7010000 		.4byte	.LASF39
 648 01cd 06       		.byte	0x6
 649 01ce 8F       		.byte	0x8f
 650 01cf 3D030000 		.4byte	0x33d
 651 01d3 20       		.byte	0x20
 652 01d4 07       		.uleb128 0x7
 653 01d5 705F7500 		.ascii	"p_u\000"
 654 01d9 06       		.byte	0x6
 655 01da B4       		.byte	0xb4
 656 01db 84030000 		.4byte	0x384
 657 01df 24       		.byte	0x24
 658 01e0 06       		.uleb128 0x6
 659 01e1 F7070000 		.4byte	.LASF40
 660 01e5 06       		.byte	0x6
 661 01e6 B9       		.byte	0xb9
 662 01e7 7C020000 		.4byte	0x27c
 663 01eb 28       		.byte	0x28
 664 01ec 06       		.uleb128 0x6
 665 01ed 9B020000 		.4byte	.LASF41
 666 01f1 06       		.byte	0x6
 667 01f2 BF       		.byte	0xbf
 668 01f3 5C020000 		.4byte	0x25c
 669 01f7 2C       		.byte	0x2c
 670 01f8 06       		.uleb128 0x6
 671 01f9 CD070000 		.4byte	.LASF42
 672 01fd 06       		.byte	0x6
 673 01fe C3       		.byte	0xc3
 674 01ff 0C010000 		.4byte	0x10c
 675 0203 34       		.byte	0x34
 676 0204 06       		.uleb128 0x6
 677 0205 59060000 		.4byte	.LASF43
 678 0209 06       		.byte	0x6
 679 020a C9       		.byte	0xc9
 680 020b 17010000 		.4byte	0x117
 681 020f 38       		.byte	0x38
ARM GAS  /var/folders/4k/6h5l9jl178sb4hslwv3xp1mr0000gn/T//ccpLbRxk.s 			page 13


 682 0210 06       		.uleb128 0x6
 683 0211 B2050000 		.4byte	.LASF44
 684 0215 06       		.byte	0x6
 685 0216 D0       		.byte	0xd0
 686 0217 CB030000 		.4byte	0x3cb
 687 021b 3C       		.byte	0x3c
 688 021c 06       		.uleb128 0x6
 689 021d 11070000 		.4byte	.LASF45
 690 0221 06       		.byte	0x6
 691 0222 D4       		.byte	0xd4
 692 0223 01010000 		.4byte	0x101
 693 0227 40       		.byte	0x40
 694 0228 06       		.uleb128 0x6
 695 0229 42020000 		.4byte	.LASF46
 696 022d 06       		.byte	0x6
 697 022e DA       		.byte	0xda
 698 022f 92020000 		.4byte	0x292
 699 0233 44       		.byte	0x44
 700 0234 00       		.byte	0
 701 0235 08       		.uleb128 0x8
 702 0236 08       		.byte	0x8
 703 0237 05       		.byte	0x5
 704 0238 61       		.byte	0x61
 705 0239 56020000 		.4byte	0x256
 706 023d 06       		.uleb128 0x6
 707 023e EB050000 		.4byte	.LASF28
 708 0242 05       		.byte	0x5
 709 0243 62       		.byte	0x62
 710 0244 56020000 		.4byte	0x256
 711 0248 00       		.byte	0
 712 0249 06       		.uleb128 0x6
 713 024a 76040000 		.4byte	.LASF29
 714 024e 05       		.byte	0x5
 715 024f 64       		.byte	0x64
 716 0250 56020000 		.4byte	0x256
 717 0254 04       		.byte	0x4
 718 0255 00       		.byte	0
 719 0256 09       		.uleb128 0x9
 720 0257 04       		.byte	0x4
 721 0258 2D010000 		.4byte	0x12d
 722 025c 04       		.uleb128 0x4
 723 025d FB030000 		.4byte	.LASF47
 724 0261 05       		.byte	0x5
 725 0262 66       		.byte	0x66
 726 0263 35020000 		.4byte	0x235
 727 0267 08       		.uleb128 0x8
 728 0268 04       		.byte	0x4
 729 0269 05       		.byte	0x5
 730 026a 6B       		.byte	0x6b
 731 026b 7C020000 		.4byte	0x27c
 732 026f 06       		.uleb128 0x6
 733 0270 EB050000 		.4byte	.LASF28
 734 0274 05       		.byte	0x5
 735 0275 6D       		.byte	0x6d
 736 0276 56020000 		.4byte	0x256
 737 027a 00       		.byte	0
 738 027b 00       		.byte	0
ARM GAS  /var/folders/4k/6h5l9jl178sb4hslwv3xp1mr0000gn/T//ccpLbRxk.s 			page 14


 739 027c 04       		.uleb128 0x4
 740 027d 56030000 		.4byte	.LASF48
 741 0281 05       		.byte	0x5
 742 0282 70       		.byte	0x70
 743 0283 67020000 		.4byte	0x267
 744 0287 04       		.uleb128 0x4
 745 0288 4A020000 		.4byte	.LASF49
 746 028c 07       		.byte	0x7
 747 028d E5       		.byte	0xe5
 748 028e 92020000 		.4byte	0x292
 749 0292 0A       		.uleb128 0xa
 750 0293 04       		.byte	0x4
 751 0294 0B       		.uleb128 0xb
 752 0295 5A070000 		.4byte	.LASF50
 753 0299 24       		.byte	0x24
 754 029a 07       		.byte	0x7
 755 029b 0C01     		.2byte	0x10c
 756 029d 10030000 		.4byte	0x310
 757 02a1 0C       		.uleb128 0xc
 758 02a2 723400   		.ascii	"r4\000"
 759 02a5 07       		.byte	0x7
 760 02a6 1F01     		.2byte	0x11f
 761 02a8 87020000 		.4byte	0x287
 762 02ac 00       		.byte	0
 763 02ad 0C       		.uleb128 0xc
 764 02ae 723500   		.ascii	"r5\000"
 765 02b1 07       		.byte	0x7
 766 02b2 2001     		.2byte	0x120
 767 02b4 87020000 		.4byte	0x287
 768 02b8 04       		.byte	0x4
 769 02b9 0C       		.uleb128 0xc
 770 02ba 723600   		.ascii	"r6\000"
 771 02bd 07       		.byte	0x7
 772 02be 2101     		.2byte	0x121
 773 02c0 87020000 		.4byte	0x287
 774 02c4 08       		.byte	0x8
 775 02c5 0C       		.uleb128 0xc
 776 02c6 723700   		.ascii	"r7\000"
 777 02c9 07       		.byte	0x7
 778 02ca 2201     		.2byte	0x122
 779 02cc 87020000 		.4byte	0x287
 780 02d0 0C       		.byte	0xc
 781 02d1 0C       		.uleb128 0xc
 782 02d2 723800   		.ascii	"r8\000"
 783 02d5 07       		.byte	0x7
 784 02d6 2301     		.2byte	0x123
 785 02d8 87020000 		.4byte	0x287
 786 02dc 10       		.byte	0x10
 787 02dd 0C       		.uleb128 0xc
 788 02de 723900   		.ascii	"r9\000"
 789 02e1 07       		.byte	0x7
 790 02e2 2401     		.2byte	0x124
 791 02e4 87020000 		.4byte	0x287
 792 02e8 14       		.byte	0x14
 793 02e9 0C       		.uleb128 0xc
 794 02ea 72313000 		.ascii	"r10\000"
 795 02ee 07       		.byte	0x7
ARM GAS  /var/folders/4k/6h5l9jl178sb4hslwv3xp1mr0000gn/T//ccpLbRxk.s 			page 15


 796 02ef 2501     		.2byte	0x125
 797 02f1 87020000 		.4byte	0x287
 798 02f5 18       		.byte	0x18
 799 02f6 0C       		.uleb128 0xc
 800 02f7 72313100 		.ascii	"r11\000"
 801 02fb 07       		.byte	0x7
 802 02fc 2601     		.2byte	0x126
 803 02fe 87020000 		.4byte	0x287
 804 0302 1C       		.byte	0x1c
 805 0303 0C       		.uleb128 0xc
 806 0304 6C7200   		.ascii	"lr\000"
 807 0307 07       		.byte	0x7
 808 0308 2701     		.2byte	0x127
 809 030a 87020000 		.4byte	0x287
 810 030e 20       		.byte	0x20
 811 030f 00       		.byte	0
 812 0310 0B       		.uleb128 0xb
 813 0311 47070000 		.4byte	.LASF51
 814 0315 04       		.byte	0x4
 815 0316 07       		.byte	0x7
 816 0317 3101     		.2byte	0x131
 817 0319 2B030000 		.4byte	0x32b
 818 031d 0C       		.uleb128 0xc
 819 031e 72313300 		.ascii	"r13\000"
 820 0322 07       		.byte	0x7
 821 0323 3201     		.2byte	0x132
 822 0325 2B030000 		.4byte	0x32b
 823 0329 00       		.byte	0
 824 032a 00       		.byte	0
 825 032b 09       		.uleb128 0x9
 826 032c 04       		.byte	0x4
 827 032d 94020000 		.4byte	0x294
 828 0331 0D       		.uleb128 0xd
 829 0332 B8000000 		.4byte	0xb8
 830 0336 03       		.uleb128 0x3
 831 0337 04       		.byte	0x4
 832 0338 07       		.byte	0x7
 833 0339 A5030000 		.4byte	.LASF52
 834 033d 0D       		.uleb128 0xd
 835 033e 22010000 		.4byte	0x122
 836 0342 05       		.uleb128 0x5
 837 0343 B4030000 		.4byte	.LASF53
 838 0347 10       		.byte	0x10
 839 0348 08       		.byte	0x8
 840 0349 2C       		.byte	0x2c
 841 034a 73030000 		.4byte	0x373
 842 034e 06       		.uleb128 0x6
 843 034f 5C010000 		.4byte	.LASF54
 844 0353 08       		.byte	0x8
 845 0354 2D       		.byte	0x2d
 846 0355 5C020000 		.4byte	0x25c
 847 0359 00       		.byte	0
 848 035a 06       		.uleb128 0x6
 849 035b E9070000 		.4byte	.LASF55
 850 035f 08       		.byte	0x8
 851 0360 2F       		.byte	0x2f
 852 0361 56020000 		.4byte	0x256
ARM GAS  /var/folders/4k/6h5l9jl178sb4hslwv3xp1mr0000gn/T//ccpLbRxk.s 			page 16


 853 0365 08       		.byte	0x8
 854 0366 06       		.uleb128 0x6
 855 0367 00070000 		.4byte	.LASF56
 856 036b 08       		.byte	0x8
 857 036c 31       		.byte	0x31
 858 036d 73030000 		.4byte	0x373
 859 0371 0C       		.byte	0xc
 860 0372 00       		.byte	0
 861 0373 09       		.uleb128 0x9
 862 0374 04       		.byte	0x4
 863 0375 42030000 		.4byte	0x342
 864 0379 04       		.uleb128 0x4
 865 037a B4030000 		.4byte	.LASF53
 866 037e 08       		.byte	0x8
 867 037f 33       		.byte	0x33
 868 0380 42030000 		.4byte	0x342
 869 0384 0E       		.uleb128 0xe
 870 0385 04       		.byte	0x4
 871 0386 06       		.byte	0x6
 872 0387 96       		.byte	0x96
 873 0388 B9030000 		.4byte	0x3b9
 874 038c 0F       		.uleb128 0xf
 875 038d 43000000 		.4byte	.LASF57
 876 0391 06       		.byte	0x6
 877 0392 9D       		.byte	0x9d
 878 0393 0C010000 		.4byte	0x10c
 879 0397 0F       		.uleb128 0xf
 880 0398 D3000000 		.4byte	.LASF58
 881 039c 06       		.byte	0x6
 882 039d A4       		.byte	0xa4
 883 039e 0C010000 		.4byte	0x10c
 884 03a2 0F       		.uleb128 0xf
 885 03a3 B2070000 		.4byte	.LASF59
 886 03a7 06       		.byte	0x6
 887 03a8 AB       		.byte	0xab
 888 03a9 92020000 		.4byte	0x292
 889 03ad 0F       		.uleb128 0xf
 890 03ae E4050000 		.4byte	.LASF60
 891 03b2 06       		.byte	0x6
 892 03b3 B2       		.byte	0xb2
 893 03b4 17010000 		.4byte	0x117
 894 03b8 00       		.byte	0
 895 03b9 09       		.uleb128 0x9
 896 03ba 04       		.byte	0x4
 897 03bb BF030000 		.4byte	0x3bf
 898 03bf 10       		.uleb128 0x10
 899 03c0 C4030000 		.4byte	0x3c4
 900 03c4 03       		.uleb128 0x3
 901 03c5 01       		.byte	0x1
 902 03c6 08       		.byte	0x8
 903 03c7 BF060000 		.4byte	.LASF61
 904 03cb 09       		.uleb128 0x9
 905 03cc 04       		.byte	0x4
 906 03cd 79030000 		.4byte	0x379
 907 03d1 09       		.uleb128 0x9
 908 03d2 04       		.byte	0x4
 909 03d3 97000000 		.4byte	0x97
ARM GAS  /var/folders/4k/6h5l9jl178sb4hslwv3xp1mr0000gn/T//ccpLbRxk.s 			page 17


 910 03d7 09       		.uleb128 0x9
 911 03d8 04       		.byte	0x4
 912 03d9 DD030000 		.4byte	0x3dd
 913 03dd 10       		.uleb128 0x10
 914 03de 97000000 		.4byte	0x97
 915 03e2 11       		.uleb128 0x11
 916 03e3 B8000000 		.4byte	0xb8
 917 03e7 F2030000 		.4byte	0x3f2
 918 03eb 12       		.uleb128 0x12
 919 03ec 36030000 		.4byte	0x336
 920 03f0 03       		.byte	0x3
 921 03f1 00       		.byte	0
 922 03f2 0D       		.uleb128 0xd
 923 03f3 A2000000 		.4byte	0xa2
 924 03f7 0D       		.uleb128 0xd
 925 03f8 AD000000 		.4byte	0xad
 926 03fc 13       		.uleb128 0x13
 927 03fd 18       		.byte	0x18
 928 03fe 09       		.byte	0x9
 929 03ff B102     		.2byte	0x2b1
 930 0401 53040000 		.4byte	0x453
 931 0405 0C       		.uleb128 0xc
 932 0406 435200   		.ascii	"CR\000"
 933 0409 09       		.byte	0x9
 934 040a B302     		.2byte	0x2b3
 935 040c 31030000 		.4byte	0x331
 936 0410 00       		.byte	0
 937 0411 14       		.uleb128 0x14
 938 0412 24070000 		.4byte	.LASF62
 939 0416 09       		.byte	0x9
 940 0417 B402     		.2byte	0x2b4
 941 0419 31030000 		.4byte	0x331
 942 041d 04       		.byte	0x4
 943 041e 0C       		.uleb128 0xc
 944 041f 50415200 		.ascii	"PAR\000"
 945 0423 09       		.byte	0x9
 946 0424 B502     		.2byte	0x2b5
 947 0426 31030000 		.4byte	0x331
 948 042a 08       		.byte	0x8
 949 042b 14       		.uleb128 0x14
 950 042c 2F000000 		.4byte	.LASF63
 951 0430 09       		.byte	0x9
 952 0431 B602     		.2byte	0x2b6
 953 0433 31030000 		.4byte	0x331
 954 0437 0C       		.byte	0xc
 955 0438 14       		.uleb128 0x14
 956 0439 6D070000 		.4byte	.LASF64
 957 043d 09       		.byte	0x9
 958 043e B702     		.2byte	0x2b7
 959 0440 31030000 		.4byte	0x331
 960 0444 10       		.byte	0x10
 961 0445 0C       		.uleb128 0xc
 962 0446 46435200 		.ascii	"FCR\000"
 963 044a 09       		.byte	0x9
 964 044b B802     		.2byte	0x2b8
 965 044d 31030000 		.4byte	0x331
 966 0451 14       		.byte	0x14
ARM GAS  /var/folders/4k/6h5l9jl178sb4hslwv3xp1mr0000gn/T//ccpLbRxk.s 			page 18


 967 0452 00       		.byte	0
 968 0453 15       		.uleb128 0x15
 969 0454 29070000 		.4byte	.LASF65
 970 0458 09       		.byte	0x9
 971 0459 B902     		.2byte	0x2b9
 972 045b FC030000 		.4byte	0x3fc
 973 045f 13       		.uleb128 0x13
 974 0460 24       		.byte	0x24
 975 0461 09       		.byte	0x9
 976 0462 E304     		.2byte	0x4e3
 977 0464 51050000 		.4byte	0x551
 978 0468 0C       		.uleb128 0xc
 979 0469 43523100 		.ascii	"CR1\000"
 980 046d 09       		.byte	0x9
 981 046e E504     		.2byte	0x4e5
 982 0470 F2030000 		.4byte	0x3f2
 983 0474 00       		.byte	0
 984 0475 14       		.uleb128 0x14
 985 0476 44040000 		.4byte	.LASF66
 986 047a 09       		.byte	0x9
 987 047b E604     		.2byte	0x4e6
 988 047d A2000000 		.4byte	0xa2
 989 0481 02       		.byte	0x2
 990 0482 0C       		.uleb128 0xc
 991 0483 43523200 		.ascii	"CR2\000"
 992 0487 09       		.byte	0x9
 993 0488 E704     		.2byte	0x4e7
 994 048a F2030000 		.4byte	0x3f2
 995 048e 04       		.byte	0x4
 996 048f 14       		.uleb128 0x14
 997 0490 4E040000 		.4byte	.LASF67
 998 0494 09       		.byte	0x9
 999 0495 E804     		.2byte	0x4e8
 1000 0497 A2000000 		.4byte	0xa2
 1001 049b 06       		.byte	0x6
 1002 049c 0C       		.uleb128 0xc
 1003 049d 535200   		.ascii	"SR\000"
 1004 04a0 09       		.byte	0x9
 1005 04a1 E904     		.2byte	0x4e9
 1006 04a3 F2030000 		.4byte	0x3f2
 1007 04a7 08       		.byte	0x8
 1008 04a8 14       		.uleb128 0x14
 1009 04a9 58040000 		.4byte	.LASF68
 1010 04ad 09       		.byte	0x9
 1011 04ae EA04     		.2byte	0x4ea
 1012 04b0 A2000000 		.4byte	0xa2
 1013 04b4 0A       		.byte	0xa
 1014 04b5 0C       		.uleb128 0xc
 1015 04b6 445200   		.ascii	"DR\000"
 1016 04b9 09       		.byte	0x9
 1017 04ba EB04     		.2byte	0x4eb
 1018 04bc F2030000 		.4byte	0x3f2
 1019 04c0 0C       		.byte	0xc
 1020 04c1 14       		.uleb128 0x14
 1021 04c2 62040000 		.4byte	.LASF69
 1022 04c6 09       		.byte	0x9
 1023 04c7 EC04     		.2byte	0x4ec
ARM GAS  /var/folders/4k/6h5l9jl178sb4hslwv3xp1mr0000gn/T//ccpLbRxk.s 			page 19


 1024 04c9 A2000000 		.4byte	0xa2
 1025 04cd 0E       		.byte	0xe
 1026 04ce 14       		.uleb128 0x14
 1027 04cf C7000000 		.4byte	.LASF70
 1028 04d3 09       		.byte	0x9
 1029 04d4 ED04     		.2byte	0x4ed
 1030 04d6 F2030000 		.4byte	0x3f2
 1031 04da 10       		.byte	0x10
 1032 04db 14       		.uleb128 0x14
 1033 04dc 6C040000 		.4byte	.LASF71
 1034 04e0 09       		.byte	0x9
 1035 04e1 EE04     		.2byte	0x4ee
 1036 04e3 A2000000 		.4byte	0xa2
 1037 04e7 12       		.byte	0x12
 1038 04e8 14       		.uleb128 0x14
 1039 04e9 34000000 		.4byte	.LASF72
 1040 04ed 09       		.byte	0x9
 1041 04ee EF04     		.2byte	0x4ef
 1042 04f0 F2030000 		.4byte	0x3f2
 1043 04f4 14       		.byte	0x14
 1044 04f5 14       		.uleb128 0x14
 1045 04f6 69060000 		.4byte	.LASF73
 1046 04fa 09       		.byte	0x9
 1047 04fb F004     		.2byte	0x4f0
 1048 04fd A2000000 		.4byte	0xa2
 1049 0501 16       		.byte	0x16
 1050 0502 14       		.uleb128 0x14
 1051 0503 3D040000 		.4byte	.LASF74
 1052 0507 09       		.byte	0x9
 1053 0508 F104     		.2byte	0x4f1
 1054 050a F2030000 		.4byte	0x3f2
 1055 050e 18       		.byte	0x18
 1056 050f 14       		.uleb128 0x14
 1057 0510 7D040000 		.4byte	.LASF75
 1058 0514 09       		.byte	0x9
 1059 0515 F204     		.2byte	0x4f2
 1060 0517 A2000000 		.4byte	0xa2
 1061 051b 1A       		.byte	0x1a
 1062 051c 14       		.uleb128 0x14
 1063 051d 4D010000 		.4byte	.LASF76
 1064 0521 09       		.byte	0x9
 1065 0522 F304     		.2byte	0x4f3
 1066 0524 F2030000 		.4byte	0x3f2
 1067 0528 1C       		.byte	0x1c
 1068 0529 14       		.uleb128 0x14
 1069 052a 87040000 		.4byte	.LASF77
 1070 052e 09       		.byte	0x9
 1071 052f F404     		.2byte	0x4f4
 1072 0531 A2000000 		.4byte	0xa2
 1073 0535 1E       		.byte	0x1e
 1074 0536 14       		.uleb128 0x14
 1075 0537 9F030000 		.4byte	.LASF78
 1076 053b 09       		.byte	0x9
 1077 053c F504     		.2byte	0x4f5
 1078 053e F2030000 		.4byte	0x3f2
 1079 0542 20       		.byte	0x20
 1080 0543 14       		.uleb128 0x14
ARM GAS  /var/folders/4k/6h5l9jl178sb4hslwv3xp1mr0000gn/T//ccpLbRxk.s 			page 20


 1081 0544 91040000 		.4byte	.LASF79
 1082 0548 09       		.byte	0x9
 1083 0549 F604     		.2byte	0x4f6
 1084 054b A2000000 		.4byte	0xa2
 1085 054f 22       		.byte	0x22
 1086 0550 00       		.byte	0
 1087 0551 15       		.uleb128 0x15
 1088 0552 AE060000 		.4byte	.LASF80
 1089 0556 09       		.byte	0x9
 1090 0557 F704     		.2byte	0x4f7
 1091 0559 5F040000 		.4byte	0x45f
 1092 055d 08       		.uleb128 0x8
 1093 055e 0C       		.byte	0xc
 1094 055f 0A       		.byte	0xa
 1095 0560 DA       		.byte	0xda
 1096 0561 A2050000 		.4byte	0x5a2
 1097 0565 06       		.uleb128 0x6
 1098 0566 8B000000 		.4byte	.LASF81
 1099 056a 0A       		.byte	0xa
 1100 056b DB       		.byte	0xdb
 1101 056c A2050000 		.4byte	0x5a2
 1102 0570 00       		.byte	0
 1103 0571 06       		.uleb128 0x6
 1104 0572 64060000 		.4byte	.LASF82
 1105 0576 0A       		.byte	0xa
 1106 0577 DC       		.byte	0xdc
 1107 0578 A8050000 		.4byte	0x5a8
 1108 057c 04       		.byte	0x4
 1109 057d 06       		.uleb128 0x6
 1110 057e B7020000 		.4byte	.LASF83
 1111 0582 0A       		.byte	0xa
 1112 0583 DD       		.byte	0xdd
 1113 0584 97000000 		.4byte	0x97
 1114 0588 08       		.byte	0x8
 1115 0589 06       		.uleb128 0x6
 1116 058a 53020000 		.4byte	.LASF84
 1117 058e 0A       		.byte	0xa
 1118 058f DF       		.byte	0xdf
 1119 0590 97000000 		.4byte	0x97
 1120 0594 09       		.byte	0x9
 1121 0595 06       		.uleb128 0x6
 1122 0596 DC000000 		.4byte	.LASF85
 1123 059a 0A       		.byte	0xa
 1124 059b E0       		.byte	0xe0
 1125 059c 97000000 		.4byte	0x97
 1126 05a0 0A       		.byte	0xa
 1127 05a1 00       		.byte	0
 1128 05a2 09       		.uleb128 0x9
 1129 05a3 04       		.byte	0x4
 1130 05a4 53040000 		.4byte	0x453
 1131 05a8 09       		.uleb128 0x9
 1132 05a9 04       		.byte	0x4
 1133 05aa 31030000 		.4byte	0x331
 1134 05ae 04       		.uleb128 0x4
 1135 05af C5040000 		.4byte	.LASF86
 1136 05b3 0A       		.byte	0xa
 1137 05b4 E1       		.byte	0xe1
ARM GAS  /var/folders/4k/6h5l9jl178sb4hslwv3xp1mr0000gn/T//ccpLbRxk.s 			page 21


 1138 05b5 5D050000 		.4byte	0x55d
 1139 05b9 16       		.uleb128 0x16
 1140 05ba 01       		.byte	0x1
 1141 05bb 0B       		.byte	0xb
 1142 05bc 33       		.byte	0x33
 1143 05bd F8050000 		.4byte	0x5f8
 1144 05c1 17       		.uleb128 0x17
 1145 05c2 85010000 		.4byte	.LASF87
 1146 05c6 00       		.sleb128 0
 1147 05c7 17       		.uleb128 0x17
 1148 05c8 D5010000 		.4byte	.LASF88
 1149 05cc 01       		.sleb128 1
 1150 05cd 17       		.uleb128 0x17
 1151 05ce 11030000 		.4byte	.LASF89
 1152 05d2 02       		.sleb128 2
 1153 05d3 17       		.uleb128 0x17
 1154 05d4 38030000 		.4byte	.LASF90
 1155 05d8 03       		.sleb128 3
 1156 05d9 17       		.uleb128 0x17
 1157 05da D1060000 		.4byte	.LASF91
 1158 05de 04       		.sleb128 4
 1159 05df 17       		.uleb128 0x17
 1160 05e0 F1030000 		.4byte	.LASF92
 1161 05e4 05       		.sleb128 5
 1162 05e5 17       		.uleb128 0x17
 1163 05e6 93030000 		.4byte	.LASF93
 1164 05ea 06       		.sleb128 6
 1165 05eb 17       		.uleb128 0x17
 1166 05ec CE050000 		.4byte	.LASF94
 1167 05f0 07       		.sleb128 7
 1168 05f1 17       		.uleb128 0x17
 1169 05f2 CE030000 		.4byte	.LASF95
 1170 05f6 08       		.sleb128 8
 1171 05f7 00       		.byte	0
 1172 05f8 04       		.uleb128 0x4
 1173 05f9 13010000 		.4byte	.LASF96
 1174 05fd 0B       		.byte	0xb
 1175 05fe 3D       		.byte	0x3d
 1176 05ff B9050000 		.4byte	0x5b9
 1177 0603 08       		.uleb128 0x8
 1178 0604 08       		.byte	0x8
 1179 0605 0B       		.byte	0xb
 1180 0606 42       		.byte	0x42
 1181 0607 24060000 		.4byte	0x624
 1182 060b 06       		.uleb128 0x6
 1183 060c 68020000 		.4byte	.LASF97
 1184 0610 0B       		.byte	0xb
 1185 0611 43       		.byte	0x43
 1186 0612 B8000000 		.4byte	0xb8
 1187 0616 00       		.byte	0
 1188 0617 06       		.uleb128 0x6
 1189 0618 3B000000 		.4byte	.LASF98
 1190 061c 0B       		.byte	0xb
 1191 061d 44       		.byte	0x44
 1192 061e B8000000 		.4byte	0xb8
 1193 0622 04       		.byte	0x4
 1194 0623 00       		.byte	0
ARM GAS  /var/folders/4k/6h5l9jl178sb4hslwv3xp1mr0000gn/T//ccpLbRxk.s 			page 22


 1195 0624 04       		.uleb128 0x4
 1196 0625 00000000 		.4byte	.LASF99
 1197 0629 0B       		.byte	0xb
 1198 062a 45       		.byte	0x45
 1199 062b 03060000 		.4byte	0x603
 1200 062f 18       		.uleb128 0x18
 1201 0630 C3000000 		.4byte	0xc3
 1202 0634 3E060000 		.4byte	0x63e
 1203 0638 19       		.uleb128 0x19
 1204 0639 92020000 		.4byte	0x292
 1205 063d 00       		.byte	0
 1206 063e 09       		.uleb128 0x9
 1207 063f 04       		.byte	0x4
 1208 0640 2F060000 		.4byte	0x62f
 1209 0644 18       		.uleb128 0x18
 1210 0645 C3000000 		.4byte	0xc3
 1211 0649 62060000 		.4byte	0x662
 1212 064d 19       		.uleb128 0x19
 1213 064e 92020000 		.4byte	0x292
 1214 0652 19       		.uleb128 0x19
 1215 0653 B8000000 		.4byte	0xb8
 1216 0657 19       		.uleb128 0x19
 1217 0658 D1030000 		.4byte	0x3d1
 1218 065c 19       		.uleb128 0x19
 1219 065d B8000000 		.4byte	0xb8
 1220 0661 00       		.byte	0
 1221 0662 09       		.uleb128 0x9
 1222 0663 04       		.byte	0x4
 1223 0664 44060000 		.4byte	0x644
 1224 0668 18       		.uleb128 0x18
 1225 0669 C3000000 		.4byte	0xc3
 1226 066d 86060000 		.4byte	0x686
 1227 0671 19       		.uleb128 0x19
 1228 0672 92020000 		.4byte	0x292
 1229 0676 19       		.uleb128 0x19
 1230 0677 B8000000 		.4byte	0xb8
 1231 067b 19       		.uleb128 0x19
 1232 067c D7030000 		.4byte	0x3d7
 1233 0680 19       		.uleb128 0x19
 1234 0681 B8000000 		.4byte	0xb8
 1235 0685 00       		.byte	0
 1236 0686 09       		.uleb128 0x9
 1237 0687 04       		.byte	0x4
 1238 0688 68060000 		.4byte	0x668
 1239 068c 18       		.uleb128 0x18
 1240 068d C3000000 		.4byte	0xc3
 1241 0691 A0060000 		.4byte	0x6a0
 1242 0695 19       		.uleb128 0x19
 1243 0696 92020000 		.4byte	0x292
 1244 069a 19       		.uleb128 0x19
 1245 069b A0060000 		.4byte	0x6a0
 1246 069f 00       		.byte	0
 1247 06a0 09       		.uleb128 0x9
 1248 06a1 04       		.byte	0x4
 1249 06a2 24060000 		.4byte	0x624
 1250 06a6 09       		.uleb128 0x9
 1251 06a7 04       		.byte	0x4
ARM GAS  /var/folders/4k/6h5l9jl178sb4hslwv3xp1mr0000gn/T//ccpLbRxk.s 			page 23


 1252 06a8 8C060000 		.4byte	0x68c
 1253 06ac 08       		.uleb128 0x8
 1254 06ad 04       		.byte	0x4
 1255 06ae 0C       		.byte	0xc
 1256 06af 96       		.byte	0x96
 1257 06b0 CD060000 		.4byte	0x6cd
 1258 06b4 07       		.uleb128 0x7
 1259 06b5 73657400 		.ascii	"set\000"
 1260 06b9 0C       		.byte	0xc
 1261 06ba 97       		.byte	0x97
 1262 06bb A2000000 		.4byte	0xa2
 1263 06bf 00       		.byte	0
 1264 06c0 06       		.uleb128 0x6
 1265 06c1 AE030000 		.4byte	.LASF100
 1266 06c5 0C       		.byte	0xc
 1267 06c6 98       		.byte	0x98
 1268 06c7 A2000000 		.4byte	0xa2
 1269 06cb 02       		.byte	0x2
 1270 06cc 00       		.byte	0
 1271 06cd 0E       		.uleb128 0xe
 1272 06ce 04       		.byte	0x4
 1273 06cf 0C       		.byte	0xc
 1274 06d0 94       		.byte	0x94
 1275 06d1 E8060000 		.4byte	0x6e8
 1276 06d5 1A       		.uleb128 0x1a
 1277 06d6 5700     		.ascii	"W\000"
 1278 06d8 0C       		.byte	0xc
 1279 06d9 95       		.byte	0x95
 1280 06da B8000000 		.4byte	0xb8
 1281 06de 1A       		.uleb128 0x1a
 1282 06df 4800     		.ascii	"H\000"
 1283 06e1 0C       		.byte	0xc
 1284 06e2 99       		.byte	0x99
 1285 06e3 AC060000 		.4byte	0x6ac
 1286 06e7 00       		.byte	0
 1287 06e8 08       		.uleb128 0x8
 1288 06e9 28       		.byte	0x28
 1289 06ea 0C       		.byte	0xc
 1290 06eb 8C       		.byte	0x8c
 1291 06ec 69070000 		.4byte	0x769
 1292 06f0 06       		.uleb128 0x6
 1293 06f1 A0000000 		.4byte	.LASF101
 1294 06f5 0C       		.byte	0xc
 1295 06f6 8E       		.byte	0x8e
 1296 06f7 31030000 		.4byte	0x331
 1297 06fb 00       		.byte	0
 1298 06fc 06       		.uleb128 0x6
 1299 06fd 57000000 		.4byte	.LASF102
 1300 0701 0C       		.byte	0xc
 1301 0702 8F       		.byte	0x8f
 1302 0703 31030000 		.4byte	0x331
 1303 0707 04       		.byte	0x4
 1304 0708 06       		.uleb128 0x6
 1305 0709 2F020000 		.4byte	.LASF103
 1306 070d 0C       		.byte	0xc
 1307 070e 90       		.byte	0x90
 1308 070f 31030000 		.4byte	0x331
ARM GAS  /var/folders/4k/6h5l9jl178sb4hslwv3xp1mr0000gn/T//ccpLbRxk.s 			page 24


 1309 0713 08       		.byte	0x8
 1310 0714 06       		.uleb128 0x6
 1311 0715 CD000000 		.4byte	.LASF104
 1312 0719 0C       		.byte	0xc
 1313 071a 91       		.byte	0x91
 1314 071b 31030000 		.4byte	0x331
 1315 071f 0C       		.byte	0xc
 1316 0720 07       		.uleb128 0x7
 1317 0721 49445200 		.ascii	"IDR\000"
 1318 0725 0C       		.byte	0xc
 1319 0726 92       		.byte	0x92
 1320 0727 31030000 		.4byte	0x331
 1321 072b 10       		.byte	0x10
 1322 072c 07       		.uleb128 0x7
 1323 072d 4F445200 		.ascii	"ODR\000"
 1324 0731 0C       		.byte	0xc
 1325 0732 93       		.byte	0x93
 1326 0733 31030000 		.4byte	0x331
 1327 0737 14       		.byte	0x14
 1328 0738 06       		.uleb128 0x6
 1329 0739 95070000 		.4byte	.LASF105
 1330 073d 0C       		.byte	0xc
 1331 073e 9A       		.byte	0x9a
 1332 073f 69070000 		.4byte	0x769
 1333 0743 18       		.byte	0x18
 1334 0744 06       		.uleb128 0x6
 1335 0745 B2020000 		.4byte	.LASF106
 1336 0749 0C       		.byte	0xc
 1337 074a 9B       		.byte	0x9b
 1338 074b 31030000 		.4byte	0x331
 1339 074f 1C       		.byte	0x1c
 1340 0750 06       		.uleb128 0x6
 1341 0751 38040000 		.4byte	.LASF107
 1342 0755 0C       		.byte	0xc
 1343 0756 9C       		.byte	0x9c
 1344 0757 31030000 		.4byte	0x331
 1345 075b 20       		.byte	0x20
 1346 075c 06       		.uleb128 0x6
 1347 075d 33040000 		.4byte	.LASF108
 1348 0761 0C       		.byte	0xc
 1349 0762 9D       		.byte	0x9d
 1350 0763 31030000 		.4byte	0x331
 1351 0767 24       		.byte	0x24
 1352 0768 00       		.byte	0
 1353 0769 0D       		.uleb128 0xd
 1354 076a CD060000 		.4byte	0x6cd
 1355 076e 04       		.uleb128 0x4
 1356 076f 13020000 		.4byte	.LASF109
 1357 0773 0C       		.byte	0xc
 1358 0774 9E       		.byte	0x9e
 1359 0775 E8060000 		.4byte	0x6e8
 1360 0779 04       		.uleb128 0x4
 1361 077a 3C070000 		.4byte	.LASF110
 1362 077e 0C       		.byte	0xc
 1363 077f FD       		.byte	0xfd
 1364 0780 84070000 		.4byte	0x784
 1365 0784 09       		.uleb128 0x9
ARM GAS  /var/folders/4k/6h5l9jl178sb4hslwv3xp1mr0000gn/T//ccpLbRxk.s 			page 25


 1366 0785 04       		.byte	0x4
 1367 0786 6E070000 		.4byte	0x76e
 1368 078a 09       		.uleb128 0x9
 1369 078b 04       		.byte	0x4
 1370 078c 90070000 		.4byte	0x790
 1371 0790 10       		.uleb128 0x10
 1372 0791 AE050000 		.4byte	0x5ae
 1373 0795 16       		.uleb128 0x16
 1374 0796 01       		.byte	0x1
 1375 0797 0D       		.byte	0xd
 1376 0798 55       		.byte	0x55
 1377 0799 BC070000 		.4byte	0x7bc
 1378 079d 17       		.uleb128 0x17
 1379 079e 72070000 		.4byte	.LASF111
 1380 07a2 00       		.sleb128 0
 1381 07a3 17       		.uleb128 0x17
 1382 07a4 44010000 		.4byte	.LASF112
 1383 07a8 01       		.sleb128 1
 1384 07a9 17       		.uleb128 0x17
 1385 07aa BD000000 		.4byte	.LASF113
 1386 07ae 02       		.sleb128 2
 1387 07af 17       		.uleb128 0x17
 1388 07b0 68000000 		.4byte	.LASF114
 1389 07b4 03       		.sleb128 3
 1390 07b5 17       		.uleb128 0x17
 1391 07b6 C4060000 		.4byte	.LASF115
 1392 07ba 04       		.sleb128 4
 1393 07bb 00       		.byte	0
 1394 07bc 04       		.uleb128 0x4
 1395 07bd F5060000 		.4byte	.LASF116
 1396 07c1 0D       		.byte	0xd
 1397 07c2 5B       		.byte	0x5b
 1398 07c3 95070000 		.4byte	0x795
 1399 07c7 15       		.uleb128 0x15
 1400 07c8 F5000000 		.4byte	.LASF117
 1401 07cc 0E       		.byte	0xe
 1402 07cd E701     		.2byte	0x1e7
 1403 07cf D3070000 		.4byte	0x7d3
 1404 07d3 0B       		.uleb128 0xb
 1405 07d4 F5000000 		.4byte	.LASF117
 1406 07d8 30       		.byte	0x30
 1407 07d9 0E       		.byte	0xe
 1408 07da 0B02     		.2byte	0x20b
 1409 07dc 56080000 		.4byte	0x856
 1410 07e0 14       		.uleb128 0x14
 1411 07e1 90010000 		.4byte	.LASF118
 1412 07e5 0E       		.byte	0xe
 1413 07e6 0F02     		.2byte	0x20f
 1414 07e8 BC070000 		.4byte	0x7bc
 1415 07ec 00       		.byte	0
 1416 07ed 14       		.uleb128 0x14
 1417 07ee E3060000 		.4byte	.LASF119
 1418 07f2 0E       		.byte	0xe
 1419 07f3 1302     		.2byte	0x213
 1420 07f5 C3080000 		.4byte	0x8c3
 1421 07f9 04       		.byte	0x4
 1422 07fa 14       		.uleb128 0x14
ARM GAS  /var/folders/4k/6h5l9jl178sb4hslwv3xp1mr0000gn/T//ccpLbRxk.s 			page 26


 1423 07fb CE010000 		.4byte	.LASF120
 1424 07ff 0E       		.byte	0xe
 1425 0800 1802     		.2byte	0x218
 1426 0802 56020000 		.4byte	0x256
 1427 0806 08       		.byte	0x8
 1428 0807 14       		.uleb128 0x14
 1429 0808 A3040000 		.4byte	.LASF121
 1430 080c 0E       		.byte	0xe
 1431 080d 1F02     		.2byte	0x21f
 1432 080f 79030000 		.4byte	0x379
 1433 0813 0C       		.byte	0xc
 1434 0814 0C       		.uleb128 0xc
 1435 0815 73706900 		.ascii	"spi\000"
 1436 0819 0E       		.byte	0xe
 1437 081a 2B02     		.2byte	0x22b
 1438 081c CE080000 		.4byte	0x8ce
 1439 0820 1C       		.byte	0x1c
 1440 0821 14       		.uleb128 0x14
 1441 0822 10000000 		.4byte	.LASF122
 1442 0826 0E       		.byte	0xe
 1443 0827 2F02     		.2byte	0x22f
 1444 0829 8A070000 		.4byte	0x78a
 1445 082d 20       		.byte	0x20
 1446 082e 14       		.uleb128 0x14
 1447 082f 29020000 		.4byte	.LASF123
 1448 0833 0E       		.byte	0xe
 1449 0834 3302     		.2byte	0x233
 1450 0836 8A070000 		.4byte	0x78a
 1451 083a 24       		.byte	0x24
 1452 083b 14       		.uleb128 0x14
 1453 083c 09020000 		.4byte	.LASF124
 1454 0840 0E       		.byte	0xe
 1455 0841 3702     		.2byte	0x237
 1456 0843 B8000000 		.4byte	0xb8
 1457 0847 28       		.byte	0x28
 1458 0848 14       		.uleb128 0x14
 1459 0849 08040000 		.4byte	.LASF125
 1460 084d 0E       		.byte	0xe
 1461 084e 3B02     		.2byte	0x23b
 1462 0850 B8000000 		.4byte	0xb8
 1463 0854 2C       		.byte	0x2c
 1464 0855 00       		.byte	0
 1465 0856 15       		.uleb128 0x15
 1466 0857 92000000 		.4byte	.LASF126
 1467 085b 0E       		.byte	0xe
 1468 085c EF01     		.2byte	0x1ef
 1469 085e 62080000 		.4byte	0x862
 1470 0862 09       		.uleb128 0x9
 1471 0863 04       		.byte	0x4
 1472 0864 68080000 		.4byte	0x868
 1473 0868 1B       		.uleb128 0x1b
 1474 0869 73080000 		.4byte	0x873
 1475 086d 19       		.uleb128 0x19
 1476 086e 73080000 		.4byte	0x873
 1477 0872 00       		.byte	0
 1478 0873 09       		.uleb128 0x9
 1479 0874 04       		.byte	0x4
ARM GAS  /var/folders/4k/6h5l9jl178sb4hslwv3xp1mr0000gn/T//ccpLbRxk.s 			page 27


 1480 0875 C7070000 		.4byte	0x7c7
 1481 0879 13       		.uleb128 0x13
 1482 087a 0C       		.byte	0xc
 1483 087b 0E       		.byte	0xe
 1484 087c F401     		.2byte	0x1f4
 1485 087e B7080000 		.4byte	0x8b7
 1486 0882 14       		.uleb128 0x14
 1487 0883 02020000 		.4byte	.LASF127
 1488 0887 0E       		.byte	0xe
 1489 0888 F801     		.2byte	0x1f8
 1490 088a 56080000 		.4byte	0x856
 1491 088e 00       		.byte	0
 1492 088f 14       		.uleb128 0x14
 1493 0890 FF000000 		.4byte	.LASF128
 1494 0894 0E       		.byte	0xe
 1495 0895 FD01     		.2byte	0x1fd
 1496 0897 79070000 		.4byte	0x779
 1497 089b 04       		.byte	0x4
 1498 089c 14       		.uleb128 0x14
 1499 089d EE010000 		.4byte	.LASF129
 1500 08a1 0E       		.byte	0xe
 1501 08a2 0102     		.2byte	0x201
 1502 08a4 A2000000 		.4byte	0xa2
 1503 08a8 08       		.byte	0x8
 1504 08a9 0C       		.uleb128 0xc
 1505 08aa 63723100 		.ascii	"cr1\000"
 1506 08ae 0E       		.byte	0xe
 1507 08af 0502     		.2byte	0x205
 1508 08b1 A2000000 		.4byte	0xa2
 1509 08b5 0A       		.byte	0xa
 1510 08b6 00       		.byte	0
 1511 08b7 15       		.uleb128 0x15
 1512 08b8 C3070000 		.4byte	.LASF130
 1513 08bc 0E       		.byte	0xe
 1514 08bd 0602     		.2byte	0x206
 1515 08bf 79080000 		.4byte	0x879
 1516 08c3 09       		.uleb128 0x9
 1517 08c4 04       		.byte	0x4
 1518 08c5 C9080000 		.4byte	0x8c9
 1519 08c9 10       		.uleb128 0x10
 1520 08ca B7080000 		.4byte	0x8b7
 1521 08ce 09       		.uleb128 0x9
 1522 08cf 04       		.byte	0x4
 1523 08d0 51050000 		.4byte	0x551
 1524 08d4 08       		.uleb128 0x8
 1525 08d5 0C       		.byte	0xc
 1526 08d6 0F       		.byte	0xf
 1527 08d7 56       		.byte	0x56
 1528 08d8 01090000 		.4byte	0x901
 1529 08dc 06       		.uleb128 0x6
 1530 08dd A8070000 		.4byte	.LASF131
 1531 08e1 0F       		.byte	0xf
 1532 08e2 5A       		.byte	0x5a
 1533 08e3 73080000 		.4byte	0x873
 1534 08e7 00       		.byte	0
 1535 08e8 06       		.uleb128 0x6
 1536 08e9 1C030000 		.4byte	.LASF132
ARM GAS  /var/folders/4k/6h5l9jl178sb4hslwv3xp1mr0000gn/T//ccpLbRxk.s 			page 28


 1537 08ed 0F       		.byte	0xf
 1538 08ee 5E       		.byte	0x5e
 1539 08ef C3080000 		.4byte	0x8c3
 1540 08f3 04       		.byte	0x4
 1541 08f4 06       		.uleb128 0x6
 1542 08f5 9A070000 		.4byte	.LASF133
 1543 08f9 0F       		.byte	0xf
 1544 08fa 62       		.byte	0x62
 1545 08fb C3080000 		.4byte	0x8c3
 1546 08ff 08       		.byte	0x8
 1547 0900 00       		.byte	0
 1548 0901 04       		.uleb128 0x4
 1549 0902 12040000 		.4byte	.LASF134
 1550 0906 0F       		.byte	0xf
 1551 0907 63       		.byte	0x63
 1552 0908 D4080000 		.4byte	0x8d4
 1553 090c 05       		.uleb128 0x5
 1554 090d 73000000 		.4byte	.LASF135
 1555 0911 20       		.byte	0x20
 1556 0912 0F       		.byte	0xf
 1557 0913 70       		.byte	0x70
 1558 0914 79090000 		.4byte	0x979
 1559 0918 06       		.uleb128 0x6
 1560 0919 61070000 		.4byte	.LASF136
 1561 091d 0F       		.byte	0xf
 1562 091e 71       		.byte	0x71
 1563 091f 3E060000 		.4byte	0x63e
 1564 0923 00       		.byte	0
 1565 0924 06       		.uleb128 0x6
 1566 0925 4A000000 		.4byte	.LASF137
 1567 0929 0F       		.byte	0xf
 1568 092a 71       		.byte	0x71
 1569 092b 3E060000 		.4byte	0x63e
 1570 092f 04       		.byte	0x4
 1571 0930 06       		.uleb128 0x6
 1572 0931 51060000 		.4byte	.LASF138
 1573 0935 0F       		.byte	0xf
 1574 0936 71       		.byte	0x71
 1575 0937 3E060000 		.4byte	0x63e
 1576 093b 08       		.byte	0x8
 1577 093c 06       		.uleb128 0x6
 1578 093d 64010000 		.4byte	.LASF139
 1579 0941 0F       		.byte	0xf
 1580 0942 71       		.byte	0x71
 1581 0943 3E060000 		.4byte	0x63e
 1582 0947 0C       		.byte	0xc
 1583 0948 06       		.uleb128 0x6
 1584 0949 BA060000 		.4byte	.LASF140
 1585 094d 0F       		.byte	0xf
 1586 094e 71       		.byte	0x71
 1587 094f 62060000 		.4byte	0x662
 1588 0953 10       		.byte	0x10
 1589 0954 06       		.uleb128 0x6
 1590 0955 83030000 		.4byte	.LASF141
 1591 0959 0F       		.byte	0xf
 1592 095a 71       		.byte	0x71
 1593 095b 86060000 		.4byte	0x686
ARM GAS  /var/folders/4k/6h5l9jl178sb4hslwv3xp1mr0000gn/T//ccpLbRxk.s 			page 29


 1594 095f 14       		.byte	0x14
 1595 0960 06       		.uleb128 0x6
 1596 0961 AD070000 		.4byte	.LASF142
 1597 0965 0F       		.byte	0xf
 1598 0966 71       		.byte	0x71
 1599 0967 3E060000 		.4byte	0x63e
 1600 096b 18       		.byte	0x18
 1601 096c 06       		.uleb128 0x6
 1602 096d 20020000 		.4byte	.LASF143
 1603 0971 0F       		.byte	0xf
 1604 0972 71       		.byte	0x71
 1605 0973 A6060000 		.4byte	0x6a6
 1606 0977 1C       		.byte	0x1c
 1607 0978 00       		.byte	0
 1608 0979 08       		.uleb128 0x8
 1609 097a 34       		.byte	0x34
 1610 097b 0F       		.byte	0xf
 1611 097c 79       		.byte	0x79
 1612 097d D6090000 		.4byte	0x9d6
 1613 0981 07       		.uleb128 0x7
 1614 0982 766D7400 		.ascii	"vmt\000"
 1615 0986 0F       		.byte	0xf
 1616 0987 7D       		.byte	0x7d
 1617 0988 D6090000 		.4byte	0x9d6
 1618 098c 00       		.byte	0
 1619 098d 06       		.uleb128 0x6
 1620 098e 90010000 		.4byte	.LASF118
 1621 0992 0F       		.byte	0xf
 1622 0993 7E       		.byte	0x7e
 1623 0994 F8050000 		.4byte	0x5f8
 1624 0998 04       		.byte	0x4
 1625 0999 07       		.uleb128 0x7
 1626 099a 63696400 		.ascii	"cid\000"
 1627 099e 0F       		.byte	0xf
 1628 099f 7E       		.byte	0x7e
 1629 09a0 E2030000 		.4byte	0x3e2
 1630 09a4 08       		.byte	0x8
 1631 09a5 07       		.uleb128 0x7
 1632 09a6 63736400 		.ascii	"csd\000"
 1633 09aa 0F       		.byte	0xf
 1634 09ab 7E       		.byte	0x7e
 1635 09ac E2030000 		.4byte	0x3e2
 1636 09b0 18       		.byte	0x18
 1637 09b1 06       		.uleb128 0x6
 1638 09b2 1C000000 		.4byte	.LASF144
 1639 09b6 0F       		.byte	0xf
 1640 09b7 7E       		.byte	0x7e
 1641 09b8 B8000000 		.4byte	0xb8
 1642 09bc 28       		.byte	0x28
 1643 09bd 06       		.uleb128 0x6
 1644 09be E3060000 		.4byte	.LASF119
 1645 09c2 0F       		.byte	0xf
 1646 09c3 82       		.byte	0x82
 1647 09c4 E1090000 		.4byte	0x9e1
 1648 09c8 2C       		.byte	0x2c
 1649 09c9 06       		.uleb128 0x6
 1650 09ca 22030000 		.4byte	.LASF145
ARM GAS  /var/folders/4k/6h5l9jl178sb4hslwv3xp1mr0000gn/T//ccpLbRxk.s 			page 30


 1651 09ce 0F       		.byte	0xf
 1652 09cf 86       		.byte	0x86
 1653 09d0 C3000000 		.4byte	0xc3
 1654 09d4 30       		.byte	0x30
 1655 09d5 00       		.byte	0
 1656 09d6 09       		.uleb128 0x9
 1657 09d7 04       		.byte	0x4
 1658 09d8 DC090000 		.4byte	0x9dc
 1659 09dc 10       		.uleb128 0x10
 1660 09dd 0C090000 		.4byte	0x90c
 1661 09e1 09       		.uleb128 0x9
 1662 09e2 04       		.byte	0x4
 1663 09e3 E7090000 		.4byte	0x9e7
 1664 09e7 10       		.uleb128 0x10
 1665 09e8 01090000 		.4byte	0x901
 1666 09ec 04       		.uleb128 0x4
 1667 09ed 7D070000 		.4byte	.LASF146
 1668 09f1 0F       		.byte	0xf
 1669 09f2 87       		.byte	0x87
 1670 09f3 79090000 		.4byte	0x979
 1671 09f7 04       		.uleb128 0x4
 1672 09f8 71020000 		.4byte	.LASF147
 1673 09fc 10       		.byte	0x10
 1674 09fd 16       		.byte	0x16
 1675 09fe 45000000 		.4byte	0x45
 1676 0a02 04       		.uleb128 0x4
 1677 0a03 BA030000 		.4byte	.LASF148
 1678 0a07 10       		.byte	0x10
 1679 0a08 1B       		.byte	0x1b
 1680 0a09 5E000000 		.4byte	0x5e
 1681 0a0d 04       		.uleb128 0x4
 1682 0a0e F4010000 		.4byte	.LASF149
 1683 0a12 10       		.byte	0x10
 1684 0a13 21       		.byte	0x21
 1685 0a14 82000000 		.4byte	0x82
 1686 0a18 04       		.uleb128 0x4
 1687 0a19 1C070000 		.4byte	.LASF150
 1688 0a1d 11       		.byte	0x11
 1689 0a1e 0E       		.byte	0xe
 1690 0a1f F7090000 		.4byte	0x9f7
 1691 0a23 16       		.uleb128 0x16
 1692 0a24 01       		.byte	0x1
 1693 0a25 11       		.byte	0x11
 1694 0a26 11       		.byte	0x11
 1695 0a27 4A0A0000 		.4byte	0xa4a
 1696 0a2b 17       		.uleb128 0x17
 1697 0a2c BF030000 		.4byte	.LASF151
 1698 0a30 00       		.sleb128 0
 1699 0a31 17       		.uleb128 0x17
 1700 0a32 B9070000 		.4byte	.LASF152
 1701 0a36 01       		.sleb128 1
 1702 0a37 17       		.uleb128 0x17
 1703 0a38 25000000 		.4byte	.LASF153
 1704 0a3c 02       		.sleb128 2
 1705 0a3d 17       		.uleb128 0x17
 1706 0a3e 80000000 		.4byte	.LASF154
 1707 0a42 03       		.sleb128 3
ARM GAS  /var/folders/4k/6h5l9jl178sb4hslwv3xp1mr0000gn/T//ccpLbRxk.s 			page 31


 1708 0a43 17       		.uleb128 0x17
 1709 0a44 A8010000 		.4byte	.LASF155
 1710 0a48 04       		.sleb128 4
 1711 0a49 00       		.byte	0
 1712 0a4a 04       		.uleb128 0x4
 1713 0a4b 94060000 		.4byte	.LASF156
 1714 0a4f 11       		.byte	0x11
 1715 0a50 17       		.byte	0x17
 1716 0a51 230A0000 		.4byte	0xa23
 1717 0a55 1C       		.uleb128 0x1c
 1718 0a56 73060000 		.4byte	.LASF157
 1719 0a5a 01       		.byte	0x1
 1720 0a5b 29       		.byte	0x29
 1721 0a5c 180A0000 		.4byte	0xa18
 1722 0a60 00000000 		.4byte	.LFB118
 1723 0a64 2C000000 		.4byte	.LFE118-.LFB118
 1724 0a68 01       		.uleb128 0x1
 1725 0a69 9C       		.byte	0x9c
 1726 0a6a 960A0000 		.4byte	0xa96
 1727 0a6e 1D       		.uleb128 0x1d
 1728 0a6f 64727600 		.ascii	"drv\000"
 1729 0a73 01       		.byte	0x1
 1730 0a74 2A       		.byte	0x2a
 1731 0a75 F7090000 		.4byte	0x9f7
 1732 0a79 00000000 		.4byte	.LLST0
 1733 0a7d 1E       		.uleb128 0x1e
 1734 0a7e 25010000 		.4byte	.LASF159
 1735 0a82 01       		.byte	0x1
 1736 0a83 2D       		.byte	0x2d
 1737 0a84 180A0000 		.4byte	0xa18
 1738 0a88 3A000000 		.4byte	.LLST1
 1739 0a8c 1F       		.uleb128 0x1f
 1740 0a8d 18000000 		.4byte	.LVL5
 1741 0a91 7C0C0000 		.4byte	0xc7c
 1742 0a95 00       		.byte	0
 1743 0a96 1C       		.uleb128 0x1c
 1744 0a97 A6020000 		.4byte	.LASF158
 1745 0a9b 01       		.byte	0x1
 1746 0a9c 4C       		.byte	0x4c
 1747 0a9d 180A0000 		.4byte	0xa18
 1748 0aa1 00000000 		.4byte	.LFB119
 1749 0aa5 2C000000 		.4byte	.LFE119-.LFB119
 1750 0aa9 01       		.uleb128 0x1
 1751 0aaa 9C       		.byte	0x9c
 1752 0aab D70A0000 		.4byte	0xad7
 1753 0aaf 1D       		.uleb128 0x1d
 1754 0ab0 64727600 		.ascii	"drv\000"
 1755 0ab4 01       		.byte	0x1
 1756 0ab5 4D       		.byte	0x4d
 1757 0ab6 F7090000 		.4byte	0x9f7
 1758 0aba 59000000 		.4byte	.LLST2
 1759 0abe 1E       		.uleb128 0x1e
 1760 0abf 25010000 		.4byte	.LASF159
 1761 0ac3 01       		.byte	0x1
 1762 0ac4 50       		.byte	0x50
 1763 0ac5 180A0000 		.4byte	0xa18
 1764 0ac9 93000000 		.4byte	.LLST3
ARM GAS  /var/folders/4k/6h5l9jl178sb4hslwv3xp1mr0000gn/T//ccpLbRxk.s 			page 32


 1765 0acd 1F       		.uleb128 0x1f
 1766 0ace 18000000 		.4byte	.LVL12
 1767 0ad2 7C0C0000 		.4byte	0xc7c
 1768 0ad6 00       		.byte	0
 1769 0ad7 1C       		.uleb128 0x1c
 1770 0ad8 89030000 		.4byte	.LASF160
 1771 0adc 01       		.byte	0x1
 1772 0add 6F       		.byte	0x6f
 1773 0ade 4A0A0000 		.4byte	0xa4a
 1774 0ae2 00000000 		.4byte	.LFB120
 1775 0ae6 5C000000 		.4byte	.LFE120-.LFB120
 1776 0aea 01       		.uleb128 0x1
 1777 0aeb 9C       		.byte	0x9c
 1778 0aec 600B0000 		.4byte	0xb60
 1779 0af0 1D       		.uleb128 0x1d
 1780 0af1 64727600 		.ascii	"drv\000"
 1781 0af5 01       		.byte	0x1
 1782 0af6 70       		.byte	0x70
 1783 0af7 F7090000 		.4byte	0x9f7
 1784 0afb B2000000 		.4byte	.LLST4
 1785 0aff 20       		.uleb128 0x20
 1786 0b00 0D060000 		.4byte	.LASF161
 1787 0b04 01       		.byte	0x1
 1788 0b05 71       		.byte	0x71
 1789 0b06 600B0000 		.4byte	0xb60
 1790 0b0a EC000000 		.4byte	.LLST5
 1791 0b0e 20       		.uleb128 0x20
 1792 0b0f 4F030000 		.4byte	.LASF162
 1793 0b13 01       		.byte	0x1
 1794 0b14 72       		.byte	0x72
 1795 0b15 0D0A0000 		.4byte	0xa0d
 1796 0b19 44010000 		.4byte	.LLST6
 1797 0b1d 20       		.uleb128 0x20
 1798 0b1e 16000000 		.4byte	.LASF163
 1799 0b22 01       		.byte	0x1
 1800 0b23 73       		.byte	0x73
 1801 0b24 F7090000 		.4byte	0x9f7
 1802 0b28 7E010000 		.4byte	.LLST7
 1803 0b2c 21       		.uleb128 0x21
 1804 0b2d 22000000 		.4byte	.LVL19
 1805 0b31 970C0000 		.4byte	0xc97
 1806 0b35 410B0000 		.4byte	0xb41
 1807 0b39 22       		.uleb128 0x22
 1808 0b3a 01       		.uleb128 0x1
 1809 0b3b 51       		.byte	0x51
 1810 0b3c 03       		.uleb128 0x3
 1811 0b3d F3       		.byte	0xf3
 1812 0b3e 01       		.uleb128 0x1
 1813 0b3f 52       		.byte	0x52
 1814 0b40 00       		.byte	0
 1815 0b41 21       		.uleb128 0x21
 1816 0b42 44000000 		.4byte	.LVL24
 1817 0b46 B10C0000 		.4byte	0xcb1
 1818 0b4a 560B0000 		.4byte	0xb56
 1819 0b4e 22       		.uleb128 0x22
 1820 0b4f 01       		.uleb128 0x1
 1821 0b50 51       		.byte	0x51
ARM GAS  /var/folders/4k/6h5l9jl178sb4hslwv3xp1mr0000gn/T//ccpLbRxk.s 			page 33


 1822 0b51 03       		.uleb128 0x3
 1823 0b52 74       		.byte	0x74
 1824 0b53 807C     		.sleb128 -512
 1825 0b55 00       		.byte	0
 1826 0b56 23       		.uleb128 0x23
 1827 0b57 58000000 		.4byte	.LVL26
 1828 0b5b CB0C0000 		.4byte	0xccb
 1829 0b5f 00       		.byte	0
 1830 0b60 09       		.uleb128 0x9
 1831 0b61 04       		.byte	0x4
 1832 0b62 F7090000 		.4byte	0x9f7
 1833 0b66 1C       		.uleb128 0x1c
 1834 0b67 4F070000 		.4byte	.LASF164
 1835 0b6b 01       		.byte	0x1
 1836 0b6c 98       		.byte	0x98
 1837 0b6d 4A0A0000 		.4byte	0xa4a
 1838 0b71 00000000 		.4byte	.LFB121
 1839 0b75 70000000 		.4byte	.LFE121-.LFB121
 1840 0b79 01       		.uleb128 0x1
 1841 0b7a 9C       		.byte	0x9c
 1842 0b7b 020C0000 		.4byte	0xc02
 1843 0b7f 1D       		.uleb128 0x1d
 1844 0b80 64727600 		.ascii	"drv\000"
 1845 0b84 01       		.byte	0x1
 1846 0b85 99       		.byte	0x99
 1847 0b86 F7090000 		.4byte	0x9f7
 1848 0b8a C1010000 		.4byte	.LLST8
 1849 0b8e 20       		.uleb128 0x20
 1850 0b8f 0D060000 		.4byte	.LASF161
 1851 0b93 01       		.byte	0x1
 1852 0b94 9A       		.byte	0x9a
 1853 0b95 020C0000 		.4byte	0xc02
 1854 0b99 FB010000 		.4byte	.LLST9
 1855 0b9d 20       		.uleb128 0x20
 1856 0b9e 4F030000 		.4byte	.LASF162
 1857 0ba2 01       		.byte	0x1
 1858 0ba3 9B       		.byte	0x9b
 1859 0ba4 0D0A0000 		.4byte	0xa0d
 1860 0ba8 53020000 		.4byte	.LLST10
 1861 0bac 20       		.uleb128 0x20
 1862 0bad 16000000 		.4byte	.LASF163
 1863 0bb1 01       		.byte	0x1
 1864 0bb2 9C       		.byte	0x9c
 1865 0bb3 F7090000 		.4byte	0x9f7
 1866 0bb7 8D020000 		.4byte	.LLST11
 1867 0bbb 21       		.uleb128 0x21
 1868 0bbc 24000000 		.4byte	.LVL32
 1869 0bc0 7C0C0000 		.4byte	0xc7c
 1870 0bc4 CF0B0000 		.4byte	0xbcf
 1871 0bc8 22       		.uleb128 0x22
 1872 0bc9 01       		.uleb128 0x1
 1873 0bca 50       		.byte	0x50
 1874 0bcb 02       		.uleb128 0x2
 1875 0bcc 75       		.byte	0x75
 1876 0bcd 00       		.sleb128 0
 1877 0bce 00       		.byte	0
 1878 0bcf 21       		.uleb128 0x21
ARM GAS  /var/folders/4k/6h5l9jl178sb4hslwv3xp1mr0000gn/T//ccpLbRxk.s 			page 34


 1879 0bd0 34000000 		.4byte	.LVL33
 1880 0bd4 E00C0000 		.4byte	0xce0
 1881 0bd8 E30B0000 		.4byte	0xbe3
 1882 0bdc 22       		.uleb128 0x22
 1883 0bdd 01       		.uleb128 0x1
 1884 0bde 50       		.byte	0x50
 1885 0bdf 02       		.uleb128 0x2
 1886 0be0 75       		.byte	0x75
 1887 0be1 00       		.sleb128 0
 1888 0be2 00       		.byte	0
 1889 0be3 21       		.uleb128 0x21
 1890 0be4 56000000 		.4byte	.LVL38
 1891 0be8 FA0C0000 		.4byte	0xcfa
 1892 0bec F80B0000 		.4byte	0xbf8
 1893 0bf0 22       		.uleb128 0x22
 1894 0bf1 01       		.uleb128 0x1
 1895 0bf2 51       		.byte	0x51
 1896 0bf3 03       		.uleb128 0x3
 1897 0bf4 74       		.byte	0x74
 1898 0bf5 807C     		.sleb128 -512
 1899 0bf7 00       		.byte	0
 1900 0bf8 23       		.uleb128 0x23
 1901 0bf9 6A000000 		.4byte	.LVL40
 1902 0bfd 140D0000 		.4byte	0xd14
 1903 0c01 00       		.byte	0
 1904 0c02 09       		.uleb128 0x9
 1905 0c03 04       		.byte	0x4
 1906 0c04 080C0000 		.4byte	0xc08
 1907 0c08 10       		.uleb128 0x10
 1908 0c09 F7090000 		.4byte	0x9f7
 1909 0c0d 1C       		.uleb128 0x1c
 1910 0c0e 78030000 		.4byte	.LASF165
 1911 0c12 01       		.byte	0x1
 1912 0c13 C3       		.byte	0xc3
 1913 0c14 4A0A0000 		.4byte	0xa4a
 1914 0c18 00000000 		.4byte	.LFB122
 1915 0c1c 18000000 		.4byte	.LFE122-.LFB122
 1916 0c20 01       		.uleb128 0x1
 1917 0c21 9C       		.byte	0x9c
 1918 0c22 500C0000 		.4byte	0xc50
 1919 0c26 1D       		.uleb128 0x1d
 1920 0c27 64727600 		.ascii	"drv\000"
 1921 0c2b 01       		.byte	0x1
 1922 0c2c C4       		.byte	0xc4
 1923 0c2d F7090000 		.4byte	0x9f7
 1924 0c31 D0020000 		.4byte	.LLST12
 1925 0c35 24       		.uleb128 0x24
 1926 0c36 63020000 		.4byte	.LASF166
 1927 0c3a 01       		.byte	0x1
 1928 0c3b C5       		.byte	0xc5
 1929 0c3c F7090000 		.4byte	0x9f7
 1930 0c40 01       		.uleb128 0x1
 1931 0c41 51       		.byte	0x51
 1932 0c42 24       		.uleb128 0x24
 1933 0c43 0D060000 		.4byte	.LASF161
 1934 0c47 01       		.byte	0x1
 1935 0c48 C6       		.byte	0xc6
ARM GAS  /var/folders/4k/6h5l9jl178sb4hslwv3xp1mr0000gn/T//ccpLbRxk.s 			page 35


 1936 0c49 92020000 		.4byte	0x292
 1937 0c4d 01       		.uleb128 0x1
 1938 0c4e 52       		.byte	0x52
 1939 0c4f 00       		.byte	0
 1940 0c50 25       		.uleb128 0x25
 1941 0c51 79010000 		.4byte	.LASF178
 1942 0c55 01       		.byte	0x1
 1943 0c56 F5       		.byte	0xf5
 1944 0c57 0D0A0000 		.4byte	0xa0d
 1945 0c5b 00000000 		.4byte	.LFB123
 1946 0c5f 06000000 		.4byte	.LFE123-.LFB123
 1947 0c63 01       		.uleb128 0x1
 1948 0c64 9C       		.byte	0x9c
 1949 0c65 26       		.uleb128 0x26
 1950 0c66 06010000 		.4byte	.LASF167
 1951 0c6a 12       		.byte	0x12
 1952 0c6b 9806     		.2byte	0x698
 1953 0c6d F7030000 		.4byte	0x3f7
 1954 0c71 27       		.uleb128 0x27
 1955 0c72 5D020000 		.4byte	.LASF168
 1956 0c76 01       		.byte	0x1
 1957 0c77 12       		.byte	0x12
 1958 0c78 EC090000 		.4byte	0x9ec
 1959 0c7c 28       		.uleb128 0x28
 1960 0c7d B3010000 		.4byte	.LASF169
 1961 0c81 0F       		.byte	0xf
 1962 0c82 C5       		.byte	0xc5
 1963 0c83 C3000000 		.4byte	0xc3
 1964 0c87 910C0000 		.4byte	0xc91
 1965 0c8b 19       		.uleb128 0x19
 1966 0c8c 910C0000 		.4byte	0xc91
 1967 0c90 00       		.byte	0
 1968 0c91 09       		.uleb128 0x9
 1969 0c92 04       		.byte	0x4
 1970 0c93 EC090000 		.4byte	0x9ec
 1971 0c97 28       		.uleb128 0x28
 1972 0c98 DA030000 		.4byte	.LASF170
 1973 0c9c 0F       		.byte	0xf
 1974 0c9d BB       		.byte	0xbb
 1975 0c9e C3000000 		.4byte	0xc3
 1976 0ca2 B10C0000 		.4byte	0xcb1
 1977 0ca6 19       		.uleb128 0x19
 1978 0ca7 910C0000 		.4byte	0xc91
 1979 0cab 19       		.uleb128 0x19
 1980 0cac B8000000 		.4byte	0xb8
 1981 0cb0 00       		.byte	0
 1982 0cb1 28       		.uleb128 0x28
 1983 0cb2 E3000000 		.4byte	.LASF171
 1984 0cb6 0F       		.byte	0xf
 1985 0cb7 BC       		.byte	0xbc
 1986 0cb8 C3000000 		.4byte	0xc3
 1987 0cbc CB0C0000 		.4byte	0xccb
 1988 0cc0 19       		.uleb128 0x19
 1989 0cc1 910C0000 		.4byte	0xc91
 1990 0cc5 19       		.uleb128 0x19
 1991 0cc6 D1030000 		.4byte	0x3d1
 1992 0cca 00       		.byte	0
ARM GAS  /var/folders/4k/6h5l9jl178sb4hslwv3xp1mr0000gn/T//ccpLbRxk.s 			page 36


 1993 0ccb 28       		.uleb128 0x28
 1994 0ccc D3070000 		.4byte	.LASF172
 1995 0cd0 0F       		.byte	0xf
 1996 0cd1 BD       		.byte	0xbd
 1997 0cd2 C3000000 		.4byte	0xc3
 1998 0cd6 E00C0000 		.4byte	0xce0
 1999 0cda 19       		.uleb128 0x19
 2000 0cdb 910C0000 		.4byte	0xc91
 2001 0cdf 00       		.byte	0
 2002 0ce0 28       		.uleb128 0x28
 2003 0ce1 83020000 		.4byte	.LASF173
 2004 0ce5 0F       		.byte	0xf
 2005 0ce6 BE       		.byte	0xbe
 2006 0ce7 C3000000 		.4byte	0xc3
 2007 0ceb FA0C0000 		.4byte	0xcfa
 2008 0cef 19       		.uleb128 0x19
 2009 0cf0 910C0000 		.4byte	0xc91
 2010 0cf4 19       		.uleb128 0x19
 2011 0cf5 B8000000 		.4byte	0xb8
 2012 0cf9 00       		.byte	0
 2013 0cfa 28       		.uleb128 0x28
 2014 0cfb FA050000 		.4byte	.LASF174
 2015 0cff 0F       		.byte	0xf
 2016 0d00 BF       		.byte	0xbf
 2017 0d01 C3000000 		.4byte	0xc3
 2018 0d05 140D0000 		.4byte	0xd14
 2019 0d09 19       		.uleb128 0x19
 2020 0d0a 910C0000 		.4byte	0xc91
 2021 0d0e 19       		.uleb128 0x19
 2022 0d0f D7030000 		.4byte	0x3d7
 2023 0d13 00       		.byte	0
 2024 0d14 29       		.uleb128 0x29
 2025 0d15 1C040000 		.4byte	.LASF179
 2026 0d19 0F       		.byte	0xf
 2027 0d1a C0       		.byte	0xc0
 2028 0d1b C3000000 		.4byte	0xc3
 2029 0d1f 19       		.uleb128 0x19
 2030 0d20 910C0000 		.4byte	0xc91
 2031 0d24 00       		.byte	0
 2032 0d25 00       		.byte	0
 2033              		.section	.debug_abbrev,"",%progbits
 2034              	.Ldebug_abbrev0:
 2035 0000 01       		.uleb128 0x1
 2036 0001 11       		.uleb128 0x11
 2037 0002 01       		.byte	0x1
 2038 0003 25       		.uleb128 0x25
 2039 0004 0E       		.uleb128 0xe
 2040 0005 13       		.uleb128 0x13
 2041 0006 0B       		.uleb128 0xb
 2042 0007 03       		.uleb128 0x3
 2043 0008 0E       		.uleb128 0xe
 2044 0009 1B       		.uleb128 0x1b
 2045 000a 0E       		.uleb128 0xe
 2046 000b 55       		.uleb128 0x55
 2047 000c 17       		.uleb128 0x17
 2048 000d 11       		.uleb128 0x11
 2049 000e 01       		.uleb128 0x1
ARM GAS  /var/folders/4k/6h5l9jl178sb4hslwv3xp1mr0000gn/T//ccpLbRxk.s 			page 37


 2050 000f 10       		.uleb128 0x10
 2051 0010 17       		.uleb128 0x17
 2052 0011 00       		.byte	0
 2053 0012 00       		.byte	0
 2054 0013 02       		.uleb128 0x2
 2055 0014 24       		.uleb128 0x24
 2056 0015 00       		.byte	0
 2057 0016 0B       		.uleb128 0xb
 2058 0017 0B       		.uleb128 0xb
 2059 0018 3E       		.uleb128 0x3e
 2060 0019 0B       		.uleb128 0xb
 2061 001a 03       		.uleb128 0x3
 2062 001b 08       		.uleb128 0x8
 2063 001c 00       		.byte	0
 2064 001d 00       		.byte	0
 2065 001e 03       		.uleb128 0x3
 2066 001f 24       		.uleb128 0x24
 2067 0020 00       		.byte	0
 2068 0021 0B       		.uleb128 0xb
 2069 0022 0B       		.uleb128 0xb
 2070 0023 3E       		.uleb128 0x3e
 2071 0024 0B       		.uleb128 0xb
 2072 0025 03       		.uleb128 0x3
 2073 0026 0E       		.uleb128 0xe
 2074 0027 00       		.byte	0
 2075 0028 00       		.byte	0
 2076 0029 04       		.uleb128 0x4
 2077 002a 16       		.uleb128 0x16
 2078 002b 00       		.byte	0
 2079 002c 03       		.uleb128 0x3
 2080 002d 0E       		.uleb128 0xe
 2081 002e 3A       		.uleb128 0x3a
 2082 002f 0B       		.uleb128 0xb
 2083 0030 3B       		.uleb128 0x3b
 2084 0031 0B       		.uleb128 0xb
 2085 0032 49       		.uleb128 0x49
 2086 0033 13       		.uleb128 0x13
 2087 0034 00       		.byte	0
 2088 0035 00       		.byte	0
 2089 0036 05       		.uleb128 0x5
 2090 0037 13       		.uleb128 0x13
 2091 0038 01       		.byte	0x1
 2092 0039 03       		.uleb128 0x3
 2093 003a 0E       		.uleb128 0xe
 2094 003b 0B       		.uleb128 0xb
 2095 003c 0B       		.uleb128 0xb
 2096 003d 3A       		.uleb128 0x3a
 2097 003e 0B       		.uleb128 0xb
 2098 003f 3B       		.uleb128 0x3b
 2099 0040 0B       		.uleb128 0xb
 2100 0041 01       		.uleb128 0x1
 2101 0042 13       		.uleb128 0x13
 2102 0043 00       		.byte	0
 2103 0044 00       		.byte	0
 2104 0045 06       		.uleb128 0x6
 2105 0046 0D       		.uleb128 0xd
 2106 0047 00       		.byte	0
ARM GAS  /var/folders/4k/6h5l9jl178sb4hslwv3xp1mr0000gn/T//ccpLbRxk.s 			page 38


 2107 0048 03       		.uleb128 0x3
 2108 0049 0E       		.uleb128 0xe
 2109 004a 3A       		.uleb128 0x3a
 2110 004b 0B       		.uleb128 0xb
 2111 004c 3B       		.uleb128 0x3b
 2112 004d 0B       		.uleb128 0xb
 2113 004e 49       		.uleb128 0x49
 2114 004f 13       		.uleb128 0x13
 2115 0050 38       		.uleb128 0x38
 2116 0051 0B       		.uleb128 0xb
 2117 0052 00       		.byte	0
 2118 0053 00       		.byte	0
 2119 0054 07       		.uleb128 0x7
 2120 0055 0D       		.uleb128 0xd
 2121 0056 00       		.byte	0
 2122 0057 03       		.uleb128 0x3
 2123 0058 08       		.uleb128 0x8
 2124 0059 3A       		.uleb128 0x3a
 2125 005a 0B       		.uleb128 0xb
 2126 005b 3B       		.uleb128 0x3b
 2127 005c 0B       		.uleb128 0xb
 2128 005d 49       		.uleb128 0x49
 2129 005e 13       		.uleb128 0x13
 2130 005f 38       		.uleb128 0x38
 2131 0060 0B       		.uleb128 0xb
 2132 0061 00       		.byte	0
 2133 0062 00       		.byte	0
 2134 0063 08       		.uleb128 0x8
 2135 0064 13       		.uleb128 0x13
 2136 0065 01       		.byte	0x1
 2137 0066 0B       		.uleb128 0xb
 2138 0067 0B       		.uleb128 0xb
 2139 0068 3A       		.uleb128 0x3a
 2140 0069 0B       		.uleb128 0xb
 2141 006a 3B       		.uleb128 0x3b
 2142 006b 0B       		.uleb128 0xb
 2143 006c 01       		.uleb128 0x1
 2144 006d 13       		.uleb128 0x13
 2145 006e 00       		.byte	0
 2146 006f 00       		.byte	0
 2147 0070 09       		.uleb128 0x9
 2148 0071 0F       		.uleb128 0xf
 2149 0072 00       		.byte	0
 2150 0073 0B       		.uleb128 0xb
 2151 0074 0B       		.uleb128 0xb
 2152 0075 49       		.uleb128 0x49
 2153 0076 13       		.uleb128 0x13
 2154 0077 00       		.byte	0
 2155 0078 00       		.byte	0
 2156 0079 0A       		.uleb128 0xa
 2157 007a 0F       		.uleb128 0xf
 2158 007b 00       		.byte	0
 2159 007c 0B       		.uleb128 0xb
 2160 007d 0B       		.uleb128 0xb
 2161 007e 00       		.byte	0
 2162 007f 00       		.byte	0
 2163 0080 0B       		.uleb128 0xb
ARM GAS  /var/folders/4k/6h5l9jl178sb4hslwv3xp1mr0000gn/T//ccpLbRxk.s 			page 39


 2164 0081 13       		.uleb128 0x13
 2165 0082 01       		.byte	0x1
 2166 0083 03       		.uleb128 0x3
 2167 0084 0E       		.uleb128 0xe
 2168 0085 0B       		.uleb128 0xb
 2169 0086 0B       		.uleb128 0xb
 2170 0087 3A       		.uleb128 0x3a
 2171 0088 0B       		.uleb128 0xb
 2172 0089 3B       		.uleb128 0x3b
 2173 008a 05       		.uleb128 0x5
 2174 008b 01       		.uleb128 0x1
 2175 008c 13       		.uleb128 0x13
 2176 008d 00       		.byte	0
 2177 008e 00       		.byte	0
 2178 008f 0C       		.uleb128 0xc
 2179 0090 0D       		.uleb128 0xd
 2180 0091 00       		.byte	0
 2181 0092 03       		.uleb128 0x3
 2182 0093 08       		.uleb128 0x8
 2183 0094 3A       		.uleb128 0x3a
 2184 0095 0B       		.uleb128 0xb
 2185 0096 3B       		.uleb128 0x3b
 2186 0097 05       		.uleb128 0x5
 2187 0098 49       		.uleb128 0x49
 2188 0099 13       		.uleb128 0x13
 2189 009a 38       		.uleb128 0x38
 2190 009b 0B       		.uleb128 0xb
 2191 009c 00       		.byte	0
 2192 009d 00       		.byte	0
 2193 009e 0D       		.uleb128 0xd
 2194 009f 35       		.uleb128 0x35
 2195 00a0 00       		.byte	0
 2196 00a1 49       		.uleb128 0x49
 2197 00a2 13       		.uleb128 0x13
 2198 00a3 00       		.byte	0
 2199 00a4 00       		.byte	0
 2200 00a5 0E       		.uleb128 0xe
 2201 00a6 17       		.uleb128 0x17
 2202 00a7 01       		.byte	0x1
 2203 00a8 0B       		.uleb128 0xb
 2204 00a9 0B       		.uleb128 0xb
 2205 00aa 3A       		.uleb128 0x3a
 2206 00ab 0B       		.uleb128 0xb
 2207 00ac 3B       		.uleb128 0x3b
 2208 00ad 0B       		.uleb128 0xb
 2209 00ae 01       		.uleb128 0x1
 2210 00af 13       		.uleb128 0x13
 2211 00b0 00       		.byte	0
 2212 00b1 00       		.byte	0
 2213 00b2 0F       		.uleb128 0xf
 2214 00b3 0D       		.uleb128 0xd
 2215 00b4 00       		.byte	0
 2216 00b5 03       		.uleb128 0x3
 2217 00b6 0E       		.uleb128 0xe
 2218 00b7 3A       		.uleb128 0x3a
 2219 00b8 0B       		.uleb128 0xb
 2220 00b9 3B       		.uleb128 0x3b
ARM GAS  /var/folders/4k/6h5l9jl178sb4hslwv3xp1mr0000gn/T//ccpLbRxk.s 			page 40


 2221 00ba 0B       		.uleb128 0xb
 2222 00bb 49       		.uleb128 0x49
 2223 00bc 13       		.uleb128 0x13
 2224 00bd 00       		.byte	0
 2225 00be 00       		.byte	0
 2226 00bf 10       		.uleb128 0x10
 2227 00c0 26       		.uleb128 0x26
 2228 00c1 00       		.byte	0
 2229 00c2 49       		.uleb128 0x49
 2230 00c3 13       		.uleb128 0x13
 2231 00c4 00       		.byte	0
 2232 00c5 00       		.byte	0
 2233 00c6 11       		.uleb128 0x11
 2234 00c7 01       		.uleb128 0x1
 2235 00c8 01       		.byte	0x1
 2236 00c9 49       		.uleb128 0x49
 2237 00ca 13       		.uleb128 0x13
 2238 00cb 01       		.uleb128 0x1
 2239 00cc 13       		.uleb128 0x13
 2240 00cd 00       		.byte	0
 2241 00ce 00       		.byte	0
 2242 00cf 12       		.uleb128 0x12
 2243 00d0 21       		.uleb128 0x21
 2244 00d1 00       		.byte	0
 2245 00d2 49       		.uleb128 0x49
 2246 00d3 13       		.uleb128 0x13
 2247 00d4 2F       		.uleb128 0x2f
 2248 00d5 0B       		.uleb128 0xb
 2249 00d6 00       		.byte	0
 2250 00d7 00       		.byte	0
 2251 00d8 13       		.uleb128 0x13
 2252 00d9 13       		.uleb128 0x13
 2253 00da 01       		.byte	0x1
 2254 00db 0B       		.uleb128 0xb
 2255 00dc 0B       		.uleb128 0xb
 2256 00dd 3A       		.uleb128 0x3a
 2257 00de 0B       		.uleb128 0xb
 2258 00df 3B       		.uleb128 0x3b
 2259 00e0 05       		.uleb128 0x5
 2260 00e1 01       		.uleb128 0x1
 2261 00e2 13       		.uleb128 0x13
 2262 00e3 00       		.byte	0
 2263 00e4 00       		.byte	0
 2264 00e5 14       		.uleb128 0x14
 2265 00e6 0D       		.uleb128 0xd
 2266 00e7 00       		.byte	0
 2267 00e8 03       		.uleb128 0x3
 2268 00e9 0E       		.uleb128 0xe
 2269 00ea 3A       		.uleb128 0x3a
 2270 00eb 0B       		.uleb128 0xb
 2271 00ec 3B       		.uleb128 0x3b
 2272 00ed 05       		.uleb128 0x5
 2273 00ee 49       		.uleb128 0x49
 2274 00ef 13       		.uleb128 0x13
 2275 00f0 38       		.uleb128 0x38
 2276 00f1 0B       		.uleb128 0xb
 2277 00f2 00       		.byte	0
ARM GAS  /var/folders/4k/6h5l9jl178sb4hslwv3xp1mr0000gn/T//ccpLbRxk.s 			page 41


 2278 00f3 00       		.byte	0
 2279 00f4 15       		.uleb128 0x15
 2280 00f5 16       		.uleb128 0x16
 2281 00f6 00       		.byte	0
 2282 00f7 03       		.uleb128 0x3
 2283 00f8 0E       		.uleb128 0xe
 2284 00f9 3A       		.uleb128 0x3a
 2285 00fa 0B       		.uleb128 0xb
 2286 00fb 3B       		.uleb128 0x3b
 2287 00fc 05       		.uleb128 0x5
 2288 00fd 49       		.uleb128 0x49
 2289 00fe 13       		.uleb128 0x13
 2290 00ff 00       		.byte	0
 2291 0100 00       		.byte	0
 2292 0101 16       		.uleb128 0x16
 2293 0102 04       		.uleb128 0x4
 2294 0103 01       		.byte	0x1
 2295 0104 0B       		.uleb128 0xb
 2296 0105 0B       		.uleb128 0xb
 2297 0106 3A       		.uleb128 0x3a
 2298 0107 0B       		.uleb128 0xb
 2299 0108 3B       		.uleb128 0x3b
 2300 0109 0B       		.uleb128 0xb
 2301 010a 01       		.uleb128 0x1
 2302 010b 13       		.uleb128 0x13
 2303 010c 00       		.byte	0
 2304 010d 00       		.byte	0
 2305 010e 17       		.uleb128 0x17
 2306 010f 28       		.uleb128 0x28
 2307 0110 00       		.byte	0
 2308 0111 03       		.uleb128 0x3
 2309 0112 0E       		.uleb128 0xe
 2310 0113 1C       		.uleb128 0x1c
 2311 0114 0D       		.uleb128 0xd
 2312 0115 00       		.byte	0
 2313 0116 00       		.byte	0
 2314 0117 18       		.uleb128 0x18
 2315 0118 15       		.uleb128 0x15
 2316 0119 01       		.byte	0x1
 2317 011a 27       		.uleb128 0x27
 2318 011b 19       		.uleb128 0x19
 2319 011c 49       		.uleb128 0x49
 2320 011d 13       		.uleb128 0x13
 2321 011e 01       		.uleb128 0x1
 2322 011f 13       		.uleb128 0x13
 2323 0120 00       		.byte	0
 2324 0121 00       		.byte	0
 2325 0122 19       		.uleb128 0x19
 2326 0123 05       		.uleb128 0x5
 2327 0124 00       		.byte	0
 2328 0125 49       		.uleb128 0x49
 2329 0126 13       		.uleb128 0x13
 2330 0127 00       		.byte	0
 2331 0128 00       		.byte	0
 2332 0129 1A       		.uleb128 0x1a
 2333 012a 0D       		.uleb128 0xd
 2334 012b 00       		.byte	0
ARM GAS  /var/folders/4k/6h5l9jl178sb4hslwv3xp1mr0000gn/T//ccpLbRxk.s 			page 42


 2335 012c 03       		.uleb128 0x3
 2336 012d 08       		.uleb128 0x8
 2337 012e 3A       		.uleb128 0x3a
 2338 012f 0B       		.uleb128 0xb
 2339 0130 3B       		.uleb128 0x3b
 2340 0131 0B       		.uleb128 0xb
 2341 0132 49       		.uleb128 0x49
 2342 0133 13       		.uleb128 0x13
 2343 0134 00       		.byte	0
 2344 0135 00       		.byte	0
 2345 0136 1B       		.uleb128 0x1b
 2346 0137 15       		.uleb128 0x15
 2347 0138 01       		.byte	0x1
 2348 0139 27       		.uleb128 0x27
 2349 013a 19       		.uleb128 0x19
 2350 013b 01       		.uleb128 0x1
 2351 013c 13       		.uleb128 0x13
 2352 013d 00       		.byte	0
 2353 013e 00       		.byte	0
 2354 013f 1C       		.uleb128 0x1c
 2355 0140 2E       		.uleb128 0x2e
 2356 0141 01       		.byte	0x1
 2357 0142 3F       		.uleb128 0x3f
 2358 0143 19       		.uleb128 0x19
 2359 0144 03       		.uleb128 0x3
 2360 0145 0E       		.uleb128 0xe
 2361 0146 3A       		.uleb128 0x3a
 2362 0147 0B       		.uleb128 0xb
 2363 0148 3B       		.uleb128 0x3b
 2364 0149 0B       		.uleb128 0xb
 2365 014a 27       		.uleb128 0x27
 2366 014b 19       		.uleb128 0x19
 2367 014c 49       		.uleb128 0x49
 2368 014d 13       		.uleb128 0x13
 2369 014e 11       		.uleb128 0x11
 2370 014f 01       		.uleb128 0x1
 2371 0150 12       		.uleb128 0x12
 2372 0151 06       		.uleb128 0x6
 2373 0152 40       		.uleb128 0x40
 2374 0153 18       		.uleb128 0x18
 2375 0154 9742     		.uleb128 0x2117
 2376 0156 19       		.uleb128 0x19
 2377 0157 01       		.uleb128 0x1
 2378 0158 13       		.uleb128 0x13
 2379 0159 00       		.byte	0
 2380 015a 00       		.byte	0
 2381 015b 1D       		.uleb128 0x1d
 2382 015c 05       		.uleb128 0x5
 2383 015d 00       		.byte	0
 2384 015e 03       		.uleb128 0x3
 2385 015f 08       		.uleb128 0x8
 2386 0160 3A       		.uleb128 0x3a
 2387 0161 0B       		.uleb128 0xb
 2388 0162 3B       		.uleb128 0x3b
 2389 0163 0B       		.uleb128 0xb
 2390 0164 49       		.uleb128 0x49
 2391 0165 13       		.uleb128 0x13
ARM GAS  /var/folders/4k/6h5l9jl178sb4hslwv3xp1mr0000gn/T//ccpLbRxk.s 			page 43


 2392 0166 02       		.uleb128 0x2
 2393 0167 17       		.uleb128 0x17
 2394 0168 00       		.byte	0
 2395 0169 00       		.byte	0
 2396 016a 1E       		.uleb128 0x1e
 2397 016b 34       		.uleb128 0x34
 2398 016c 00       		.byte	0
 2399 016d 03       		.uleb128 0x3
 2400 016e 0E       		.uleb128 0xe
 2401 016f 3A       		.uleb128 0x3a
 2402 0170 0B       		.uleb128 0xb
 2403 0171 3B       		.uleb128 0x3b
 2404 0172 0B       		.uleb128 0xb
 2405 0173 49       		.uleb128 0x49
 2406 0174 13       		.uleb128 0x13
 2407 0175 02       		.uleb128 0x2
 2408 0176 17       		.uleb128 0x17
 2409 0177 00       		.byte	0
 2410 0178 00       		.byte	0
 2411 0179 1F       		.uleb128 0x1f
 2412 017a 898201   		.uleb128 0x4109
 2413 017d 00       		.byte	0
 2414 017e 11       		.uleb128 0x11
 2415 017f 01       		.uleb128 0x1
 2416 0180 31       		.uleb128 0x31
 2417 0181 13       		.uleb128 0x13
 2418 0182 00       		.byte	0
 2419 0183 00       		.byte	0
 2420 0184 20       		.uleb128 0x20
 2421 0185 05       		.uleb128 0x5
 2422 0186 00       		.byte	0
 2423 0187 03       		.uleb128 0x3
 2424 0188 0E       		.uleb128 0xe
 2425 0189 3A       		.uleb128 0x3a
 2426 018a 0B       		.uleb128 0xb
 2427 018b 3B       		.uleb128 0x3b
 2428 018c 0B       		.uleb128 0xb
 2429 018d 49       		.uleb128 0x49
 2430 018e 13       		.uleb128 0x13
 2431 018f 02       		.uleb128 0x2
 2432 0190 17       		.uleb128 0x17
 2433 0191 00       		.byte	0
 2434 0192 00       		.byte	0
 2435 0193 21       		.uleb128 0x21
 2436 0194 898201   		.uleb128 0x4109
 2437 0197 01       		.byte	0x1
 2438 0198 11       		.uleb128 0x11
 2439 0199 01       		.uleb128 0x1
 2440 019a 31       		.uleb128 0x31
 2441 019b 13       		.uleb128 0x13
 2442 019c 01       		.uleb128 0x1
 2443 019d 13       		.uleb128 0x13
 2444 019e 00       		.byte	0
 2445 019f 00       		.byte	0
 2446 01a0 22       		.uleb128 0x22
 2447 01a1 8A8201   		.uleb128 0x410a
 2448 01a4 00       		.byte	0
ARM GAS  /var/folders/4k/6h5l9jl178sb4hslwv3xp1mr0000gn/T//ccpLbRxk.s 			page 44


 2449 01a5 02       		.uleb128 0x2
 2450 01a6 18       		.uleb128 0x18
 2451 01a7 9142     		.uleb128 0x2111
 2452 01a9 18       		.uleb128 0x18
 2453 01aa 00       		.byte	0
 2454 01ab 00       		.byte	0
 2455 01ac 23       		.uleb128 0x23
 2456 01ad 898201   		.uleb128 0x4109
 2457 01b0 00       		.byte	0
 2458 01b1 11       		.uleb128 0x11
 2459 01b2 01       		.uleb128 0x1
 2460 01b3 9542     		.uleb128 0x2115
 2461 01b5 19       		.uleb128 0x19
 2462 01b6 31       		.uleb128 0x31
 2463 01b7 13       		.uleb128 0x13
 2464 01b8 00       		.byte	0
 2465 01b9 00       		.byte	0
 2466 01ba 24       		.uleb128 0x24
 2467 01bb 05       		.uleb128 0x5
 2468 01bc 00       		.byte	0
 2469 01bd 03       		.uleb128 0x3
 2470 01be 0E       		.uleb128 0xe
 2471 01bf 3A       		.uleb128 0x3a
 2472 01c0 0B       		.uleb128 0xb
 2473 01c1 3B       		.uleb128 0x3b
 2474 01c2 0B       		.uleb128 0xb
 2475 01c3 49       		.uleb128 0x49
 2476 01c4 13       		.uleb128 0x13
 2477 01c5 02       		.uleb128 0x2
 2478 01c6 18       		.uleb128 0x18
 2479 01c7 00       		.byte	0
 2480 01c8 00       		.byte	0
 2481 01c9 25       		.uleb128 0x25
 2482 01ca 2E       		.uleb128 0x2e
 2483 01cb 00       		.byte	0
 2484 01cc 3F       		.uleb128 0x3f
 2485 01cd 19       		.uleb128 0x19
 2486 01ce 03       		.uleb128 0x3
 2487 01cf 0E       		.uleb128 0xe
 2488 01d0 3A       		.uleb128 0x3a
 2489 01d1 0B       		.uleb128 0xb
 2490 01d2 3B       		.uleb128 0x3b
 2491 01d3 0B       		.uleb128 0xb
 2492 01d4 27       		.uleb128 0x27
 2493 01d5 19       		.uleb128 0x19
 2494 01d6 49       		.uleb128 0x49
 2495 01d7 13       		.uleb128 0x13
 2496 01d8 11       		.uleb128 0x11
 2497 01d9 01       		.uleb128 0x1
 2498 01da 12       		.uleb128 0x12
 2499 01db 06       		.uleb128 0x6
 2500 01dc 40       		.uleb128 0x40
 2501 01dd 18       		.uleb128 0x18
 2502 01de 9742     		.uleb128 0x2117
 2503 01e0 19       		.uleb128 0x19
 2504 01e1 00       		.byte	0
 2505 01e2 00       		.byte	0
ARM GAS  /var/folders/4k/6h5l9jl178sb4hslwv3xp1mr0000gn/T//ccpLbRxk.s 			page 45


 2506 01e3 26       		.uleb128 0x26
 2507 01e4 34       		.uleb128 0x34
 2508 01e5 00       		.byte	0
 2509 01e6 03       		.uleb128 0x3
 2510 01e7 0E       		.uleb128 0xe
 2511 01e8 3A       		.uleb128 0x3a
 2512 01e9 0B       		.uleb128 0xb
 2513 01ea 3B       		.uleb128 0x3b
 2514 01eb 05       		.uleb128 0x5
 2515 01ec 49       		.uleb128 0x49
 2516 01ed 13       		.uleb128 0x13
 2517 01ee 3F       		.uleb128 0x3f
 2518 01ef 19       		.uleb128 0x19
 2519 01f0 3C       		.uleb128 0x3c
 2520 01f1 19       		.uleb128 0x19
 2521 01f2 00       		.byte	0
 2522 01f3 00       		.byte	0
 2523 01f4 27       		.uleb128 0x27
 2524 01f5 34       		.uleb128 0x34
 2525 01f6 00       		.byte	0
 2526 01f7 03       		.uleb128 0x3
 2527 01f8 0E       		.uleb128 0xe
 2528 01f9 3A       		.uleb128 0x3a
 2529 01fa 0B       		.uleb128 0xb
 2530 01fb 3B       		.uleb128 0x3b
 2531 01fc 0B       		.uleb128 0xb
 2532 01fd 49       		.uleb128 0x49
 2533 01fe 13       		.uleb128 0x13
 2534 01ff 3F       		.uleb128 0x3f
 2535 0200 19       		.uleb128 0x19
 2536 0201 3C       		.uleb128 0x3c
 2537 0202 19       		.uleb128 0x19
 2538 0203 00       		.byte	0
 2539 0204 00       		.byte	0
 2540 0205 28       		.uleb128 0x28
 2541 0206 2E       		.uleb128 0x2e
 2542 0207 01       		.byte	0x1
 2543 0208 3F       		.uleb128 0x3f
 2544 0209 19       		.uleb128 0x19
 2545 020a 03       		.uleb128 0x3
 2546 020b 0E       		.uleb128 0xe
 2547 020c 3A       		.uleb128 0x3a
 2548 020d 0B       		.uleb128 0xb
 2549 020e 3B       		.uleb128 0x3b
 2550 020f 0B       		.uleb128 0xb
 2551 0210 27       		.uleb128 0x27
 2552 0211 19       		.uleb128 0x19
 2553 0212 49       		.uleb128 0x49
 2554 0213 13       		.uleb128 0x13
 2555 0214 3C       		.uleb128 0x3c
 2556 0215 19       		.uleb128 0x19
 2557 0216 01       		.uleb128 0x1
 2558 0217 13       		.uleb128 0x13
 2559 0218 00       		.byte	0
 2560 0219 00       		.byte	0
 2561 021a 29       		.uleb128 0x29
 2562 021b 2E       		.uleb128 0x2e
ARM GAS  /var/folders/4k/6h5l9jl178sb4hslwv3xp1mr0000gn/T//ccpLbRxk.s 			page 46


 2563 021c 01       		.byte	0x1
 2564 021d 3F       		.uleb128 0x3f
 2565 021e 19       		.uleb128 0x19
 2566 021f 03       		.uleb128 0x3
 2567 0220 0E       		.uleb128 0xe
 2568 0221 3A       		.uleb128 0x3a
 2569 0222 0B       		.uleb128 0xb
 2570 0223 3B       		.uleb128 0x3b
 2571 0224 0B       		.uleb128 0xb
 2572 0225 27       		.uleb128 0x27
 2573 0226 19       		.uleb128 0x19
 2574 0227 49       		.uleb128 0x49
 2575 0228 13       		.uleb128 0x13
 2576 0229 3C       		.uleb128 0x3c
 2577 022a 19       		.uleb128 0x19
 2578 022b 00       		.byte	0
 2579 022c 00       		.byte	0
 2580 022d 00       		.byte	0
 2581              		.section	.debug_loc,"",%progbits
 2582              	.Ldebug_loc0:
 2583              	.LLST0:
 2584 0000 00000000 		.4byte	.LVL0
 2585 0004 06000000 		.4byte	.LVL1
 2586 0008 0100     		.2byte	0x1
 2587 000a 50       		.byte	0x50
 2588 000b 06000000 		.4byte	.LVL1
 2589 000f 0A000000 		.4byte	.LVL2
 2590 0013 0400     		.2byte	0x4
 2591 0015 F3       		.byte	0xf3
 2592 0016 01       		.uleb128 0x1
 2593 0017 50       		.byte	0x50
 2594 0018 9F       		.byte	0x9f
 2595 0019 0A000000 		.4byte	.LVL2
 2596 001d 0C000000 		.4byte	.LVL3
 2597 0021 0100     		.2byte	0x1
 2598 0023 50       		.byte	0x50
 2599 0024 0C000000 		.4byte	.LVL3
 2600 0028 2C000000 		.4byte	.LFE118
 2601 002c 0400     		.2byte	0x4
 2602 002e F3       		.byte	0xf3
 2603 002f 01       		.uleb128 0x1
 2604 0030 50       		.byte	0x50
 2605 0031 9F       		.byte	0x9f
 2606 0032 00000000 		.4byte	0
 2607 0036 00000000 		.4byte	0
 2608              	.LLST1:
 2609 003a 0A000000 		.4byte	.LVL2
 2610 003e 14000000 		.4byte	.LVL4
 2611 0042 0200     		.2byte	0x2
 2612 0044 30       		.byte	0x30
 2613 0045 9F       		.byte	0x9f
 2614 0046 14000000 		.4byte	.LVL4
 2615 004a 20000000 		.4byte	.LVL6
 2616 004e 0100     		.2byte	0x1
 2617 0050 54       		.byte	0x54
 2618 0051 00000000 		.4byte	0
 2619 0055 00000000 		.4byte	0
ARM GAS  /var/folders/4k/6h5l9jl178sb4hslwv3xp1mr0000gn/T//ccpLbRxk.s 			page 47


 2620              	.LLST2:
 2621 0059 00000000 		.4byte	.LVL7
 2622 005d 06000000 		.4byte	.LVL8
 2623 0061 0100     		.2byte	0x1
 2624 0063 50       		.byte	0x50
 2625 0064 06000000 		.4byte	.LVL8
 2626 0068 0A000000 		.4byte	.LVL9
 2627 006c 0400     		.2byte	0x4
 2628 006e F3       		.byte	0xf3
 2629 006f 01       		.uleb128 0x1
 2630 0070 50       		.byte	0x50
 2631 0071 9F       		.byte	0x9f
 2632 0072 0A000000 		.4byte	.LVL9
 2633 0076 0C000000 		.4byte	.LVL10
 2634 007a 0100     		.2byte	0x1
 2635 007c 50       		.byte	0x50
 2636 007d 0C000000 		.4byte	.LVL10
 2637 0081 2C000000 		.4byte	.LFE119
 2638 0085 0400     		.2byte	0x4
 2639 0087 F3       		.byte	0xf3
 2640 0088 01       		.uleb128 0x1
 2641 0089 50       		.byte	0x50
 2642 008a 9F       		.byte	0x9f
 2643 008b 00000000 		.4byte	0
 2644 008f 00000000 		.4byte	0
 2645              	.LLST3:
 2646 0093 0A000000 		.4byte	.LVL9
 2647 0097 14000000 		.4byte	.LVL11
 2648 009b 0200     		.2byte	0x2
 2649 009d 30       		.byte	0x30
 2650 009e 9F       		.byte	0x9f
 2651 009f 14000000 		.4byte	.LVL11
 2652 00a3 20000000 		.4byte	.LVL13
 2653 00a7 0100     		.2byte	0x1
 2654 00a9 54       		.byte	0x54
 2655 00aa 00000000 		.4byte	0
 2656 00ae 00000000 		.4byte	0
 2657              	.LLST4:
 2658 00b2 00000000 		.4byte	.LVL14
 2659 00b6 0A000000 		.4byte	.LVL15
 2660 00ba 0100     		.2byte	0x1
 2661 00bc 50       		.byte	0x50
 2662 00bd 0A000000 		.4byte	.LVL15
 2663 00c1 0E000000 		.4byte	.LVL16
 2664 00c5 0400     		.2byte	0x4
 2665 00c7 F3       		.byte	0xf3
 2666 00c8 01       		.uleb128 0x1
 2667 00c9 50       		.byte	0x50
 2668 00ca 9F       		.byte	0x9f
 2669 00cb 0E000000 		.4byte	.LVL16
 2670 00cf 10000000 		.4byte	.LVL17
 2671 00d3 0100     		.2byte	0x1
 2672 00d5 50       		.byte	0x50
 2673 00d6 10000000 		.4byte	.LVL17
 2674 00da 5C000000 		.4byte	.LFE120
 2675 00de 0400     		.2byte	0x4
 2676 00e0 F3       		.byte	0xf3
ARM GAS  /var/folders/4k/6h5l9jl178sb4hslwv3xp1mr0000gn/T//ccpLbRxk.s 			page 48


 2677 00e1 01       		.uleb128 0x1
 2678 00e2 50       		.byte	0x50
 2679 00e3 9F       		.byte	0x9f
 2680 00e4 00000000 		.4byte	0
 2681 00e8 00000000 		.4byte	0
 2682              	.LLST5:
 2683 00ec 00000000 		.4byte	.LVL14
 2684 00f0 0A000000 		.4byte	.LVL15
 2685 00f4 0100     		.2byte	0x1
 2686 00f6 51       		.byte	0x51
 2687 00f7 0A000000 		.4byte	.LVL15
 2688 00fb 0E000000 		.4byte	.LVL16
 2689 00ff 0100     		.2byte	0x1
 2690 0101 54       		.byte	0x54
 2691 0102 0E000000 		.4byte	.LVL16
 2692 0106 12000000 		.4byte	.LVL18
 2693 010a 0100     		.2byte	0x1
 2694 010c 51       		.byte	0x51
 2695 010d 12000000 		.4byte	.LVL18
 2696 0111 40000000 		.4byte	.LVL23
 2697 0115 0100     		.2byte	0x1
 2698 0117 54       		.byte	0x54
 2699 0118 40000000 		.4byte	.LVL23
 2700 011c 43000000 		.4byte	.LVL24-1
 2701 0120 0100     		.2byte	0x1
 2702 0122 51       		.byte	0x51
 2703 0123 43000000 		.4byte	.LVL24-1
 2704 0127 44000000 		.4byte	.LVL24
 2705 012b 0400     		.2byte	0x4
 2706 012d 74       		.byte	0x74
 2707 012e 807C     		.sleb128 -512
 2708 0130 9F       		.byte	0x9f
 2709 0131 44000000 		.4byte	.LVL24
 2710 0135 54000000 		.4byte	.LVL25
 2711 0139 0100     		.2byte	0x1
 2712 013b 54       		.byte	0x54
 2713 013c 00000000 		.4byte	0
 2714 0140 00000000 		.4byte	0
 2715              	.LLST6:
 2716 0144 00000000 		.4byte	.LVL14
 2717 0148 0A000000 		.4byte	.LVL15
 2718 014c 0100     		.2byte	0x1
 2719 014e 52       		.byte	0x52
 2720 014f 0A000000 		.4byte	.LVL15
 2721 0153 0E000000 		.4byte	.LVL16
 2722 0157 0400     		.2byte	0x4
 2723 0159 F3       		.byte	0xf3
 2724 015a 01       		.uleb128 0x1
 2725 015b 52       		.byte	0x52
 2726 015c 9F       		.byte	0x9f
 2727 015d 0E000000 		.4byte	.LVL16
 2728 0161 21000000 		.4byte	.LVL19-1
 2729 0165 0100     		.2byte	0x1
 2730 0167 52       		.byte	0x52
 2731 0168 21000000 		.4byte	.LVL19-1
 2732 016c 5C000000 		.4byte	.LFE120
 2733 0170 0400     		.2byte	0x4
ARM GAS  /var/folders/4k/6h5l9jl178sb4hslwv3xp1mr0000gn/T//ccpLbRxk.s 			page 49


 2734 0172 F3       		.byte	0xf3
 2735 0173 01       		.uleb128 0x1
 2736 0174 52       		.byte	0x52
 2737 0175 9F       		.byte	0x9f
 2738 0176 00000000 		.4byte	0
 2739 017a 00000000 		.4byte	0
 2740              	.LLST7:
 2741 017e 00000000 		.4byte	.LVL14
 2742 0182 0A000000 		.4byte	.LVL15
 2743 0186 0100     		.2byte	0x1
 2744 0188 53       		.byte	0x53
 2745 0189 0E000000 		.4byte	.LVL16
 2746 018d 21000000 		.4byte	.LVL19-1
 2747 0191 0100     		.2byte	0x1
 2748 0193 53       		.byte	0x53
 2749 0194 21000000 		.4byte	.LVL19-1
 2750 0198 26000000 		.4byte	.LVL20
 2751 019c 0400     		.2byte	0x4
 2752 019e F3       		.byte	0xf3
 2753 019f 01       		.uleb128 0x1
 2754 01a0 53       		.byte	0x53
 2755 01a1 9F       		.byte	0x9f
 2756 01a2 26000000 		.4byte	.LVL20
 2757 01a6 2A000000 		.4byte	.LVL21
 2758 01aa 0100     		.2byte	0x1
 2759 01ac 53       		.byte	0x53
 2760 01ad 2A000000 		.4byte	.LVL21
 2761 01b1 34000000 		.4byte	.LVL22
 2762 01b5 0200     		.2byte	0x2
 2763 01b7 91       		.byte	0x91
 2764 01b8 6C       		.sleb128 -20
 2765 01b9 00000000 		.4byte	0
 2766 01bd 00000000 		.4byte	0
 2767              	.LLST8:
 2768 01c1 00000000 		.4byte	.LVL27
 2769 01c5 0A000000 		.4byte	.LVL28
 2770 01c9 0100     		.2byte	0x1
 2771 01cb 50       		.byte	0x50
 2772 01cc 0A000000 		.4byte	.LVL28
 2773 01d0 0E000000 		.4byte	.LVL29
 2774 01d4 0400     		.2byte	0x4
 2775 01d6 F3       		.byte	0xf3
 2776 01d7 01       		.uleb128 0x1
 2777 01d8 50       		.byte	0x50
 2778 01d9 9F       		.byte	0x9f
 2779 01da 0E000000 		.4byte	.LVL29
 2780 01de 18000000 		.4byte	.LVL31
 2781 01e2 0100     		.2byte	0x1
 2782 01e4 50       		.byte	0x50
 2783 01e5 18000000 		.4byte	.LVL31
 2784 01e9 70000000 		.4byte	.LFE121
 2785 01ed 0400     		.2byte	0x4
 2786 01ef F3       		.byte	0xf3
 2787 01f0 01       		.uleb128 0x1
 2788 01f1 50       		.byte	0x50
 2789 01f2 9F       		.byte	0x9f
 2790 01f3 00000000 		.4byte	0
ARM GAS  /var/folders/4k/6h5l9jl178sb4hslwv3xp1mr0000gn/T//ccpLbRxk.s 			page 50


 2791 01f7 00000000 		.4byte	0
 2792              	.LLST9:
 2793 01fb 00000000 		.4byte	.LVL27
 2794 01ff 0A000000 		.4byte	.LVL28
 2795 0203 0100     		.2byte	0x1
 2796 0205 51       		.byte	0x51
 2797 0206 0A000000 		.4byte	.LVL28
 2798 020a 0E000000 		.4byte	.LVL29
 2799 020e 0100     		.2byte	0x1
 2800 0210 54       		.byte	0x54
 2801 0211 0E000000 		.4byte	.LVL29
 2802 0215 12000000 		.4byte	.LVL30
 2803 0219 0100     		.2byte	0x1
 2804 021b 51       		.byte	0x51
 2805 021c 12000000 		.4byte	.LVL30
 2806 0220 52000000 		.4byte	.LVL37
 2807 0224 0100     		.2byte	0x1
 2808 0226 54       		.byte	0x54
 2809 0227 52000000 		.4byte	.LVL37
 2810 022b 55000000 		.4byte	.LVL38-1
 2811 022f 0100     		.2byte	0x1
 2812 0231 51       		.byte	0x51
 2813 0232 55000000 		.4byte	.LVL38-1
 2814 0236 56000000 		.4byte	.LVL38
 2815 023a 0400     		.2byte	0x4
 2816 023c 74       		.byte	0x74
 2817 023d 807C     		.sleb128 -512
 2818 023f 9F       		.byte	0x9f
 2819 0240 56000000 		.4byte	.LVL38
 2820 0244 66000000 		.4byte	.LVL39
 2821 0248 0100     		.2byte	0x1
 2822 024a 54       		.byte	0x54
 2823 024b 00000000 		.4byte	0
 2824 024f 00000000 		.4byte	0
 2825              	.LLST10:
 2826 0253 00000000 		.4byte	.LVL27
 2827 0257 0A000000 		.4byte	.LVL28
 2828 025b 0100     		.2byte	0x1
 2829 025d 52       		.byte	0x52
 2830 025e 0A000000 		.4byte	.LVL28
 2831 0262 0E000000 		.4byte	.LVL29
 2832 0266 0400     		.2byte	0x4
 2833 0268 F3       		.byte	0xf3
 2834 0269 01       		.uleb128 0x1
 2835 026a 52       		.byte	0x52
 2836 026b 9F       		.byte	0x9f
 2837 026c 0E000000 		.4byte	.LVL29
 2838 0270 23000000 		.4byte	.LVL32-1
 2839 0274 0100     		.2byte	0x1
 2840 0276 52       		.byte	0x52
 2841 0277 23000000 		.4byte	.LVL32-1
 2842 027b 70000000 		.4byte	.LFE121
 2843 027f 0400     		.2byte	0x4
 2844 0281 F3       		.byte	0xf3
 2845 0282 01       		.uleb128 0x1
 2846 0283 52       		.byte	0x52
 2847 0284 9F       		.byte	0x9f
ARM GAS  /var/folders/4k/6h5l9jl178sb4hslwv3xp1mr0000gn/T//ccpLbRxk.s 			page 51


 2848 0285 00000000 		.4byte	0
 2849 0289 00000000 		.4byte	0
 2850              	.LLST11:
 2851 028d 00000000 		.4byte	.LVL27
 2852 0291 0A000000 		.4byte	.LVL28
 2853 0295 0100     		.2byte	0x1
 2854 0297 53       		.byte	0x53
 2855 0298 0E000000 		.4byte	.LVL29
 2856 029c 23000000 		.4byte	.LVL32-1
 2857 02a0 0100     		.2byte	0x1
 2858 02a2 53       		.byte	0x53
 2859 02a3 23000000 		.4byte	.LVL32-1
 2860 02a7 38000000 		.4byte	.LVL34
 2861 02ab 0400     		.2byte	0x4
 2862 02ad F3       		.byte	0xf3
 2863 02ae 01       		.uleb128 0x1
 2864 02af 53       		.byte	0x53
 2865 02b0 9F       		.byte	0x9f
 2866 02b1 38000000 		.4byte	.LVL34
 2867 02b5 3C000000 		.4byte	.LVL35
 2868 02b9 0100     		.2byte	0x1
 2869 02bb 53       		.byte	0x53
 2870 02bc 3C000000 		.4byte	.LVL35
 2871 02c0 46000000 		.4byte	.LVL36
 2872 02c4 0200     		.2byte	0x2
 2873 02c6 7D       		.byte	0x7d
 2874 02c7 00       		.sleb128 0
 2875 02c8 00000000 		.4byte	0
 2876 02cc 00000000 		.4byte	0
 2877              	.LLST12:
 2878 02d0 00000000 		.4byte	.LVL41
 2879 02d4 04000000 		.4byte	.LVL42
 2880 02d8 0100     		.2byte	0x1
 2881 02da 50       		.byte	0x50
 2882 02db 04000000 		.4byte	.LVL42
 2883 02df 06000000 		.4byte	.LVL43
 2884 02e3 0400     		.2byte	0x4
 2885 02e5 F3       		.byte	0xf3
 2886 02e6 01       		.uleb128 0x1
 2887 02e7 50       		.byte	0x50
 2888 02e8 9F       		.byte	0x9f
 2889 02e9 06000000 		.4byte	.LVL43
 2890 02ed 16000000 		.4byte	.LVL44
 2891 02f1 0100     		.2byte	0x1
 2892 02f3 50       		.byte	0x50
 2893 02f4 16000000 		.4byte	.LVL44
 2894 02f8 18000000 		.4byte	.LFE122
 2895 02fc 0400     		.2byte	0x4
 2896 02fe F3       		.byte	0xf3
 2897 02ff 01       		.uleb128 0x1
 2898 0300 50       		.byte	0x50
 2899 0301 9F       		.byte	0x9f
 2900 0302 00000000 		.4byte	0
 2901 0306 00000000 		.4byte	0
 2902              		.section	.debug_aranges,"",%progbits
 2903 0000 44000000 		.4byte	0x44
 2904 0004 0200     		.2byte	0x2
ARM GAS  /var/folders/4k/6h5l9jl178sb4hslwv3xp1mr0000gn/T//ccpLbRxk.s 			page 52


 2905 0006 00000000 		.4byte	.Ldebug_info0
 2906 000a 04       		.byte	0x4
 2907 000b 00       		.byte	0
 2908 000c 0000     		.2byte	0
 2909 000e 0000     		.2byte	0
 2910 0010 00000000 		.4byte	.LFB118
 2911 0014 2C000000 		.4byte	.LFE118-.LFB118
 2912 0018 00000000 		.4byte	.LFB119
 2913 001c 2C000000 		.4byte	.LFE119-.LFB119
 2914 0020 00000000 		.4byte	.LFB120
 2915 0024 5C000000 		.4byte	.LFE120-.LFB120
 2916 0028 00000000 		.4byte	.LFB121
 2917 002c 70000000 		.4byte	.LFE121-.LFB121
 2918 0030 00000000 		.4byte	.LFB122
 2919 0034 18000000 		.4byte	.LFE122-.LFB122
 2920 0038 00000000 		.4byte	.LFB123
 2921 003c 06000000 		.4byte	.LFE123-.LFB123
 2922 0040 00000000 		.4byte	0
 2923 0044 00000000 		.4byte	0
 2924              		.section	.debug_ranges,"",%progbits
 2925              	.Ldebug_ranges0:
 2926 0000 00000000 		.4byte	.LFB118
 2927 0004 2C000000 		.4byte	.LFE118
 2928 0008 00000000 		.4byte	.LFB119
 2929 000c 2C000000 		.4byte	.LFE119
 2930 0010 00000000 		.4byte	.LFB120
 2931 0014 5C000000 		.4byte	.LFE120
 2932 0018 00000000 		.4byte	.LFB121
 2933 001c 70000000 		.4byte	.LFE121
 2934 0020 00000000 		.4byte	.LFB122
 2935 0024 18000000 		.4byte	.LFE122
 2936 0028 00000000 		.4byte	.LFB123
 2937 002c 06000000 		.4byte	.LFE123
 2938 0030 00000000 		.4byte	0
 2939 0034 00000000 		.4byte	0
 2940              		.section	.debug_line,"",%progbits
 2941              	.Ldebug_line0:
 2942 0000 38040000 		.section	.debug_str,"MS",%progbits,1
 2942      02006B03 
 2942      00000201 
 2942      FB0E0D00 
 2942      01010101 
 2943              	.LASF99:
 2944 0000 426C6F63 		.ascii	"BlockDeviceInfo\000"
 2944      6B446576 
 2944      69636549 
 2944      6E666F00 
 2945              	.LASF122:
 2946 0010 646D6172 		.ascii	"dmarx\000"
 2946      7800
 2947              	.LASF163:
 2948 0016 636F756E 		.ascii	"count\000"
 2948      7400
 2949              	.LASF144:
 2950 001c 63617061 		.ascii	"capacity\000"
 2950      63697479 
 2950      00
ARM GAS  /var/folders/4k/6h5l9jl178sb4hslwv3xp1mr0000gn/T//ccpLbRxk.s 			page 53


 2951              	.LASF153:
 2952 0025 5245535F 		.ascii	"RES_WRPRT\000"
 2952      57525052 
 2952      5400
 2953              	.LASF63:
 2954 002f 4D304152 		.ascii	"M0AR\000"
 2954      00
 2955              	.LASF72:
 2956 0034 52584352 		.ascii	"RXCRCR\000"
 2956      435200
 2957              	.LASF98:
 2958 003b 626C6B5F 		.ascii	"blk_num\000"
 2958      6E756D00 
 2959              	.LASF57:
 2960 0043 7264796D 		.ascii	"rdymsg\000"
 2960      736700
 2961              	.LASF137:
 2962 004a 69735F70 		.ascii	"is_protected\000"
 2962      726F7465 
 2962      63746564 
 2962      00
 2963              	.LASF102:
 2964 0057 4F545950 		.ascii	"OTYPER\000"
 2964      455200
 2965              	.LASF4:
 2966 005e 5F5F7569 		.ascii	"__uint8_t\000"
 2966      6E74385F 
 2966      7400
 2967              	.LASF114:
 2968 0068 5350495F 		.ascii	"SPI_ACTIVE\000"
 2968      41435449 
 2968      564500
 2969              	.LASF135:
 2970 0073 4D4D4344 		.ascii	"MMCDriverVMT\000"
 2970      72697665 
 2970      72564D54 
 2970      00
 2971              	.LASF154:
 2972 0080 5245535F 		.ascii	"RES_NOTRDY\000"
 2972      4E4F5452 
 2972      445900
 2973              	.LASF81:
 2974 008b 73747265 		.ascii	"stream\000"
 2974      616D00
 2975              	.LASF126:
 2976 0092 73706963 		.ascii	"spicallback_t\000"
 2976      616C6C62 
 2976      61636B5F 
 2976      7400
 2977              	.LASF101:
 2978 00a0 4D4F4445 		.ascii	"MODER\000"
 2978      5200
 2979              	.LASF12:
 2980 00a6 6C6F6E67 		.ascii	"long long unsigned int\000"
 2980      206C6F6E 
 2980      6720756E 
 2980      7369676E 
ARM GAS  /var/folders/4k/6h5l9jl178sb4hslwv3xp1mr0000gn/T//ccpLbRxk.s 			page 54


 2980      65642069 
 2981              	.LASF113:
 2982 00bd 5350495F 		.ascii	"SPI_READY\000"
 2982      52454144 
 2982      5900
 2983              	.LASF70:
 2984 00c7 43524350 		.ascii	"CRCPR\000"
 2984      5200
 2985              	.LASF104:
 2986 00cd 50555044 		.ascii	"PUPDR\000"
 2986      5200
 2987              	.LASF58:
 2988 00d3 65786974 		.ascii	"exitcode\000"
 2988      636F6465 
 2988      00
 2989              	.LASF85:
 2990 00dc 76656374 		.ascii	"vector\000"
 2990      6F7200
 2991              	.LASF171:
 2992 00e3 6D6D6353 		.ascii	"mmcSequentialRead\000"
 2992      65717565 
 2992      6E746961 
 2992      6C526561 
 2992      6400
 2993              	.LASF117:
 2994 00f5 53504944 		.ascii	"SPIDriver\000"
 2994      72697665 
 2994      7200
 2995              	.LASF128:
 2996 00ff 7373706F 		.ascii	"ssport\000"
 2996      727400
 2997              	.LASF167:
 2998 0106 49544D5F 		.ascii	"ITM_RxBuffer\000"
 2998      52784275 
 2998      66666572 
 2998      00
 2999              	.LASF96:
 3000 0113 626C6B73 		.ascii	"blkstate_t\000"
 3000      74617465 
 3000      5F7400
 3001              	.LASF30:
 3002 011e 705F7072 		.ascii	"p_prio\000"
 3002      696F00
 3003              	.LASF159:
 3004 0125 73746174 		.ascii	"stat\000"
 3004      00
 3005              	.LASF11:
 3006 012a 6C6F6E67 		.ascii	"long long int\000"
 3006      206C6F6E 
 3006      6720696E 
 3006      7400
 3007              	.LASF1:
 3008 0138 7369676E 		.ascii	"signed char\000"
 3008      65642063 
 3008      68617200 
 3009              	.LASF112:
 3010 0144 5350495F 		.ascii	"SPI_STOP\000"
ARM GAS  /var/folders/4k/6h5l9jl178sb4hslwv3xp1mr0000gn/T//ccpLbRxk.s 			page 55


 3010      53544F50 
 3010      00
 3011              	.LASF76:
 3012 014d 49325343 		.ascii	"I2SCFGR\000"
 3012      46475200 
 3013              	.LASF17:
 3014 0155 626F6F6C 		.ascii	"bool_t\000"
 3014      5F7400
 3015              	.LASF54:
 3016 015c 6D5F7175 		.ascii	"m_queue\000"
 3016      65756500 
 3017              	.LASF139:
 3018 0164 64697363 		.ascii	"disconnect\000"
 3018      6F6E6E65 
 3018      637400
 3019              	.LASF22:
 3020 016f 74736C69 		.ascii	"tslices_t\000"
 3020      6365735F 
 3020      7400
 3021              	.LASF178:
 3022 0179 6765745F 		.ascii	"get_fattime\000"
 3022      66617474 
 3022      696D6500 
 3023              	.LASF87:
 3024 0185 424C4B5F 		.ascii	"BLK_UNINIT\000"
 3024      554E494E 
 3024      495400
 3025              	.LASF118:
 3026 0190 73746174 		.ascii	"state\000"
 3026      6500
 3027              	.LASF8:
 3028 0196 6C6F6E67 		.ascii	"long int\000"
 3028      20696E74 
 3028      00
 3029              	.LASF20:
 3030 019f 74737461 		.ascii	"tstate_t\000"
 3030      74655F74 
 3030      00
 3031              	.LASF155:
 3032 01a8 5245535F 		.ascii	"RES_PARERR\000"
 3032      50415245 
 3032      525200
 3033              	.LASF169:
 3034 01b3 6D6D635F 		.ascii	"mmc_lld_is_write_protected\000"
 3034      6C6C645F 
 3034      69735F77 
 3034      72697465 
 3034      5F70726F 
 3035              	.LASF120:
 3036 01ce 74687265 		.ascii	"thread\000"
 3036      616400
 3037              	.LASF88:
 3038 01d5 424C4B5F 		.ascii	"BLK_STOP\000"
 3038      53544F50 
 3038      00
 3039              	.LASF14:
 3040 01de 75696E74 		.ascii	"uint16_t\000"
ARM GAS  /var/folders/4k/6h5l9jl178sb4hslwv3xp1mr0000gn/T//ccpLbRxk.s 			page 56


 3040      31365F74 
 3040      00
 3041              	.LASF39:
 3042 01e7 705F7469 		.ascii	"p_time\000"
 3042      6D6500
 3043              	.LASF129:
 3044 01ee 73737061 		.ascii	"sspad\000"
 3044      6400
 3045              	.LASF149:
 3046 01f4 44574F52 		.ascii	"DWORD\000"
 3046      4400
 3047              	.LASF32:
 3048 01fa 705F6E65 		.ascii	"p_newer\000"
 3048      77657200 
 3049              	.LASF127:
 3050 0202 656E645F 		.ascii	"end_cb\000"
 3050      636200
 3051              	.LASF124:
 3052 0209 7278646D 		.ascii	"rxdmamode\000"
 3052      616D6F64 
 3052      6500
 3053              	.LASF109:
 3054 0213 4750494F 		.ascii	"GPIO_TypeDef\000"
 3054      5F547970 
 3054      65446566 
 3054      00
 3055              	.LASF143:
 3056 0220 6765745F 		.ascii	"get_info\000"
 3056      696E666F 
 3056      00
 3057              	.LASF123:
 3058 0229 646D6174 		.ascii	"dmatx\000"
 3058      7800
 3059              	.LASF103:
 3060 022f 4F535045 		.ascii	"OSPEEDR\000"
 3060      45445200 
 3061              	.LASF9:
 3062 0237 5F5F7569 		.ascii	"__uint32_t\000"
 3062      6E743332 
 3062      5F7400
 3063              	.LASF46:
 3064 0242 705F6D70 		.ascii	"p_mpool\000"
 3064      6F6F6C00 
 3065              	.LASF49:
 3066 024a 72656761 		.ascii	"regarm_t\000"
 3066      726D5F74 
 3066      00
 3067              	.LASF84:
 3068 0253 73656C66 		.ascii	"selfindex\000"
 3068      696E6465 
 3068      7800
 3069              	.LASF168:
 3070 025d 4D4D4344 		.ascii	"MMCD1\000"
 3070      3100
 3071              	.LASF166:
 3072 0263 6374726C 		.ascii	"ctrl\000"
 3072      00
ARM GAS  /var/folders/4k/6h5l9jl178sb4hslwv3xp1mr0000gn/T//ccpLbRxk.s 			page 57


 3073              	.LASF97:
 3074 0268 626C6B5F 		.ascii	"blk_size\000"
 3074      73697A65 
 3074      00
 3075              	.LASF147:
 3076 0271 42595445 		.ascii	"BYTE\000"
 3076      00
 3077              	.LASF0:
 3078 0276 756E7369 		.ascii	"unsigned int\000"
 3078      676E6564 
 3078      20696E74 
 3078      00
 3079              	.LASF173:
 3080 0283 6D6D6353 		.ascii	"mmcStartSequentialWrite\000"
 3080      74617274 
 3080      53657175 
 3080      656E7469 
 3080      616C5772 
 3081              	.LASF41:
 3082 029b 705F6D73 		.ascii	"p_msgqueue\000"
 3082      67717565 
 3082      756500
 3083              	.LASF158:
 3084 02a6 6469736B 		.ascii	"disk_status\000"
 3084      5F737461 
 3084      74757300 
 3085              	.LASF106:
 3086 02b2 4C434B52 		.ascii	"LCKR\000"
 3086      00
 3087              	.LASF83:
 3088 02b7 69736869 		.ascii	"ishift\000"
 3088      667400
 3089              	.LASF176:
 3090 02be 2E2E2F43 		.ascii	"../ChibiStudio/ChibiOS/os/various/fatfs_bindings/fa"
 3090      68696269 
 3090      53747564 
 3090      696F2F43 
 3090      68696269 
 3091 02f1 7466735F 		.ascii	"tfs_diskio.c\000"
 3091      6469736B 
 3091      696F2E63 
 3091      00
 3092              	.LASF6:
 3093 02fe 73686F72 		.ascii	"short unsigned int\000"
 3093      7420756E 
 3093      7369676E 
 3093      65642069 
 3093      6E7400
 3094              	.LASF89:
 3095 0311 424C4B5F 		.ascii	"BLK_ACTIVE\000"
 3095      41435449 
 3095      564500
 3096              	.LASF132:
 3097 031c 6C736366 		.ascii	"lscfg\000"
 3097      6700
 3098              	.LASF145:
 3099 0322 626C6F63 		.ascii	"block_addresses\000"
ARM GAS  /var/folders/4k/6h5l9jl178sb4hslwv3xp1mr0000gn/T//ccpLbRxk.s 			page 58


 3099      6B5F6164 
 3099      64726573 
 3099      73657300 
 3100              	.LASF24:
 3101 0332 6D73675F 		.ascii	"msg_t\000"
 3101      7400
 3102              	.LASF90:
 3103 0338 424C4B5F 		.ascii	"BLK_CONNECTING\000"
 3103      434F4E4E 
 3103      45435449 
 3103      4E4700
 3104              	.LASF19:
 3105 0347 746D6F64 		.ascii	"tmode_t\000"
 3105      655F7400 
 3106              	.LASF162:
 3107 034f 73656374 		.ascii	"sector\000"
 3107      6F7200
 3108              	.LASF48:
 3109 0356 54687265 		.ascii	"ThreadsList\000"
 3109      6164734C 
 3109      69737400 
 3110              	.LASF25:
 3111 0362 6576656E 		.ascii	"eventmask_t\000"
 3111      746D6173 
 3111      6B5F7400 
 3112              	.LASF7:
 3113 036e 5F5F696E 		.ascii	"__int32_t\000"
 3113      7433325F 
 3113      7400
 3114              	.LASF165:
 3115 0378 6469736B 		.ascii	"disk_ioctl\000"
 3115      5F696F63 
 3115      746C00
 3116              	.LASF141:
 3117 0383 77726974 		.ascii	"write\000"
 3117      6500
 3118              	.LASF160:
 3119 0389 6469736B 		.ascii	"disk_read\000"
 3119      5F726561 
 3119      6400
 3120              	.LASF93:
 3121 0393 424C4B5F 		.ascii	"BLK_READING\000"
 3121      52454144 
 3121      494E4700 
 3122              	.LASF78:
 3123 039f 49325350 		.ascii	"I2SPR\000"
 3123      5200
 3124              	.LASF52:
 3125 03a5 73697A65 		.ascii	"sizetype\000"
 3125      74797065 
 3125      00
 3126              	.LASF100:
 3127 03ae 636C6561 		.ascii	"clear\000"
 3127      7200
 3128              	.LASF53:
 3129 03b4 4D757465 		.ascii	"Mutex\000"
 3129      7800
ARM GAS  /var/folders/4k/6h5l9jl178sb4hslwv3xp1mr0000gn/T//ccpLbRxk.s 			page 59


 3130              	.LASF148:
 3131 03ba 574F5244 		.ascii	"WORD\000"
 3131      00
 3132              	.LASF151:
 3133 03bf 5245535F 		.ascii	"RES_OK\000"
 3133      4F4B00
 3134              	.LASF33:
 3135 03c6 705F6F6C 		.ascii	"p_older\000"
 3135      64657200 
 3136              	.LASF95:
 3137 03ce 424C4B5F 		.ascii	"BLK_SYNCING\000"
 3137      53594E43 
 3137      494E4700 
 3138              	.LASF170:
 3139 03da 6D6D6353 		.ascii	"mmcStartSequentialRead\000"
 3139      74617274 
 3139      53657175 
 3139      656E7469 
 3139      616C5265 
 3140              	.LASF92:
 3141 03f1 424C4B5F 		.ascii	"BLK_READY\000"
 3141      52454144 
 3141      5900
 3142              	.LASF47:
 3143 03fb 54687265 		.ascii	"ThreadsQueue\000"
 3143      61647351 
 3143      75657565 
 3143      00
 3144              	.LASF125:
 3145 0408 7478646D 		.ascii	"txdmamode\000"
 3145      616D6F64 
 3145      6500
 3146              	.LASF134:
 3147 0412 4D4D4343 		.ascii	"MMCConfig\000"
 3147      6F6E6669 
 3147      6700
 3148              	.LASF179:
 3149 041c 6D6D6353 		.ascii	"mmcStopSequentialWrite\000"
 3149      746F7053 
 3149      65717565 
 3149      6E746961 
 3149      6C577269 
 3150              	.LASF108:
 3151 0433 41465248 		.ascii	"AFRH\000"
 3151      00
 3152              	.LASF107:
 3153 0438 4146524C 		.ascii	"AFRL\000"
 3153      00
 3154              	.LASF74:
 3155 043d 54584352 		.ascii	"TXCRCR\000"
 3155      435200
 3156              	.LASF66:
 3157 0444 52455345 		.ascii	"RESERVED0\000"
 3157      52564544 
 3157      3000
 3158              	.LASF67:
 3159 044e 52455345 		.ascii	"RESERVED1\000"
ARM GAS  /var/folders/4k/6h5l9jl178sb4hslwv3xp1mr0000gn/T//ccpLbRxk.s 			page 60


 3159      52564544 
 3159      3100
 3160              	.LASF68:
 3161 0458 52455345 		.ascii	"RESERVED2\000"
 3161      52564544 
 3161      3200
 3162              	.LASF69:
 3163 0462 52455345 		.ascii	"RESERVED3\000"
 3163      52564544 
 3163      3300
 3164              	.LASF71:
 3165 046c 52455345 		.ascii	"RESERVED4\000"
 3165      52564544 
 3165      3400
 3166              	.LASF29:
 3167 0476 705F7072 		.ascii	"p_prev\000"
 3167      657600
 3168              	.LASF75:
 3169 047d 52455345 		.ascii	"RESERVED6\000"
 3169      52564544 
 3169      3600
 3170              	.LASF77:
 3171 0487 52455345 		.ascii	"RESERVED7\000"
 3171      52564544 
 3171      3700
 3172              	.LASF79:
 3173 0491 52455345 		.ascii	"RESERVED8\000"
 3173      52564544 
 3173      3800
 3174              	.LASF23:
 3175 049b 74707269 		.ascii	"tprio_t\000"
 3175      6F5F7400 
 3176              	.LASF121:
 3177 04a3 6D757465 		.ascii	"mutex\000"
 3177      7800
 3178              	.LASF18:
 3179 04a9 5F426F6F 		.ascii	"_Bool\000"
 3179      6C00
 3180              	.LASF15:
 3181 04af 696E7433 		.ascii	"int32_t\000"
 3181      325F7400 
 3182              	.LASF2:
 3183 04b7 756E7369 		.ascii	"unsigned char\000"
 3183      676E6564 
 3183      20636861 
 3183      7200
 3184              	.LASF86:
 3185 04c5 73746D33 		.ascii	"stm32_dma_stream_t\000"
 3185      325F646D 
 3185      615F7374 
 3185      7265616D 
 3185      5F7400
 3186              	.LASF175:
 3187 04d8 474E5520 		.ascii	"GNU C 4.8.3 20140228 (release) [ARM/embedded-4_8-br"
 3187      4320342E 
 3187      382E3320 
 3187      32303134 
ARM GAS  /var/folders/4k/6h5l9jl178sb4hslwv3xp1mr0000gn/T//ccpLbRxk.s 			page 61


 3187      30323238 
 3188 050b 616E6368 		.ascii	"anch revision 208322] -mcpu=cortex-m4 -mno-thumb-in"
 3188      20726576 
 3188      6973696F 
 3188      6E203230 
 3188      38333232 
 3189 053e 74657277 		.ascii	"terwork -mthumb -ggdb -O2 -fomit-frame-pointer -fal"
 3189      6F726B20 
 3189      2D6D7468 
 3189      756D6220 
 3189      2D676764 
 3190 0571 69676E2D 		.ascii	"ign-functions=16 -ffunction-sections -fdata-section"
 3190      66756E63 
 3190      74696F6E 
 3190      733D3136 
 3190      202D6666 
 3191 05a4 73202D66 		.ascii	"s -fno-common\000"
 3191      6E6F2D63 
 3191      6F6D6D6F 
 3191      6E00
 3192              	.LASF44:
 3193 05b2 705F6D74 		.ascii	"p_mtxlist\000"
 3193      786C6973 
 3193      7400
 3194              	.LASF3:
 3195 05bc 73686F72 		.ascii	"short int\000"
 3195      7420696E 
 3195      7400
 3196              	.LASF35:
 3197 05c6 705F7374 		.ascii	"p_state\000"
 3197      61746500 
 3198              	.LASF94:
 3199 05ce 424C4B5F 		.ascii	"BLK_WRITING\000"
 3199      57524954 
 3199      494E4700 
 3200              	.LASF38:
 3201 05da 705F7072 		.ascii	"p_preempt\000"
 3201      65656D70 
 3201      7400
 3202              	.LASF60:
 3203 05e4 65776D61 		.ascii	"ewmask\000"
 3203      736B00
 3204              	.LASF28:
 3205 05eb 705F6E65 		.ascii	"p_next\000"
 3205      787400
 3206              	.LASF36:
 3207 05f2 705F666C 		.ascii	"p_flags\000"
 3207      61677300 
 3208              	.LASF174:
 3209 05fa 6D6D6353 		.ascii	"mmcSequentialWrite\000"
 3209      65717565 
 3209      6E746961 
 3209      6C577269 
 3209      746500
 3210              	.LASF161:
 3211 060d 62756666 		.ascii	"buff\000"
 3211      00
ARM GAS  /var/folders/4k/6h5l9jl178sb4hslwv3xp1mr0000gn/T//ccpLbRxk.s 			page 62


 3212              	.LASF27:
 3213 0612 54687265 		.ascii	"Thread\000"
 3213      616400
 3214              	.LASF177:
 3215 0619 2F557365 		.ascii	"/Users/mikevanis/Documents/workspace/STM32_DCMI_CAM"
 3215      72732F6D 
 3215      696B6576 
 3215      616E6973 
 3215      2F446F63 
 3216 064c 4552412F 		.ascii	"ERA/\000"
 3216      00
 3217              	.LASF138:
 3218 0651 636F6E6E 		.ascii	"connect\000"
 3218      65637400 
 3219              	.LASF43:
 3220 0659 705F6570 		.ascii	"p_epending\000"
 3220      656E6469 
 3220      6E6700
 3221              	.LASF82:
 3222 0664 69666372 		.ascii	"ifcr\000"
 3222      00
 3223              	.LASF73:
 3224 0669 52455345 		.ascii	"RESERVED5\000"
 3224      52564544 
 3224      3500
 3225              	.LASF157:
 3226 0673 6469736B 		.ascii	"disk_initialize\000"
 3226      5F696E69 
 3226      7469616C 
 3226      697A6500 
 3227              	.LASF16:
 3228 0683 75696E74 		.ascii	"uint32_t\000"
 3228      33325F74 
 3228      00
 3229              	.LASF21:
 3230 068c 74726566 		.ascii	"trefs_t\000"
 3230      735F7400 
 3231              	.LASF156:
 3232 0694 44524553 		.ascii	"DRESULT\000"
 3232      554C5400 
 3233              	.LASF10:
 3234 069c 6C6F6E67 		.ascii	"long unsigned int\000"
 3234      20756E73 
 3234      69676E65 
 3234      6420696E 
 3234      7400
 3235              	.LASF80:
 3236 06ae 5350495F 		.ascii	"SPI_TypeDef\000"
 3236      54797065 
 3236      44656600 
 3237              	.LASF140:
 3238 06ba 72656164 		.ascii	"read\000"
 3238      00
 3239              	.LASF61:
 3240 06bf 63686172 		.ascii	"char\000"
 3240      00
 3241              	.LASF115:
ARM GAS  /var/folders/4k/6h5l9jl178sb4hslwv3xp1mr0000gn/T//ccpLbRxk.s 			page 63


 3242 06c4 5350495F 		.ascii	"SPI_COMPLETE\000"
 3242      434F4D50 
 3242      4C455445 
 3242      00
 3243              	.LASF91:
 3244 06d1 424C4B5F 		.ascii	"BLK_DISCONNECTING\000"
 3244      44495343 
 3244      4F4E4E45 
 3244      4354494E 
 3244      4700
 3245              	.LASF119:
 3246 06e3 636F6E66 		.ascii	"config\000"
 3246      696700
 3247              	.LASF5:
 3248 06ea 5F5F7569 		.ascii	"__uint16_t\000"
 3248      6E743136 
 3248      5F7400
 3249              	.LASF116:
 3250 06f5 73706973 		.ascii	"spistate_t\000"
 3250      74617465 
 3250      5F7400
 3251              	.LASF56:
 3252 0700 6D5F6E65 		.ascii	"m_next\000"
 3252      787400
 3253              	.LASF26:
 3254 0707 73797374 		.ascii	"systime_t\000"
 3254      696D655F 
 3254      7400
 3255              	.LASF45:
 3256 0711 705F7265 		.ascii	"p_realprio\000"
 3256      616C7072 
 3256      696F00
 3257              	.LASF150:
 3258 071c 44535441 		.ascii	"DSTATUS\000"
 3258      54555300 
 3259              	.LASF62:
 3260 0724 4E445452 		.ascii	"NDTR\000"
 3260      00
 3261              	.LASF65:
 3262 0729 444D415F 		.ascii	"DMA_Stream_TypeDef\000"
 3262      53747265 
 3262      616D5F54 
 3262      79706544 
 3262      656600
 3263              	.LASF110:
 3264 073c 696F706F 		.ascii	"ioportid_t\000"
 3264      72746964 
 3264      5F7400
 3265              	.LASF51:
 3266 0747 636F6E74 		.ascii	"context\000"
 3266      65787400 
 3267              	.LASF164:
 3268 074f 6469736B 		.ascii	"disk_write\000"
 3268      5F777269 
 3268      746500
 3269              	.LASF50:
 3270 075a 696E7463 		.ascii	"intctx\000"
ARM GAS  /var/folders/4k/6h5l9jl178sb4hslwv3xp1mr0000gn/T//ccpLbRxk.s 			page 64


 3270      747800
 3271              	.LASF136:
 3272 0761 69735F69 		.ascii	"is_inserted\000"
 3272      6E736572 
 3272      74656400 
 3273              	.LASF64:
 3274 076d 4D314152 		.ascii	"M1AR\000"
 3274      00
 3275              	.LASF111:
 3276 0772 5350495F 		.ascii	"SPI_UNINIT\000"
 3276      554E494E 
 3276      495400
 3277              	.LASF146:
 3278 077d 4D4D4344 		.ascii	"MMCDriver\000"
 3278      72697665 
 3278      7200
 3279              	.LASF34:
 3280 0787 705F6E61 		.ascii	"p_name\000"
 3280      6D6500
 3281              	.LASF37:
 3282 078e 705F7265 		.ascii	"p_refs\000"
 3282      667300
 3283              	.LASF105:
 3284 0795 42535252 		.ascii	"BSRR\000"
 3284      00
 3285              	.LASF133:
 3286 079a 68736366 		.ascii	"hscfg\000"
 3286      6700
 3287              	.LASF13:
 3288 07a0 75696E74 		.ascii	"uint8_t\000"
 3288      385F7400 
 3289              	.LASF131:
 3290 07a8 73706970 		.ascii	"spip\000"
 3290      00
 3291              	.LASF142:
 3292 07ad 73796E63 		.ascii	"sync\000"
 3292      00
 3293              	.LASF59:
 3294 07b2 77746F62 		.ascii	"wtobjp\000"
 3294      6A7000
 3295              	.LASF152:
 3296 07b9 5245535F 		.ascii	"RES_ERROR\000"
 3296      4552524F 
 3296      5200
 3297              	.LASF130:
 3298 07c3 53504943 		.ascii	"SPIConfig\000"
 3298      6F6E6669 
 3298      6700
 3299              	.LASF42:
 3300 07cd 705F6D73 		.ascii	"p_msg\000"
 3300      6700
 3301              	.LASF172:
 3302 07d3 6D6D6353 		.ascii	"mmcStopSequentialRead\000"
 3302      746F7053 
 3302      65717565 
 3302      6E746961 
 3302      6C526561 
ARM GAS  /var/folders/4k/6h5l9jl178sb4hslwv3xp1mr0000gn/T//ccpLbRxk.s 			page 65


 3303              	.LASF55:
 3304 07e9 6D5F6F77 		.ascii	"m_owner\000"
 3304      6E657200 
 3305              	.LASF31:
 3306 07f1 705F6374 		.ascii	"p_ctx\000"
 3306      7800
 3307              	.LASF40:
 3308 07f7 705F7761 		.ascii	"p_waiting\000"
 3308      6974696E 
 3308      6700
 3309              		.ident	"GCC: (GNU Tools for ARM Embedded Processors) 4.8.3 20140228 (release) [ARM/embedded-4_8-br
ARM GAS  /var/folders/4k/6h5l9jl178sb4hslwv3xp1mr0000gn/T//ccpLbRxk.s 			page 66


DEFINED SYMBOLS
                            *ABS*:0000000000000000 fatfs_diskio.c
/var/folders/4k/6h5l9jl178sb4hslwv3xp1mr0000gn/T//ccpLbRxk.s:19     .text.disk_initialize:0000000000000000 $t
/var/folders/4k/6h5l9jl178sb4hslwv3xp1mr0000gn/T//ccpLbRxk.s:25     .text.disk_initialize:0000000000000000 disk_initialize
/var/folders/4k/6h5l9jl178sb4hslwv3xp1mr0000gn/T//ccpLbRxk.s:72     .text.disk_initialize:0000000000000028 $d
/var/folders/4k/6h5l9jl178sb4hslwv3xp1mr0000gn/T//ccpLbRxk.s:77     .text.disk_status:0000000000000000 $t
/var/folders/4k/6h5l9jl178sb4hslwv3xp1mr0000gn/T//ccpLbRxk.s:83     .text.disk_status:0000000000000000 disk_status
/var/folders/4k/6h5l9jl178sb4hslwv3xp1mr0000gn/T//ccpLbRxk.s:129    .text.disk_status:0000000000000028 $d
/var/folders/4k/6h5l9jl178sb4hslwv3xp1mr0000gn/T//ccpLbRxk.s:134    .text.disk_read:0000000000000000 $t
/var/folders/4k/6h5l9jl178sb4hslwv3xp1mr0000gn/T//ccpLbRxk.s:140    .text.disk_read:0000000000000000 disk_read
/var/folders/4k/6h5l9jl178sb4hslwv3xp1mr0000gn/T//ccpLbRxk.s:229    .text.disk_read:0000000000000058 $d
/var/folders/4k/6h5l9jl178sb4hslwv3xp1mr0000gn/T//ccpLbRxk.s:234    .text.disk_write:0000000000000000 $t
/var/folders/4k/6h5l9jl178sb4hslwv3xp1mr0000gn/T//ccpLbRxk.s:240    .text.disk_write:0000000000000000 disk_write
/var/folders/4k/6h5l9jl178sb4hslwv3xp1mr0000gn/T//ccpLbRxk.s:341    .text.disk_write:000000000000006c $d
/var/folders/4k/6h5l9jl178sb4hslwv3xp1mr0000gn/T//ccpLbRxk.s:346    .text.disk_ioctl:0000000000000000 $t
/var/folders/4k/6h5l9jl178sb4hslwv3xp1mr0000gn/T//ccpLbRxk.s:352    .text.disk_ioctl:0000000000000000 disk_ioctl
/var/folders/4k/6h5l9jl178sb4hslwv3xp1mr0000gn/T//ccpLbRxk.s:388    .text.get_fattime:0000000000000000 $t
/var/folders/4k/6h5l9jl178sb4hslwv3xp1mr0000gn/T//ccpLbRxk.s:394    .text.get_fattime:0000000000000000 get_fattime
                     .debug_frame:0000000000000010 $d
/var/folders/4k/6h5l9jl178sb4hslwv3xp1mr0000gn/T//ccpLbRxk.s:76     .text.disk_initialize:000000000000002c $t
/var/folders/4k/6h5l9jl178sb4hslwv3xp1mr0000gn/T//ccpLbRxk.s:133    .text.disk_status:000000000000002c $t
/var/folders/4k/6h5l9jl178sb4hslwv3xp1mr0000gn/T//ccpLbRxk.s:233    .text.disk_read:000000000000005c $t

UNDEFINED SYMBOLS
mmc_lld_is_write_protected
MMCD1
mmcStartSequentialRead
mmcSequentialRead
mmcStopSequentialRead
mmcStartSequentialWrite
mmcSequentialWrite
mmcStopSequentialWrite
