ARM GAS  /var/folders/4k/6h5l9jl178sb4hslwv3xp1mr0000gn/T//ccjvit50.s 			page 1


   1              		.syntax unified
   2              		.cpu cortex-m4
   3              		.fpu softvfp
   4              		.eabi_attribute 20, 1
   5              		.eabi_attribute 21, 1
   6              		.eabi_attribute 23, 3
   7              		.eabi_attribute 24, 1
   8              		.eabi_attribute 25, 1
   9              		.eabi_attribute 26, 1
  10              		.eabi_attribute 30, 2
  11              		.eabi_attribute 34, 1
  12              		.eabi_attribute 18, 4
  13              		.thumb
  14              		.file	"ff.c"
  15              		.text
  16              	.Ltext0:
  17              		.cfi_sections	.debug_frame
  18              		.section	.text.move_window,"ax",%progbits
  19              		.align	2
  20              		.p2align 4,,15
  21              		.thumb
  22              		.thumb_func
  23              		.type	move_window, %function
  24              	move_window:
  25              	.LFB13:
  26              		.file 1 "../ChibiStudio/ChibiOS/ext/fatfs/src/ff.c"
  27              		.loc 1 723 0
  28              		.cfi_startproc
  29              		@ args = 0, pretend = 0, frame = 0
  30              		@ frame_needed = 0, uses_anonymous_args = 0
  31              	.LVL0:
  32 0000 2DE9F041 		push	{r4, r5, r6, r7, r8, lr}
  33              		.cfi_def_cfa_offset 24
  34              		.cfi_offset 4, -24
  35              		.cfi_offset 5, -20
  36              		.cfi_offset 6, -16
  37              		.cfi_offset 7, -12
  38              		.cfi_offset 8, -8
  39              		.cfi_offset 14, -4
  40              		.loc 1 727 0
  41 0004 056B     		ldr	r5, [r0, #48]
  42              	.LVL1:
  43              		.loc 1 728 0
  44 0006 8D42     		cmp	r5, r1
  45              		.loc 1 723 0
  46 0008 0446     		mov	r4, r0
  47 000a 0E46     		mov	r6, r1
  48              		.loc 1 728 0
  49 000c 02D0     		beq	.L6
  50              		.loc 1 730 0
  51 000e 0379     		ldrb	r3, [r0, #4]	@ zero_extendqisi2
  52 0010 73B9     		cbnz	r3, .L4
  53              	.LVL2:
  54              	.L8:
  55              		.loc 1 743 0
  56 0012 16B9     		cbnz	r6, .L16
  57              	.L6:
ARM GAS  /var/folders/4k/6h5l9jl178sb4hslwv3xp1mr0000gn/T//ccjvit50.s 			page 2


  58              		.loc 1 750 0
  59 0014 0020     		movs	r0, #0
  60 0016 BDE8F081 		pop	{r4, r5, r6, r7, r8, pc}
  61              	.LVL3:
  62              	.L16:
  63              		.loc 1 744 0
  64 001a 6078     		ldrb	r0, [r4, #1]	@ zero_extendqisi2
  65 001c 04F13401 		add	r1, r4, #52
  66 0020 3246     		mov	r2, r6
  67 0022 0123     		movs	r3, #1
  68 0024 FFF7FEFF 		bl	disk_read
  69              	.LVL4:
  70 0028 20BB     		cbnz	r0, .L10
  71              		.loc 1 746 0
  72 002a 2663     		str	r6, [r4, #48]
  73              		.loc 1 751 0
  74 002c BDE8F081 		pop	{r4, r5, r6, r7, r8, pc}
  75              	.LVL5:
  76              	.L4:
  77              		.loc 1 731 0
  78 0030 00F13408 		add	r8, r0, #52
  79 0034 4146     		mov	r1, r8
  80              	.LVL6:
  81 0036 4078     		ldrb	r0, [r0, #1]	@ zero_extendqisi2
  82              	.LVL7:
  83 0038 2A46     		mov	r2, r5
  84 003a 0123     		movs	r3, #1
  85 003c FFF7FEFF 		bl	disk_write
  86              	.LVL8:
  87 0040 C0B9     		cbnz	r0, .L10
  88              		.loc 1 734 0
  89 0042 236A     		ldr	r3, [r4, #32]
  90 0044 626A     		ldr	r2, [r4, #36]
  91              		.loc 1 733 0
  92 0046 2071     		strb	r0, [r4, #4]
  93              		.loc 1 734 0
  94 0048 1A44     		add	r2, r2, r3
  95 004a 9542     		cmp	r5, r2
  96 004c E1D2     		bcs	.L8
  97              	.LBB247:
  98              		.loc 1 736 0
  99 004e E778     		ldrb	r7, [r4, #3]	@ zero_extendqisi2
 100              	.LVL9:
 101 0050 012F     		cmp	r7, #1
 102 0052 01D8     		bhi	.L9
 103 0054 DDE7     		b	.L8
 104              	.LVL10:
 105              	.L17:
 106 0056 236A     		ldr	r3, [r4, #32]
 107              	.LVL11:
 108              	.L9:
 109              		.loc 1 737 0 discriminator 2
 110 0058 1D44     		add	r5, r5, r3
 111              	.LVL12:
 112              		.loc 1 736 0 discriminator 2
 113 005a 013F     		subs	r7, r7, #1
 114              	.LVL13:
ARM GAS  /var/folders/4k/6h5l9jl178sb4hslwv3xp1mr0000gn/T//ccjvit50.s 			page 3


 115              		.loc 1 738 0 discriminator 2
 116 005c 2A46     		mov	r2, r5
 117 005e 6078     		ldrb	r0, [r4, #1]	@ zero_extendqisi2
 118 0060 4146     		mov	r1, r8
 119 0062 0123     		movs	r3, #1
 120              		.loc 1 736 0 discriminator 2
 121 0064 FFB2     		uxtb	r7, r7
 122              	.LVL14:
 123              		.loc 1 738 0 discriminator 2
 124 0066 FFF7FEFF 		bl	disk_write
 125              	.LVL15:
 126              		.loc 1 736 0 discriminator 2
 127 006a 012F     		cmp	r7, #1
 128 006c F3D1     		bne	.L17
 129              	.LBE247:
 130              		.loc 1 743 0
 131 006e 002E     		cmp	r6, #0
 132 0070 D0D0     		beq	.L6
 133 0072 D2E7     		b	.L16
 134              	.LVL16:
 135              	.L10:
 136              		.loc 1 732 0
 137 0074 0120     		movs	r0, #1
 138 0076 BDE8F081 		pop	{r4, r5, r6, r7, r8, pc}
 139              		.cfi_endproc
 140              	.LFE13:
 141              		.size	move_window, .-move_window
 142 007a 00BFAFF3 		.section	.text.get_fileinfo,"ax",%progbits
 142      0080
 143              		.align	2
 144              		.p2align 4,,15
 145              		.thumb
 146              		.thumb_func
 147              		.type	get_fileinfo, %function
 148              	get_fileinfo:
 149              	.LFB32:
 150              		.loc 1 1841 0
 151              		.cfi_startproc
 152              		@ args = 0, pretend = 0, frame = 0
 153              		@ frame_needed = 0, uses_anonymous_args = 0
 154              	.LVL17:
 155 0000 F8B5     		push	{r3, r4, r5, r6, r7, lr}
 156              		.cfi_def_cfa_offset 24
 157              		.cfi_offset 3, -24
 158              		.cfi_offset 4, -20
 159              		.cfi_offset 5, -16
 160              		.cfi_offset 6, -12
 161              		.cfi_offset 7, -8
 162              		.cfi_offset 14, -4
 163              		.loc 1 1848 0
 164 0002 0369     		ldr	r3, [r0, #16]
 165              		.loc 1 1841 0
 166 0004 0E46     		mov	r6, r1
 167              		.loc 1 1847 0
 168 0006 01F10905 		add	r5, r1, #9
 169              	.LVL18:
 170              		.loc 1 1848 0
ARM GAS  /var/folders/4k/6h5l9jl178sb4hslwv3xp1mr0000gn/T//ccjvit50.s 			page 4


 171 000a 002B     		cmp	r3, #0
 172 000c 4ED0     		beq	.L19
 173              		.loc 1 1849 0
 174 000e 4469     		ldr	r4, [r0, #20]
 175              	.LVL19:
 176              		.loc 1 1850 0
 177 0010 94F80CC0 		ldrb	ip, [r4, #12]	@ zero_extendqisi2
 178              	.LVL20:
 179              		.loc 1 1855 0
 180 0014 0CF00807 		and	r7, ip, #8
 181 0018 FFB2     		uxtb	r7, r7
 182              		.loc 1 1851 0
 183 001a 0022     		movs	r2, #0
 184              	.LVL21:
 185              	.L23:
 186              		.loc 1 1852 0
 187 001c A35C     		ldrb	r3, [r4, r2]	@ zero_extendqisi2
 188              	.LVL22:
 189              		.loc 1 1853 0
 190 001e 202B     		cmp	r3, #32
 191              		.loc 1 1851 0
 192 0020 02F10102 		add	r2, r2, #1
 193              	.LVL23:
 194              		.loc 1 1853 0
 195 0024 0DD0     		beq	.L20
 196              		.loc 1 1854 0
 197 0026 052B     		cmp	r3, #5
 198 0028 08BF     		it	eq
 199 002a E523     		moveq	r3, #229
 200              	.LVL24:
 201              		.loc 1 1855 0
 202 002c A3F14101 		sub	r1, r3, #65
 203 0030 1FB1     		cbz	r7, .L22
 204              		.loc 1 1855 0 is_stmt 0 discriminator 1
 205 0032 1929     		cmp	r1, #25
 206 0034 9CBF     		itt	ls
 207 0036 2033     		addls	r3, r3, #32
 208              	.LVL25:
 209 0038 DBB2     		uxtbls	r3, r3
 210              	.LVL26:
 211              	.L22:
 212              		.loc 1 1851 0 is_stmt 1
 213 003a 082A     		cmp	r2, #8
 214              		.loc 1 1862 0
 215 003c 05F8013B 		strb	r3, [r5], #1
 216              	.LVL27:
 217              		.loc 1 1851 0
 218 0040 ECD1     		bne	.L23
 219              	.LVL28:
 220              	.L20:
 221              		.loc 1 1864 0
 222 0042 237A     		ldrb	r3, [r4, #8]	@ zero_extendqisi2
 223 0044 202B     		cmp	r3, #32
 224 0046 1AD0     		beq	.L24
 225              	.LVL29:
 226              		.loc 1 1865 0
 227 0048 2946     		mov	r1, r5
ARM GAS  /var/folders/4k/6h5l9jl178sb4hslwv3xp1mr0000gn/T//ccjvit50.s 			page 5


 228 004a 2E23     		movs	r3, #46
 229              		.loc 1 1869 0
 230 004c 0CF0100C 		and	ip, ip, #16
 231              	.LVL30:
 232              		.loc 1 1865 0
 233 0050 01F8043B 		strb	r3, [r1], #4
 234              	.LVL31:
 235              		.loc 1 1869 0
 236 0054 5FFA8CFC 		uxtb	ip, ip
 237              		.loc 1 1865 0
 238 0058 0135     		adds	r5, r5, #1
 239              	.LVL32:
 240 005a E21D     		adds	r2, r4, #7
 241              	.LVL33:
 242              	.L26:
 243              		.loc 1 1867 0
 244 005c 12F8013F 		ldrb	r3, [r2, #1]!	@ zero_extendqisi2
 245              	.LVL34:
 246              		.loc 1 1868 0
 247 0060 202B     		cmp	r3, #32
 248              		.loc 1 1869 0
 249 0062 A3F14107 		sub	r7, r3, #65
 250              		.loc 1 1868 0
 251 0066 0AD0     		beq	.L24
 252              		.loc 1 1869 0
 253 0068 BCF1000F 		cmp	ip, #0
 254 006c 03D0     		beq	.L25
 255              		.loc 1 1869 0 is_stmt 0 discriminator 1
 256 006e 192F     		cmp	r7, #25
 257 0070 9CBF     		itt	ls
 258 0072 2033     		addls	r3, r3, #32
 259 0074 DBB2     		uxtbls	r3, r3
 260              	.LVL35:
 261              	.L25:
 262              		.loc 1 1876 0 is_stmt 1
 263 0076 05F8013B 		strb	r3, [r5], #1
 264              	.LVL36:
 265              		.loc 1 1866 0
 266 007a 8D42     		cmp	r5, r1
 267 007c EED1     		bne	.L26
 268              	.LVL37:
 269              	.L24:
 270              		.loc 1 1879 0
 271 007e E37A     		ldrb	r3, [r4, #11]	@ zero_extendqisi2
 272 0080 3372     		strb	r3, [r6, #8]
 273              		.loc 1 1880 0
 274 0082 A37F     		ldrb	r3, [r4, #30]	@ zero_extendqisi2
 275 0084 E77F     		ldrb	r7, [r4, #31]	@ zero_extendqisi2
 276 0086 217F     		ldrb	r1, [r4, #28]	@ zero_extendqisi2
 277 0088 627F     		ldrb	r2, [r4, #29]	@ zero_extendqisi2
 278 008a 1B04     		lsls	r3, r3, #16
 279 008c 43EA0763 		orr	r3, r3, r7, lsl #24
 280 0090 0B43     		orrs	r3, r3, r1
 281 0092 43EA0223 		orr	r3, r3, r2, lsl #8
 282 0096 3360     		str	r3, [r6]
 283              		.loc 1 1881 0
 284 0098 627E     		ldrb	r2, [r4, #25]	@ zero_extendqisi2
ARM GAS  /var/folders/4k/6h5l9jl178sb4hslwv3xp1mr0000gn/T//ccjvit50.s 			page 6


 285 009a 237E     		ldrb	r3, [r4, #24]	@ zero_extendqisi2
 286 009c 43EA0223 		orr	r3, r3, r2, lsl #8
 287 00a0 B380     		strh	r3, [r6, #4]	@ movhi
 288              		.loc 1 1882 0
 289 00a2 E27D     		ldrb	r2, [r4, #23]	@ zero_extendqisi2
 290 00a4 A37D     		ldrb	r3, [r4, #22]	@ zero_extendqisi2
 291 00a6 43EA0223 		orr	r3, r3, r2, lsl #8
 292 00aa F380     		strh	r3, [r6, #6]	@ movhi
 293              	.LVL38:
 294              	.L19:
 295              		.loc 1 1884 0
 296 00ac 0024     		movs	r4, #0
 297 00ae 2C70     		strb	r4, [r5]
 298              		.loc 1 1887 0
 299 00b0 B569     		ldr	r5, [r6, #24]
 300              	.LVL39:
 301 00b2 35B1     		cbz	r5, .L18
 302              		.loc 1 1887 0 is_stmt 0 discriminator 1
 303 00b4 F369     		ldr	r3, [r6, #28]
 304 00b6 23B1     		cbz	r3, .L18
 305              	.LVL40:
 306              	.LBB248:
 307              		.loc 1 1892 0 is_stmt 1
 308 00b8 0369     		ldr	r3, [r0, #16]
 309 00ba 1BB9     		cbnz	r3, .L28
 310              	.LVL41:
 311              	.L30:
 312              		.loc 1 1891 0
 313 00bc 0024     		movs	r4, #0
 314              	.L29:
 315              	.LVL42:
 316              		.loc 1 1905 0
 317 00be 0023     		movs	r3, #0
 318 00c0 2B55     		strb	r3, [r5, r4]
 319              	.LVL43:
 320              	.L18:
 321 00c2 F8BD     		pop	{r3, r4, r5, r6, r7, pc}
 322              	.LVL44:
 323              	.L28:
 324              		.loc 1 1892 0 discriminator 1
 325 00c4 028C     		ldrh	r2, [r0, #32]
 326 00c6 4FF6FF73 		movw	r3, #65535
 327 00ca 9A42     		cmp	r2, r3
 328 00cc F6D0     		beq	.L30
 329              		.loc 1 1893 0
 330 00ce C769     		ldr	r7, [r0, #28]
 331              	.LVL45:
 332              		.loc 1 1894 0
 333 00d0 3888     		ldrh	r0, [r7]
 334              	.LVL46:
 335 00d2 70B9     		cbnz	r0, .L31
 336 00d4 F2E7     		b	.L30
 337              	.LVL47:
 338              	.L70:
 339              		.loc 1 1901 0
 340 00d6 F369     		ldr	r3, [r6, #28]
 341 00d8 013B     		subs	r3, r3, #1
ARM GAS  /var/folders/4k/6h5l9jl178sb4hslwv3xp1mr0000gn/T//ccjvit50.s 			page 7


 342 00da 9C42     		cmp	r4, r3
 343              		.loc 1 1902 0
 344 00dc 04F10104 		add	r4, r4, #1
 345              	.LVL48:
 346 00e0 05EB0403 		add	r3, r5, r4
 347              		.loc 1 1901 0
 348 00e4 EAD2     		bcs	.L30
 349              		.loc 1 1902 0
 350 00e6 03F8010C 		strb	r0, [r3, #-1]
 351              	.LVL49:
 352              		.loc 1 1894 0
 353 00ea 37F81400 		ldrh	r0, [r7, r4, lsl #1]
 354              	.LVL50:
 355 00ee 0028     		cmp	r0, #0
 356 00f0 E5D0     		beq	.L29
 357              	.LVL51:
 358              	.L31:
 359              		.loc 1 1896 0
 360 00f2 0021     		movs	r1, #0
 361 00f4 FFF7FEFF 		bl	ff_convert
 362              	.LVL52:
 363              		.loc 1 1897 0
 364 00f8 0028     		cmp	r0, #0
 365 00fa ECD1     		bne	.L70
 366 00fc DEE7     		b	.L30
 367              	.LBE248:
 368              		.cfi_endproc
 369              	.LFE32:
 370              		.size	get_fileinfo, .-get_fileinfo
 371 00fe 00BF     		.section	.text.sync,"ax",%progbits
 372              		.align	2
 373              		.p2align 4,,15
 374              		.thumb
 375              		.thumb_func
 376              		.type	sync, %function
 377              	sync:
 378              	.LFB14:
 379              		.loc 1 764 0
 380              		.cfi_startproc
 381              		@ args = 0, pretend = 0, frame = 0
 382              		@ frame_needed = 0, uses_anonymous_args = 0
 383              	.LVL53:
 384 0000 2DE9F84F 		push	{r3, r4, r5, r6, r7, r8, r9, r10, fp, lr}
 385              		.cfi_def_cfa_offset 40
 386              		.cfi_offset 3, -40
 387              		.cfi_offset 4, -36
 388              		.cfi_offset 5, -32
 389              		.cfi_offset 6, -28
 390              		.cfi_offset 7, -24
 391              		.cfi_offset 8, -20
 392              		.cfi_offset 9, -16
 393              		.cfi_offset 10, -12
 394              		.cfi_offset 11, -8
 395              		.cfi_offset 14, -4
 396              		.loc 1 768 0
 397 0004 0021     		movs	r1, #0
 398              		.loc 1 764 0
ARM GAS  /var/folders/4k/6h5l9jl178sb4hslwv3xp1mr0000gn/T//ccjvit50.s 			page 8


 399 0006 0546     		mov	r5, r0
 400              		.loc 1 768 0
 401 0008 FFF7FEFF 		bl	move_window
 402              	.LVL54:
 403 000c 0346     		mov	r3, r0
 404              	.LVL55:
 405              		.loc 1 769 0
 406 000e 50B9     		cbnz	r0, .L72
 407              		.loc 1 771 0
 408 0010 2B78     		ldrb	r3, [r5]	@ zero_extendqisi2
 409 0012 032B     		cmp	r3, #3
 410 0014 0AD0     		beq	.L80
 411              	.LVL56:
 412              	.L73:
 413              		.loc 1 785 0
 414 0016 0021     		movs	r1, #0
 415 0018 6878     		ldrb	r0, [r5, #1]	@ zero_extendqisi2
 416 001a 0A46     		mov	r2, r1
 417 001c FFF7FEFF 		bl	disk_ioctl
 418              	.LVL57:
 419 0020 031C     		adds	r3, r0, #0
 420 0022 18BF     		it	ne
 421 0024 0123     		movne	r3, #1
 422              	.L72:
 423              	.LVL58:
 424              		.loc 1 790 0
 425 0026 1846     		mov	r0, r3
 426 0028 BDE8F88F 		pop	{r3, r4, r5, r6, r7, r8, r9, r10, fp, pc}
 427              	.LVL59:
 428              	.L80:
 429              		.loc 1 771 0 discriminator 1
 430 002c 6B79     		ldrb	r3, [r5, #5]	@ zero_extendqisi2
 431 002e 002B     		cmp	r3, #0
 432 0030 F1D0     		beq	.L73
 433              		.loc 1 774 0
 434 0032 05F13401 		add	r1, r5, #52
 435              	.LVL60:
 436              		.loc 1 772 0
 437 0036 2863     		str	r0, [r5, #48]
 438              	.LBB249:
 439              	.LBB250:
 440              		.loc 1 547 0
 441 0038 0B46     		mov	r3, r1
 442 003a 05F50D72 		add	r2, r5, #564
 443              	.LVL61:
 444              	.L75:
 445              		.loc 1 550 0
 446 003e 03F8010B 		strb	r0, [r3], #1
 447              	.LVL62:
 448              		.loc 1 549 0
 449 0042 9342     		cmp	r3, r2
 450              		.loc 1 550 0
 451 0044 4FF00004 		mov	r4, #0
 452              		.loc 1 549 0
 453 0048 F9D1     		bne	.L75
 454              	.LBE250:
 455              	.LBE249:
ARM GAS  /var/folders/4k/6h5l9jl178sb4hslwv3xp1mr0000gn/T//ccjvit50.s 			page 9


 456              		.loc 1 778 0
 457 004a 6A69     		ldr	r2, [r5, #20]
 458              		.loc 1 779 0
 459 004c 2B69     		ldr	r3, [r5, #16]
 460              	.LVL63:
 461              		.loc 1 778 0
 462 004e 85F81C22 		strb	r2, [r5, #540]
 463 0052 C2F3072B 		ubfx	fp, r2, #8, #8
 464 0056 4FEA124A 		lsr	r10, r2, #16
 465              		.loc 1 779 0
 466 005a 4FEA134C 		lsr	ip, r3, #16
 467 005e 4FEA136E 		lsr	lr, r3, #24
 468              		.loc 1 776 0
 469 0062 5220     		movs	r0, #82
 470              	.LVL64:
 471              		.loc 1 778 0
 472 0064 4FEA1269 		lsr	r9, r2, #24
 473              		.loc 1 779 0
 474 0068 C3F30728 		ubfx	r8, r3, #8, #8
 475              		.loc 1 776 0
 476 006c 6122     		movs	r2, #97
 477              		.loc 1 778 0
 478 006e 85F81DB2 		strb	fp, [r5, #541]
 479 0072 85F81EA2 		strb	r10, [r5, #542]
 480              		.loc 1 776 0
 481 0076 4FF0410B 		mov	fp, #65
 482              		.loc 1 777 0
 483 007a 4FF0720A 		mov	r10, #114
 484              		.loc 1 775 0
 485 007e 5527     		movs	r7, #85
 486 0080 AA26     		movs	r6, #170
 487              		.loc 1 779 0
 488 0082 85F82032 		strb	r3, [r5, #544]
 489              		.loc 1 776 0
 490 0086 85F83400 		strb	r0, [r5, #52]
 491 008a 85F83500 		strb	r0, [r5, #53]
 492 008e 85F83620 		strb	r2, [r5, #54]
 493              		.loc 1 777 0
 494 0092 85F81B22 		strb	r2, [r5, #539]
 495              		.loc 1 778 0
 496 0096 85F81F92 		strb	r9, [r5, #543]
 497              		.loc 1 779 0
 498 009a 85F82182 		strb	r8, [r5, #545]
 499 009e 85F822C2 		strb	ip, [r5, #546]
 500 00a2 85F823E2 		strb	lr, [r5, #547]
 501              		.loc 1 775 0
 502 00a6 85F83272 		strb	r7, [r5, #562]
 503 00aa 85F83362 		strb	r6, [r5, #563]
 504              		.loc 1 776 0
 505 00ae 85F837B0 		strb	fp, [r5, #55]
 506              		.loc 1 777 0
 507 00b2 85F81AB2 		strb	fp, [r5, #538]
 508 00b6 85F818A2 		strb	r10, [r5, #536]
 509 00ba 85F819A2 		strb	r10, [r5, #537]
 510              		.loc 1 781 0
 511 00be 6878     		ldrb	r0, [r5, #1]	@ zero_extendqisi2
 512 00c0 AA69     		ldr	r2, [r5, #24]
ARM GAS  /var/folders/4k/6h5l9jl178sb4hslwv3xp1mr0000gn/T//ccjvit50.s 			page 10


 513 00c2 0123     		movs	r3, #1
 514 00c4 FFF7FEFF 		bl	disk_write
 515              	.LVL65:
 516              		.loc 1 782 0
 517 00c8 6C71     		strb	r4, [r5, #5]
 518 00ca A4E7     		b	.L73
 519              		.cfi_endproc
 520              	.LFE14:
 521              		.size	sync, .-sync
 522 00cc AFF30080 		.section	.text.check_fs,"ax",%progbits
 523              		.align	2
 524              		.p2align 4,,15
 525              		.thumb
 526              		.thumb_func
 527              		.type	check_fs, %function
 528              	check_fs:
 529              	.LFB34:
 530              		.loc 1 1986 0
 531              		.cfi_startproc
 532              		@ args = 0, pretend = 0, frame = 0
 533              		@ frame_needed = 0, uses_anonymous_args = 0
 534              	.LVL66:
 535 0000 70B5     		push	{r4, r5, r6, lr}
 536              		.cfi_def_cfa_offset 16
 537              		.cfi_offset 4, -16
 538              		.cfi_offset 5, -12
 539              		.cfi_offset 6, -8
 540              		.cfi_offset 14, -4
 541              		.loc 1 1986 0
 542 0002 0446     		mov	r4, r0
 543 0004 0A46     		mov	r2, r1
 544              		.loc 1 1987 0
 545 0006 4078     		ldrb	r0, [r0, #1]	@ zero_extendqisi2
 546              	.LVL67:
 547 0008 04F13401 		add	r1, r4, #52
 548              	.LVL68:
 549 000c 0123     		movs	r3, #1
 550 000e FFF7FEFF 		bl	disk_read
 551              	.LVL69:
 552 0012 08B1     		cbz	r0, .L86
 553              		.loc 1 1988 0
 554 0014 0320     		movs	r0, #3
 555 0016 70BD     		pop	{r4, r5, r6, pc}
 556              	.LVL70:
 557              	.L86:
 558              		.loc 1 1989 0
 559 0018 94F83312 		ldrb	r1, [r4, #563]	@ zero_extendqisi2
 560 001c 94F83222 		ldrb	r2, [r4, #562]	@ zero_extendqisi2
 561 0020 174B     		ldr	r3, .L88
 562 0022 42EA0122 		orr	r2, r2, r1, lsl #8
 563 0026 12B2     		sxth	r2, r2
 564 0028 9A42     		cmp	r2, r3
 565 002a 01D0     		beq	.L87
 566              		.loc 1 1990 0
 567 002c 0220     		movs	r0, #2
 568              	.L82:
 569              		.loc 1 1998 0
ARM GAS  /var/folders/4k/6h5l9jl178sb4hslwv3xp1mr0000gn/T//ccjvit50.s 			page 11


 570 002e 70BD     		pop	{r4, r5, r6, pc}
 571              	.LVL71:
 572              	.L87:
 573              		.loc 1 1992 0
 574 0030 94F86C20 		ldrb	r2, [r4, #108]	@ zero_extendqisi2
 575 0034 94F86D60 		ldrb	r6, [r4, #109]	@ zero_extendqisi2
 576 0038 94F86A50 		ldrb	r5, [r4, #106]	@ zero_extendqisi2
 577 003c 94F86B10 		ldrb	r1, [r4, #107]	@ zero_extendqisi2
 578 0040 104B     		ldr	r3, .L88+4
 579 0042 1204     		lsls	r2, r2, #16
 580 0044 42EA0662 		orr	r2, r2, r6, lsl #24
 581 0048 2A43     		orrs	r2, r2, r5
 582 004a 42EA0122 		orr	r2, r2, r1, lsl #8
 583 004e 22F07F42 		bic	r2, r2, #-16777216
 584 0052 9A42     		cmp	r2, r3
 585 0054 EBD0     		beq	.L82
 586              	.LVL72:
 587              	.LBB253:
 588              	.LBB254:
 589              		.loc 1 1994 0
 590 0056 94F88820 		ldrb	r2, [r4, #136]	@ zero_extendqisi2
 591 005a 94F88950 		ldrb	r5, [r4, #137]	@ zero_extendqisi2
 592 005e 94F88610 		ldrb	r1, [r4, #134]	@ zero_extendqisi2
 593 0062 94F88700 		ldrb	r0, [r4, #135]	@ zero_extendqisi2
 594 0066 1204     		lsls	r2, r2, #16
 595 0068 42EA0562 		orr	r2, r2, r5, lsl #24
 596 006c 0A43     		orrs	r2, r2, r1
 597 006e 42EA0020 		orr	r0, r2, r0, lsl #8
 598 0072 20F07F40 		bic	r0, r0, #-16777216
 599              		.loc 1 1995 0
 600 0076 C01A     		subs	r0, r0, r3
 601 0078 18BF     		it	ne
 602 007a 0120     		movne	r0, #1
 603 007c 70BD     		pop	{r4, r5, r6, pc}
 604              	.LVL73:
 605              	.L89:
 606 007e 00BF     		.align	2
 607              	.L88:
 608 0080 55AAFFFF 		.word	-21931
 609 0084 46415400 		.word	5521734
 610              	.LBE254:
 611              	.LBE253:
 612              		.cfi_endproc
 613              	.LFE34:
 614              		.size	check_fs, .-check_fs
 615 0088 AFF30080 		.section	.text.chk_mounted,"ax",%progbits
 615      AFF30080 
 616              		.align	2
 617              		.p2align 4,,15
 618              		.thumb
 619              		.thumb_func
 620              		.type	chk_mounted, %function
 621              	chk_mounted:
 622              	.LFB35:
 623              		.loc 1 2013 0
 624              		.cfi_startproc
 625              		@ args = 0, pretend = 0, frame = 0
ARM GAS  /var/folders/4k/6h5l9jl178sb4hslwv3xp1mr0000gn/T//ccjvit50.s 			page 12


 626              		@ frame_needed = 0, uses_anonymous_args = 0
 627              	.LVL74:
 628 0000 2DE9F041 		push	{r4, r5, r6, r7, r8, lr}
 629              		.cfi_def_cfa_offset 24
 630              		.cfi_offset 4, -24
 631              		.cfi_offset 5, -20
 632              		.cfi_offset 6, -16
 633              		.cfi_offset 7, -12
 634              		.cfi_offset 8, -8
 635              		.cfi_offset 14, -4
 636              		.loc 1 2019 0
 637 0004 0368     		ldr	r3, [r0]
 638              	.LVL75:
 639              		.loc 1 2023 0
 640 0006 1C78     		ldrb	r4, [r3]	@ zero_extendqisi2
 641 0008 303C     		subs	r4, r4, #48
 642              	.LVL76:
 643              		.loc 1 2024 0
 644 000a 092C     		cmp	r4, #9
 645              		.loc 1 2013 0
 646 000c 1546     		mov	r5, r2
 647              		.loc 1 2024 0
 648 000e 02D8     		bhi	.L94
 649              		.loc 1 2024 0 is_stmt 0 discriminator 1
 650 0010 5A78     		ldrb	r2, [r3, #1]	@ zero_extendqisi2
 651              	.LVL77:
 652 0012 3A2A     		cmp	r2, #58
 653 0014 0DD0     		beq	.L143
 654              	.L94:
 655              	.LVL78:
 656              		.loc 1 2037 0 is_stmt 1
 657 0016 BA4B     		ldr	r3, .L151
 658              	.LVL79:
 659 0018 1C68     		ldr	r4, [r3]
 660              	.LVL80:
 661 001a 0C60     		str	r4, [r1]
 662              		.loc 1 2038 0
 663 001c 34B1     		cbz	r4, .L144
 664              	.LVL81:
 665              	.LBB255:
 666              	.LBB256:
 667              		.loc 1 582 0
 668 001e E068     		ldr	r0, [r4, #12]
 669              	.LVL82:
 670 0020 FFF7FEFF 		bl	ff_req_grant
 671              	.LVL83:
 672              	.LBE256:
 673              	.LBE255:
 674              		.loc 1 2040 0
 675 0024 60B9     		cbnz	r0, .L145
 676 0026 0F20     		movs	r0, #15
 677 0028 BDE8F081 		pop	{r4, r5, r6, r7, r8, pc}
 678              	.LVL84:
 679              	.L144:
 680              		.loc 1 2038 0
 681 002c 0C20     		movs	r0, #12
 682              	.LVL85:
ARM GAS  /var/folders/4k/6h5l9jl178sb4hslwv3xp1mr0000gn/T//ccjvit50.s 			page 13


 683 002e BDE8F081 		pop	{r4, r5, r6, r7, r8, pc}
 684              	.LVL86:
 685              	.L143:
 686              		.loc 1 2025 0
 687 0032 0233     		adds	r3, r3, #2
 688              	.LVL87:
 689 0034 0360     		str	r3, [r0]
 690              		.loc 1 2035 0
 691 0036 002C     		cmp	r4, #0
 692 0038 EDD0     		beq	.L94
 693              		.loc 1 2036 0
 694 003a 0B20     		movs	r0, #11
 695              	.LVL88:
 696 003c BDE8F081 		pop	{r4, r5, r6, r7, r8, pc}
 697              	.LVL89:
 698              	.L145:
 699              		.loc 1 2042 0
 700 0040 2378     		ldrb	r3, [r4]	@ zero_extendqisi2
 701 0042 63B1     		cbz	r3, .L95
 702              		.loc 1 2043 0
 703 0044 6078     		ldrb	r0, [r4, #1]	@ zero_extendqisi2
 704 0046 FFF7FEFF 		bl	disk_status
 705              	.LVL90:
 706              		.loc 1 2044 0
 707 004a C707     		lsls	r7, r0, #31
 708 004c 07D4     		bmi	.L95
 709              		.loc 1 2045 0
 710 004e 25B3     		cbz	r5, .L114
 711              		.loc 1 2046 0 discriminator 1
 712 0050 10F0040F 		tst	r0, #4
 713 0054 0CBF     		ite	eq
 714 0056 0020     		moveq	r0, #0
 715 0058 0A20     		movne	r0, #10
 716              	.LVL91:
 717 005a BDE8F081 		pop	{r4, r5, r6, r7, r8, pc}
 718              	.LVL92:
 719              	.L95:
 720              		.loc 1 2054 0
 721 005e 0020     		movs	r0, #0
 722 0060 2070     		strb	r0, [r4]
 723              		.loc 1 2055 0
 724 0062 6070     		strb	r0, [r4, #1]
 725              		.loc 1 2056 0
 726 0064 FFF7FEFF 		bl	disk_initialize
 727              	.LVL93:
 728              		.loc 1 2057 0
 729 0068 C607     		lsls	r6, r0, #31
 730 006a 02D5     		bpl	.L146
 731              		.loc 1 2058 0
 732 006c 0320     		movs	r0, #3
 733              	.LVL94:
 734 006e BDE8F081 		pop	{r4, r5, r6, r7, r8, pc}
 735              	.LVL95:
 736              	.L146:
 737              		.loc 1 2059 0
 738 0072 25B1     		cbz	r5, .L96
 739              		.loc 1 2059 0 is_stmt 0 discriminator 1
ARM GAS  /var/folders/4k/6h5l9jl178sb4hslwv3xp1mr0000gn/T//ccjvit50.s 			page 14


 740 0074 4507     		lsls	r5, r0, #29
 741 0076 02D5     		bpl	.L96
 742              		.loc 1 2060 0 is_stmt 1
 743 0078 0A20     		movs	r0, #10
 744              	.LVL96:
 745 007a BDE8F081 		pop	{r4, r5, r6, r7, r8, pc}
 746              	.LVL97:
 747              	.L96:
 748              		.loc 1 2066 0
 749 007e 2046     		mov	r0, r4
 750              	.LVL98:
 751 0080 0021     		movs	r1, #0
 752 0082 FFF7FEFF 		bl	check_fs
 753              	.LVL99:
 754              		.loc 1 2068 0
 755 0086 0128     		cmp	r0, #1
 756 0088 0AD0     		beq	.L147
 757              		.loc 1 2066 0
 758 008a 0025     		movs	r5, #0
 759              	.LVL100:
 760              	.L97:
 761              		.loc 1 2078 0
 762 008c 0328     		cmp	r0, #3
 763 008e 00F0B580 		beq	.L119
 764              		.loc 1 2079 0
 765 0092 E0B1     		cbz	r0, .L148
 766              	.LVL101:
 767              	.L99:
 768 0094 0D20     		movs	r0, #13
 769 0096 BDE8F081 		pop	{r4, r5, r6, r7, r8, pc}
 770              	.LVL102:
 771              	.L114:
 772              		.loc 1 2047 0
 773 009a 2846     		mov	r0, r5
 774              	.LVL103:
 775 009c BDE8F081 		pop	{r4, r5, r6, r7, r8, pc}
 776              	.LVL104:
 777              	.L147:
 778              		.loc 1 2073 0
 779 00a0 94F8F631 		ldrb	r3, [r4, #502]	@ zero_extendqisi2
 780 00a4 002B     		cmp	r3, #0
 781 00a6 F5D0     		beq	.L99
 782              		.loc 1 2074 0
 783 00a8 94F8FC21 		ldrb	r2, [r4, #508]	@ zero_extendqisi2
 784 00ac 94F8FD11 		ldrb	r1, [r4, #509]	@ zero_extendqisi2
 785 00b0 94F8FA31 		ldrb	r3, [r4, #506]	@ zero_extendqisi2
 786 00b4 94F8FB51 		ldrb	r5, [r4, #507]	@ zero_extendqisi2
 787 00b8 1204     		lsls	r2, r2, #16
 788 00ba 42EA0162 		orr	r2, r2, r1, lsl #24
 789 00be 1343     		orrs	r3, r3, r2
 790 00c0 43EA0525 		orr	r5, r3, r5, lsl #8
 791              	.LVL105:
 792              		.loc 1 2075 0
 793 00c4 2946     		mov	r1, r5
 794 00c6 2046     		mov	r0, r4
 795              	.LVL106:
 796 00c8 FFF7FEFF 		bl	check_fs
ARM GAS  /var/folders/4k/6h5l9jl178sb4hslwv3xp1mr0000gn/T//ccjvit50.s 			page 15


 797              	.LVL107:
 798 00cc DEE7     		b	.L97
 799              	.LVL108:
 800              	.L148:
 801              		.loc 1 2083 0
 802 00ce 94F84020 		ldrb	r2, [r4, #64]	@ zero_extendqisi2
 803 00d2 94F83F30 		ldrb	r3, [r4, #63]	@ zero_extendqisi2
 804 00d6 43EA0223 		orr	r3, r3, r2, lsl #8
 805 00da B3F5007F 		cmp	r3, #512
 806 00de D9D1     		bne	.L99
 807              		.loc 1 2086 0
 808 00e0 94F84B10 		ldrb	r1, [r4, #75]	@ zero_extendqisi2
 809 00e4 94F84A30 		ldrb	r3, [r4, #74]	@ zero_extendqisi2
 810              	.LVL109:
 811              		.loc 1 2087 0
 812 00e8 53EA0121 		orrs	r1, r3, r1, lsl #8
 813              	.LVL110:
 814 00ec 0DD1     		bne	.L100
 815              		.loc 1 2087 0 is_stmt 0 discriminator 1
 816 00ee 94F85A20 		ldrb	r2, [r4, #90]	@ zero_extendqisi2
 817 00f2 94F85B00 		ldrb	r0, [r4, #91]	@ zero_extendqisi2
 818              	.LVL111:
 819 00f6 94F85830 		ldrb	r3, [r4, #88]	@ zero_extendqisi2
 820 00fa 94F85910 		ldrb	r1, [r4, #89]	@ zero_extendqisi2
 821              	.LVL112:
 822 00fe 1204     		lsls	r2, r2, #16
 823 0100 42EA0062 		orr	r2, r2, r0, lsl #24
 824 0104 1343     		orrs	r3, r3, r2
 825 0106 43EA0121 		orr	r1, r3, r1, lsl #8
 826              	.LVL113:
 827              	.L100:
 828              		.loc 1 2090 0 is_stmt 1
 829 010a 94F84420 		ldrb	r2, [r4, #68]	@ zero_extendqisi2
 830              	.LVL114:
 831              		.loc 1 2088 0
 832 010e 2162     		str	r1, [r4, #32]
 833              		.loc 1 2091 0
 834 0110 531E     		subs	r3, r2, #1
 835 0112 012B     		cmp	r3, #1
 836              		.loc 1 2090 0
 837 0114 E270     		strb	r2, [r4, #3]
 838              		.loc 1 2091 0
 839 0116 BDD8     		bhi	.L99
 840              		.loc 1 2094 0
 841 0118 94F84130 		ldrb	r3, [r4, #65]	@ zero_extendqisi2
 842 011c A370     		strb	r3, [r4, #2]
 843              		.loc 1 2092 0
 844 011e 02FB01FC 		mul	ip, r2, r1
 845              	.LVL115:
 846              		.loc 1 2095 0
 847 0122 002B     		cmp	r3, #0
 848 0124 B6D0     		beq	.L99
 849              		.loc 1 2095 0 is_stmt 0 discriminator 2
 850 0126 5A1E     		subs	r2, r3, #1
 851 0128 1A42     		tst	r2, r3
 852 012a B3D1     		bne	.L99
 853              		.loc 1 2097 0 is_stmt 1
ARM GAS  /var/folders/4k/6h5l9jl178sb4hslwv3xp1mr0000gn/T//ccjvit50.s 			page 16


 854 012c 94F84600 		ldrb	r0, [r4, #70]	@ zero_extendqisi2
 855 0130 94F84520 		ldrb	r2, [r4, #69]	@ zero_extendqisi2
 856 0134 42EA0022 		orr	r2, r2, r0, lsl #8
 857              		.loc 1 2098 0
 858 0138 1007     		lsls	r0, r2, #28
 859              		.loc 1 2097 0
 860 013a 2281     		strh	r2, [r4, #8]	@ movhi
 861              		.loc 1 2098 0
 862 013c AAD1     		bne	.L99
 863              		.loc 1 2100 0
 864 013e 94F84860 		ldrb	r6, [r4, #72]	@ zero_extendqisi2
 865 0142 94F84700 		ldrb	r0, [r4, #71]	@ zero_extendqisi2
 866              	.LVL116:
 867              		.loc 1 2101 0
 868 0146 50EA0626 		orrs	r6, r0, r6, lsl #8
 869              	.LVL117:
 870 014a 0DD1     		bne	.L101
 871              		.loc 1 2101 0 is_stmt 0 discriminator 1
 872 014c 94F85670 		ldrb	r7, [r4, #86]	@ zero_extendqisi2
 873 0150 94F85780 		ldrb	r8, [r4, #87]	@ zero_extendqisi2
 874 0154 94F85400 		ldrb	r0, [r4, #84]	@ zero_extendqisi2
 875 0158 94F85560 		ldrb	r6, [r4, #85]	@ zero_extendqisi2
 876              	.LVL118:
 877 015c 3F04     		lsls	r7, r7, #16
 878 015e 47EA0867 		orr	r7, r7, r8, lsl #24
 879 0162 3843     		orrs	r0, r0, r7
 880 0164 40EA0626 		orr	r6, r0, r6, lsl #8
 881              	.LVL119:
 882              	.L101:
 883              		.loc 1 2103 0 is_stmt 1
 884 0168 94F84370 		ldrb	r7, [r4, #67]	@ zero_extendqisi2
 885 016c 94F84200 		ldrb	r0, [r4, #66]	@ zero_extendqisi2
 886              	.LVL120:
 887              		.loc 1 2104 0
 888 0170 50EA0727 		orrs	r7, r0, r7, lsl #8
 889              	.LVL121:
 890 0174 8ED0     		beq	.L99
 891              		.loc 1 2107 0
 892 0176 07EB1210 		add	r0, r7, r2, lsr #4
 893              	.LVL122:
 894 017a 6044     		add	r0, r0, ip
 895              	.LVL123:
 896              		.loc 1 2108 0
 897 017c 8642     		cmp	r6, r0
 898 017e 89D3     		bcc	.L99
 899              		.loc 1 2109 0
 900 0180 361A     		subs	r6, r6, r0
 901              	.LVL124:
 902 0182 B6FBF3F3 		udiv	r3, r6, r3
 903              	.LVL125:
 904              		.loc 1 2110 0
 905 0186 002B     		cmp	r3, #0
 906 0188 84D0     		beq	.L99
 907              	.LVL126:
 908              		.loc 1 2112 0
 909 018a 40F6F576 		movw	r6, #4085
 910 018e B342     		cmp	r3, r6
ARM GAS  /var/folders/4k/6h5l9jl178sb4hslwv3xp1mr0000gn/T//ccjvit50.s 			page 17


 911 0190 40F2B480 		bls	.L120
 912              	.LVL127:
 913              		.loc 1 2113 0
 914 0194 4FF6F576 		movw	r6, #65525
 915 0198 B342     		cmp	r3, r6
 916 019a 00F29480 		bhi	.L103
 917              		.loc 1 2112 0
 918 019e 0226     		movs	r6, #2
 919              	.LVL128:
 920              	.L102:
 921              		.loc 1 2116 0
 922 01a0 0233     		adds	r3, r3, #2
 923              	.LVL129:
 924              		.loc 1 2117 0
 925 01a2 2844     		add	r0, r0, r5
 926              	.LVL130:
 927              		.loc 1 2118 0
 928 01a4 2F44     		add	r7, r7, r5
 929              	.LVL131:
 930              		.loc 1 2116 0
 931 01a6 E361     		str	r3, [r4, #28]
 932              		.loc 1 2117 0
 933 01a8 E062     		str	r0, [r4, #44]
 934              		.loc 1 2118 0
 935 01aa 6762     		str	r7, [r4, #36]
 936              		.loc 1 2124 0
 937 01ac 002A     		cmp	r2, #0
 938 01ae 3FF471AF 		beq	.L99
 939              		.loc 1 2125 0
 940 01b2 6744     		add	r7, r7, ip
 941              		.loc 1 2127 0
 942 01b4 022E     		cmp	r6, #2
 943              		.loc 1 2125 0
 944 01b6 A762     		str	r7, [r4, #40]
 945              		.loc 1 2127 0
 946 01b8 00F08380 		beq	.L149
 947              		.loc 1 2127 0 is_stmt 0 discriminator 2
 948 01bc 03EB4302 		add	r2, r3, r3, lsl #1
 949              	.LVL132:
 950 01c0 03F00103 		and	r3, r3, #1
 951              	.LVL133:
 952 01c4 03EB5203 		add	r3, r3, r2, lsr #1
 953 01c8 0126     		movs	r6, #1
 954              	.LVL134:
 955              	.L104:
 956              		.loc 1 2129 0 is_stmt 1
 957 01ca 03F2FF13 		addw	r3, r3, #511
 958              	.LVL135:
 959 01ce B1EB532F 		cmp	r1, r3, lsr #9
 960 01d2 FFF45FAF 		bcc	.L99
 961              		.loc 1 2134 0
 962 01d6 4FF0FF32 		mov	r2, #-1
 963              		.loc 1 2135 0
 964 01da 0023     		movs	r3, #0
 965              	.LVL136:
 966              		.loc 1 2138 0
 967 01dc 032E     		cmp	r6, #3
ARM GAS  /var/folders/4k/6h5l9jl178sb4hslwv3xp1mr0000gn/T//ccjvit50.s 			page 18


 968              		.loc 1 2134 0
 969 01de 6261     		str	r2, [r4, #20]
 970              		.loc 1 2135 0
 971 01e0 2361     		str	r3, [r4, #16]
 972              		.loc 1 2138 0
 973 01e2 0ED0     		beq	.L150
 974              	.LVL137:
 975              	.L107:
 976              		.loc 1 2151 0
 977 01e4 474A     		ldr	r2, .L151+4
 978              		.loc 1 2150 0
 979 01e6 2670     		strb	r6, [r4]
 980              		.loc 1 2151 0
 981 01e8 1388     		ldrh	r3, [r2]
 982              		.loc 1 2152 0
 983 01ea 0020     		movs	r0, #0
 984              		.loc 1 2151 0
 985 01ec 0133     		adds	r3, r3, #1
 986 01ee 9BB2     		uxth	r3, r3
 987              		.loc 1 2153 0
 988 01f0 2071     		strb	r0, [r4, #4]
 989              		.loc 1 2151 0
 990 01f2 1380     		strh	r3, [r2]	@ movhi
 991 01f4 E380     		strh	r3, [r4, #6]	@ movhi
 992              		.loc 1 2152 0
 993 01f6 2063     		str	r0, [r4, #48]
 994              		.loc 1 2161 0
 995 01f8 BDE8F081 		pop	{r4, r5, r6, r7, r8, pc}
 996              	.LVL138:
 997              	.L119:
 998              		.loc 1 2078 0
 999 01fc 0120     		movs	r0, #1
 1000              	.LVL139:
 1001 01fe BDE8F081 		pop	{r4, r5, r6, r7, r8, pc}
 1002              	.LVL140:
 1003              	.L150:
 1004              		.loc 1 2140 0
 1005 0202 94F86510 		ldrb	r1, [r4, #101]	@ zero_extendqisi2
 1006 0206 94F86420 		ldrb	r2, [r4, #100]	@ zero_extendqisi2
 1007              		.loc 1 2139 0
 1008 020a 6371     		strb	r3, [r4, #5]
 1009              		.loc 1 2140 0
 1010 020c 42EA0122 		orr	r2, r2, r1, lsl #8
 1011 0210 2A44     		add	r2, r2, r5
 1012 0212 A261     		str	r2, [r4, #24]
 1013              		.loc 1 2141 0
 1014 0214 6078     		ldrb	r0, [r4, #1]	@ zero_extendqisi2
 1015 0216 04F13401 		add	r1, r4, #52
 1016 021a 0123     		movs	r3, #1
 1017 021c FFF7FEFF 		bl	disk_read
 1018              	.LVL141:
 1019 0220 0028     		cmp	r0, #0
 1020 0222 DFD1     		bne	.L107
 1021              		.loc 1 2142 0 discriminator 1
 1022 0224 94F83312 		ldrb	r1, [r4, #563]	@ zero_extendqisi2
 1023 0228 94F83222 		ldrb	r2, [r4, #562]	@ zero_extendqisi2
 1024              		.loc 1 2141 0 discriminator 1
ARM GAS  /var/folders/4k/6h5l9jl178sb4hslwv3xp1mr0000gn/T//ccjvit50.s 			page 19


 1025 022c 364B     		ldr	r3, .L151+8
 1026              		.loc 1 2142 0 discriminator 1
 1027 022e 42EA0122 		orr	r2, r2, r1, lsl #8
 1028              		.loc 1 2141 0 discriminator 1
 1029 0232 12B2     		sxth	r2, r2
 1030 0234 9A42     		cmp	r2, r3
 1031 0236 D5D1     		bne	.L107
 1032              		.loc 1 2143 0
 1033 0238 94F83600 		ldrb	r0, [r4, #54]	@ zero_extendqisi2
 1034 023c 94F83750 		ldrb	r5, [r4, #55]	@ zero_extendqisi2
 1035              	.LVL142:
 1036 0240 94F83420 		ldrb	r2, [r4, #52]	@ zero_extendqisi2
 1037 0244 94F83510 		ldrb	r1, [r4, #53]	@ zero_extendqisi2
 1038              		.loc 1 2142 0
 1039 0248 304B     		ldr	r3, .L151+12
 1040              		.loc 1 2143 0
 1041 024a 0004     		lsls	r0, r0, #16
 1042 024c 40EA0560 		orr	r0, r0, r5, lsl #24
 1043 0250 0243     		orrs	r2, r2, r0
 1044 0252 42EA0122 		orr	r2, r2, r1, lsl #8
 1045              		.loc 1 2142 0
 1046 0256 9A42     		cmp	r2, r3
 1047 0258 C4D1     		bne	.L107
 1048              		.loc 1 2144 0
 1049 025a 94F81A02 		ldrb	r0, [r4, #538]	@ zero_extendqisi2
 1050 025e 94F81B52 		ldrb	r5, [r4, #539]	@ zero_extendqisi2
 1051 0262 94F81822 		ldrb	r2, [r4, #536]	@ zero_extendqisi2
 1052 0266 94F81912 		ldrb	r1, [r4, #537]	@ zero_extendqisi2
 1053 026a 0004     		lsls	r0, r0, #16
 1054              		.loc 1 2143 0
 1055 026c 03F1FF53 		add	r3, r3, #534773760
 1056              		.loc 1 2144 0
 1057 0270 40EA0560 		orr	r0, r0, r5, lsl #24
 1058              		.loc 1 2143 0
 1059 0274 03F50053 		add	r3, r3, #8192
 1060              		.loc 1 2144 0
 1061 0278 0243     		orrs	r2, r2, r0
 1062              		.loc 1 2143 0
 1063 027a 2033     		adds	r3, r3, #32
 1064              		.loc 1 2144 0
 1065 027c 42EA0122 		orr	r2, r2, r1, lsl #8
 1066              		.loc 1 2143 0
 1067 0280 9A42     		cmp	r2, r3
 1068 0282 AFD1     		bne	.L107
 1069              		.loc 1 2145 0
 1070 0284 94F82272 		ldrb	r7, [r4, #546]	@ zero_extendqisi2
 1071              		.loc 1 2146 0
 1072 0288 94F81E52 		ldrb	r5, [r4, #542]	@ zero_extendqisi2
 1073              		.loc 1 2145 0
 1074 028c 94F82382 		ldrb	r8, [r4, #547]	@ zero_extendqisi2
 1075              		.loc 1 2146 0
 1076 0290 94F81FC2 		ldrb	ip, [r4, #543]	@ zero_extendqisi2
 1077              		.loc 1 2145 0
 1078 0294 94F82022 		ldrb	r2, [r4, #544]	@ zero_extendqisi2
 1079              		.loc 1 2146 0
 1080 0298 94F81C32 		ldrb	r3, [r4, #540]	@ zero_extendqisi2
 1081              		.loc 1 2145 0
ARM GAS  /var/folders/4k/6h5l9jl178sb4hslwv3xp1mr0000gn/T//ccjvit50.s 			page 20


 1082 029c 94F82102 		ldrb	r0, [r4, #545]	@ zero_extendqisi2
 1083              		.loc 1 2146 0
 1084 02a0 94F81D12 		ldrb	r1, [r4, #541]	@ zero_extendqisi2
 1085              		.loc 1 2145 0
 1086 02a4 3F04     		lsls	r7, r7, #16
 1087              		.loc 1 2146 0
 1088 02a6 2D04     		lsls	r5, r5, #16
 1089              		.loc 1 2145 0
 1090 02a8 47EA0867 		orr	r7, r7, r8, lsl #24
 1091              		.loc 1 2146 0
 1092 02ac 45EA0C65 		orr	r5, r5, ip, lsl #24
 1093              		.loc 1 2145 0
 1094 02b0 3A43     		orrs	r2, r2, r7
 1095              		.loc 1 2146 0
 1096 02b2 2B43     		orrs	r3, r3, r5
 1097              		.loc 1 2145 0
 1098 02b4 42EA0022 		orr	r2, r2, r0, lsl #8
 1099              		.loc 1 2146 0
 1100 02b8 43EA0123 		orr	r3, r3, r1, lsl #8
 1101              		.loc 1 2145 0
 1102 02bc 2261     		str	r2, [r4, #16]
 1103              		.loc 1 2146 0
 1104 02be 6361     		str	r3, [r4, #20]
 1105 02c0 90E7     		b	.L107
 1106              	.LVL143:
 1107              	.L149:
 1108              		.loc 1 2127 0 discriminator 1
 1109 02c2 5B00     		lsls	r3, r3, #1
 1110              	.LVL144:
 1111 02c4 81E7     		b	.L104
 1112              	.LVL145:
 1113              	.L103:
 1114              		.loc 1 2116 0
 1115 02c6 0233     		adds	r3, r3, #2
 1116              	.LVL146:
 1117              		.loc 1 2117 0
 1118 02c8 2844     		add	r0, r0, r5
 1119              	.LVL147:
 1120              		.loc 1 2118 0
 1121 02ca 2F44     		add	r7, r7, r5
 1122              	.LVL148:
 1123              		.loc 1 2116 0
 1124 02cc E361     		str	r3, [r4, #28]
 1125              		.loc 1 2117 0
 1126 02ce E062     		str	r0, [r4, #44]
 1127              		.loc 1 2118 0
 1128 02d0 6762     		str	r7, [r4, #36]
 1129              		.loc 1 2120 0
 1130 02d2 002A     		cmp	r2, #0
 1131 02d4 7FF4DEAE 		bne	.L99
 1132              		.loc 1 2121 0
 1133 02d8 94F86260 		ldrb	r6, [r4, #98]	@ zero_extendqisi2
 1134 02dc 94F86370 		ldrb	r7, [r4, #99]	@ zero_extendqisi2
 1135 02e0 94F86020 		ldrb	r2, [r4, #96]	@ zero_extendqisi2
 1136              	.LVL149:
 1137 02e4 94F86100 		ldrb	r0, [r4, #97]	@ zero_extendqisi2
 1138 02e8 3604     		lsls	r6, r6, #16
ARM GAS  /var/folders/4k/6h5l9jl178sb4hslwv3xp1mr0000gn/T//ccjvit50.s 			page 21


 1139 02ea 46EA0766 		orr	r6, r6, r7, lsl #24
 1140 02ee 3243     		orrs	r2, r2, r6
 1141 02f0 42EA0022 		orr	r2, r2, r0, lsl #8
 1142              		.loc 1 2122 0
 1143 02f4 9B00     		lsls	r3, r3, #2
 1144              	.LVL150:
 1145              		.loc 1 2121 0
 1146 02f6 A262     		str	r2, [r4, #40]
 1147              		.loc 1 2113 0
 1148 02f8 0326     		movs	r6, #3
 1149 02fa 66E7     		b	.L104
 1150              	.LVL151:
 1151              	.L120:
 1152              		.loc 1 2111 0
 1153 02fc 0126     		movs	r6, #1
 1154 02fe 4FE7     		b	.L102
 1155              	.L152:
 1156              		.align	2
 1157              	.L151:
 1158 0300 00000000 		.word	.LANCHOR0
 1159 0304 00000000 		.word	.LANCHOR1
 1160 0308 55AAFFFF 		.word	-21931
 1161 030c 52526141 		.word	1096897106
 1162              		.cfi_endproc
 1163              	.LFE35:
 1164              		.size	chk_mounted, .-chk_mounted
 1165              		.section	.text.validate,"ax",%progbits
 1166              		.align	2
 1167              		.p2align 4,,15
 1168              		.thumb
 1169              		.thumb_func
 1170              		.type	validate, %function
 1171              	validate:
 1172              	.LFB36:
 1173              		.loc 1 2176 0
 1174              		.cfi_startproc
 1175              		@ args = 0, pretend = 0, frame = 0
 1176              		@ frame_needed = 0, uses_anonymous_args = 0
 1177              	.LVL152:
 1178 0000 10B5     		push	{r4, lr}
 1179              		.cfi_def_cfa_offset 8
 1180              		.cfi_offset 4, -8
 1181              		.cfi_offset 14, -4
 1182              		.loc 1 2177 0
 1183 0002 0446     		mov	r4, r0
 1184 0004 08B1     		cbz	r0, .L158
 1185              		.loc 1 2177 0 is_stmt 0 discriminator 1
 1186 0006 0378     		ldrb	r3, [r0]	@ zero_extendqisi2
 1187 0008 0BB9     		cbnz	r3, .L161
 1188              	.L158:
 1189              		.loc 1 2178 0 is_stmt 1
 1190 000a 0920     		movs	r0, #9
 1191              	.LVL153:
 1192 000c 10BD     		pop	{r4, pc}
 1193              	.LVL154:
 1194              	.L161:
 1195              		.loc 1 2177 0 discriminator 1
ARM GAS  /var/folders/4k/6h5l9jl178sb4hslwv3xp1mr0000gn/T//ccjvit50.s 			page 22


 1196 000e C388     		ldrh	r3, [r0, #6]
 1197 0010 8B42     		cmp	r3, r1
 1198 0012 FAD1     		bne	.L158
 1199              	.LVL155:
 1200              	.LBB263:
 1201              	.LBB264:
 1202              		.loc 1 582 0
 1203 0014 C068     		ldr	r0, [r0, #12]
 1204              	.LVL156:
 1205 0016 FFF7FEFF 		bl	ff_req_grant
 1206              	.LVL157:
 1207              	.LBE264:
 1208              	.LBE263:
 1209              		.loc 1 2180 0
 1210 001a 08B9     		cbnz	r0, .L162
 1211 001c 0F20     		movs	r0, #15
 1212              		.loc 1 2186 0
 1213 001e 10BD     		pop	{r4, pc}
 1214              	.LVL158:
 1215              	.L162:
 1216              	.LBB265:
 1217              	.LBB266:
 1218              		.loc 1 2182 0
 1219 0020 6078     		ldrb	r0, [r4, #1]	@ zero_extendqisi2
 1220 0022 FFF7FEFF 		bl	disk_status
 1221              	.LVL159:
 1222 0026 10F0010F 		tst	r0, #1
 1223              		.loc 1 2183 0
 1224 002a 0CBF     		ite	eq
 1225 002c 0020     		moveq	r0, #0
 1226 002e 0320     		movne	r0, #3
 1227 0030 10BD     		pop	{r4, pc}
 1228              	.LBE266:
 1229              	.LBE265:
 1230              		.cfi_endproc
 1231              	.LFE36:
 1232              		.size	validate, .-validate
 1233 0032 00BFAFF3 		.section	.text.unlock_fs.isra.4.part.5,"ax",%progbits
 1233      0080AFF3 
 1233      0080AFF3 
 1233      0080
 1234              		.align	2
 1235              		.p2align 4,,15
 1236              		.thumb
 1237              		.thumb_func
 1238              		.type	unlock_fs.isra.4.part.5, %function
 1239              	unlock_fs.isra.4.part.5:
 1240              	.LFB63:
 1241              		.loc 1 587 0
 1242              		.cfi_startproc
 1243              		@ args = 0, pretend = 0, frame = 0
 1244              		@ frame_needed = 0, uses_anonymous_args = 0
 1245              		@ link register save eliminated.
 1246              	.LVL160:
 1247              		.loc 1 594 0
 1248 0000 0F29     		cmp	r1, #15
 1249 0002 02D0     		beq	.L163
ARM GAS  /var/folders/4k/6h5l9jl178sb4hslwv3xp1mr0000gn/T//ccjvit50.s 			page 23


 1250              		.loc 1 596 0
 1251 0004 0068     		ldr	r0, [r0]
 1252 0006 FFF7FEBF 		b	ff_rel_grant
 1253              	.LVL161:
 1254              	.L163:
 1255 000a 7047     		bx	lr
 1256              		.cfi_endproc
 1257              	.LFE63:
 1258              		.size	unlock_fs.isra.4.part.5, .-unlock_fs.isra.4.part.5
 1259 000c AFF30080 		.section	.text.get_fat.part.6,"ax",%progbits
 1260              		.align	2
 1261              		.p2align 4,,15
 1262              		.thumb
 1263              		.thumb_func
 1264              		.type	get_fat.part.6, %function
 1265              	get_fat.part.6:
 1266              	.LFB64:
 1267              		.loc 1 819 0
 1268              		.cfi_startproc
 1269              		@ args = 0, pretend = 0, frame = 0
 1270              		@ frame_needed = 0, uses_anonymous_args = 0
 1271              	.LVL162:
 1272 0000 F8B5     		push	{r3, r4, r5, r6, r7, lr}
 1273              		.cfi_def_cfa_offset 24
 1274              		.cfi_offset 3, -24
 1275              		.cfi_offset 4, -20
 1276              		.cfi_offset 5, -16
 1277              		.cfi_offset 6, -12
 1278              		.cfi_offset 7, -8
 1279              		.cfi_offset 14, -4
 1280              		.loc 1 831 0
 1281 0002 0378     		ldrb	r3, [r0]	@ zero_extendqisi2
 1282 0004 022B     		cmp	r3, #2
 1283              		.loc 1 819 0
 1284 0006 0446     		mov	r4, r0
 1285 0008 0D46     		mov	r5, r1
 1286              		.loc 1 831 0
 1287 000a 46D0     		beq	.L167
 1288 000c 032B     		cmp	r3, #3
 1289 000e 28D0     		beq	.L168
 1290 0010 012B     		cmp	r3, #1
 1291 0012 02D0     		beq	.L175
 1292              	.LVL163:
 1293              	.L174:
 1294              		.loc 1 851 0
 1295 0014 4FF0FF30 		mov	r0, #-1
 1296              		.loc 1 852 0
 1297 0018 F8BD     		pop	{r3, r4, r5, r6, r7, pc}
 1298              	.LVL164:
 1299              	.L175:
 1300              		.loc 1 834 0
 1301 001a 416A     		ldr	r1, [r0, #36]
 1302              	.LVL165:
 1303              		.loc 1 833 0
 1304 001c 05EB5506 		add	r6, r5, r5, lsr #1
 1305              	.LVL166:
 1306              		.loc 1 834 0
ARM GAS  /var/folders/4k/6h5l9jl178sb4hslwv3xp1mr0000gn/T//ccjvit50.s 			page 24


 1307 0020 01EB5621 		add	r1, r1, r6, lsr #9
 1308 0024 FFF7FEFF 		bl	move_window
 1309              	.LVL167:
 1310 0028 0028     		cmp	r0, #0
 1311 002a F3D1     		bne	.L174
 1312              		.loc 1 835 0
 1313 002c C6F30803 		ubfx	r3, r6, #0, #9
 1314              		.loc 1 836 0
 1315 0030 616A     		ldr	r1, [r4, #36]
 1316              		.loc 1 835 0
 1317 0032 2344     		add	r3, r3, r4
 1318 0034 0136     		adds	r6, r6, #1
 1319              	.LVL168:
 1320              		.loc 1 836 0
 1321 0036 01EB5621 		add	r1, r1, r6, lsr #9
 1322 003a 2046     		mov	r0, r4
 1323              		.loc 1 835 0
 1324 003c 93F83470 		ldrb	r7, [r3, #52]	@ zero_extendqisi2
 1325              	.LVL169:
 1326              		.loc 1 836 0
 1327 0040 FFF7FEFF 		bl	move_window
 1328              	.LVL170:
 1329 0044 0028     		cmp	r0, #0
 1330 0046 E5D1     		bne	.L174
 1331              		.loc 1 837 0
 1332 0048 C6F30806 		ubfx	r6, r6, #0, #9
 1333              	.LVL171:
 1334 004c 3444     		add	r4, r4, r6
 1335              	.LVL172:
 1336 004e 94F83430 		ldrb	r3, [r4, #52]	@ zero_extendqisi2
 1337 0052 47EA0320 		orr	r0, r7, r3, lsl #8
 1338              	.LVL173:
 1339              		.loc 1 838 0
 1340 0056 EB07     		lsls	r3, r5, #31
 1341 0058 4CBF     		ite	mi
 1342 005a 0009     		lsrmi	r0, r0, #4
 1343              	.LVL174:
 1344 005c C0F30B00 		ubfxpl	r0, r0, #0, #12
 1345 0060 F8BD     		pop	{r3, r4, r5, r6, r7, pc}
 1346              	.LVL175:
 1347              	.L168:
 1348              		.loc 1 846 0
 1349 0062 416A     		ldr	r1, [r0, #36]
 1350              	.LVL176:
 1351 0064 01EBD511 		add	r1, r1, r5, lsr #7
 1352 0068 FFF7FEFF 		bl	move_window
 1353              	.LVL177:
 1354 006c 0028     		cmp	r0, #0
 1355 006e D1D1     		bne	.L174
 1356              		.loc 1 847 0
 1357 0070 AD00     		lsls	r5, r5, #2
 1358              	.LVL178:
 1359 0072 05F4FE75 		and	r5, r5, #508
 1360 0076 6319     		adds	r3, r4, r5
 1361              	.LVL179:
 1362              		.loc 1 848 0
 1363 0078 93F83700 		ldrb	r0, [r3, #55]	@ zero_extendqisi2
ARM GAS  /var/folders/4k/6h5l9jl178sb4hslwv3xp1mr0000gn/T//ccjvit50.s 			page 25


 1364 007c 93F83610 		ldrb	r1, [r3, #54]	@ zero_extendqisi2
 1365 0080 93F83520 		ldrb	r2, [r3, #53]	@ zero_extendqisi2
 1366 0084 93F83430 		ldrb	r3, [r3, #52]	@ zero_extendqisi2
 1367              	.LVL180:
 1368 0088 0006     		lsls	r0, r0, #24
 1369 008a 40EA0140 		orr	r0, r0, r1, lsl #16
 1370 008e 40EA0220 		orr	r0, r0, r2, lsl #8
 1371 0092 1843     		orrs	r0, r0, r3
 1372 0094 20F07040 		bic	r0, r0, #-268435456
 1373 0098 F8BD     		pop	{r3, r4, r5, r6, r7, pc}
 1374              	.LVL181:
 1375              	.L167:
 1376              		.loc 1 841 0
 1377 009a 416A     		ldr	r1, [r0, #36]
 1378              	.LVL182:
 1379 009c 01EB1521 		add	r1, r1, r5, lsr #8
 1380 00a0 FFF7FEFF 		bl	move_window
 1381              	.LVL183:
 1382 00a4 0028     		cmp	r0, #0
 1383 00a6 B5D1     		bne	.L174
 1384              		.loc 1 842 0
 1385 00a8 6D00     		lsls	r5, r5, #1
 1386              	.LVL184:
 1387 00aa 05F4FF75 		and	r5, r5, #510
 1388              	.LVL185:
 1389              		.loc 1 843 0
 1390 00ae 6319     		adds	r3, r4, r5
 1391 00b0 1C46     		mov	r4, r3
 1392              	.LVL186:
 1393 00b2 93F83430 		ldrb	r3, [r3, #52]	@ zero_extendqisi2
 1394 00b6 94F83500 		ldrb	r0, [r4, #53]	@ zero_extendqisi2
 1395 00ba 43EA0020 		orr	r0, r3, r0, lsl #8
 1396 00be F8BD     		pop	{r3, r4, r5, r6, r7, pc}
 1397              		.cfi_endproc
 1398              	.LFE64:
 1399              		.size	get_fat.part.6, .-get_fat.part.6
 1400              		.section	.text.dir_sdi,"ax",%progbits
 1401              		.align	2
 1402              		.p2align 4,,15
 1403              		.thumb
 1404              		.thumb_func
 1405              		.type	dir_sdi, %function
 1406              	dir_sdi:
 1407              	.LFB20:
 1408              		.loc 1 1069 0
 1409              		.cfi_startproc
 1410              		@ args = 0, pretend = 0, frame = 0
 1411              		@ frame_needed = 0, uses_anonymous_args = 0
 1412              	.LVL187:
 1413              		.loc 1 1075 0
 1414 0000 8368     		ldr	r3, [r0, #8]
 1415              	.LVL188:
 1416              		.loc 1 1069 0
 1417 0002 70B5     		push	{r4, r5, r6, lr}
 1418              		.cfi_def_cfa_offset 16
 1419              		.cfi_offset 4, -16
 1420              		.cfi_offset 5, -12
ARM GAS  /var/folders/4k/6h5l9jl178sb4hslwv3xp1mr0000gn/T//ccjvit50.s 			page 26


 1421              		.cfi_offset 6, -8
 1422              		.cfi_offset 14, -4
 1423              		.loc 1 1069 0
 1424 0004 0446     		mov	r4, r0
 1425              		.loc 1 1076 0
 1426 0006 012B     		cmp	r3, #1
 1427              		.loc 1 1069 0
 1428 0008 0D46     		mov	r5, r1
 1429              		.loc 1 1074 0
 1430 000a E180     		strh	r1, [r4, #6]	@ movhi
 1431              		.loc 1 1076 0
 1432 000c 03D0     		beq	.L188
 1433              		.loc 1 1076 0 is_stmt 0 discriminator 1
 1434 000e 0068     		ldr	r0, [r0]
 1435              	.LVL189:
 1436 0010 C269     		ldr	r2, [r0, #28]
 1437 0012 9342     		cmp	r3, r2
 1438 0014 01D3     		bcc	.L192
 1439              	.LVL190:
 1440              	.L188:
 1441              		.loc 1 1093 0 is_stmt 1
 1442 0016 0220     		movs	r0, #2
 1443 0018 70BD     		pop	{r4, r5, r6, pc}
 1444              	.LVL191:
 1445              	.L192:
 1446              		.loc 1 1078 0
 1447 001a B3B9     		cbnz	r3, .L180
 1448              		.loc 1 1078 0 is_stmt 0 discriminator 1
 1449 001c 0378     		ldrb	r3, [r0]	@ zero_extendqisi2
 1450              	.LVL192:
 1451 001e 032B     		cmp	r3, #3
 1452 0020 10D0     		beq	.L193
 1453              	.LVL193:
 1454              	.L181:
 1455              		.loc 1 1083 0 is_stmt 1
 1456 0022 0389     		ldrh	r3, [r0, #8]
 1457              		.loc 1 1082 0
 1458 0024 0022     		movs	r2, #0
 1459              		.loc 1 1083 0
 1460 0026 AB42     		cmp	r3, r5
 1461              		.loc 1 1082 0
 1462 0028 E260     		str	r2, [r4, #12]
 1463              		.loc 1 1083 0
 1464 002a F4D9     		bls	.L188
 1465              		.loc 1 1085 0
 1466 002c 836A     		ldr	r3, [r0, #40]
 1467 002e 03EB1513 		add	r3, r3, r5, lsr #4
 1468 0032 2361     		str	r3, [r4, #16]
 1469              	.LVL194:
 1470              	.L182:
 1471              		.loc 1 1100 0
 1472 0034 05F00F05 		and	r5, r5, #15
 1473              	.LVL195:
 1474 0038 00EB4510 		add	r0, r0, r5, lsl #5
 1475 003c 3430     		adds	r0, r0, #52
 1476 003e 6061     		str	r0, [r4, #20]
 1477              		.loc 1 1102 0
ARM GAS  /var/folders/4k/6h5l9jl178sb4hslwv3xp1mr0000gn/T//ccjvit50.s 			page 27


 1478 0040 0020     		movs	r0, #0
 1479 0042 70BD     		pop	{r4, r5, r6, pc}
 1480              	.LVL196:
 1481              	.L193:
 1482              		.loc 1 1079 0
 1483 0044 836A     		ldr	r3, [r0, #40]
 1484              	.LVL197:
 1485              		.loc 1 1081 0
 1486 0046 002B     		cmp	r3, #0
 1487 0048 EBD0     		beq	.L181
 1488              	.L180:
 1489              		.loc 1 1088 0
 1490 004a 8678     		ldrb	r6, [r0, #2]	@ zero_extendqisi2
 1491 004c 3601     		lsls	r6, r6, #4
 1492              	.LVL198:
 1493              		.loc 1 1089 0
 1494 004e B542     		cmp	r5, r6
 1495 0050 19D3     		bcc	.L183
 1496              	.LVL199:
 1497              	.LBB267:
 1498              	.LBB268:
 1499              		.loc 1 828 0
 1500 0052 012B     		cmp	r3, #1
 1501 0054 DFD9     		bls	.L188
 1502 0056 AD1B     		subs	r5, r5, r6
 1503 0058 9A42     		cmp	r2, r3
 1504 005a ADB2     		uxth	r5, r5
 1505              	.LVL200:
 1506 005c DBD9     		bls	.L188
 1507 005e 08E0     		b	.L186
 1508              	.LVL201:
 1509              	.L194:
 1510              	.LBE268:
 1511              	.LBE267:
 1512              		.loc 1 1092 0
 1513 0060 0128     		cmp	r0, #1
 1514 0062 D8D9     		bls	.L188
 1515              		.loc 1 1092 0 is_stmt 0 discriminator 1
 1516 0064 2068     		ldr	r0, [r4]
 1517              	.LVL202:
 1518 0066 C269     		ldr	r2, [r0, #28]
 1519 0068 9A42     		cmp	r2, r3
 1520 006a D4D9     		bls	.L188
 1521              		.loc 1 1089 0 is_stmt 1
 1522 006c AE42     		cmp	r6, r5
 1523 006e 0AD8     		bhi	.L183
 1524 0070 0D46     		mov	r5, r1
 1525              	.L186:
 1526              	.LBB271:
 1527              	.LBB269:
 1528 0072 1946     		mov	r1, r3
 1529 0074 FFF7FEFF 		bl	get_fat.part.6
 1530              	.LVL203:
 1531 0078 A91B     		subs	r1, r5, r6
 1532              	.LBE269:
 1533              	.LBE271:
 1534              		.loc 1 1091 0
ARM GAS  /var/folders/4k/6h5l9jl178sb4hslwv3xp1mr0000gn/T//ccjvit50.s 			page 28


 1535 007a 421C     		adds	r2, r0, #1
 1536              	.LBB272:
 1537              	.LBB270:
 1538 007c 0346     		mov	r3, r0
 1539              	.LVL204:
 1540 007e 89B2     		uxth	r1, r1
 1541              	.LBE270:
 1542              	.LBE272:
 1543 0080 EED1     		bne	.L194
 1544 0082 0120     		movs	r0, #1
 1545              	.LVL205:
 1546 0084 70BD     		pop	{r4, r5, r6, pc}
 1547              	.LVL206:
 1548              	.L183:
 1549              	.LBB273:
 1550              	.LBB274:
 1551              		.loc 1 806 0
 1552 0086 991E     		subs	r1, r3, #2
 1553              		.loc 1 807 0
 1554 0088 023A     		subs	r2, r2, #2
 1555 008a 9142     		cmp	r1, r2
 1556              	.LBE274:
 1557              	.LBE273:
 1558              		.loc 1 1096 0
 1559 008c E360     		str	r3, [r4, #12]
 1560              	.LVL207:
 1561              	.LBB276:
 1562              	.LBB275:
 1563              		.loc 1 808 0
 1564 008e 3BBF     		ittet	cc
 1565 0090 8278     		ldrbcc	r2, [r0, #2]	@ zero_extendqisi2
 1566 0092 C36A     		ldrcc	r3, [r0, #44]
 1567              	.LVL208:
 1568              		.loc 1 807 0
 1569 0094 0021     		movcs	r1, #0
 1570              	.LVL209:
 1571              		.loc 1 808 0
 1572 0096 02FB0131 		mlacc	r1, r2, r1, r3
 1573              	.LBE275:
 1574              	.LBE276:
 1575              		.loc 1 1097 0
 1576 009a 01EB1511 		add	r1, r1, r5, lsr #4
 1577 009e 2161     		str	r1, [r4, #16]
 1578 00a0 C8E7     		b	.L182
 1579              		.cfi_endproc
 1580              	.LFE20:
 1581              		.size	dir_sdi, .-dir_sdi
 1582 00a2 00BFAFF3 		.section	.text.put_fat.part.7,"ax",%progbits
 1582      0080AFF3 
 1582      0080AFF3 
 1582      0080
 1583              		.align	2
 1584              		.p2align 4,,15
 1585              		.thumb
 1586              		.thumb_func
 1587              		.type	put_fat.part.7, %function
 1588              	put_fat.part.7:
ARM GAS  /var/folders/4k/6h5l9jl178sb4hslwv3xp1mr0000gn/T//ccjvit50.s 			page 29


 1589              	.LFB65:
 1590              		.loc 1 862 0
 1591              		.cfi_startproc
 1592              		@ args = 0, pretend = 0, frame = 0
 1593              		@ frame_needed = 0, uses_anonymous_args = 0
 1594              	.LVL210:
 1595 0000 F8B5     		push	{r3, r4, r5, r6, r7, lr}
 1596              		.cfi_def_cfa_offset 24
 1597              		.cfi_offset 3, -24
 1598              		.cfi_offset 4, -20
 1599              		.cfi_offset 5, -16
 1600              		.cfi_offset 6, -12
 1601              		.cfi_offset 7, -8
 1602              		.cfi_offset 14, -4
 1603              		.loc 1 877 0
 1604 0002 0378     		ldrb	r3, [r0]	@ zero_extendqisi2
 1605 0004 022B     		cmp	r3, #2
 1606              		.loc 1 862 0
 1607 0006 0446     		mov	r4, r0
 1608 0008 0D46     		mov	r5, r1
 1609 000a 1646     		mov	r6, r2
 1610              		.loc 1 877 0
 1611 000c 5AD0     		beq	.L197
 1612 000e 032B     		cmp	r3, #3
 1613 0010 38D0     		beq	.L198
 1614 0012 012B     		cmp	r3, #1
 1615 0014 03D0     		beq	.L206
 1616              		.loc 1 908 0
 1617 0016 0220     		movs	r0, #2
 1618              	.LVL211:
 1619              	.L196:
 1620              		.loc 1 910 0
 1621 0018 0123     		movs	r3, #1
 1622 001a 2371     		strb	r3, [r4, #4]
 1623              		.loc 1 914 0
 1624 001c F8BD     		pop	{r3, r4, r5, r6, r7, pc}
 1625              	.LVL212:
 1626              	.L206:
 1627              		.loc 1 880 0
 1628 001e 416A     		ldr	r1, [r0, #36]
 1629              	.LVL213:
 1630              		.loc 1 879 0
 1631 0020 05EB5507 		add	r7, r5, r5, lsr #1
 1632              	.LVL214:
 1633              		.loc 1 880 0
 1634 0024 01EB5721 		add	r1, r1, r7, lsr #9
 1635 0028 FFF7FEFF 		bl	move_window
 1636              	.LVL215:
 1637              		.loc 1 881 0
 1638 002c 0028     		cmp	r0, #0
 1639 002e F3D1     		bne	.L196
 1640              		.loc 1 882 0
 1641 0030 C7F30803 		ubfx	r3, r7, #0, #9
 1642              	.LVL216:
 1643              		.loc 1 883 0
 1644 0034 15F00105 		ands	r5, r5, #1
 1645              	.LVL217:
ARM GAS  /var/folders/4k/6h5l9jl178sb4hslwv3xp1mr0000gn/T//ccjvit50.s 			page 30


 1646 0038 2344     		add	r3, r3, r4
 1647              	.LVL218:
 1648 003a F2B2     		uxtb	r2, r6
 1649 003c 06D0     		beq	.L201
 1650 003e 93F83410 		ldrb	r1, [r3, #52]	@ zero_extendqisi2
 1651 0042 01F00F01 		and	r1, r1, #15
 1652 0046 41EA0212 		orr	r2, r1, r2, lsl #4
 1653 004a D2B2     		uxtb	r2, r2
 1654              	.L201:
 1655              		.loc 1 886 0
 1656 004c 616A     		ldr	r1, [r4, #36]
 1657              		.loc 1 883 0
 1658 004e 83F83420 		strb	r2, [r3, #52]
 1659              		.loc 1 884 0
 1660 0052 0137     		adds	r7, r7, #1
 1661              	.LVL219:
 1662              		.loc 1 885 0
 1663 0054 0123     		movs	r3, #1
 1664              		.loc 1 886 0
 1665 0056 01EB5721 		add	r1, r1, r7, lsr #9
 1666              		.loc 1 885 0
 1667 005a 2371     		strb	r3, [r4, #4]
 1668              		.loc 1 886 0
 1669 005c 2046     		mov	r0, r4
 1670              	.LVL220:
 1671 005e FFF7FEFF 		bl	move_window
 1672              	.LVL221:
 1673              		.loc 1 887 0
 1674 0062 0028     		cmp	r0, #0
 1675 0064 D8D1     		bne	.L196
 1676              		.loc 1 888 0
 1677 0066 C7F30807 		ubfx	r7, r7, #0, #9
 1678              	.LVL222:
 1679              		.loc 1 889 0
 1680 006a 002D     		cmp	r5, #0
 1681 006c 3ED1     		bne	.L207
 1682 006e 2744     		add	r7, r7, r4
 1683              	.LVL223:
 1684 0070 C6F30326 		ubfx	r6, r6, #8, #4
 1685              	.LVL224:
 1686 0074 97F83430 		ldrb	r3, [r7, #52]	@ zero_extendqisi2
 1687 0078 23F00F03 		bic	r3, r3, #15
 1688 007c 1E43     		orrs	r6, r6, r3
 1689              	.L203:
 1690 007e 87F83460 		strb	r6, [r7, #52]
 1691 0082 C9E7     		b	.L196
 1692              	.LVL225:
 1693              	.L198:
 1694              		.loc 1 900 0
 1695 0084 416A     		ldr	r1, [r0, #36]
 1696              	.LVL226:
 1697 0086 01EBD511 		add	r1, r1, r5, lsr #7
 1698 008a FFF7FEFF 		bl	move_window
 1699              	.LVL227:
 1700              		.loc 1 901 0
 1701 008e 0028     		cmp	r0, #0
 1702 0090 C2D1     		bne	.L196
ARM GAS  /var/folders/4k/6h5l9jl178sb4hslwv3xp1mr0000gn/T//ccjvit50.s 			page 31


 1703              		.loc 1 902 0
 1704 0092 AD00     		lsls	r5, r5, #2
 1705              	.LVL228:
 1706 0094 05F4FE75 		and	r5, r5, #508
 1707 0098 6319     		adds	r3, r4, r5
 1708              	.LVL229:
 1709              		.loc 1 903 0
 1710 009a 93F83720 		ldrb	r2, [r3, #55]	@ zero_extendqisi2
 1711 009e 1206     		lsls	r2, r2, #24
 1712 00a0 02F07042 		and	r2, r2, #-268435456
 1713 00a4 1643     		orrs	r6, r6, r2
 1714              	.LVL230:
 1715              		.loc 1 904 0
 1716 00a6 C6F30727 		ubfx	r7, r6, #8, #8
 1717 00aa 310C     		lsrs	r1, r6, #16
 1718 00ac 320E     		lsrs	r2, r6, #24
 1719 00ae 83F83460 		strb	r6, [r3, #52]
 1720 00b2 83F83570 		strb	r7, [r3, #53]
 1721 00b6 83F83610 		strb	r1, [r3, #54]
 1722 00ba 83F83720 		strb	r2, [r3, #55]
 1723              		.loc 1 910 0
 1724 00be 0123     		movs	r3, #1
 1725              	.LVL231:
 1726 00c0 2371     		strb	r3, [r4, #4]
 1727              		.loc 1 914 0
 1728 00c2 F8BD     		pop	{r3, r4, r5, r6, r7, pc}
 1729              	.LVL232:
 1730              	.L197:
 1731              		.loc 1 893 0
 1732 00c4 416A     		ldr	r1, [r0, #36]
 1733              	.LVL233:
 1734 00c6 01EB1521 		add	r1, r1, r5, lsr #8
 1735 00ca FFF7FEFF 		bl	move_window
 1736              	.LVL234:
 1737              		.loc 1 894 0
 1738 00ce 0028     		cmp	r0, #0
 1739 00d0 A2D1     		bne	.L196
 1740              		.loc 1 895 0
 1741 00d2 6D00     		lsls	r5, r5, #1
 1742              	.LVL235:
 1743 00d4 05F4FF75 		and	r5, r5, #510
 1744              	.LVL236:
 1745              		.loc 1 896 0
 1746 00d8 6219     		adds	r2, r4, r5
 1747 00da C6F30723 		ubfx	r3, r6, #8, #8
 1748 00de 82F83530 		strb	r3, [r2, #53]
 1749              		.loc 1 910 0
 1750 00e2 0123     		movs	r3, #1
 1751              		.loc 1 896 0
 1752 00e4 82F83460 		strb	r6, [r2, #52]
 1753              		.loc 1 910 0
 1754 00e8 2371     		strb	r3, [r4, #4]
 1755              		.loc 1 914 0
 1756 00ea F8BD     		pop	{r3, r4, r5, r6, r7, pc}
 1757              	.LVL237:
 1758              	.L207:
 1759              		.loc 1 889 0
ARM GAS  /var/folders/4k/6h5l9jl178sb4hslwv3xp1mr0000gn/T//ccjvit50.s 			page 32


 1760 00ec C6F30716 		ubfx	r6, r6, #4, #8
 1761              	.LVL238:
 1762 00f0 2744     		add	r7, r7, r4
 1763              	.LVL239:
 1764 00f2 C4E7     		b	.L203
 1765              		.cfi_endproc
 1766              	.LFE65:
 1767              		.size	put_fat.part.7, .-put_fat.part.7
 1768 00f4 AFF30080 		.section	.text.create_chain,"ax",%progbits
 1768      AFF30080 
 1768      AFF30080 
 1769              		.align	2
 1770              		.p2align 4,,15
 1771              		.thumb
 1772              		.thumb_func
 1773              		.type	create_chain, %function
 1774              	create_chain:
 1775              	.LFB19:
 1776              		.loc 1 982 0
 1777              		.cfi_startproc
 1778              		@ args = 0, pretend = 0, frame = 0
 1779              		@ frame_needed = 0, uses_anonymous_args = 0
 1780              	.LVL240:
 1781 0000 F8B5     		push	{r3, r4, r5, r6, r7, lr}
 1782              		.cfi_def_cfa_offset 24
 1783              		.cfi_offset 3, -24
 1784              		.cfi_offset 4, -20
 1785              		.cfi_offset 5, -16
 1786              		.cfi_offset 6, -12
 1787              		.cfi_offset 7, -8
 1788              		.cfi_offset 14, -4
 1789              		.loc 1 982 0
 1790 0002 0546     		mov	r5, r0
 1791              		.loc 1 987 0
 1792 0004 0F46     		mov	r7, r1
 1793 0006 F9B9     		cbnz	r1, .L209
 1794              		.loc 1 988 0
 1795 0008 0669     		ldr	r6, [r0, #16]
 1796              	.LVL241:
 1797 000a C369     		ldr	r3, [r0, #28]
 1798              		.loc 1 989 0
 1799 000c 56B3     		cbz	r6, .L241
 1800              		.loc 1 989 0 is_stmt 0 discriminator 2
 1801 000e 9E42     		cmp	r6, r3
 1802 0010 28BF     		it	cs
 1803 0012 0126     		movcs	r6, #1
 1804              	.LVL242:
 1805              	.L211:
 1806              		.loc 1 989 0
 1807 0014 3446     		mov	r4, r6
 1808 0016 10E0     		b	.L221
 1809              	.LVL243:
 1810              	.L242:
 1811              		.loc 1 1003 0 is_stmt 1
 1812 0018 012E     		cmp	r6, #1
 1813 001a 25D9     		bls	.L220
 1814              	.LBB277:
ARM GAS  /var/folders/4k/6h5l9jl178sb4hslwv3xp1mr0000gn/T//ccjvit50.s 			page 33


 1815              	.LBB278:
 1816              		.loc 1 828 0
 1817 001c 022B     		cmp	r3, #2
 1818 001e 11D9     		bls	.L237
 1819              	.LBE278:
 1820              	.LBE277:
 1821              		.loc 1 1002 0
 1822 0020 0224     		movs	r4, #2
 1823              	.LVL244:
 1824              	.L217:
 1825              	.LBB281:
 1826              	.LBB279:
 1827 0022 2846     		mov	r0, r5
 1828 0024 2146     		mov	r1, r4
 1829 0026 FFF7FEFF 		bl	get_fat.part.6
 1830              	.LVL245:
 1831              	.LBE279:
 1832              	.LBE281:
 1833              		.loc 1 1006 0
 1834 002a 20B3     		cbz	r0, .L218
 1835              		.loc 1 1007 0
 1836 002c 411C     		adds	r1, r0, #1
 1837 002e 1FD0     		beq	.L228
 1838              		.loc 1 1007 0 is_stmt 0 discriminator 1
 1839 0030 0128     		cmp	r0, #1
 1840 0032 07D0     		beq	.L237
 1841              		.loc 1 1009 0 is_stmt 1
 1842 0034 A642     		cmp	r6, r4
 1843 0036 17D0     		beq	.L220
 1844 0038 EB69     		ldr	r3, [r5, #28]
 1845              	.LVL246:
 1846              	.L221:
 1847              		.loc 1 1000 0
 1848 003a 0134     		adds	r4, r4, #1
 1849              	.LVL247:
 1850              		.loc 1 1001 0
 1851 003c 9C42     		cmp	r4, r3
 1852 003e EBD2     		bcs	.L242
 1853              	.LBB282:
 1854              	.LBB280:
 1855              		.loc 1 828 0
 1856 0040 012C     		cmp	r4, #1
 1857 0042 EED8     		bhi	.L217
 1858              	.LVL248:
 1859              	.L237:
 1860              	.LBE280:
 1861              	.LBE282:
 1862              		.loc 1 1023 0
 1863 0044 0120     		movs	r0, #1
 1864              	.L233:
 1865              		.loc 1 1027 0
 1866 0046 F8BD     		pop	{r3, r4, r5, r6, r7, pc}
 1867              	.LVL249:
 1868              	.L209:
 1869              	.LBB283:
 1870              	.LBB284:
 1871              		.loc 1 828 0
ARM GAS  /var/folders/4k/6h5l9jl178sb4hslwv3xp1mr0000gn/T//ccjvit50.s 			page 34


 1872 0048 0129     		cmp	r1, #1
 1873 004a FBD9     		bls	.L237
 1874 004c C369     		ldr	r3, [r0, #28]
 1875 004e 9942     		cmp	r1, r3
 1876 0050 F8D2     		bcs	.L237
 1877 0052 FFF7FEFF 		bl	get_fat.part.6
 1878              	.LVL250:
 1879              	.LBE284:
 1880              	.LBE283:
 1881              		.loc 1 993 0
 1882 0056 0128     		cmp	r0, #1
 1883 0058 F4D9     		bls	.L237
 1884              		.loc 1 994 0
 1885 005a EB69     		ldr	r3, [r5, #28]
 1886 005c 8342     		cmp	r3, r0
 1887 005e F2D8     		bhi	.L233
 1888 0060 3E46     		mov	r6, r7
 1889 0062 D7E7     		b	.L211
 1890              	.LVL251:
 1891              	.L241:
 1892              		.loc 1 989 0
 1893 0064 0126     		movs	r6, #1
 1894              	.LVL252:
 1895 0066 D5E7     		b	.L211
 1896              	.LVL253:
 1897              	.L220:
 1898              		.loc 1 1003 0
 1899 0068 0020     		movs	r0, #0
 1900 006a F8BD     		pop	{r3, r4, r5, r6, r7, pc}
 1901              	.LVL254:
 1902              	.L227:
 1903              		.loc 1 1023 0
 1904 006c 0128     		cmp	r0, #1
 1905 006e E9D1     		bne	.L237
 1906              	.LVL255:
 1907              	.L228:
 1908 0070 4FF0FF30 		mov	r0, #-1
 1909 0074 F8BD     		pop	{r3, r4, r5, r6, r7, pc}
 1910              	.LVL256:
 1911              	.L218:
 1912              	.LBB285:
 1913              	.LBB286:
 1914              		.loc 1 873 0
 1915 0076 EB69     		ldr	r3, [r5, #28]
 1916 0078 A342     		cmp	r3, r4
 1917 007a E3D9     		bls	.L237
 1918 007c 2846     		mov	r0, r5
 1919 007e 2146     		mov	r1, r4
 1920 0080 6FF07042 		mvn	r2, #-268435456
 1921 0084 FFF7FEFF 		bl	put_fat.part.7
 1922              	.LVL257:
 1923              	.LBE286:
 1924              	.LBE285:
 1925              		.loc 1 1013 0
 1926 0088 0028     		cmp	r0, #0
 1927 008a EFD1     		bne	.L227
 1928              		.loc 1 1013 0 is_stmt 0 discriminator 1
ARM GAS  /var/folders/4k/6h5l9jl178sb4hslwv3xp1mr0000gn/T//ccjvit50.s 			page 35


 1929 008c 5FB1     		cbz	r7, .L226
 1930              	.LVL258:
 1931              	.LBB287:
 1932              	.LBB288:
 1933              		.loc 1 873 0 is_stmt 1
 1934 008e 012F     		cmp	r7, #1
 1935 0090 D8D9     		bls	.L237
 1936 0092 EB69     		ldr	r3, [r5, #28]
 1937 0094 9F42     		cmp	r7, r3
 1938 0096 D5D2     		bcs	.L237
 1939 0098 3946     		mov	r1, r7
 1940 009a 2846     		mov	r0, r5
 1941              	.LVL259:
 1942 009c 2246     		mov	r2, r4
 1943 009e FFF7FEFF 		bl	put_fat.part.7
 1944              	.LVL260:
 1945              	.LBE288:
 1946              	.LBE287:
 1947              		.loc 1 1016 0
 1948 00a2 0028     		cmp	r0, #0
 1949 00a4 E2D1     		bne	.L227
 1950              	.LVL261:
 1951              	.L226:
 1952              		.loc 1 1018 0
 1953 00a6 6B69     		ldr	r3, [r5, #20]
 1954              		.loc 1 1017 0
 1955 00a8 2C61     		str	r4, [r5, #16]
 1956              		.loc 1 1018 0
 1957 00aa 5A1C     		adds	r2, r3, #1
 1958 00ac 05D0     		beq	.L243
 1959              		.loc 1 1020 0
 1960 00ae 0122     		movs	r2, #1
 1961              		.loc 1 1019 0
 1962 00b0 013B     		subs	r3, r3, #1
 1963              		.loc 1 1020 0
 1964 00b2 6A71     		strb	r2, [r5, #5]
 1965              		.loc 1 1019 0
 1966 00b4 6B61     		str	r3, [r5, #20]
 1967              		.loc 1 1020 0
 1968 00b6 2046     		mov	r0, r4
 1969 00b8 F8BD     		pop	{r3, r4, r5, r6, r7, pc}
 1970              	.LVL262:
 1971              	.L243:
 1972 00ba 2046     		mov	r0, r4
 1973 00bc F8BD     		pop	{r3, r4, r5, r6, r7, pc}
 1974              		.cfi_endproc
 1975              	.LFE19:
 1976              		.size	create_chain, .-create_chain
 1977 00be 00BF     		.section	.text.dir_next,"ax",%progbits
 1978              		.align	2
 1979              		.p2align 4,,15
 1980              		.thumb
 1981              		.thumb_func
 1982              		.type	dir_next, %function
 1983              	dir_next:
 1984              	.LFB21:
 1985              		.loc 1 1117 0
ARM GAS  /var/folders/4k/6h5l9jl178sb4hslwv3xp1mr0000gn/T//ccjvit50.s 			page 36


 1986              		.cfi_startproc
 1987              		@ args = 0, pretend = 0, frame = 0
 1988              		@ frame_needed = 0, uses_anonymous_args = 0
 1989              	.LVL263:
 1990 0000 2DE9F047 		push	{r4, r5, r6, r7, r8, r9, r10, lr}
 1991              		.cfi_def_cfa_offset 32
 1992              		.cfi_offset 4, -32
 1993              		.cfi_offset 5, -28
 1994              		.cfi_offset 6, -24
 1995              		.cfi_offset 7, -20
 1996              		.cfi_offset 8, -16
 1997              		.cfi_offset 9, -12
 1998              		.cfi_offset 10, -8
 1999              		.cfi_offset 14, -4
 2000              		.loc 1 1123 0
 2001 0004 C588     		ldrh	r5, [r0, #6]
 2002 0006 0135     		adds	r5, r5, #1
 2003 0008 ADB2     		uxth	r5, r5
 2004              		.loc 1 1117 0
 2005 000a 0446     		mov	r4, r0
 2006 000c 0E46     		mov	r6, r1
 2007              	.LVL264:
 2008              		.loc 1 1124 0
 2009 000e 15B9     		cbnz	r5, .L245
 2010              	.LVL265:
 2011              	.L247:
 2012              		.loc 1 1125 0
 2013 0010 0420     		movs	r0, #4
 2014 0012 BDE8F087 		pop	{r4, r5, r6, r7, r8, r9, r10, pc}
 2015              	.LVL266:
 2016              	.L245:
 2017              		.loc 1 1124 0 discriminator 1
 2018 0016 0369     		ldr	r3, [r0, #16]
 2019 0018 002B     		cmp	r3, #0
 2020 001a F9D0     		beq	.L247
 2021              		.loc 1 1127 0
 2022 001c 15F00F07 		ands	r7, r5, #15
 2023 0020 08D0     		beq	.L248
 2024 0022 0368     		ldr	r3, [r0]
 2025              	.LVL267:
 2026              	.L249:
 2027              		.loc 1 1168 0
 2028 0024 03EB4713 		add	r3, r3, r7, lsl #5
 2029 0028 3433     		adds	r3, r3, #52
 2030 002a 6361     		str	r3, [r4, #20]
 2031              		.loc 1 1167 0
 2032 002c E580     		strh	r5, [r4, #6]	@ movhi
 2033              		.loc 1 1170 0
 2034 002e 0020     		movs	r0, #0
 2035 0030 BDE8F087 		pop	{r4, r5, r6, r7, r8, r9, r10, pc}
 2036              	.LVL268:
 2037              	.L248:
 2038              		.loc 1 1130 0
 2039 0034 C168     		ldr	r1, [r0, #12]
 2040              	.LVL269:
 2041              		.loc 1 1128 0
 2042 0036 0133     		adds	r3, r3, #1
ARM GAS  /var/folders/4k/6h5l9jl178sb4hslwv3xp1mr0000gn/T//ccjvit50.s 			page 37


 2043 0038 0361     		str	r3, [r0, #16]
 2044              		.loc 1 1131 0
 2045 003a 0368     		ldr	r3, [r0]
 2046              		.loc 1 1130 0
 2047 003c 61B1     		cbz	r1, .L280
 2048              		.loc 1 1135 0
 2049 003e 9A78     		ldrb	r2, [r3, #2]	@ zero_extendqisi2
 2050 0040 013A     		subs	r2, r2, #1
 2051 0042 12EA1512 		ands	r2, r2, r5, lsr #4
 2052 0046 EDD1     		bne	.L249
 2053              	.LVL270:
 2054              	.LBB289:
 2055              	.LBB290:
 2056              		.loc 1 828 0
 2057 0048 0129     		cmp	r1, #1
 2058 004a 02D9     		bls	.L252
 2059 004c DA69     		ldr	r2, [r3, #28]
 2060 004e 9142     		cmp	r1, r2
 2061 0050 06D3     		bcc	.L281
 2062              	.LVL271:
 2063              	.L252:
 2064              	.LBE290:
 2065              	.LBE289:
 2066              		.loc 1 1137 0
 2067 0052 0220     		movs	r0, #2
 2068 0054 BDE8F087 		pop	{r4, r5, r6, r7, r8, r9, r10, pc}
 2069              	.LVL272:
 2070              	.L280:
 2071              		.loc 1 1131 0
 2072 0058 1A89     		ldrh	r2, [r3, #8]
 2073 005a AA42     		cmp	r2, r5
 2074 005c D8D9     		bls	.L247
 2075 005e E1E7     		b	.L249
 2076              	.LVL273:
 2077              	.L281:
 2078              	.LBB293:
 2079              	.LBB291:
 2080 0060 1846     		mov	r0, r3
 2081              	.LVL274:
 2082 0062 FFF7FEFF 		bl	get_fat.part.6
 2083              	.LVL275:
 2084              	.LBE291:
 2085              	.LBE293:
 2086              		.loc 1 1137 0
 2087 0066 0128     		cmp	r0, #1
 2088              	.LBB294:
 2089              	.LBB292:
 2090 0068 8046     		mov	r8, r0
 2091              	.LBE292:
 2092              	.LBE294:
 2093 006a F2D9     		bls	.L252
 2094              		.loc 1 1138 0
 2095 006c B0F1FF3F 		cmp	r0, #-1
 2096 0070 1BD0     		beq	.L255
 2097              		.loc 1 1139 0
 2098 0072 2368     		ldr	r3, [r4]
 2099 0074 DA69     		ldr	r2, [r3, #28]
ARM GAS  /var/folders/4k/6h5l9jl178sb4hslwv3xp1mr0000gn/T//ccjvit50.s 			page 38


 2100 0076 8242     		cmp	r2, r0
 2101 0078 0CD9     		bls	.L279
 2102 007a 861E     		subs	r6, r0, #2
 2103              	.LVL276:
 2104              	.L254:
 2105              	.LBB295:
 2106              	.LBB296:
 2107              		.loc 1 807 0
 2108 007c 023A     		subs	r2, r2, #2
 2109 007e 9642     		cmp	r6, r2
 2110              	.LBE296:
 2111              	.LBE295:
 2112              		.loc 1 1161 0
 2113 0080 C4F80C80 		str	r8, [r4, #12]
 2114              	.LVL277:
 2115              	.LBB298:
 2116              	.LBB297:
 2117              		.loc 1 808 0
 2118 0084 3BBF     		ittet	cc
 2119 0086 9978     		ldrbcc	r1, [r3, #2]	@ zero_extendqisi2
 2120 0088 DA6A     		ldrcc	r2, [r3, #44]
 2121              		.loc 1 807 0
 2122 008a 0026     		movcs	r6, #0
 2123              	.LVL278:
 2124              		.loc 1 808 0
 2125 008c 01FB0626 		mlacc	r6, r1, r6, r2
 2126              	.LBE297:
 2127              	.LBE298:
 2128              		.loc 1 1162 0
 2129 0090 2661     		str	r6, [r4, #16]
 2130 0092 C7E7     		b	.L249
 2131              	.LVL279:
 2132              	.L279:
 2133              	.LBB299:
 2134              		.loc 1 1142 0
 2135 0094 002E     		cmp	r6, #0
 2136 0096 BBD0     		beq	.L247
 2137              		.loc 1 1143 0
 2138 0098 1846     		mov	r0, r3
 2139 009a E168     		ldr	r1, [r4, #12]
 2140 009c FFF7FEFF 		bl	create_chain
 2141              	.LVL280:
 2142              		.loc 1 1144 0
 2143 00a0 8046     		mov	r8, r0
 2144 00a2 28B9     		cbnz	r0, .L282
 2145 00a4 0720     		movs	r0, #7
 2146              	.LVL281:
 2147              	.LBE299:
 2148              		.loc 1 1171 0
 2149 00a6 BDE8F087 		pop	{r4, r5, r6, r7, r8, r9, r10, pc}
 2150              	.LVL282:
 2151              	.L255:
 2152              		.loc 1 1138 0
 2153 00aa 0120     		movs	r0, #1
 2154 00ac BDE8F087 		pop	{r4, r5, r6, r7, r8, r9, r10, pc}
 2155              	.LVL283:
 2156              	.L282:
ARM GAS  /var/folders/4k/6h5l9jl178sb4hslwv3xp1mr0000gn/T//ccjvit50.s 			page 39


 2157              	.LBB306:
 2158              		.loc 1 1145 0
 2159 00b0 0128     		cmp	r0, #1
 2160 00b2 CED0     		beq	.L252
 2161              		.loc 1 1146 0
 2162 00b4 B0F1FF3F 		cmp	r0, #-1
 2163 00b8 F7D0     		beq	.L255
 2164              		.loc 1 1148 0
 2165 00ba 2068     		ldr	r0, [r4]
 2166              	.LVL284:
 2167 00bc 0021     		movs	r1, #0
 2168 00be FFF7FEFF 		bl	move_window
 2169              	.LVL285:
 2170 00c2 0028     		cmp	r0, #0
 2171 00c4 F1D1     		bne	.L255
 2172              		.loc 1 1149 0
 2173 00c6 2268     		ldr	r2, [r4]
 2174              	.LBB300:
 2175              	.LBB301:
 2176              		.loc 1 550 0
 2177 00c8 0146     		mov	r1, r0
 2178              	.LBE301:
 2179              	.LBE300:
 2180              		.loc 1 1149 0
 2181 00ca 02F13403 		add	r3, r2, #52
 2182              	.LVL286:
 2183 00ce 02F50D72 		add	r2, r2, #564
 2184              	.LVL287:
 2185              	.L257:
 2186              	.LBB303:
 2187              	.LBB302:
 2188              		.loc 1 550 0
 2189 00d2 03F8011B 		strb	r1, [r3], #1
 2190              	.LVL288:
 2191              		.loc 1 549 0
 2192 00d6 9342     		cmp	r3, r2
 2193 00d8 FBD1     		bne	.L257
 2194              	.LBE302:
 2195              	.LBE303:
 2196              		.loc 1 1150 0
 2197 00da 2268     		ldr	r2, [r4]
 2198              	.LVL289:
 2199              	.LBB304:
 2200              	.LBB305:
 2201              		.loc 1 807 0
 2202 00dc D369     		ldr	r3, [r2, #28]
 2203              	.LVL290:
 2204              		.loc 1 806 0
 2205 00de A8F10206 		sub	r6, r8, #2
 2206              	.LVL291:
 2207              		.loc 1 807 0
 2208 00e2 023B     		subs	r3, r3, #2
 2209 00e4 9E42     		cmp	r6, r3
 2210              		.loc 1 808 0
 2211 00e6 3BBF     		ittet	cc
 2212 00e8 D36A     		ldrcc	r3, [r2, #44]
 2213 00ea 9178     		ldrbcc	r1, [r2, #2]	@ zero_extendqisi2
ARM GAS  /var/folders/4k/6h5l9jl178sb4hslwv3xp1mr0000gn/T//ccjvit50.s 			page 40


 2214              		.loc 1 807 0
 2215 00ec 0023     		movcs	r3, #0
 2216              		.loc 1 808 0
 2217 00ee 01FB0633 		mlacc	r3, r1, r6, r3
 2218              	.LBE305:
 2219              	.LBE304:
 2220              		.loc 1 1150 0
 2221 00f2 1363     		str	r3, [r2, #48]
 2222              	.LVL292:
 2223              		.loc 1 1151 0
 2224 00f4 4FF00009 		mov	r9, #0
 2225              		.loc 1 1152 0
 2226 00f8 4FF0010A 		mov	r10, #1
 2227              		.loc 1 1151 0
 2228 00fc 0CE0     		b	.L259
 2229              	.LVL293:
 2230              	.L260:
 2231              		.loc 1 1152 0
 2232 00fe 82F804A0 		strb	r10, [r2, #4]
 2233              		.loc 1 1153 0
 2234 0102 2068     		ldr	r0, [r4]
 2235 0104 FFF7FEFF 		bl	move_window
 2236              	.LVL294:
 2237 0108 09F10109 		add	r9, r9, #1
 2238              	.LVL295:
 2239 010c 0028     		cmp	r0, #0
 2240 010e CCD1     		bne	.L255
 2241              		.loc 1 1154 0
 2242 0110 2268     		ldr	r2, [r4]
 2243 0112 136B     		ldr	r3, [r2, #48]
 2244 0114 0133     		adds	r3, r3, #1
 2245 0116 1363     		str	r3, [r2, #48]
 2246              	.LVL296:
 2247              	.L259:
 2248              		.loc 1 1151 0 discriminator 1
 2249 0118 92F802C0 		ldrb	ip, [r2, #2]	@ zero_extendqisi2
 2250 011c 5FFA89F0 		uxtb	r0, r9
 2251              	.LVL297:
 2252 0120 8445     		cmp	ip, r0
 2253              		.loc 1 1153 0 discriminator 1
 2254 0122 4FF00001 		mov	r1, #0
 2255              		.loc 1 1151 0 discriminator 1
 2256 0126 1346     		mov	r3, r2
 2257 0128 E9D8     		bhi	.L260
 2258              		.loc 1 1156 0
 2259 012a 116B     		ldr	r1, [r2, #48]
 2260 012c D269     		ldr	r2, [r2, #28]
 2261 012e 091A     		subs	r1, r1, r0
 2262 0130 1963     		str	r1, [r3, #48]
 2263 0132 A3E7     		b	.L254
 2264              	.LBE306:
 2265              		.cfi_endproc
 2266              	.LFE21:
 2267              		.size	dir_next, .-dir_next
 2268 0134 AFF30080 		.section	.text.dir_read,"ax",%progbits
 2268      AFF30080 
 2268      AFF30080 
ARM GAS  /var/folders/4k/6h5l9jl178sb4hslwv3xp1mr0000gn/T//ccjvit50.s 			page 41


 2269              		.align	2
 2270              		.p2align 4,,15
 2271              		.thumb
 2272              		.thumb_func
 2273              		.type	dir_read, %function
 2274              	dir_read:
 2275              	.LFB28:
 2276              		.loc 1 1417 0
 2277              		.cfi_startproc
 2278              		@ args = 0, pretend = 0, frame = 0
 2279              		@ frame_needed = 0, uses_anonymous_args = 0
 2280              	.LVL298:
 2281 0000 2DE9F843 		push	{r3, r4, r5, r6, r7, r8, r9, lr}
 2282              		.cfi_def_cfa_offset 32
 2283              		.cfi_offset 3, -32
 2284              		.cfi_offset 4, -28
 2285              		.cfi_offset 5, -24
 2286              		.cfi_offset 6, -20
 2287              		.cfi_offset 7, -16
 2288              		.cfi_offset 8, -12
 2289              		.cfi_offset 9, -8
 2290              		.cfi_offset 14, -4
 2291              		.loc 1 1421 0
 2292 0004 FF26     		movs	r6, #255
 2293              		.loc 1 1417 0
 2294 0006 0446     		mov	r4, r0
 2295              		.loc 1 1421 0
 2296 0008 3546     		mov	r5, r6
 2297              		.loc 1 1424 0
 2298 000a 0420     		movs	r0, #4
 2299              	.LVL299:
 2300 000c 414F     		ldr	r7, .L326
 2301              		.loc 1 1425 0
 2302 000e 09E0     		b	.L284
 2303              	.LVL300:
 2304              	.L322:
 2305              		.loc 1 1433 0 discriminator 1
 2306 0010 BCF10F0F 		cmp	ip, #15
 2307 0014 1ED0     		beq	.L288
 2308              	.LVL301:
 2309              	.L310:
 2310              		.loc 1 1443 0
 2311 0016 FF25     		movs	r5, #255
 2312              	.LVL302:
 2313              	.L286:
 2314              		.loc 1 1454 0
 2315 0018 2046     		mov	r0, r4
 2316 001a 0021     		movs	r1, #0
 2317 001c FFF7FEFF 		bl	dir_next
 2318              	.LVL303:
 2319              		.loc 1 1455 0
 2320 0020 0028     		cmp	r0, #0
 2321 0022 4DD1     		bne	.L304
 2322              	.LVL304:
 2323              	.L284:
 2324              		.loc 1 1425 0 discriminator 1
 2325 0024 2169     		ldr	r1, [r4, #16]
ARM GAS  /var/folders/4k/6h5l9jl178sb4hslwv3xp1mr0000gn/T//ccjvit50.s 			page 42


 2326 0026 0029     		cmp	r1, #0
 2327 0028 4ED0     		beq	.L321
 2328              		.loc 1 1426 0
 2329 002a 2068     		ldr	r0, [r4]
 2330 002c FFF7FEFF 		bl	move_window
 2331              	.LVL305:
 2332              		.loc 1 1427 0
 2333 0030 0028     		cmp	r0, #0
 2334 0032 45D1     		bne	.L304
 2335              		.loc 1 1428 0
 2336 0034 6269     		ldr	r2, [r4, #20]
 2337              	.LVL306:
 2338              		.loc 1 1429 0
 2339 0036 1378     		ldrb	r3, [r2]	@ zero_extendqisi2
 2340              	.LVL307:
 2341              		.loc 1 1430 0
 2342 0038 002B     		cmp	r3, #0
 2343 003a 40D0     		beq	.L305
 2344              		.loc 1 1433 0
 2345 003c E52B     		cmp	r3, #229
 2346              		.loc 1 1432 0
 2347 003e D17A     		ldrb	r1, [r2, #11]	@ zero_extendqisi2
 2348              	.LVL308:
 2349              		.loc 1 1433 0
 2350 0040 E9D0     		beq	.L310
 2351              		.loc 1 1433 0 is_stmt 0 discriminator 1
 2352 0042 2E2B     		cmp	r3, #46
 2353 0044 E7D0     		beq	.L310
 2354              		.loc 1 1432 0 is_stmt 1 discriminator 1
 2355 0046 01F03F0C 		and	ip, r1, #63
 2356              		.loc 1 1433 0 discriminator 1
 2357 004a 0907     		lsls	r1, r1, #28
 2358              	.LVL309:
 2359 004c E0D4     		bmi	.L322
 2360              		.loc 1 1436 0
 2361 004e BCF10F0F 		cmp	ip, #15
 2362 0052 49D1     		bne	.L289
 2363              	.L288:
 2364              		.loc 1 1437 0
 2365 0054 5906     		lsls	r1, r3, #25
 2366 0056 2FD5     		bpl	.L290
 2367              		.loc 1 1440 0
 2368 0058 E188     		ldrh	r1, [r4, #6]
 2369              		.loc 1 1438 0
 2370 005a 567B     		ldrb	r6, [r2, #13]	@ zero_extendqisi2
 2371              	.LVL310:
 2372              		.loc 1 1440 0
 2373 005c 2184     		strh	r1, [r4, #32]	@ movhi
 2374              	.LVL311:
 2375              		.loc 1 1439 0
 2376 005e 03F0BF05 		and	r5, r3, #191
 2377              	.LVL312:
 2378              	.L291:
 2379              		.loc 1 1443 0 discriminator 1
 2380 0062 92F80DE0 		ldrb	lr, [r2, #13]	@ zero_extendqisi2
 2381 0066 B645     		cmp	lr, r6
 2382 0068 D5D1     		bne	.L310
ARM GAS  /var/folders/4k/6h5l9jl178sb4hslwv3xp1mr0000gn/T//ccjvit50.s 			page 43


 2383              	.LBB311:
 2384              	.LBB312:
 2385              		.loc 1 1225 0 discriminator 1
 2386 006a 1178     		ldrb	r1, [r2]	@ zero_extendqisi2
 2387              	.LBE312:
 2388              	.LBE311:
 2389              		.loc 1 1443 0 discriminator 1
 2390 006c D4F81C80 		ldr	r8, [r4, #28]
 2391              	.LVL313:
 2392 0070 294B     		ldr	r3, .L326+4
 2393              	.LBB315:
 2394              	.LBB313:
 2395              		.loc 1 1225 0 discriminator 1
 2396 0072 01F03F01 		and	r1, r1, #63
 2397 0076 0139     		subs	r1, r1, #1
 2398 0078 01EB4100 		add	r0, r1, r1, lsl #1
 2399              	.LVL314:
 2400 007c 01EB8000 		add	r0, r1, r0, lsl #2
 2401              	.LVL315:
 2402              		.loc 1 1227 0 discriminator 1
 2403 0080 4FF0010C 		mov	ip, #1
 2404              		.loc 1 1234 0 discriminator 1
 2405 0084 4FF6FF79 		movw	r9, #65535
 2406 0088 07E0     		b	.L296
 2407              	.LVL316:
 2408              	.L324:
 2409              		.loc 1 1231 0
 2410 008a FE28     		cmp	r0, #254
 2411 008c 11D8     		bhi	.L293
 2412              		.loc 1 1232 0
 2413 008e 28F81010 		strh	r1, [r8, r0, lsl #1]	@ movhi
 2414              		.loc 1 1229 0
 2415 0092 8C46     		mov	ip, r1
 2416              		.loc 1 1232 0
 2417 0094 0130     		adds	r0, r0, #1
 2418              	.LVL317:
 2419              	.L294:
 2420              		.loc 1 1236 0
 2421 0096 BB42     		cmp	r3, r7
 2422 0098 1AD0     		beq	.L323
 2423              	.LVL318:
 2424              	.L296:
 2425              		.loc 1 1229 0
 2426 009a 13F8011F 		ldrb	r1, [r3, #1]!	@ zero_extendqisi2
 2427              	.LVL319:
 2428 009e 5618     		adds	r6, r2, r1
 2429 00a0 515C     		ldrb	r1, [r2, r1]	@ zero_extendqisi2
 2430 00a2 7678     		ldrb	r6, [r6, #1]	@ zero_extendqisi2
 2431 00a4 41EA0621 		orr	r1, r1, r6, lsl #8
 2432              	.LVL320:
 2433              		.loc 1 1230 0
 2434 00a8 BCF1000F 		cmp	ip, #0
 2435 00ac EDD1     		bne	.L324
 2436              		.loc 1 1234 0
 2437 00ae 4945     		cmp	r1, r9
 2438 00b0 F1D0     		beq	.L294
 2439              	.LVL321:
ARM GAS  /var/folders/4k/6h5l9jl178sb4hslwv3xp1mr0000gn/T//ccjvit50.s 			page 44


 2440              	.L293:
 2441              	.LBE313:
 2442              	.LBE315:
 2443              		.loc 1 1443 0
 2444 00b2 7646     		mov	r6, lr
 2445 00b4 FF25     		movs	r5, #255
 2446              	.LVL322:
 2447 00b6 AFE7     		b	.L286
 2448              	.LVL323:
 2449              	.L290:
 2450 00b8 9D42     		cmp	r5, r3
 2451 00ba ACD1     		bne	.L310
 2452 00bc D1E7     		b	.L291
 2453              	.LVL324:
 2454              	.L305:
 2455              		.loc 1 1430 0
 2456 00be 0420     		movs	r0, #4
 2457              	.LVL325:
 2458              	.L304:
 2459              		.loc 1 1458 0 discriminator 1
 2460 00c0 0023     		movs	r3, #0
 2461 00c2 2361     		str	r3, [r4, #16]
 2462 00c4 BDE8F883 		pop	{r3, r4, r5, r6, r7, r8, r9, pc}
 2463              	.LVL326:
 2464              	.L321:
 2465              		.loc 1 1458 0 is_stmt 0
 2466 00c8 0028     		cmp	r0, #0
 2467 00ca F9D1     		bne	.L304
 2468              	.LVL327:
 2469              	.L314:
 2470              		.loc 1 1461 0 is_stmt 1
 2471 00cc BDE8F883 		pop	{r3, r4, r5, r6, r7, r8, r9, pc}
 2472              	.LVL328:
 2473              	.L323:
 2474              	.LBB316:
 2475              	.LBB314:
 2476              		.loc 1 1238 0
 2477 00d0 1378     		ldrb	r3, [r2]	@ zero_extendqisi2
 2478              	.LVL329:
 2479 00d2 5B06     		lsls	r3, r3, #25
 2480 00d4 04D5     		bpl	.L297
 2481              		.loc 1 1239 0
 2482 00d6 FE28     		cmp	r0, #254
 2483 00d8 EBD8     		bhi	.L293
 2484              		.loc 1 1240 0
 2485 00da 0023     		movs	r3, #0
 2486 00dc 28F81030 		strh	r3, [r8, r0, lsl #1]	@ movhi
 2487              	.L297:
 2488              	.LBE314:
 2489              	.LBE316:
 2490              		.loc 1 1443 0
 2491 00e0 013D     		subs	r5, r5, #1
 2492              	.LVL330:
 2493 00e2 EDB2     		uxtb	r5, r5
 2494              	.LVL331:
 2495 00e4 7646     		mov	r6, lr
 2496 00e6 97E7     		b	.L286
ARM GAS  /var/folders/4k/6h5l9jl178sb4hslwv3xp1mr0000gn/T//ccjvit50.s 			page 45


 2497              	.LVL332:
 2498              	.L289:
 2499              		.loc 1 1445 0
 2500 00e8 7DB9     		cbnz	r5, .L298
 2501 00ea 02F10A07 		add	r7, r2, #10
 2502 00ee 0146     		mov	r1, r0
 2503 00f0 01E0     		b	.L300
 2504              	.LVL333:
 2505              	.L325:
 2506 00f2 12F8013F 		ldrb	r3, [r2, #1]!	@ zero_extendqisi2
 2507              	.LVL334:
 2508              	.L300:
 2509              	.LBB317:
 2510              	.LBB318:
 2511              		.loc 1 1340 0
 2512 00f6 CD01     		lsls	r5, r1, #7
 2513 00f8 45EA5101 		orr	r1, r5, r1, lsr #1
 2514              	.LVL335:
 2515 00fc 53FA81F1 		uxtab	r1, r3, r1
 2516 0100 BA42     		cmp	r2, r7
 2517 0102 C9B2     		uxtb	r1, r1
 2518              	.LVL336:
 2519 0104 F5D1     		bne	.L325
 2520              	.LBE318:
 2521              	.LBE317:
 2522              		.loc 1 1445 0
 2523 0106 8E42     		cmp	r6, r1
 2524 0108 E0D0     		beq	.L314
 2525              	.LVL337:
 2526              	.L298:
 2527              		.loc 1 1446 0
 2528 010a 4FF6FF73 		movw	r3, #65535
 2529 010e 2384     		strh	r3, [r4, #32]	@ movhi
 2530              	.LVL338:
 2531 0110 BDE8F883 		pop	{r3, r4, r5, r6, r7, r8, r9, pc}
 2532              	.LVL339:
 2533              	.L327:
 2534              		.align	2
 2535              	.L326:
 2536 0114 0C000000 		.word	.LANCHOR2+12
 2537 0118 FFFFFFFF 		.word	.LANCHOR2-1
 2538              		.cfi_endproc
 2539              	.LFE28:
 2540              		.size	dir_read, .-dir_read
 2541 011c AFF30080 		.section	.text.dir_remove,"ax",%progbits
 2542              		.align	2
 2543              		.p2align 4,,15
 2544              		.thumb
 2545              		.thumb_func
 2546              		.type	dir_remove, %function
 2547              	dir_remove:
 2548              	.LFB30:
 2549              		.loc 1 1581 0
 2550              		.cfi_startproc
 2551              		@ args = 0, pretend = 0, frame = 0
 2552              		@ frame_needed = 0, uses_anonymous_args = 0
 2553              	.LVL340:
ARM GAS  /var/folders/4k/6h5l9jl178sb4hslwv3xp1mr0000gn/T//ccjvit50.s 			page 46


 2554 0000 F8B5     		push	{r3, r4, r5, r6, r7, lr}
 2555              		.cfi_def_cfa_offset 24
 2556              		.cfi_offset 3, -24
 2557              		.cfi_offset 4, -20
 2558              		.cfi_offset 5, -16
 2559              		.cfi_offset 6, -12
 2560              		.cfi_offset 7, -8
 2561              		.cfi_offset 14, -4
 2562              		.loc 1 1587 0
 2563 0002 018C     		ldrh	r1, [r0, #32]
 2564              		.loc 1 1586 0
 2565 0004 C588     		ldrh	r5, [r0, #6]
 2566              	.LVL341:
 2567              		.loc 1 1587 0
 2568 0006 4FF6FF73 		movw	r3, #65535
 2569 000a 9942     		cmp	r1, r3
 2570 000c 08BF     		it	eq
 2571 000e 2946     		moveq	r1, r5
 2572              		.loc 1 1581 0
 2573 0010 0446     		mov	r4, r0
 2574              		.loc 1 1587 0
 2575 0012 FFF7FEFF 		bl	dir_sdi
 2576              	.LVL342:
 2577              		.loc 1 1588 0
 2578 0016 0346     		mov	r3, r0
 2579 0018 C8B9     		cbnz	r0, .L330
 2580              		.loc 1 1592 0
 2581 001a E527     		movs	r7, #229
 2582              		.loc 1 1593 0
 2583 001c 0126     		movs	r6, #1
 2584 001e 0AE0     		b	.L333
 2585              	.LVL343:
 2586              	.L336:
 2587              		.loc 1 1592 0
 2588 0020 6269     		ldr	r2, [r4, #20]
 2589 0022 1770     		strb	r7, [r2]
 2590              		.loc 1 1593 0
 2591 0024 2268     		ldr	r2, [r4]
 2592 0026 1671     		strb	r6, [r2, #4]
 2593              		.loc 1 1594 0
 2594 0028 E288     		ldrh	r2, [r4, #6]
 2595 002a AA42     		cmp	r2, r5
 2596 002c 0FD2     		bcs	.L330
 2597              		.loc 1 1595 0
 2598 002e FFF7FEFF 		bl	dir_next
 2599              	.LVL344:
 2600              		.loc 1 1596 0
 2601 0032 0346     		mov	r3, r0
 2602 0034 40B9     		cbnz	r0, .L331
 2603              	.L333:
 2604              		.loc 1 1590 0
 2605 0036 2169     		ldr	r1, [r4, #16]
 2606 0038 2068     		ldr	r0, [r4]
 2607              	.LVL345:
 2608 003a FFF7FEFF 		bl	move_window
 2609              	.LVL346:
 2610              		.loc 1 1591 0
ARM GAS  /var/folders/4k/6h5l9jl178sb4hslwv3xp1mr0000gn/T//ccjvit50.s 			page 47


 2611 003e 0346     		mov	r3, r0
 2612              		.loc 1 1595 0
 2613 0040 0146     		mov	r1, r0
 2614 0042 2046     		mov	r0, r4
 2615              	.LVL347:
 2616              		.loc 1 1591 0
 2617 0044 002B     		cmp	r3, #0
 2618 0046 EBD0     		beq	.L336
 2619              	.L331:
 2620              	.LVL348:
 2621              		.loc 1 1597 0
 2622 0048 042B     		cmp	r3, #4
 2623 004a 08BF     		it	eq
 2624 004c 0223     		moveq	r3, #2
 2625              	.LVL349:
 2626              	.L330:
 2627              		.loc 1 1612 0
 2628 004e 1846     		mov	r0, r3
 2629 0050 F8BD     		pop	{r3, r4, r5, r6, r7, pc}
 2630              		.cfi_endproc
 2631              	.LFE30:
 2632              		.size	dir_remove, .-dir_remove
 2633 0052 00BFAFF3 		.section	.text.dir_find.part.8,"ax",%progbits
 2633      0080AFF3 
 2633      0080AFF3 
 2633      0080
 2634              		.align	2
 2635              		.p2align 4,,15
 2636              		.thumb
 2637              		.thumb_func
 2638              		.type	dir_find.part.8, %function
 2639              	dir_find.part.8:
 2640              	.LFB66:
 2641              		.loc 1 1353 0
 2642              		.cfi_startproc
 2643              		@ args = 0, pretend = 0, frame = 16
 2644              		@ frame_needed = 0, uses_anonymous_args = 0
 2645              	.LVL350:
 2646 0000 2DE9F04F 		push	{r4, r5, r6, r7, r8, r9, r10, fp, lr}
 2647              		.cfi_def_cfa_offset 36
 2648              		.cfi_offset 4, -36
 2649              		.cfi_offset 5, -32
 2650              		.cfi_offset 6, -28
 2651              		.cfi_offset 7, -24
 2652              		.cfi_offset 8, -20
 2653              		.cfi_offset 9, -16
 2654              		.cfi_offset 10, -12
 2655              		.cfi_offset 11, -8
 2656              		.cfi_offset 14, -4
 2657 0004 FF26     		movs	r6, #255
 2658 0006 85B0     		sub	sp, sp, #20
 2659              		.cfi_def_cfa_offset 56
 2660 0008 534F     		ldr	r7, .L379
 2661              		.loc 1 1353 0
 2662 000a 0546     		mov	r5, r0
 2663 000c B046     		mov	r8, r6
 2664 000e 09E0     		b	.L357
ARM GAS  /var/folders/4k/6h5l9jl178sb4hslwv3xp1mr0000gn/T//ccjvit50.s 			page 48


 2665              	.LVL351:
 2666              	.L376:
 2667              		.loc 1 1377 0
 2668 0010 0F29     		cmp	r1, #15
 2669 0012 43D0     		beq	.L341
 2670              	.LVL352:
 2671              	.L363:
 2672              		.loc 1 1392 0
 2673 0014 4FF0FF08 		mov	r8, #255
 2674              	.LVL353:
 2675              	.L339:
 2676              		.loc 1 1400 0
 2677 0018 2846     		mov	r0, r5
 2678 001a 0021     		movs	r1, #0
 2679 001c FFF7FEFF 		bl	dir_next
 2680              	.LVL354:
 2681              		.loc 1 1401 0
 2682 0020 0028     		cmp	r0, #0
 2683 0022 38D1     		bne	.L367
 2684              	.LVL355:
 2685              	.L357:
 2686              		.loc 1 1370 0
 2687 0024 2868     		ldr	r0, [r5]
 2688 0026 2969     		ldr	r1, [r5, #16]
 2689 0028 FFF7FEFF 		bl	move_window
 2690              	.LVL356:
 2691              		.loc 1 1371 0
 2692 002c 0028     		cmp	r0, #0
 2693 002e 32D1     		bne	.L367
 2694              		.loc 1 1372 0
 2695 0030 6C69     		ldr	r4, [r5, #20]
 2696              	.LVL357:
 2697              		.loc 1 1373 0
 2698 0032 2378     		ldrb	r3, [r4]	@ zero_extendqisi2
 2699              	.LVL358:
 2700              		.loc 1 1374 0
 2701 0034 002B     		cmp	r3, #0
 2702 0036 78D0     		beq	.L358
 2703              		.loc 1 1376 0
 2704 0038 E27A     		ldrb	r2, [r4, #11]	@ zero_extendqisi2
 2705              		.loc 1 1377 0
 2706 003a E52B     		cmp	r3, #229
 2707              		.loc 1 1376 0
 2708 003c 02F03F01 		and	r1, r2, #63
 2709              	.LVL359:
 2710              		.loc 1 1377 0
 2711 0040 E8D0     		beq	.L363
 2712 0042 1207     		lsls	r2, r2, #28
 2713 0044 E4D4     		bmi	.L376
 2714              		.loc 1 1380 0
 2715 0046 0F29     		cmp	r1, #15
 2716 0048 28D0     		beq	.L341
 2717              		.loc 1 1391 0
 2718 004a B8F1000F 		cmp	r8, #0
 2719 004e 11D1     		bne	.L351
 2720 0050 9C46     		mov	ip, r3
 2721 0052 2246     		mov	r2, r4
ARM GAS  /var/folders/4k/6h5l9jl178sb4hslwv3xp1mr0000gn/T//ccjvit50.s 			page 49


 2722 0054 04F10A08 		add	r8, r4, #10
 2723              	.LVL360:
 2724 0058 0346     		mov	r3, r0
 2725 005a 01E0     		b	.L353
 2726              	.LVL361:
 2727              	.L377:
 2728 005c 12F801CF 		ldrb	ip, [r2, #1]!	@ zero_extendqisi2
 2729              	.LVL362:
 2730              	.L353:
 2731              	.LBB325:
 2732              	.LBB326:
 2733              		.loc 1 1340 0
 2734 0060 D901     		lsls	r1, r3, #7
 2735 0062 41EA5303 		orr	r3, r1, r3, lsr #1
 2736              	.LVL363:
 2737 0066 5CFA83F3 		uxtab	r3, ip, r3
 2738 006a 4245     		cmp	r2, r8
 2739 006c DBB2     		uxtb	r3, r3
 2740              	.LVL364:
 2741 006e F5D1     		bne	.L377
 2742              	.LBE326:
 2743              	.LBE325:
 2744              		.loc 1 1391 0
 2745 0070 B342     		cmp	r3, r6
 2746 0072 10D0     		beq	.L367
 2747              	.LVL365:
 2748              	.L351:
 2749              		.loc 1 1392 0
 2750 0074 4FF6FF72 		movw	r2, #65535
 2751              		.loc 1 1393 0
 2752 0078 AB69     		ldr	r3, [r5, #24]
 2753              		.loc 1 1392 0
 2754 007a 2A84     		strh	r2, [r5, #32]	@ movhi
 2755              	.LVL366:
 2756              		.loc 1 1393 0
 2757 007c DA7A     		ldrb	r2, [r3, #11]	@ zero_extendqisi2
 2758 007e D207     		lsls	r2, r2, #31
 2759 0080 C8D4     		bmi	.L363
 2760 0082 04F10B0C 		add	ip, r4, #11
 2761              	.LVL367:
 2762              	.L354:
 2763              	.LBB327:
 2764              	.LBB328:
 2765              		.loc 1 559 0
 2766 0086 14F8011B 		ldrb	r1, [r4], #1	@ zero_extendqisi2
 2767              	.LVL368:
 2768 008a 13F8012B 		ldrb	r2, [r3], #1	@ zero_extendqisi2
 2769              	.LVL369:
 2770 008e 9142     		cmp	r1, r2
 2771 0090 C0D1     		bne	.L363
 2772 0092 6445     		cmp	r4, ip
 2773 0094 F7D1     		bne	.L354
 2774              	.LVL370:
 2775              	.L367:
 2776              	.LBE328:
 2777              	.LBE327:
 2778              		.loc 1 1404 0
ARM GAS  /var/folders/4k/6h5l9jl178sb4hslwv3xp1mr0000gn/T//ccjvit50.s 			page 50


 2779 0096 05B0     		add	sp, sp, #20
 2780              		@ sp needed
 2781 0098 BDE8F08F 		pop	{r4, r5, r6, r7, r8, r9, r10, fp, pc}
 2782              	.LVL371:
 2783              	.L341:
 2784              		.loc 1 1381 0
 2785 009c EA69     		ldr	r2, [r5, #28]
 2786 009e 002A     		cmp	r2, #0
 2787 00a0 BAD0     		beq	.L339
 2788              		.loc 1 1382 0
 2789 00a2 5806     		lsls	r0, r3, #25
 2790              	.LVL372:
 2791 00a4 3DD5     		bpl	.L343
 2792              		.loc 1 1385 0
 2793 00a6 E988     		ldrh	r1, [r5, #6]
 2794              	.LVL373:
 2795              		.loc 1 1383 0
 2796 00a8 667B     		ldrb	r6, [r4, #13]	@ zero_extendqisi2
 2797              	.LVL374:
 2798              		.loc 1 1385 0
 2799 00aa 2984     		strh	r1, [r5, #32]	@ movhi
 2800              	.LVL375:
 2801              		.loc 1 1384 0
 2802 00ac 03F0BF08 		and	r8, r3, #191
 2803              	.LVL376:
 2804              	.L344:
 2805              		.loc 1 1388 0
 2806 00b0 94F80DA0 		ldrb	r10, [r4, #13]	@ zero_extendqisi2
 2807 00b4 B245     		cmp	r10, r6
 2808 00b6 ADD1     		bne	.L363
 2809              	.LVL377:
 2810              	.LBB329:
 2811              	.LBB330:
 2812              		.loc 1 1194 0
 2813 00b8 2378     		ldrb	r3, [r4]	@ zero_extendqisi2
 2814 00ba 284E     		ldr	r6, .L379+4
 2815              	.LVL378:
 2816 00bc 23F04003 		bic	r3, r3, #64
 2817 00c0 013B     		subs	r3, r3, #1
 2818 00c2 03EB430C 		add	ip, r3, r3, lsl #1
 2819 00c6 03EB8C0C 		add	ip, r3, ip, lsl #2
 2820              	.LVL379:
 2821              		.loc 1 1195 0
 2822 00ca 4FF0010B 		mov	fp, #1
 2823              		.loc 1 1203 0
 2824 00ce 4FF6FF79 		movw	r9, #65535
 2825 00d2 03E0     		b	.L349
 2826              	.LVL380:
 2827              	.L345:
 2828 00d4 4845     		cmp	r0, r9
 2829 00d6 35D1     		bne	.L346
 2830              	.LVL381:
 2831              	.L347:
 2832              		.loc 1 1205 0
 2833 00d8 BE42     		cmp	r6, r7
 2834 00da 2AD0     		beq	.L378
 2835              	.LVL382:
ARM GAS  /var/folders/4k/6h5l9jl178sb4hslwv3xp1mr0000gn/T//ccjvit50.s 			page 51


 2836              	.L349:
 2837              		.loc 1 1197 0
 2838 00dc 16F8013F 		ldrb	r3, [r6, #1]!	@ zero_extendqisi2
 2839              	.LVL383:
 2840 00e0 E018     		adds	r0, r4, r3
 2841 00e2 E35C     		ldrb	r3, [r4, r3]	@ zero_extendqisi2
 2842 00e4 4078     		ldrb	r0, [r0, #1]	@ zero_extendqisi2
 2843 00e6 43EA0020 		orr	r0, r3, r0, lsl #8
 2844              	.LVL384:
 2845              		.loc 1 1198 0
 2846 00ea BBF1000F 		cmp	fp, #0
 2847 00ee F1D0     		beq	.L345
 2848              		.loc 1 1200 0
 2849 00f0 0CF10103 		add	r3, ip, #1
 2850              		.loc 1 1199 0
 2851 00f4 0192     		str	r2, [sp, #4]
 2852 00f6 CDF808C0 		str	ip, [sp, #8]
 2853              		.loc 1 1200 0
 2854 00fa 0393     		str	r3, [sp, #12]
 2855              		.loc 1 1199 0
 2856 00fc FFF7FEFF 		bl	ff_wtoupper
 2857              	.LVL385:
 2858              		.loc 1 1200 0
 2859 0100 DDF808C0 		ldr	ip, [sp, #8]
 2860 0104 019A     		ldr	r2, [sp, #4]
 2861 0106 BCF1FE0F 		cmp	ip, #254
 2862              		.loc 1 1199 0
 2863 010a 8346     		mov	fp, r0
 2864              	.LVL386:
 2865              		.loc 1 1200 0
 2866 010c 1AD8     		bhi	.L346
 2867 010e 32F81C00 		ldrh	r0, [r2, ip, lsl #1]
 2868              	.LVL387:
 2869 0112 FFF7FEFF 		bl	ff_wtoupper
 2870              	.LVL388:
 2871 0116 8345     		cmp	fp, r0
 2872 0118 019A     		ldr	r2, [sp, #4]
 2873 011a 13D1     		bne	.L346
 2874 011c DDF80CC0 		ldr	ip, [sp, #12]
 2875 0120 DAE7     		b	.L347
 2876              	.LVL389:
 2877              	.L343:
 2878              	.LBE330:
 2879              	.LBE329:
 2880              		.loc 1 1388 0
 2881 0122 4345     		cmp	r3, r8
 2882 0124 7FF476AF 		bne	.L363
 2883 0128 C2E7     		b	.L344
 2884              	.LVL390:
 2885              	.L358:
 2886              		.loc 1 1374 0
 2887 012a 0420     		movs	r0, #4
 2888              	.LVL391:
 2889              		.loc 1 1404 0
 2890 012c 05B0     		add	sp, sp, #20
 2891              		@ sp needed
 2892 012e BDE8F08F 		pop	{r4, r5, r6, r7, r8, r9, r10, fp, pc}
ARM GAS  /var/folders/4k/6h5l9jl178sb4hslwv3xp1mr0000gn/T//ccjvit50.s 			page 52


 2893              	.LVL392:
 2894              	.L378:
 2895              	.LBB332:
 2896              	.LBB331:
 2897              		.loc 1 1207 0
 2898 0132 2378     		ldrb	r3, [r4]	@ zero_extendqisi2
 2899 0134 5906     		lsls	r1, r3, #25
 2900 0136 09D5     		bpl	.L350
 2901 0138 BBF1000F 		cmp	fp, #0
 2902 013c 06D0     		beq	.L350
 2903 013e 32F81C30 		ldrh	r3, [r2, ip, lsl #1]
 2904 0142 1BB1     		cbz	r3, .L350
 2905              	.LVL393:
 2906              	.L346:
 2907              	.LBE331:
 2908              	.LBE332:
 2909              		.loc 1 1388 0
 2910 0144 5646     		mov	r6, r10
 2911 0146 4FF0FF08 		mov	r8, #255
 2912              	.LVL394:
 2913 014a 65E7     		b	.L339
 2914              	.LVL395:
 2915              	.L350:
 2916 014c 08F1FF38 		add	r8, r8, #-1
 2917              	.LVL396:
 2918 0150 5FFA88F8 		uxtb	r8, r8
 2919              	.LVL397:
 2920 0154 5646     		mov	r6, r10
 2921              	.LVL398:
 2922 0156 5FE7     		b	.L339
 2923              	.L380:
 2924              		.align	2
 2925              	.L379:
 2926 0158 0C000000 		.word	.LANCHOR2+12
 2927 015c FFFFFFFF 		.word	.LANCHOR2-1
 2928              		.cfi_endproc
 2929              	.LFE66:
 2930              		.size	dir_find.part.8, .-dir_find.part.8
 2931              		.section	.text.remove_chain.part.9,"ax",%progbits
 2932              		.align	2
 2933              		.p2align 4,,15
 2934              		.thumb
 2935              		.thumb_func
 2936              		.type	remove_chain.part.9, %function
 2937              	remove_chain.part.9:
 2938              	.LFB67:
 2939              		.loc 1 925 0
 2940              		.cfi_startproc
 2941              		@ args = 0, pretend = 0, frame = 0
 2942              		@ frame_needed = 0, uses_anonymous_args = 0
 2943              	.LVL399:
 2944 0000 F8B5     		push	{r3, r4, r5, r6, r7, lr}
 2945              		.cfi_def_cfa_offset 24
 2946              		.cfi_offset 3, -24
 2947              		.cfi_offset 4, -20
 2948              		.cfi_offset 5, -16
 2949              		.cfi_offset 6, -12
ARM GAS  /var/folders/4k/6h5l9jl178sb4hslwv3xp1mr0000gn/T//ccjvit50.s 			page 53


 2950              		.cfi_offset 7, -8
 2951              		.cfi_offset 14, -4
 2952              		.loc 1 925 0
 2953 0002 0446     		mov	r4, r0
 2954 0004 0D46     		mov	r5, r1
 2955              		.loc 1 941 0
 2956 0006 E369     		ldr	r3, [r4, #28]
 2957 0008 9D42     		cmp	r5, r3
 2958              		.loc 1 950 0
 2959 000a 4FF00107 		mov	r7, #1
 2960              	.LVL400:
 2961              		.loc 1 941 0
 2962 000e 20D2     		bcs	.L389
 2963              	.LVL401:
 2964              	.L388:
 2965              	.LBB333:
 2966              	.LBB334:
 2967              		.loc 1 828 0
 2968 0010 012D     		cmp	r5, #1
 2969 0012 0CD9     		bls	.L386
 2970 0014 2046     		mov	r0, r4
 2971 0016 2946     		mov	r1, r5
 2972 0018 FFF7FEFF 		bl	get_fat.part.6
 2973              	.LVL402:
 2974              	.LBE334:
 2975              	.LBE333:
 2976              		.loc 1 943 0
 2977 001c 0646     		mov	r6, r0
 2978 001e C0B1     		cbz	r0, .L389
 2979              		.loc 1 944 0
 2980 0020 0128     		cmp	r0, #1
 2981 0022 04D0     		beq	.L386
 2982              		.loc 1 945 0
 2983 0024 411C     		adds	r1, r0, #1
 2984 0026 16D0     		beq	.L390
 2985              	.LBB335:
 2986              	.LBB336:
 2987              		.loc 1 873 0
 2988 0028 E369     		ldr	r3, [r4, #28]
 2989 002a 9D42     		cmp	r5, r3
 2990 002c 01D3     		bcc	.L397
 2991              	.LVL403:
 2992              	.L386:
 2993              	.LBE336:
 2994              	.LBE335:
 2995              		.loc 1 944 0
 2996 002e 0220     		movs	r0, #2
 2997 0030 F8BD     		pop	{r3, r4, r5, r6, r7, pc}
 2998              	.LVL404:
 2999              	.L397:
 3000              	.LBB338:
 3001              	.LBB337:
 3002 0032 2946     		mov	r1, r5
 3003 0034 2046     		mov	r0, r4
 3004 0036 0022     		movs	r2, #0
 3005 0038 FFF7FEFF 		bl	put_fat.part.7
 3006              	.LVL405:
ARM GAS  /var/folders/4k/6h5l9jl178sb4hslwv3xp1mr0000gn/T//ccjvit50.s 			page 54


 3007              	.LBE337:
 3008              	.LBE338:
 3009              		.loc 1 947 0
 3010 003c 60B9     		cbnz	r0, .L384
 3011              		.loc 1 948 0
 3012 003e 6369     		ldr	r3, [r4, #20]
 3013 0040 5A1C     		adds	r2, r3, #1
 3014 0042 02D0     		beq	.L387
 3015              		.loc 1 949 0
 3016 0044 0133     		adds	r3, r3, #1
 3017 0046 6361     		str	r3, [r4, #20]
 3018              		.loc 1 950 0
 3019 0048 6771     		strb	r7, [r4, #5]
 3020              	.L387:
 3021              		.loc 1 941 0
 3022 004a E369     		ldr	r3, [r4, #28]
 3023              		.loc 1 925 0
 3024 004c 3546     		mov	r5, r6
 3025              	.LVL406:
 3026              		.loc 1 941 0
 3027 004e 9D42     		cmp	r5, r3
 3028 0050 DED3     		bcc	.L388
 3029              	.LVL407:
 3030              	.L389:
 3031              		.loc 1 925 0
 3032 0052 0020     		movs	r0, #0
 3033 0054 F8BD     		pop	{r3, r4, r5, r6, r7, pc}
 3034              	.LVL408:
 3035              	.L390:
 3036              		.loc 1 945 0
 3037 0056 0120     		movs	r0, #1
 3038              	.LVL409:
 3039              	.L384:
 3040              		.loc 1 967 0
 3041 0058 F8BD     		pop	{r3, r4, r5, r6, r7, pc}
 3042              		.cfi_endproc
 3043              	.LFE67:
 3044              		.size	remove_chain.part.9, .-remove_chain.part.9
 3045 005a 00BFAFF3 		.section	.text.follow_path,"ax",%progbits
 3045      0080
 3046              		.align	2
 3047              		.p2align 4,,15
 3048              		.thumb
 3049              		.thumb_func
 3050              		.type	follow_path, %function
 3051              	follow_path:
 3052              	.LFB33:
 3053              		.loc 1 1923 0
 3054              		.cfi_startproc
 3055              		@ args = 0, pretend = 0, frame = 8
 3056              		@ frame_needed = 0, uses_anonymous_args = 0
 3057              	.LVL410:
 3058 0000 2DE9F04F 		push	{r4, r5, r6, r7, r8, r9, r10, fp, lr}
 3059              		.cfi_def_cfa_offset 36
 3060              		.cfi_offset 4, -36
 3061              		.cfi_offset 5, -32
 3062              		.cfi_offset 6, -28
ARM GAS  /var/folders/4k/6h5l9jl178sb4hslwv3xp1mr0000gn/T//ccjvit50.s 			page 55


 3063              		.cfi_offset 7, -24
 3064              		.cfi_offset 8, -20
 3065              		.cfi_offset 9, -16
 3066              		.cfi_offset 10, -12
 3067              		.cfi_offset 11, -8
 3068              		.cfi_offset 14, -4
 3069              		.loc 1 1935 0
 3070 0004 0B78     		ldrb	r3, [r1]	@ zero_extendqisi2
 3071 0006 2F2B     		cmp	r3, #47
 3072              		.loc 1 1923 0
 3073 0008 83B0     		sub	sp, sp, #12
 3074              		.cfi_def_cfa_offset 48
 3075              		.loc 1 1923 0
 3076 000a 8846     		mov	r8, r1
 3077 000c 0546     		mov	r5, r0
 3078              		.loc 1 1935 0
 3079 000e 00F03881 		beq	.L399
 3080              		.loc 1 1935 0 is_stmt 0 discriminator 1
 3081 0012 5C2B     		cmp	r3, #92
 3082 0014 00F03581 		beq	.L399
 3083              		.loc 1 1937 0 is_stmt 1
 3084 0018 0024     		movs	r4, #0
 3085 001a AC60     		str	r4, [r5, #8]
 3086              		.loc 1 1940 0
 3087 001c 98F80030 		ldrb	r3, [r8]	@ zero_extendqisi2
 3088 0020 1F2B     		cmp	r3, #31
 3089 0022 40F23781 		bls	.L534
 3090              	.LVL411:
 3091              	.L401:
 3092              	.LBB349:
 3093              	.LBB350:
 3094              		.loc 1 1710 0
 3095 0026 AA4E     		ldr	r6, .L542
 3096              	.LVL412:
 3097 0028 01E0     		b	.L403
 3098              	.LVL413:
 3099              	.L404:
 3100 002a 18F8013F 		ldrb	r3, [r8, #1]!	@ zero_extendqisi2
 3101              	.LVL414:
 3102              	.L403:
 3103              		.loc 1 1639 0
 3104 002e 2F2B     		cmp	r3, #47
 3105 0030 FBD0     		beq	.L404
 3106 0032 5C2B     		cmp	r3, #92
 3107 0034 F9D0     		beq	.L404
 3108              		.loc 1 1644 0
 3109 0036 1F2B     		cmp	r3, #31
 3110              		.loc 1 1643 0
 3111 0038 1846     		mov	r0, r3
 3112              		.loc 1 1640 0
 3113 003a EF69     		ldr	r7, [r5, #28]
 3114              	.LVL415:
 3115              		.loc 1 1644 0
 3116 003c 40F2F080 		bls	.L457
 3117 0040 2F2B     		cmp	r3, #47
 3118 0042 2FD0     		beq	.L459
 3119 0044 5C2B     		cmp	r3, #92
ARM GAS  /var/folders/4k/6h5l9jl178sb4hslwv3xp1mr0000gn/T//ccjvit50.s 			page 56


 3120 0046 2DD0     		beq	.L459
 3121              		.loc 1 1655 0
 3122 0048 0121     		movs	r1, #1
 3123 004a A7F1020A 		sub	r10, r7, #2
 3124 004e C146     		mov	r9, r8
 3125              		.loc 1 1643 0
 3126 0050 0124     		movs	r4, #1
 3127              	.LVL416:
 3128              		.loc 1 1655 0
 3129 0052 FFF7FEFF 		bl	ff_convert
 3130              	.LVL417:
 3131              		.loc 1 1656 0
 3132 0056 08B3     		cbz	r0, .L408
 3133              	.LVL418:
 3134              	.L536:
 3135              		.loc 1 1658 0
 3136 0058 7F28     		cmp	r0, #127
 3137 005a 09D8     		bhi	.L409
 3138              	.LVL419:
 3139              	.LBB351:
 3140              	.LBB352:
 3141              		.loc 1 566 0
 3142 005c 2228     		cmp	r0, #34
 3143 005e 1DD0     		beq	.L408
 3144 0060 9C4A     		ldr	r2, .L542+4
 3145 0062 01E0     		b	.L410
 3146              	.LVL420:
 3147              	.L535:
 3148 0064 9842     		cmp	r0, r3
 3149 0066 19D0     		beq	.L408
 3150              	.LVL421:
 3151              	.L410:
 3152 0068 12F8013F 		ldrb	r3, [r2, #1]!	@ zero_extendqisi2
 3153              	.LVL422:
 3154 006c 002B     		cmp	r3, #0
 3155 006e F9D1     		bne	.L535
 3156              	.LVL423:
 3157              	.L409:
 3158              	.LBE352:
 3159              	.LBE351:
 3160              		.loc 1 1660 0
 3161 0070 2AF8020F 		strh	r0, [r10, #2]!	@ movhi
 3162              		.loc 1 1643 0
 3163 0074 19F8010F 		ldrb	r0, [r9, #1]!	@ zero_extendqisi2
 3164              	.LVL424:
 3165              		.loc 1 1644 0
 3166 0078 1F28     		cmp	r0, #31
 3167              		.loc 1 1643 0
 3168 007a 04F10103 		add	r3, r4, #1
 3169              	.LVL425:
 3170              		.loc 1 1644 0
 3171 007e 40F2D180 		bls	.L405
 3172 0082 2F28     		cmp	r0, #47
 3173 0084 10D0     		beq	.L406
 3174 0086 5C28     		cmp	r0, #92
 3175 0088 0ED0     		beq	.L406
 3176              		.loc 1 1645 0
ARM GAS  /var/folders/4k/6h5l9jl178sb4hslwv3xp1mr0000gn/T//ccjvit50.s 			page 57


 3177 008a B3F5807F 		cmp	r3, #256
 3178 008e 05D0     		beq	.L408
 3179              		.loc 1 1655 0
 3180 0090 0121     		movs	r1, #1
 3181              		.loc 1 1643 0
 3182 0092 1C46     		mov	r4, r3
 3183              	.LVL426:
 3184              		.loc 1 1655 0
 3185 0094 FFF7FEFF 		bl	ff_convert
 3186              	.LVL427:
 3187              		.loc 1 1656 0
 3188 0098 0028     		cmp	r0, #0
 3189 009a DDD1     		bne	.L536
 3190              	.LVL428:
 3191              	.L408:
 3192              		.loc 1 1702 0
 3193 009c 0620     		movs	r0, #6
 3194              	.LVL429:
 3195              	.L485:
 3196              	.LBE350:
 3197              	.LBE349:
 3198              		.loc 1 1972 0
 3199 009e 03B0     		add	sp, sp, #12
 3200              		@ sp needed
 3201 00a0 BDE8F08F 		pop	{r4, r5, r6, r7, r8, r9, r10, fp, pc}
 3202              	.LVL430:
 3203              	.L459:
 3204              	.LBB361:
 3205              	.LBB357:
 3206              		.loc 1 1641 0
 3207 00a4 0024     		movs	r4, #0
 3208              		.loc 1 1643 0
 3209 00a6 0123     		movs	r3, #1
 3210              	.LVL431:
 3211              	.L406:
 3212              		.loc 1 1662 0
 3213 00a8 9844     		add	r8, r8, r3
 3214              	.LVL432:
 3215              		.loc 1 1663 0
 3216 00aa 4FF0000A 		mov	r10, #0
 3217              	.L450:
 3218              	.LVL433:
 3219              		.loc 1 1674 0
 3220 00ae 002C     		cmp	r4, #0
 3221 00b0 F4D0     		beq	.L408
 3222 00b2 07EB4400 		add	r0, r7, r4, lsl #1
 3223              	.LVL434:
 3224              	.L414:
 3225              		.loc 1 1675 0
 3226 00b6 30F8022D 		ldrh	r2, [r0, #-2]!
 3227              	.LVL435:
 3228              		.loc 1 1676 0
 3229 00ba 202A     		cmp	r2, #32
 3230 00bc 01D0     		beq	.L412
 3231 00be 2E2A     		cmp	r2, #46
 3232 00c0 02D1     		bne	.L413
 3233              	.L412:
ARM GAS  /var/folders/4k/6h5l9jl178sb4hslwv3xp1mr0000gn/T//ccjvit50.s 			page 58


 3234              		.loc 1 1674 0
 3235 00c2 013C     		subs	r4, r4, #1
 3236              	.LVL436:
 3237 00c4 F7D1     		bne	.L414
 3238 00c6 E9E7     		b	.L408
 3239              	.LVL437:
 3240              	.L413:
 3241              		.loc 1 1684 0
 3242 00c8 AA69     		ldr	r2, [r5, #24]
 3243              	.LVL438:
 3244              		.loc 1 1681 0
 3245 00ca 0023     		movs	r3, #0
 3246 00cc 27F81430 		strh	r3, [r7, r4, lsl #1]	@ movhi
 3247              	.LVL439:
 3248 00d0 02F10B00 		add	r0, r2, #11
 3249 00d4 07EB440E 		add	lr, r7, r4, lsl #1
 3250              	.LBB353:
 3251              	.LBB354:
 3252              		.loc 1 550 0
 3253 00d8 2021     		movs	r1, #32
 3254              	.LVL440:
 3255              	.L451:
 3256 00da 02F8011B 		strb	r1, [r2], #1
 3257              	.LVL441:
 3258              		.loc 1 549 0
 3259 00de 8242     		cmp	r2, r0
 3260 00e0 FBD1     		bne	.L451
 3261 00e2 BB1E     		subs	r3, r7, #2
 3262 00e4 4FF00009 		mov	r9, #0
 3263 00e8 01E0     		b	.L416
 3264              	.LVL442:
 3265              	.L417:
 3266              	.LBE354:
 3267              	.LBE353:
 3268              		.loc 1 1685 0
 3269 00ea 09F10109 		add	r9, r9, #1
 3270              	.LVL443:
 3271              	.L416:
 3272 00ee 33F8022F 		ldrh	r2, [r3, #2]!
 3273 00f2 202A     		cmp	r2, #32
 3274 00f4 F9D0     		beq	.L417
 3275 00f6 2E2A     		cmp	r2, #46
 3276 00f8 F7D0     		beq	.L417
 3277              		.loc 1 1686 0
 3278 00fa B9F1000F 		cmp	r9, #0
 3279 00fe 01D0     		beq	.L418
 3280 0100 4AF0030A 		orr	r10, r10, #3
 3281              	.LVL444:
 3282              	.L418:
 3283 0104 7346     		mov	r3, lr
 3284              	.LVL445:
 3285              	.L419:
 3286              		.loc 1 1687 0
 3287 0106 33F8021D 		ldrh	r1, [r3, #-2]!
 3288 010a 2E29     		cmp	r1, #46
 3289 010c 01D0     		beq	.L423
 3290 010e 013C     		subs	r4, r4, #1
ARM GAS  /var/folders/4k/6h5l9jl178sb4hslwv3xp1mr0000gn/T//ccjvit50.s 			page 59


 3291              	.LVL446:
 3292 0110 F9D1     		bne	.L419
 3293              	.LVL447:
 3294              	.L423:
 3295              		.loc 1 1685 0
 3296 0112 0023     		movs	r3, #0
 3297 0114 9C46     		mov	ip, r3
 3298 0116 4FF0080B 		mov	fp, #8
 3299              	.LVL448:
 3300              	.L421:
 3301              		.loc 1 1691 0
 3302 011a 09F10109 		add	r9, r9, #1
 3303              	.LVL449:
 3304              		.loc 1 1692 0
 3305 011e 82B3     		cbz	r2, .L424
 3306              		.loc 1 1693 0
 3307 0120 202A     		cmp	r2, #32
 3308 0122 1FD0     		beq	.L425
 3309 0124 2E2A     		cmp	r2, #46
 3310 0126 1BD0     		beq	.L537
 3311              		.loc 1 1697 0
 3312 0128 5B45     		cmp	r3, fp
 3313 012a 20D2     		bcs	.L429
 3314 012c 4C45     		cmp	r4, r9
 3315 012e 7DD0     		beq	.L427
 3316              		.loc 1 1707 0
 3317 0130 7F2A     		cmp	r2, #127
 3318 0132 00F28780 		bhi	.L538
 3319              	.LVL450:
 3320              	.L434:
 3321              	.LBB355:
 3322              	.LBB356:
 3323              		.loc 1 566 0
 3324 0136 2B2A     		cmp	r2, #43
 3325 0138 00F09580 		beq	.L436
 3326 013c 6648     		ldr	r0, .L542+8
 3327 013e 02E0     		b	.L456
 3328              	.LVL451:
 3329              	.L539:
 3330 0140 8A42     		cmp	r2, r1
 3331 0142 00F09080 		beq	.L436
 3332              	.LVL452:
 3333              	.L456:
 3334 0146 10F8011F 		ldrb	r1, [r0, #1]!	@ zero_extendqisi2
 3335              	.LVL453:
 3336 014a 0029     		cmp	r1, #0
 3337 014c F8D1     		bne	.L539
 3338              	.LBE356:
 3339              	.LBE355:
 3340              		.loc 1 1726 0
 3341 014e A2F14101 		sub	r1, r2, #65
 3342 0152 1929     		cmp	r1, #25
 3343 0154 00F2A980 		bhi	.L540
 3344              		.loc 1 1727 0
 3345 0158 4CF0020C 		orr	ip, ip, #2
 3346              	.LVL454:
 3347 015c D2B2     		uxtb	r2, r2
ARM GAS  /var/folders/4k/6h5l9jl178sb4hslwv3xp1mr0000gn/T//ccjvit50.s 			page 60


 3348              	.LVL455:
 3349 015e 85E0     		b	.L439
 3350              	.LVL456:
 3351              	.L537:
 3352              		.loc 1 1693 0
 3353 0160 4C45     		cmp	r4, r9
 3354 0162 63D0     		beq	.L427
 3355              	.L425:
 3356              		.loc 1 1694 0
 3357 0164 4AF0030A 		orr	r10, r10, #3
 3358              	.LVL457:
 3359              	.L428:
 3360 0168 37F81920 		ldrh	r2, [r7, r9, lsl #1]
 3361 016c D5E7     		b	.L421
 3362              	.LVL458:
 3363              	.L429:
 3364              		.loc 1 1698 0
 3365 016e BBF10B0F 		cmp	fp, #11
 3366 0172 00F0A880 		beq	.L455
 3367              		.loc 1 1701 0
 3368 0176 4C45     		cmp	r4, r9
 3369 0178 5BD0     		beq	.L433
 3370              		.loc 1 1702 0
 3371 017a A145     		cmp	r9, r4
 3372              		.loc 1 1701 0
 3373 017c 4AF0030A 		orr	r10, r10, #3
 3374              	.LVL459:
 3375              		.loc 1 1702 0
 3376 0180 57D9     		bls	.L433
 3377              	.LVL460:
 3378              	.L424:
 3379              		.loc 1 1738 0
 3380 0182 AB69     		ldr	r3, [r5, #24]
 3381              	.LVL461:
 3382 0184 1A78     		ldrb	r2, [r3]	@ zero_extendqisi2
 3383              	.LVL462:
 3384 0186 E52A     		cmp	r2, #229
 3385 0188 77D0     		beq	.L541
 3386              	.L441:
 3387              		.loc 1 1740 0
 3388 018a BBF1080F 		cmp	fp, #8
 3389 018e 04BF     		itt	eq
 3390 0190 4FEA8C0C 		lsleq	ip, ip, #2
 3391              	.LVL463:
 3392 0194 5FFA8CFC 		uxtbeq	ip, ip
 3393              	.LVL464:
 3394              		.loc 1 1741 0
 3395 0198 0CF00C02 		and	r2, ip, #12
 3396 019c 0C2A     		cmp	r2, #12
 3397 019e 69D0     		beq	.L443
 3398 01a0 0CF00301 		and	r1, ip, #3
 3399 01a4 0329     		cmp	r1, #3
 3400 01a6 65D0     		beq	.L443
 3401              	.LVL465:
 3402              	.L444:
 3403              		.loc 1 1743 0
 3404 01a8 1AF0020F 		tst	r10, #2
ARM GAS  /var/folders/4k/6h5l9jl178sb4hslwv3xp1mr0000gn/T//ccjvit50.s 			page 61


 3405 01ac 0AD1     		bne	.L445
 3406              		.loc 1 1744 0
 3407 01ae 0CF0030C 		and	ip, ip, #3
 3408              	.LVL466:
 3409 01b2 BCF1010F 		cmp	ip, #1
 3410 01b6 08BF     		it	eq
 3411 01b8 4AF0100A 		orreq	r10, r10, #16
 3412              	.LVL467:
 3413              		.loc 1 1745 0
 3414 01bc 042A     		cmp	r2, #4
 3415 01be 08BF     		it	eq
 3416 01c0 4AF0080A 		orreq	r10, r10, #8
 3417              	.LVL468:
 3418              	.L445:
 3419              		.loc 1 1748 0
 3420 01c4 83F80BA0 		strb	r10, [r3, #11]
 3421              	.LVL469:
 3422              	.LBE357:
 3423              	.LBE361:
 3424              	.LBB362:
 3425              	.LBB363:
 3426              		.loc 1 1363 0
 3427 01c8 2846     		mov	r0, r5
 3428 01ca 0021     		movs	r1, #0
 3429 01cc FFF7FEFF 		bl	dir_sdi
 3430              	.LVL470:
 3431              		.loc 1 1364 0
 3432 01d0 D0B9     		cbnz	r0, .L447
 3433 01d2 2846     		mov	r0, r5
 3434              	.LVL471:
 3435 01d4 FFF7FEFF 		bl	dir_find.part.8
 3436              	.LVL472:
 3437              	.LBE363:
 3438              	.LBE362:
 3439              		.loc 1 1949 0
 3440 01d8 AB69     		ldr	r3, [r5, #24]
 3441 01da DB7A     		ldrb	r3, [r3, #11]	@ zero_extendqisi2
 3442              	.LVL473:
 3443              		.loc 1 1950 0
 3444 01dc B0B9     		cbnz	r0, .L454
 3445              		.loc 1 1962 0
 3446 01de 5907     		lsls	r1, r3, #29
 3447 01e0 3FF55DAF 		bmi	.L485
 3448              		.loc 1 1963 0
 3449 01e4 6B69     		ldr	r3, [r5, #20]
 3450              	.LVL474:
 3451              		.loc 1 1964 0
 3452 01e6 DA7A     		ldrb	r2, [r3, #11]	@ zero_extendqisi2
 3453 01e8 D206     		lsls	r2, r2, #27
 3454 01ea 68D5     		bpl	.L463
 3455              		.loc 1 1967 0
 3456 01ec 5C7D     		ldrb	r4, [r3, #21]	@ zero_extendqisi2
 3457 01ee 1A7D     		ldrb	r2, [r3, #20]	@ zero_extendqisi2
 3458 01f0 D87E     		ldrb	r0, [r3, #27]	@ zero_extendqisi2
 3459 01f2 997E     		ldrb	r1, [r3, #26]	@ zero_extendqisi2
 3460 01f4 42EA0422 		orr	r2, r2, r4, lsl #8
 3461 01f8 41EA0023 		orr	r3, r1, r0, lsl #8
ARM GAS  /var/folders/4k/6h5l9jl178sb4hslwv3xp1mr0000gn/T//ccjvit50.s 			page 62


 3462              	.LVL475:
 3463 01fc 43EA0243 		orr	r3, r3, r2, lsl #16
 3464 0200 AB60     		str	r3, [r5, #8]
 3465              	.LVL476:
 3466 0202 98F80030 		ldrb	r3, [r8]	@ zero_extendqisi2
 3467              		.loc 1 1968 0
 3468 0206 12E7     		b	.L403
 3469              	.LVL477:
 3470              	.L447:
 3471              		.loc 1 1949 0
 3472 0208 AB69     		ldr	r3, [r5, #24]
 3473 020a DB7A     		ldrb	r3, [r3, #11]	@ zero_extendqisi2
 3474              	.LVL478:
 3475              	.L454:
 3476              		.loc 1 1951 0
 3477 020c 0428     		cmp	r0, #4
 3478 020e 7FF446AF 		bne	.L485
 3479              		.loc 1 1958 0
 3480 0212 13F0040F 		tst	r3, #4
 3481 0216 08BF     		it	eq
 3482 0218 0520     		moveq	r0, #5
 3483              		.loc 1 1972 0
 3484 021a 03B0     		add	sp, sp, #12
 3485              		@ sp needed
 3486 021c BDE8F08F 		pop	{r4, r5, r6, r7, r8, r9, r10, fp, pc}
 3487              	.LVL479:
 3488              	.L457:
 3489              	.LBB364:
 3490              	.LBB358:
 3491              		.loc 1 1641 0
 3492 0220 0024     		movs	r4, #0
 3493              		.loc 1 1643 0
 3494 0222 0123     		movs	r3, #1
 3495              	.LVL480:
 3496              	.L405:
 3497              		.loc 1 1662 0
 3498 0224 9844     		add	r8, r8, r3
 3499              	.LVL481:
 3500              		.loc 1 1663 0
 3501 0226 4FF0040A 		mov	r10, #4
 3502 022a 40E7     		b	.L450
 3503              	.LVL482:
 3504              	.L427:
 3505              		.loc 1 1698 0
 3506 022c BBF10B0F 		cmp	fp, #11
 3507 0230 49D0     		beq	.L455
 3508              	.LVL483:
 3509              	.L433:
 3510              		.loc 1 1704 0
 3511 0232 4FEA8C0C 		lsl	ip, ip, #2
 3512              	.LVL484:
 3513 0236 5FFA8CFC 		uxtb	ip, ip
 3514              	.LVL485:
 3515 023a A146     		mov	r9, r4
 3516              		.loc 1 1703 0
 3517 023c 4FF00B0B 		mov	fp, #11
 3518 0240 0823     		movs	r3, #8
ARM GAS  /var/folders/4k/6h5l9jl178sb4hslwv3xp1mr0000gn/T//ccjvit50.s 			page 63


 3519 0242 91E7     		b	.L428
 3520              	.LVL486:
 3521              	.L538:
 3522              		.loc 1 1709 0
 3523 0244 1046     		mov	r0, r2
 3524 0246 0021     		movs	r1, #0
 3525 0248 8DE80810 		stmia	sp, {r3, ip}
 3526 024c FFF7FEFF 		bl	ff_convert
 3527              	.LVL487:
 3528              		.loc 1 1710 0
 3529 0250 9DE80810 		ldmia	sp, {r3, ip}
 3530 0254 30B3     		cbz	r0, .L435
 3531 0256 3044     		add	r0, r0, r6
 3532              	.LVL488:
 3533              		.loc 1 1714 0
 3534 0258 4AF0020A 		orr	r10, r10, #2
 3535              	.LVL489:
 3536              		.loc 1 1710 0
 3537 025c 10F8802C 		ldrb	r2, [r0, #-128]	@ zero_extendqisi2
 3538              	.LVL490:
 3539              		.loc 1 1723 0
 3540 0260 002A     		cmp	r2, #0
 3541 0262 7FF468AF 		bne	.L434
 3542              	.LVL491:
 3543              	.L436:
 3544              		.loc 1 1724 0
 3545 0266 4AF0030A 		orr	r10, r10, #3
 3546              	.LVL492:
 3547 026a 5F22     		movs	r2, #95
 3548              	.LVL493:
 3549              	.L439:
 3550              		.loc 1 1735 0
 3551 026c A969     		ldr	r1, [r5, #24]
 3552 026e CA54     		strb	r2, [r1, r3]
 3553 0270 0133     		adds	r3, r3, #1
 3554              	.LVL494:
 3555 0272 79E7     		b	.L428
 3556              	.LVL495:
 3557              	.L443:
 3558              		.loc 1 1742 0
 3559 0274 4AF0020A 		orr	r10, r10, #2
 3560              	.LVL496:
 3561 0278 96E7     		b	.L444
 3562              	.L541:
 3563              		.loc 1 1738 0
 3564 027a 0522     		movs	r2, #5
 3565 027c 1A70     		strb	r2, [r3]
 3566 027e AB69     		ldr	r3, [r5, #24]
 3567 0280 83E7     		b	.L441
 3568              	.LVL497:
 3569              	.L399:
 3570              	.LBE358:
 3571              	.LBE364:
 3572              		.loc 1 1936 0
 3573 0282 08F10108 		add	r8, r8, #1
 3574              	.LVL498:
 3575              		.loc 1 1937 0
ARM GAS  /var/folders/4k/6h5l9jl178sb4hslwv3xp1mr0000gn/T//ccjvit50.s 			page 64


 3576 0286 0024     		movs	r4, #0
 3577 0288 AC60     		str	r4, [r5, #8]
 3578              		.loc 1 1940 0
 3579 028a 98F80030 		ldrb	r3, [r8]	@ zero_extendqisi2
 3580 028e 1F2B     		cmp	r3, #31
 3581 0290 3FF6C9AE 		bhi	.L401
 3582              	.L534:
 3583              		.loc 1 1941 0
 3584 0294 2846     		mov	r0, r5
 3585              	.LVL499:
 3586 0296 2146     		mov	r1, r4
 3587 0298 FFF7FEFF 		bl	dir_sdi
 3588              	.LVL500:
 3589              		.loc 1 1942 0
 3590 029c 6C61     		str	r4, [r5, #20]
 3591              		.loc 1 1972 0
 3592 029e 03B0     		add	sp, sp, #12
 3593              		@ sp needed
 3594 02a0 BDE8F08F 		pop	{r4, r5, r6, r7, r8, r9, r10, fp, pc}
 3595              	.LVL501:
 3596              	.L435:
 3597              	.LBB365:
 3598              	.LBB359:
 3599              		.loc 1 1714 0
 3600 02a4 4AF0020A 		orr	r10, r10, #2
 3601              	.LVL502:
 3602 02a8 DDE7     		b	.L436
 3603              	.LVL503:
 3604              	.L540:
 3605              		.loc 1 1729 0
 3606 02aa A2F16101 		sub	r1, r2, #97
 3607 02ae 1929     		cmp	r1, #25
 3608              		.loc 1 1730 0
 3609 02b0 97BF     		itett	ls
 3610 02b2 203A     		subls	r2, r2, #32
 3611              	.LVL504:
 3612 02b4 D2B2     		uxtbhi	r2, r2
 3613 02b6 D2B2     		uxtbls	r2, r2
 3614 02b8 4CF0010C 		orrls	ip, ip, #1
 3615              	.LVL505:
 3616 02bc D6E7     		b	.L439
 3617              	.LVL506:
 3618              	.L463:
 3619              	.LBE359:
 3620              	.LBE365:
 3621              		.loc 1 1965 0
 3622 02be 0520     		movs	r0, #5
 3623              		.loc 1 1972 0
 3624 02c0 03B0     		add	sp, sp, #12
 3625              		@ sp needed
 3626 02c2 BDE8F08F 		pop	{r4, r5, r6, r7, r8, r9, r10, fp, pc}
 3627              	.LVL507:
 3628              	.L455:
 3629              	.LBB366:
 3630              	.LBB360:
 3631              		.loc 1 1699 0
 3632 02c6 4AF0030A 		orr	r10, r10, #3
ARM GAS  /var/folders/4k/6h5l9jl178sb4hslwv3xp1mr0000gn/T//ccjvit50.s 			page 65


 3633              	.LVL508:
 3634 02ca 4FF00B0B 		mov	fp, #11
 3635              	.LVL509:
 3636 02ce 58E7     		b	.L424
 3637              	.L543:
 3638              		.align	2
 3639              	.L542:
 3640 02d0 00000000 		.word	.LANCHOR3
 3641 02d4 00000000 		.word	.LC0
 3642 02d8 0C000000 		.word	.LC1
 3643              	.LBE360:
 3644              	.LBE366:
 3645              		.cfi_endproc
 3646              	.LFE33:
 3647              		.size	follow_path, .-follow_path
 3648 02dc AFF30080 		.section	.text.clust2sect,"ax",%progbits
 3649              		.align	2
 3650              		.p2align 4,,15
 3651              		.global	clust2sect
 3652              		.thumb
 3653              		.thumb_func
 3654              		.type	clust2sect, %function
 3655              	clust2sect:
 3656              	.LFB15:
 3657              		.loc 1 805 0
 3658              		.cfi_startproc
 3659              		@ args = 0, pretend = 0, frame = 0
 3660              		@ frame_needed = 0, uses_anonymous_args = 0
 3661              		@ link register save eliminated.
 3662              	.LVL510:
 3663              		.loc 1 807 0
 3664 0000 C369     		ldr	r3, [r0, #28]
 3665              		.loc 1 806 0
 3666 0002 0239     		subs	r1, r1, #2
 3667              	.LVL511:
 3668              		.loc 1 807 0
 3669 0004 023B     		subs	r3, r3, #2
 3670 0006 9942     		cmp	r1, r3
 3671              		.loc 1 808 0
 3672 0008 3DBF     		ittte	cc
 3673 000a 8278     		ldrbcc	r2, [r0, #2]	@ zero_extendqisi2
 3674 000c C36A     		ldrcc	r3, [r0, #44]
 3675 000e 02FB0130 		mlacc	r0, r2, r1, r3
 3676              	.LVL512:
 3677              		.loc 1 807 0
 3678 0012 0020     		movcs	r0, #0
 3679              		.loc 1 809 0
 3680 0014 7047     		bx	lr
 3681              		.cfi_endproc
 3682              	.LFE15:
 3683              		.size	clust2sect, .-clust2sect
 3684 0016 00BFAFF3 		.section	.text.get_fat,"ax",%progbits
 3684      0080AFF3 
 3684      0080
 3685              		.align	2
 3686              		.p2align 4,,15
 3687              		.global	get_fat
ARM GAS  /var/folders/4k/6h5l9jl178sb4hslwv3xp1mr0000gn/T//ccjvit50.s 			page 66


 3688              		.thumb
 3689              		.thumb_func
 3690              		.type	get_fat, %function
 3691              	get_fat:
 3692              	.LFB16:
 3693              		.loc 1 823 0
 3694              		.cfi_startproc
 3695              		@ args = 0, pretend = 0, frame = 0
 3696              		@ frame_needed = 0, uses_anonymous_args = 0
 3697              		@ link register save eliminated.
 3698              	.LVL513:
 3699              		.loc 1 828 0
 3700 0000 0129     		cmp	r1, #1
 3701 0002 04D9     		bls	.L548
 3702              		.loc 1 828 0 is_stmt 0 discriminator 1
 3703 0004 C269     		ldr	r2, [r0, #28]
 3704 0006 9142     		cmp	r1, r2
 3705 0008 01D2     		bcs	.L548
 3706 000a FFF7FEBF 		b	get_fat.part.6
 3707              	.LVL514:
 3708              	.L548:
 3709              		.loc 1 852 0 is_stmt 1
 3710 000e 0120     		movs	r0, #1
 3711              	.LVL515:
 3712 0010 7047     		bx	lr
 3713              		.cfi_endproc
 3714              	.LFE16:
 3715              		.size	get_fat, .-get_fat
 3716 0012 00BFAFF3 		.section	.text.put_fat,"ax",%progbits
 3716      0080AFF3 
 3716      0080AFF3 
 3716      0080
 3717              		.align	2
 3718              		.p2align 4,,15
 3719              		.global	put_fat
 3720              		.thumb
 3721              		.thumb_func
 3722              		.type	put_fat, %function
 3723              	put_fat:
 3724              	.LFB17:
 3725              		.loc 1 867 0
 3726              		.cfi_startproc
 3727              		@ args = 0, pretend = 0, frame = 0
 3728              		@ frame_needed = 0, uses_anonymous_args = 0
 3729              		@ link register save eliminated.
 3730              	.LVL516:
 3731              		.loc 1 873 0
 3732 0000 0129     		cmp	r1, #1
 3733              		.loc 1 867 0
 3734 0002 10B4     		push	{r4}
 3735              		.cfi_def_cfa_offset 4
 3736              		.cfi_offset 4, -4
 3737              		.loc 1 873 0
 3738 0004 02D9     		bls	.L552
 3739              		.loc 1 873 0 is_stmt 0 discriminator 1
 3740 0006 C469     		ldr	r4, [r0, #28]
 3741 0008 A142     		cmp	r1, r4
ARM GAS  /var/folders/4k/6h5l9jl178sb4hslwv3xp1mr0000gn/T//ccjvit50.s 			page 67


 3742 000a 03D3     		bcc	.L555
 3743              	.L552:
 3744              		.loc 1 914 0 is_stmt 1
 3745 000c 0220     		movs	r0, #2
 3746              	.LVL517:
 3747 000e 5DF8044B 		ldr	r4, [sp], #4
 3748 0012 7047     		bx	lr
 3749              	.LVL518:
 3750              	.L555:
 3751 0014 5DF8044B 		ldr	r4, [sp], #4
 3752 0018 FFF7FEBF 		b	put_fat.part.7
 3753              	.LVL519:
 3754              		.cfi_endproc
 3755              	.LFE17:
 3756              		.size	put_fat, .-put_fat
 3757 001c AFF30080 		.section	.text.gen_numname,"ax",%progbits
 3758              		.align	2
 3759              		.p2align 4,,15
 3760              		.global	gen_numname
 3761              		.thumb
 3762              		.thumb_func
 3763              		.type	gen_numname, %function
 3764              	gen_numname:
 3765              	.LFB25:
 3766              		.loc 1 1291 0
 3767              		.cfi_startproc
 3768              		@ args = 0, pretend = 0, frame = 8
 3769              		@ frame_needed = 0, uses_anonymous_args = 0
 3770              		@ link register save eliminated.
 3771              	.LVL520:
 3772 0000 70B4     		push	{r4, r5, r6}
 3773              		.cfi_def_cfa_offset 12
 3774              		.cfi_offset 4, -12
 3775              		.cfi_offset 5, -8
 3776              		.cfi_offset 6, -4
 3777 0002 01F10B06 		add	r6, r1, #11
 3778 0006 83B0     		sub	sp, sp, #12
 3779              		.cfi_def_cfa_offset 24
 3780              		.loc 1 1291 0
 3781 0008 0446     		mov	r4, r0
 3782              	.LVL521:
 3783              	.L558:
 3784              	.LBB367:
 3785              	.LBB368:
 3786              		.loc 1 541 0
 3787 000a 11F8015B 		ldrb	r5, [r1], #1	@ zero_extendqisi2
 3788              	.LVL522:
 3789 000e 04F8015B 		strb	r5, [r4], #1
 3790              	.LVL523:
 3791              		.loc 1 540 0
 3792 0012 B142     		cmp	r1, r6
 3793 0014 F9D1     		bne	.L558
 3794              	.LBE368:
 3795              	.LBE367:
 3796              		.loc 1 1298 0
 3797 0016 052B     		cmp	r3, #5
 3798 0018 0CD9     		bls	.L559
ARM GAS  /var/folders/4k/6h5l9jl178sb4hslwv3xp1mr0000gn/T//ccjvit50.s 			page 68


 3799 001a 1488     		ldrh	r4, [r2]
 3800              	.LVL524:
 3801 001c 00E0     		b	.L560
 3802              	.LVL525:
 3803              	.L582:
 3804              		.loc 1 1299 0
 3805 001e 0C46     		mov	r4, r1
 3806              	.LVL526:
 3807              	.L560:
 3808              		.loc 1 1299 0 is_stmt 0 discriminator 1
 3809 0020 D903     		lsls	r1, r3, #15
 3810 0022 41EA5303 		orr	r3, r1, r3, lsr #1
 3811              	.LVL527:
 3812 0026 32F8021F 		ldrh	r1, [r2, #2]!
 3813              	.LVL528:
 3814 002a 14FA83F3 		uxtah	r3, r4, r3
 3815 002e 9BB2     		uxth	r3, r3
 3816              	.LVL529:
 3817 0030 0029     		cmp	r1, #0
 3818 0032 F4D1     		bne	.L582
 3819              	.LVL530:
 3820              	.L559:
 3821              		.loc 1 1299 0
 3822 0034 0722     		movs	r2, #7
 3823              	.LVL531:
 3824              	.L563:
 3825              		.loc 1 1305 0 is_stmt 1
 3826 0036 03F00F04 		and	r4, r3, #15
 3827 003a 04F13001 		add	r1, r4, #48
 3828              	.LVL532:
 3829              		.loc 1 1307 0
 3830 003e 013A     		subs	r2, r2, #1
 3831              	.LVL533:
 3832 0040 00AD     		add	r5, sp, #0
 3833              		.loc 1 1306 0
 3834 0042 3929     		cmp	r1, #57
 3835 0044 1544     		add	r5, r5, r2
 3836 0046 88BF     		it	hi
 3837 0048 04F13701 		addhi	r1, r4, #55
 3838              	.LVL534:
 3839              		.loc 1 1309 0
 3840 004c 1B09     		lsrs	r3, r3, #4
 3841              	.LVL535:
 3842              		.loc 1 1307 0
 3843 004e 6970     		strb	r1, [r5, #1]
 3844              		.loc 1 1309 0
 3845 0050 F1D1     		bne	.L563
 3846              		.loc 1 1310 0
 3847 0052 02A9     		add	r1, sp, #8
 3848              	.LVL536:
 3849 0054 1144     		add	r1, r1, r2
 3850 0056 7E24     		movs	r4, #126
 3851              	.LVL537:
 3852 0058 01F8084C 		strb	r4, [r1, #-8]
 3853              	.LVL538:
 3854              		.loc 1 1313 0
 3855 005c 02B3     		cbz	r2, .L569
ARM GAS  /var/folders/4k/6h5l9jl178sb4hslwv3xp1mr0000gn/T//ccjvit50.s 			page 69


 3856 005e 0178     		ldrb	r1, [r0]	@ zero_extendqisi2
 3857 0060 2029     		cmp	r1, #32
 3858 0062 13D0     		beq	.L568
 3859 0064 0146     		mov	r1, r0
 3860 0066 03E0     		b	.L565
 3861              	.LVL539:
 3862              	.L583:
 3863              		.loc 1 1313 0 is_stmt 0 discriminator 2
 3864 0068 11F8014F 		ldrb	r4, [r1, #1]!	@ zero_extendqisi2
 3865 006c 202C     		cmp	r4, #32
 3866 006e 0DD0     		beq	.L568
 3867              	.LVL540:
 3868              	.L565:
 3869              		.loc 1 1313 0
 3870 0070 0133     		adds	r3, r3, #1
 3871              	.LVL541:
 3872 0072 9342     		cmp	r3, r2
 3873 0074 F8D1     		bne	.L583
 3874              	.LVL542:
 3875              		.loc 1 1320 0 is_stmt 1
 3876 0076 072A     		cmp	r2, #7
 3877 0078 0AD8     		bhi	.L571
 3878              	.LVL543:
 3879              	.L585:
 3880              		.loc 1 1320 0 is_stmt 0 discriminator 1
 3881 007a 02A9     		add	r1, sp, #8
 3882 007c 1144     		add	r1, r1, r2
 3883 007e 0132     		adds	r2, r2, #1
 3884              	.LVL544:
 3885 0080 11F8081C 		ldrb	r1, [r1, #-8]	@ zero_extendqisi2
 3886 0084 C154     		strb	r1, [r0, r3]
 3887 0086 0133     		adds	r3, r3, #1
 3888              		.loc 1 1321 0 is_stmt 1 discriminator 1
 3889 0088 072B     		cmp	r3, #7
 3890 008a 06D8     		bhi	.L584
 3891              	.L568:
 3892              	.LVL545:
 3893              		.loc 1 1320 0
 3894 008c 072A     		cmp	r2, #7
 3895 008e F4D9     		bls	.L585
 3896              	.LVL546:
 3897              	.L571:
 3898 0090 2021     		movs	r1, #32
 3899              	.LVL547:
 3900 0092 C154     		strb	r1, [r0, r3]
 3901 0094 0133     		adds	r3, r3, #1
 3902              		.loc 1 1321 0
 3903 0096 072B     		cmp	r3, #7
 3904 0098 F8D9     		bls	.L568
 3905              	.L584:
 3906              		.loc 1 1322 0
 3907 009a 03B0     		add	sp, sp, #12
 3908              		@ sp needed
 3909 009c 70BC     		pop	{r4, r5, r6}
 3910              	.LVL548:
 3911 009e 7047     		bx	lr
 3912              	.LVL549:
ARM GAS  /var/folders/4k/6h5l9jl178sb4hslwv3xp1mr0000gn/T//ccjvit50.s 			page 70


 3913              	.L569:
 3914              		.loc 1 1313 0
 3915 00a0 1346     		mov	r3, r2
 3916 00a2 F3E7     		b	.L568
 3917              		.cfi_endproc
 3918              	.LFE25:
 3919              		.size	gen_numname, .-gen_numname
 3920 00a4 AFF30080 		.section	.text.dir_register,"ax",%progbits
 3920      AFF30080 
 3920      AFF30080 
 3921              		.align	2
 3922              		.p2align 4,,15
 3923              		.thumb
 3924              		.thumb_func
 3925              		.type	dir_register, %function
 3926              	dir_register:
 3927              	.LFB29:
 3928              		.loc 1 1474 0
 3929              		.cfi_startproc
 3930              		@ args = 0, pretend = 0, frame = 16
 3931              		@ frame_needed = 0, uses_anonymous_args = 0
 3932              	.LVL550:
 3933 0000 2DE9F04F 		push	{r4, r5, r6, r7, r8, r9, r10, fp, lr}
 3934              		.cfi_def_cfa_offset 36
 3935              		.cfi_offset 4, -36
 3936              		.cfi_offset 5, -32
 3937              		.cfi_offset 6, -28
 3938              		.cfi_offset 7, -24
 3939              		.cfi_offset 8, -20
 3940              		.cfi_offset 9, -16
 3941              		.cfi_offset 10, -12
 3942              		.cfi_offset 11, -8
 3943              		.cfi_offset 14, -4
 3944              		.loc 1 1483 0
 3945 0004 8769     		ldr	r7, [r0, #24]
 3946              	.LVL551:
 3947 0006 C669     		ldr	r6, [r0, #28]
 3948              	.LVL552:
 3949              		.loc 1 1474 0
 3950 0008 85B0     		sub	sp, sp, #20
 3951              		.cfi_def_cfa_offset 56
 3952              	.LVL553:
 3953              		.loc 1 1474 0
 3954 000a 0446     		mov	r4, r0
 3955              		.loc 1 1483 0
 3956 000c 3946     		mov	r1, r7
 3957              	.LBB381:
 3958              	.LBB382:
 3959              		.loc 1 530 0
 3960 000e 01AB     		add	r3, sp, #4
 3961              	.LVL554:
 3962              	.L588:
 3963              		.loc 1 541 0
 3964 0010 11F8015B 		ldrb	r5, [r1], #1	@ zero_extendqisi2
 3965              	.LVL555:
 3966 0014 03F8015B 		strb	r5, [r3], #1
 3967              	.LVL556:
ARM GAS  /var/folders/4k/6h5l9jl178sb4hslwv3xp1mr0000gn/T//ccjvit50.s 			page 71


 3968              		.loc 1 540 0
 3969 0018 04AA     		add	r2, sp, #16
 3970 001a 9342     		cmp	r3, r2
 3971 001c F8D1     		bne	.L588
 3972              	.LBE382:
 3973              	.LBE381:
 3974              		.loc 1 1489 0
 3975 001e 9DF80F30 		ldrb	r3, [sp, #15]	@ zero_extendqisi2
 3976              	.LVL557:
 3977 0022 DA07     		lsls	r2, r3, #31
 3978 0024 27D5     		bpl	.L589
 3979              		.loc 1 1490 0
 3980 0026 0023     		movs	r3, #0
 3981 0028 FB72     		strb	r3, [r7, #11]
 3982              		.loc 1 1491 0
 3983 002a 0125     		movs	r5, #1
 3984              		.loc 1 1490 0
 3985 002c E361     		str	r3, [r4, #28]
 3986              	.LVL558:
 3987 002e 08E0     		b	.L592
 3988              	.LVL559:
 3989              	.L646:
 3990              	.LBB383:
 3991              	.LBB384:
 3992 0030 FFF7FEFF 		bl	dir_find.part.8
 3993              	.LVL560:
 3994              	.LBE384:
 3995              	.LBE383:
 3996              		.loc 1 1491 0
 3997 0034 0135     		adds	r5, r5, #1
 3998              	.LVL561:
 3999              		.loc 1 1494 0
 4000 0036 0146     		mov	r1, r0
 4001              		.loc 1 1491 0
 4002 0038 ADB2     		uxth	r5, r5
 4003              	.LVL562:
 4004              		.loc 1 1494 0
 4005 003a 80B9     		cbnz	r0, .L590
 4006              		.loc 1 1491 0
 4007 003c 642D     		cmp	r5, #100
 4008 003e 00F0F580 		beq	.L645
 4009              	.LVL563:
 4010              	.L592:
 4011              		.loc 1 1492 0
 4012 0042 3846     		mov	r0, r7
 4013 0044 01A9     		add	r1, sp, #4
 4014              	.LVL564:
 4015 0046 3246     		mov	r2, r6
 4016 0048 2B46     		mov	r3, r5
 4017 004a FFF7FEFF 		bl	gen_numname
 4018              	.LVL565:
 4019              	.LBB386:
 4020              	.LBB385:
 4021              		.loc 1 1363 0
 4022 004e 0021     		movs	r1, #0
 4023 0050 2046     		mov	r0, r4
 4024 0052 FFF7FEFF 		bl	dir_sdi
ARM GAS  /var/folders/4k/6h5l9jl178sb4hslwv3xp1mr0000gn/T//ccjvit50.s 			page 72


 4025              	.LVL566:
 4026              		.loc 1 1364 0
 4027 0056 0146     		mov	r1, r0
 4028 0058 2046     		mov	r0, r4
 4029              	.LVL567:
 4030 005a 0029     		cmp	r1, #0
 4031 005c E8D0     		beq	.L646
 4032              	.LVL568:
 4033              	.L590:
 4034              	.LBE385:
 4035              	.LBE386:
 4036              		.loc 1 1497 0
 4037 005e 0429     		cmp	r1, #4
 4038 0060 03D0     		beq	.L647
 4039 0062 0846     		mov	r0, r1
 4040              	.LVL569:
 4041              	.L643:
 4042              		.loc 1 1567 0
 4043 0064 05B0     		add	sp, sp, #20
 4044              		@ sp needed
 4045 0066 BDE8F08F 		pop	{r4, r5, r6, r7, r8, r9, r10, fp, pc}
 4046              	.LVL570:
 4047              	.L647:
 4048              		.loc 1 1498 0
 4049 006a 9DF80F30 		ldrb	r3, [sp, #15]	@ zero_extendqisi2
 4050 006e FB72     		strb	r3, [r7, #11]
 4051 0070 9DF80F30 		ldrb	r3, [sp, #15]	@ zero_extendqisi2
 4052 0074 E661     		str	r6, [r4, #28]
 4053              	.LVL571:
 4054              	.L589:
 4055              		.loc 1 1501 0
 4056 0076 9B07     		lsls	r3, r3, #30
 4057 0078 00F1C080 		bmi	.L648
 4058              	.L623:
 4059              		.loc 1 1505 0
 4060 007c 0127     		movs	r7, #1
 4061              	.LVL572:
 4062              	.L593:
 4063              		.loc 1 1509 0
 4064 007e 2046     		mov	r0, r4
 4065 0080 0021     		movs	r1, #0
 4066 0082 FFF7FEFF 		bl	dir_sdi
 4067              	.LVL573:
 4068              		.loc 1 1510 0
 4069 0086 0028     		cmp	r0, #0
 4070 0088 ECD1     		bne	.L643
 4071 008a 8046     		mov	r8, r0
 4072 008c 0546     		mov	r5, r0
 4073 008e 06E0     		b	.L602
 4074              	.LVL574:
 4075              	.L626:
 4076              		.loc 1 1520 0
 4077 0090 1D46     		mov	r5, r3
 4078              	.LVL575:
 4079              	.L599:
 4080              		.loc 1 1522 0
 4081 0092 FFF7FEFF 		bl	dir_next
ARM GAS  /var/folders/4k/6h5l9jl178sb4hslwv3xp1mr0000gn/T//ccjvit50.s 			page 73


 4082              	.LVL576:
 4083              		.loc 1 1523 0
 4084 0096 0346     		mov	r3, r0
 4085 0098 0028     		cmp	r0, #0
 4086 009a 40F0C380 		bne	.L603
 4087              	.LVL577:
 4088              	.L602:
 4089              		.loc 1 1513 0
 4090 009e 2169     		ldr	r1, [r4, #16]
 4091 00a0 2068     		ldr	r0, [r4]
 4092              	.LVL578:
 4093 00a2 FFF7FEFF 		bl	move_window
 4094              	.LVL579:
 4095              		.loc 1 1514 0
 4096 00a6 0346     		mov	r3, r0
 4097              		.loc 1 1518 0
 4098 00a8 6E1C     		adds	r6, r5, #1
 4099              		.loc 1 1522 0
 4100 00aa 2046     		mov	r0, r4
 4101              	.LVL580:
 4102 00ac 0121     		movs	r1, #1
 4103              		.loc 1 1514 0
 4104 00ae 002B     		cmp	r3, #0
 4105 00b0 40F0B880 		bne	.L603
 4106              	.LVL581:
 4107              		.loc 1 1515 0
 4108 00b4 6269     		ldr	r2, [r4, #20]
 4109 00b6 1278     		ldrb	r2, [r2]	@ zero_extendqisi2
 4110              	.LVL582:
 4111              		.loc 1 1516 0
 4112 00b8 E52A     		cmp	r2, #229
 4113 00ba 01D0     		beq	.L598
 4114              		.loc 1 1516 0 is_stmt 0 discriminator 1
 4115 00bc 002A     		cmp	r2, #0
 4116 00be E7D1     		bne	.L626
 4117              	.L598:
 4118              		.loc 1 1517 0 is_stmt 1
 4119 00c0 0DB9     		cbnz	r5, .L600
 4120              		.loc 1 1517 0 is_stmt 0 discriminator 1
 4121 00c2 B4F80680 		ldrh	r8, [r4, #6]
 4122              	.LVL583:
 4123              	.L600:
 4124              		.loc 1 1518 0 is_stmt 1
 4125 00c6 B5B2     		uxth	r5, r6
 4126              	.LVL584:
 4127 00c8 BD42     		cmp	r5, r7
 4128 00ca E2D1     		bne	.L599
 4129              	.LVL585:
 4130              		.loc 1 1525 0
 4131 00cc 012F     		cmp	r7, #1
 4132 00ce 72D0     		beq	.L612
 4133              		.loc 1 1526 0
 4134 00d0 4146     		mov	r1, r8
 4135 00d2 2046     		mov	r0, r4
 4136              	.LVL586:
 4137 00d4 FFF7FEFF 		bl	dir_sdi
 4138              	.LVL587:
ARM GAS  /var/folders/4k/6h5l9jl178sb4hslwv3xp1mr0000gn/T//ccjvit50.s 			page 74


 4139              		.loc 1 1527 0
 4140 00d8 0346     		mov	r3, r0
 4141 00da 0028     		cmp	r0, #0
 4142 00dc 40F0A280 		bne	.L603
 4143              		.loc 1 1528 0
 4144 00e0 A269     		ldr	r2, [r4, #24]
 4145              	.LVL588:
 4146              	.LBB387:
 4147              	.LBB388:
 4148              		.loc 1 1337 0
 4149 00e2 8146     		mov	r9, r0
 4150 00e4 02F10B00 		add	r0, r2, #11
 4151              	.LVL589:
 4152              	.L605:
 4153              		.loc 1 1340 0
 4154 00e8 12F8013B 		ldrb	r3, [r2], #1	@ zero_extendqisi2
 4155              	.LVL590:
 4156 00ec 4FEAC911 		lsl	r1, r9, #7
 4157 00f0 41EA5909 		orr	r9, r1, r9, lsr #1
 4158              	.LVL591:
 4159 00f4 53FA89F9 		uxtab	r9, r3, r9
 4160 00f8 8242     		cmp	r2, r0
 4161 00fa 5FFA89F9 		uxtb	r9, r9
 4162              	.LVL592:
 4163 00fe F3D1     		bne	.L605
 4164              	.LBE388:
 4165              	.LBE387:
 4166              		.loc 1 1529 0
 4167 0100 013F     		subs	r7, r7, #1
 4168              	.LVL593:
 4169 0102 DFF83081 		ldr	r8, .L651+4
 4170              	.LVL594:
 4171 0106 1FFA87FB 		uxth	fp, r7
 4172              	.LVL595:
 4173              	.L613:
 4174              		.loc 1 1531 0
 4175 010a 2068     		ldr	r0, [r4]
 4176 010c 2169     		ldr	r1, [r4, #16]
 4177 010e FFF7FEFF 		bl	move_window
 4178              	.LVL596:
 4179 0112 0346     		mov	r3, r0
 4180              	.LVL597:
 4181              		.loc 1 1532 0
 4182 0114 0028     		cmp	r0, #0
 4183 0116 40F08580 		bne	.L603
 4184              		.loc 1 1533 0
 4185 011a 5FFA8BFA 		uxtb	r10, fp
 4186 011e 6569     		ldr	r5, [r4, #20]
 4187 0120 D4F81CE0 		ldr	lr, [r4, #28]
 4188              	.LVL598:
 4189              	.LBB389:
 4190              	.LBB390:
 4191              		.loc 1 1262 0
 4192 0124 2873     		strb	r0, [r5, #12]
 4193              		.loc 1 1265 0
 4194 0126 0AF1FF32 		add	r2, r10, #-1
 4195 012a 02EB4201 		add	r1, r2, r2, lsl #1
ARM GAS  /var/folders/4k/6h5l9jl178sb4hslwv3xp1mr0000gn/T//ccjvit50.s 			page 75


 4196              		.loc 1 1261 0
 4197 012e 0F26     		movs	r6, #15
 4198              		.loc 1 1265 0
 4199 0130 02EB8101 		add	r1, r2, r1, lsl #2
 4200              	.LVL599:
 4201              		.loc 1 1263 0
 4202 0134 A876     		strb	r0, [r5, #26]
 4203 0136 E876     		strb	r0, [r5, #27]
 4204              		.loc 1 1266 0
 4205 0138 0246     		mov	r2, r0
 4206              		.loc 1 1260 0
 4207 013a 85F80D90 		strb	r9, [r5, #13]
 4208              		.loc 1 1261 0
 4209 013e EE72     		strb	r6, [r5, #11]
 4210              		.loc 1 1268 0
 4211 0140 4FF6FF70 		movw	r0, #65535
 4212              	.LVL600:
 4213              		.loc 1 1269 0
 4214 0144 4FF0FF0C 		mov	ip, #255
 4215 0148 0DE0     		b	.L609
 4216              	.LVL601:
 4217              	.L650:
 4218              		.loc 1 1268 0
 4219 014a 3EF81130 		ldrh	r3, [lr, r1, lsl #1]
 4220              		.loc 1 1269 0
 4221 014e AB55     		strb	r3, [r5, r6]
 4222              		.loc 1 1271 0
 4223 0150 0132     		adds	r2, r2, #1
 4224              	.LVL602:
 4225              		.loc 1 1269 0
 4226 0152 2E44     		add	r6, r6, r5
 4227 0154 1F0A     		lsrs	r7, r3, #8
 4228              		.loc 1 1270 0
 4229 0156 002B     		cmp	r3, #0
 4230 0158 08BF     		it	eq
 4231 015a 0346     		moveq	r3, r0
 4232              		.loc 1 1271 0
 4233 015c 0D2A     		cmp	r2, #13
 4234              		.loc 1 1268 0
 4235 015e 01F10101 		add	r1, r1, #1
 4236              	.LVL603:
 4237              		.loc 1 1269 0
 4238 0162 7770     		strb	r7, [r6, #1]
 4239              		.loc 1 1271 0
 4240 0164 0BD0     		beq	.L649
 4241              	.LVL604:
 4242              	.L609:
 4243              		.loc 1 1268 0
 4244 0166 8342     		cmp	r3, r0
 4245              		.loc 1 1269 0
 4246 0168 18F80260 		ldrb	r6, [r8, r2]	@ zero_extendqisi2
 4247              		.loc 1 1268 0
 4248 016c EDD1     		bne	.L650
 4249              	.LVL605:
 4250              		.loc 1 1269 0
 4251 016e AF19     		adds	r7, r5, r6
 4252              		.loc 1 1271 0
ARM GAS  /var/folders/4k/6h5l9jl178sb4hslwv3xp1mr0000gn/T//ccjvit50.s 			page 76


 4253 0170 0132     		adds	r2, r2, #1
 4254              	.LVL606:
 4255 0172 0D2A     		cmp	r2, #13
 4256              		.loc 1 1269 0
 4257 0174 05F806C0 		strb	ip, [r5, r6]
 4258 0178 87F801C0 		strb	ip, [r7, #1]
 4259              	.LVL607:
 4260              		.loc 1 1271 0
 4261 017c F3D1     		bne	.L609
 4262              	.L649:
 4263              		.loc 1 1272 0
 4264 017e 4FF6FF72 		movw	r2, #65535
 4265              	.LVL608:
 4266 0182 9342     		cmp	r3, r2
 4267 0184 02D0     		beq	.L610
 4268 0186 3EF81130 		ldrh	r3, [lr, r1, lsl #1]
 4269 018a 0BB9     		cbnz	r3, .L611
 4270              	.L610:
 4271 018c 4AF0400A 		orr	r10, r10, #64
 4272              	.LVL609:
 4273              	.L611:
 4274              		.loc 1 1273 0
 4275 0190 85F800A0 		strb	r10, [r5]
 4276              	.LBE390:
 4277              	.LBE389:
 4278              		.loc 1 1534 0
 4279 0194 2368     		ldr	r3, [r4]
 4280 0196 0122     		movs	r2, #1
 4281 0198 1A71     		strb	r2, [r3, #4]
 4282              		.loc 1 1535 0
 4283 019a 2046     		mov	r0, r4
 4284 019c 0021     		movs	r1, #0
 4285              	.LVL610:
 4286 019e FFF7FEFF 		bl	dir_next
 4287              	.LVL611:
 4288              		.loc 1 1536 0
 4289 01a2 0346     		mov	r3, r0
 4290 01a4 0028     		cmp	r0, #0
 4291 01a6 3DD1     		bne	.L603
 4292              		.loc 1 1536 0 is_stmt 0 discriminator 1
 4293 01a8 0BF1FF3B 		add	fp, fp, #-1
 4294              	.LVL612:
 4295 01ac 1FFA8BFB 		uxth	fp, fp
 4296              	.LVL613:
 4297 01b0 BBF1000F 		cmp	fp, #0
 4298 01b4 A9D1     		bne	.L613
 4299              	.LVL614:
 4300              	.L612:
 4301              		.loc 1 1554 0 is_stmt 1
 4302 01b6 2068     		ldr	r0, [r4]
 4303 01b8 2169     		ldr	r1, [r4, #16]
 4304 01ba FFF7FEFF 		bl	move_window
 4305              	.LVL615:
 4306              		.loc 1 1555 0
 4307 01be 0028     		cmp	r0, #0
 4308 01c0 7FF450AF 		bne	.L643
 4309              		.loc 1 1556 0
ARM GAS  /var/folders/4k/6h5l9jl178sb4hslwv3xp1mr0000gn/T//ccjvit50.s 			page 77


 4310 01c4 6569     		ldr	r5, [r4, #20]
 4311              	.LVL616:
 4312 01c6 05F12002 		add	r2, r5, #32
 4313              	.LBB391:
 4314              	.LBB392:
 4315              		.loc 1 547 0
 4316 01ca 2B46     		mov	r3, r5
 4317              	.LVL617:
 4318              	.L615:
 4319              		.loc 1 550 0
 4320 01cc 03F8010B 		strb	r0, [r3], #1
 4321              	.LVL618:
 4322              		.loc 1 549 0
 4323 01d0 9342     		cmp	r3, r2
 4324 01d2 FBD1     		bne	.L615
 4325              	.LBE392:
 4326              	.LBE391:
 4327              		.loc 1 1558 0
 4328 01d4 A369     		ldr	r3, [r4, #24]
 4329              	.LVL619:
 4330              	.LBB393:
 4331              	.LBB394:
 4332              		.loc 1 530 0
 4333 01d6 2A46     		mov	r2, r5
 4334 01d8 03F10B00 		add	r0, r3, #11
 4335              	.LVL620:
 4336              	.L617:
 4337              		.loc 1 541 0
 4338 01dc 13F8011B 		ldrb	r1, [r3], #1	@ zero_extendqisi2
 4339              	.LVL621:
 4340 01e0 02F8011B 		strb	r1, [r2], #1
 4341              	.LVL622:
 4342              		.loc 1 540 0
 4343 01e4 8342     		cmp	r3, r0
 4344 01e6 F9D1     		bne	.L617
 4345              	.LBE394:
 4346              	.LBE393:
 4347              		.loc 1 1560 0
 4348 01e8 A369     		ldr	r3, [r4, #24]
 4349              	.LVL623:
 4350 01ea DB7A     		ldrb	r3, [r3, #11]	@ zero_extendqisi2
 4351 01ec 03F01803 		and	r3, r3, #24
 4352 01f0 2B73     		strb	r3, [r5, #12]
 4353              		.loc 1 1562 0
 4354 01f2 2368     		ldr	r3, [r4]
 4355 01f4 0122     		movs	r2, #1
 4356              	.LVL624:
 4357 01f6 1A71     		strb	r2, [r3, #4]
 4358 01f8 0020     		movs	r0, #0
 4359              	.LVL625:
 4360 01fa 33E7     		b	.L643
 4361              	.LVL626:
 4362              	.L648:
 4363              		.loc 1 1502 0 discriminator 1
 4364 01fc 3388     		ldrh	r3, [r6]
 4365 01fe 002B     		cmp	r3, #0
 4366 0200 3FF43CAF 		beq	.L623
ARM GAS  /var/folders/4k/6h5l9jl178sb4hslwv3xp1mr0000gn/T//ccjvit50.s 			page 78


 4367              		.loc 1 1502 0 is_stmt 0
 4368 0204 0023     		movs	r3, #0
 4369              	.LVL627:
 4370              	.L596:
 4371              		.loc 1 1502 0 discriminator 2
 4372 0206 0133     		adds	r3, r3, #1
 4373              	.LVL628:
 4374 0208 9BB2     		uxth	r3, r3
 4375              	.LVL629:
 4376 020a 36F81320 		ldrh	r2, [r6, r3, lsl #1]
 4377 020e 002A     		cmp	r2, #0
 4378 0210 F9D1     		bne	.L596
 4379 0212 074F     		ldr	r7, .L651
 4380              	.LVL630:
 4381 0214 1933     		adds	r3, r3, #25
 4382              	.LVL631:
 4383 0216 87FB0327 		smull	r2, r7, r7, r3
 4384 021a DB17     		asrs	r3, r3, #31
 4385              	.LVL632:
 4386 021c C3EBA707 		rsb	r7, r3, r7, asr #2
 4387 0220 BFB2     		uxth	r7, r7
 4388 0222 2CE7     		b	.L593
 4389              	.LVL633:
 4390              	.L603:
 4391 0224 1846     		mov	r0, r3
 4392              		.loc 1 1567 0 is_stmt 1
 4393 0226 05B0     		add	sp, sp, #20
 4394              		@ sp needed
 4395 0228 BDE8F08F 		pop	{r4, r5, r6, r7, r8, r9, r10, fp, pc}
 4396              	.LVL634:
 4397              	.L645:
 4398              		.loc 1 1496 0
 4399 022c 0720     		movs	r0, #7
 4400 022e 19E7     		b	.L643
 4401              	.L652:
 4402              		.align	2
 4403              	.L651:
 4404 0230 4FECC44E 		.word	1321528399
 4405 0234 00000000 		.word	.LANCHOR2
 4406              		.cfi_endproc
 4407              	.LFE29:
 4408              		.size	dir_register, .-dir_register
 4409 0238 AFF30080 		.section	.text.f_mount,"ax",%progbits
 4409      AFF30080 
 4410              		.align	2
 4411              		.p2align 4,,15
 4412              		.global	f_mount
 4413              		.thumb
 4414              		.thumb_func
 4415              		.type	f_mount, %function
 4416              	f_mount:
 4417              	.LFB37:
 4418              		.loc 1 2207 0
 4419              		.cfi_startproc
 4420              		@ args = 0, pretend = 0, frame = 0
 4421              		@ frame_needed = 0, uses_anonymous_args = 0
 4422              	.LVL635:
ARM GAS  /var/folders/4k/6h5l9jl178sb4hslwv3xp1mr0000gn/T//ccjvit50.s 			page 79


 4423 0000 F8B5     		push	{r3, r4, r5, r6, r7, lr}
 4424              		.cfi_def_cfa_offset 24
 4425              		.cfi_offset 3, -24
 4426              		.cfi_offset 4, -20
 4427              		.cfi_offset 5, -16
 4428              		.cfi_offset 6, -12
 4429              		.cfi_offset 7, -8
 4430              		.cfi_offset 14, -4
 4431              		.loc 1 2211 0
 4432 0002 0446     		mov	r4, r0
 4433              		.loc 1 2207 0
 4434 0004 0D46     		mov	r5, r1
 4435              		.loc 1 2211 0
 4436 0006 08B1     		cbz	r0, .L667
 4437              		.loc 1 2212 0
 4438 0008 0B20     		movs	r0, #11
 4439              	.LVL636:
 4440              		.loc 1 2234 0
 4441 000a F8BD     		pop	{r3, r4, r5, r6, r7, pc}
 4442              	.LVL637:
 4443              	.L667:
 4444              		.loc 1 2213 0
 4445 000c 0A4F     		ldr	r7, .L668
 4446 000e 3E68     		ldr	r6, [r7]
 4447              	.LVL638:
 4448              		.loc 1 2215 0
 4449 0010 36B1     		cbz	r6, .L655
 4450              		.loc 1 2220 0
 4451 0012 F068     		ldr	r0, [r6, #12]
 4452              	.LVL639:
 4453 0014 FFF7FEFF 		bl	ff_del_syncobj
 4454              	.LVL640:
 4455 0018 08B9     		cbnz	r0, .L656
 4456              	.L658:
 4457 001a 0220     		movs	r0, #2
 4458 001c F8BD     		pop	{r3, r4, r5, r6, r7, pc}
 4459              	.LVL641:
 4460              	.L656:
 4461              		.loc 1 2222 0
 4462 001e 3470     		strb	r4, [r6]
 4463              	.L655:
 4464              		.loc 1 2225 0
 4465 0020 3DB1     		cbz	r5, .L659
 4466              		.loc 1 2226 0
 4467 0022 2946     		mov	r1, r5
 4468 0024 0020     		movs	r0, #0
 4469 0026 01F80C0B 		strb	r0, [r1], #12
 4470              		.loc 1 2228 0
 4471 002a FFF7FEFF 		bl	ff_cre_syncobj
 4472              	.LVL642:
 4473 002e 0028     		cmp	r0, #0
 4474 0030 F3D0     		beq	.L658
 4475              	.L659:
 4476              		.loc 1 2231 0
 4477 0032 3D60     		str	r5, [r7]
 4478              		.loc 1 2233 0
 4479 0034 0020     		movs	r0, #0
ARM GAS  /var/folders/4k/6h5l9jl178sb4hslwv3xp1mr0000gn/T//ccjvit50.s 			page 80


 4480 0036 F8BD     		pop	{r3, r4, r5, r6, r7, pc}
 4481              	.LVL643:
 4482              	.L669:
 4483              		.align	2
 4484              	.L668:
 4485 0038 00000000 		.word	.LANCHOR0
 4486              		.cfi_endproc
 4487              	.LFE37:
 4488              		.size	f_mount, .-f_mount
 4489 003c AFF30080 		.section	.text.f_open,"ax",%progbits
 4490              		.align	2
 4491              		.p2align 4,,15
 4492              		.global	f_open
 4493              		.thumb
 4494              		.thumb_func
 4495              		.type	f_open, %function
 4496              	f_open:
 4497              	.LFB38:
 4498              		.loc 1 2248 0
 4499              		.cfi_startproc
 4500              		@ args = 0, pretend = 0, frame = 56
 4501              		@ frame_needed = 0, uses_anonymous_args = 0
 4502              	.LVL644:
 4503 0000 2DE9F047 		push	{r4, r5, r6, r7, r8, r9, r10, lr}
 4504              		.cfi_def_cfa_offset 32
 4505              		.cfi_offset 4, -32
 4506              		.cfi_offset 5, -28
 4507              		.cfi_offset 6, -24
 4508              		.cfi_offset 7, -20
 4509              		.cfi_offset 8, -16
 4510              		.cfi_offset 9, -12
 4511              		.cfi_offset 10, -8
 4512              		.cfi_offset 14, -4
 4513 0004 8EB0     		sub	sp, sp, #56
 4514              		.cfi_def_cfa_offset 88
 4515              		.loc 1 2248 0
 4516 0006 0EAB     		add	r3, sp, #56
 4517 0008 9046     		mov	r8, r2
 4518 000a 43F8341D 		str	r1, [r3, #-52]!
 4519              		.loc 1 2255 0
 4520 000e 0022     		movs	r2, #0
 4521              	.LVL645:
 4522 0010 0260     		str	r2, [r0]
 4523              		.loc 1 2259 0
 4524 0012 05A9     		add	r1, sp, #20
 4525              	.LVL646:
 4526 0014 08F01E02 		and	r2, r8, #30
 4527              		.loc 1 2248 0
 4528 0018 0546     		mov	r5, r0
 4529              		.loc 1 2259 0
 4530 001a 1846     		mov	r0, r3
 4531              	.LVL647:
 4532 001c FFF7FEFF 		bl	chk_mounted
 4533              	.LVL648:
 4534 0020 0646     		mov	r6, r0
 4535              		.loc 1 2264 0
 4536 0022 4FF40070 		mov	r0, #512
ARM GAS  /var/folders/4k/6h5l9jl178sb4hslwv3xp1mr0000gn/T//ccjvit50.s 			page 81


 4537 0026 FFF7FEFF 		bl	ff_memalloc
 4538              	.LVL649:
 4539              		.loc 1 2258 0
 4540 002a 08F01F09 		and	r9, r8, #31
 4541              	.LVL650:
 4542              		.loc 1 2264 0
 4543 002e 0746     		mov	r7, r0
 4544 0030 0028     		cmp	r0, #0
 4545 0032 7CD0     		beq	.L717
 4546              		.loc 1 2264 0 is_stmt 0 discriminator 2
 4547 0034 02AB     		add	r3, sp, #8
 4548 0036 0C90     		str	r0, [sp, #48]
 4549 0038 0B93     		str	r3, [sp, #44]
 4550              		.loc 1 2265 0 is_stmt 1 discriminator 2
 4551 003a 96B1     		cbz	r6, .L718
 4552              	.LVL651:
 4553              	.L673:
 4554              		.loc 1 2279 0
 4555 003c 18F01C0F 		tst	r8, #28
 4556 0040 71D0     		beq	.L715
 4557              	.LBB404:
 4558              		.loc 1 2283 0
 4559 0042 042E     		cmp	r6, #4
 4560 0044 6FD1     		bne	.L715
 4561              		.loc 1 2287 0
 4562 0046 05A8     		add	r0, sp, #20
 4563 0048 FFF7FEFF 		bl	dir_register
 4564              	.LVL652:
 4565              		.loc 1 2289 0
 4566 004c 49F00809 		orr	r9, r9, #8
 4567              	.LVL653:
 4568              		.loc 1 2300 0
 4569 0050 0646     		mov	r6, r0
 4570              		.loc 1 2290 0
 4571 0052 0A9C     		ldr	r4, [sp, #40]
 4572              	.LVL654:
 4573              		.loc 1 2300 0
 4574 0054 0028     		cmp	r0, #0
 4575 0056 66D1     		bne	.L715
 4576              	.LVL655:
 4577              	.L675:
 4578              		.loc 1 2300 0 is_stmt 0 discriminator 1
 4579 0058 19F0080F 		tst	r9, #8
 4580 005c 74D1     		bne	.L719
 4581 005e 059B     		ldr	r3, [sp, #20]
 4582              	.LVL656:
 4583 0060 37E0     		b	.L686
 4584              	.LVL657:
 4585              	.L718:
 4586              	.LBE404:
 4587              		.loc 1 2266 0 is_stmt 1
 4588 0062 05A8     		add	r0, sp, #20
 4589              	.LVL658:
 4590 0064 0199     		ldr	r1, [sp, #4]
 4591 0066 FFF7FEFF 		bl	follow_path
 4592              	.LVL659:
 4593              		.loc 1 2267 0
ARM GAS  /var/folders/4k/6h5l9jl178sb4hslwv3xp1mr0000gn/T//ccjvit50.s 			page 82


 4594 006a 0A9C     		ldr	r4, [sp, #40]
 4595              	.LVL660:
 4596              		.loc 1 2270 0
 4597 006c 0646     		mov	r6, r0
 4598 006e 0028     		cmp	r0, #0
 4599 0070 E4D1     		bne	.L673
 4600              		.loc 1 2271 0
 4601 0072 002C     		cmp	r4, #0
 4602 0074 63D0     		beq	.L720
 4603              	.LVL661:
 4604              		.loc 1 2279 0
 4605 0076 18F01C0F 		tst	r8, #28
 4606 007a 09D0     		beq	.L721
 4607              	.LBB409:
 4608              		.loc 1 2293 0
 4609 007c E37A     		ldrb	r3, [r4, #11]	@ zero_extendqisi2
 4610 007e 13F0110F 		tst	r3, #17
 4611 0082 5ED1     		bne	.L699
 4612              		.loc 1 2296 0
 4613 0084 18F0040F 		tst	r8, #4
 4614 0088 E6D0     		beq	.L675
 4615 008a FD24     		movs	r4, #253
 4616              	.LVL662:
 4617              		.loc 1 2297 0
 4618 008c 0826     		movs	r6, #8
 4619 008e 04E0     		b	.L682
 4620              	.LVL663:
 4621              	.L721:
 4622              	.LBE409:
 4623              		.loc 1 2320 0
 4624 0090 E37A     		ldrb	r3, [r4, #11]	@ zero_extendqisi2
 4625 0092 DA06     		lsls	r2, r3, #27
 4626 0094 11D5     		bpl	.L722
 4627 0096 F924     		movs	r4, #249
 4628              	.LVL664:
 4629              		.loc 1 2321 0
 4630 0098 0426     		movs	r6, #4
 4631              	.LVL665:
 4632              	.L682:
 4633              		.loc 1 2349 0
 4634 009a 3846     		mov	r0, r7
 4635 009c FFF7FEFF 		bl	ff_memfree
 4636              	.LVL666:
 4637              	.LBB410:
 4638              	.LBB411:
 4639              		.loc 1 592 0
 4640 00a0 012C     		cmp	r4, #1
 4641 00a2 0598     		ldr	r0, [sp, #20]
 4642              	.LVL667:
 4643 00a4 3BD9     		bls	.L716
 4644              		.loc 1 593 0
 4645 00a6 092E     		cmp	r6, #9
 4646 00a8 39D0     		beq	.L716
 4647              	.LVL668:
 4648              	.L685:
 4649 00aa 0C30     		adds	r0, r0, #12
 4650              	.LVL669:
ARM GAS  /var/folders/4k/6h5l9jl178sb4hslwv3xp1mr0000gn/T//ccjvit50.s 			page 83


 4651 00ac 3146     		mov	r1, r6
 4652 00ae FFF7FEFF 		bl	unlock_fs.isra.4.part.5
 4653              	.LVL670:
 4654 00b2 3046     		mov	r0, r6
 4655              	.LBE411:
 4656              	.LBE410:
 4657              		.loc 1 2364 0
 4658 00b4 0EB0     		add	sp, sp, #56
 4659              	.LVL671:
 4660              		@ sp needed
 4661 00b6 BDE8F087 		pop	{r4, r5, r6, r7, r8, r9, r10, pc}
 4662              	.LVL672:
 4663              	.L722:
 4664              		.loc 1 2323 0
 4665 00ba 18F0020F 		tst	r8, #2
 4666 00be 01D0     		beq	.L713
 4667              		.loc 1 2323 0 is_stmt 0 discriminator 1
 4668 00c0 DB07     		lsls	r3, r3, #31
 4669 00c2 3ED4     		bmi	.L699
 4670              	.L713:
 4671 00c4 08F00802 		and	r2, r8, #8
 4672 00c8 D2B2     		uxtb	r2, r2
 4673 00ca 059B     		ldr	r3, [sp, #20]
 4674              		.loc 1 2329 0 is_stmt 1
 4675 00cc 0AB1     		cbz	r2, .L686
 4676              	.LVL673:
 4677              	.L679:
 4678              		.loc 1 2330 0
 4679 00ce 49F02009 		orr	r9, r9, #32
 4680              	.LVL674:
 4681              	.L686:
 4682              		.loc 1 2331 0
 4683 00d2 1B6B     		ldr	r3, [r3, #48]
 4684 00d4 EB61     		str	r3, [r5, #28]
 4685              		.loc 1 2349 0
 4686 00d6 3846     		mov	r0, r7
 4687              		.loc 1 2332 0
 4688 00d8 2C62     		str	r4, [r5, #32]
 4689              		.loc 1 2349 0
 4690 00da FFF7FEFF 		bl	ff_memfree
 4691              	.LVL675:
 4692              		.loc 1 2352 0
 4693 00de 85F80690 		strb	r9, [r5, #6]
 4694              		.loc 1 2353 0
 4695 00e2 667D     		ldrb	r6, [r4, #21]	@ zero_extendqisi2
 4696 00e4 A17E     		ldrb	r1, [r4, #26]	@ zero_extendqisi2
 4697 00e6 227D     		ldrb	r2, [r4, #20]	@ zero_extendqisi2
 4698 00e8 E37E     		ldrb	r3, [r4, #27]	@ zero_extendqisi2
 4699              		.loc 1 2360 0
 4700 00ea 0598     		ldr	r0, [sp, #20]
 4701              		.loc 1 2353 0
 4702 00ec 42EA0622 		orr	r2, r2, r6, lsl #8
 4703 00f0 41EA0323 		orr	r3, r1, r3, lsl #8
 4704 00f4 43EA0243 		orr	r3, r3, r2, lsl #16
 4705 00f8 2B61     		str	r3, [r5, #16]
 4706              		.loc 1 2354 0
 4707 00fa A27F     		ldrb	r2, [r4, #30]	@ zero_extendqisi2
ARM GAS  /var/folders/4k/6h5l9jl178sb4hslwv3xp1mr0000gn/T//ccjvit50.s 			page 84


 4708 00fc E77F     		ldrb	r7, [r4, #31]	@ zero_extendqisi2
 4709              	.LVL676:
 4710 00fe 267F     		ldrb	r6, [r4, #28]	@ zero_extendqisi2
 4711 0100 617F     		ldrb	r1, [r4, #29]	@ zero_extendqisi2
 4712              		.loc 1 2360 0
 4713 0102 C388     		ldrh	r3, [r0, #6]
 4714 0104 AB80     		strh	r3, [r5, #4]	@ movhi
 4715              	.LVL677:
 4716              		.loc 1 2354 0
 4717 0106 1204     		lsls	r2, r2, #16
 4718 0108 42EA0762 		orr	r2, r2, r7, lsl #24
 4719 010c 3243     		orrs	r2, r2, r6
 4720 010e 42EA0122 		orr	r2, r2, r1, lsl #8
 4721              		.loc 1 2355 0
 4722 0112 0026     		movs	r6, #0
 4723              		.loc 1 2360 0
 4724 0114 2860     		str	r0, [r5]
 4725              		.loc 1 2354 0
 4726 0116 EA60     		str	r2, [r5, #12]
 4727              		.loc 1 2355 0
 4728 0118 AE60     		str	r6, [r5, #8]
 4729              		.loc 1 2356 0
 4730 011a AE61     		str	r6, [r5, #24]
 4731 011c C5E7     		b	.L685
 4732              	.LVL678:
 4733              	.L716:
 4734              	.LBB413:
 4735              	.LBB412:
 4736              		.loc 1 592 0
 4737 011e 3046     		mov	r0, r6
 4738              	.LVL679:
 4739              	.LBE412:
 4740              	.LBE413:
 4741              		.loc 1 2364 0
 4742 0120 0EB0     		add	sp, sp, #56
 4743              	.LVL680:
 4744              		@ sp needed
 4745 0122 BDE8F087 		pop	{r4, r5, r6, r7, r8, r9, r10, pc}
 4746              	.LVL681:
 4747              	.L715:
 4748 0126 A6F10B04 		sub	r4, r6, #11
 4749 012a E4B2     		uxtb	r4, r4
 4750 012c B5E7     		b	.L682
 4751              	.LVL682:
 4752              	.L717:
 4753              	.LBB414:
 4754              	.LBB415:
 4755              	.LBB416:
 4756              		.loc 1 596 0 discriminator 1
 4757 012e 059B     		ldr	r3, [sp, #20]
 4758 0130 D868     		ldr	r0, [r3, #12]
 4759              	.LVL683:
 4760 0132 FFF7FEFF 		bl	ff_rel_grant
 4761              	.LVL684:
 4762              	.LBE416:
 4763              	.LBE415:
 4764              	.LBE414:
ARM GAS  /var/folders/4k/6h5l9jl178sb4hslwv3xp1mr0000gn/T//ccjvit50.s 			page 85


 4765              		.loc 1 2264 0 discriminator 1
 4766 0136 1120     		movs	r0, #17
 4767              		.loc 1 2364 0 discriminator 1
 4768 0138 0EB0     		add	sp, sp, #56
 4769              	.LVL685:
 4770              		@ sp needed
 4771 013a BDE8F087 		pop	{r4, r5, r6, r7, r8, r9, r10, pc}
 4772              	.LVL686:
 4773              	.L720:
 4774              		.loc 1 2272 0
 4775 013e 0626     		movs	r6, #6
 4776 0140 7CE7     		b	.L673
 4777              	.LVL687:
 4778              	.L699:
 4779 0142 FC24     		movs	r4, #252
 4780              	.LVL688:
 4781              		.loc 1 2324 0
 4782 0144 0726     		movs	r6, #7
 4783              	.LVL689:
 4784 0146 A8E7     		b	.L682
 4785              	.LVL690:
 4786              	.L719:
 4787              	.LBB417:
 4788              		.loc 1 2301 0
 4789 0148 FFF7FEFF 		bl	get_fattime
 4790              	.LVL691:
 4791              		.loc 1 2305 0
 4792 014c 94F815E0 		ldrb	lr, [r4, #21]	@ zero_extendqisi2
 4793 0150 A27E     		ldrb	r2, [r4, #26]	@ zero_extendqisi2
 4794 0152 267D     		ldrb	r6, [r4, #20]	@ zero_extendqisi2
 4795 0154 E17E     		ldrb	r1, [r4, #27]	@ zero_extendqisi2
 4796              		.loc 1 2307 0
 4797 0156 059B     		ldr	r3, [sp, #20]
 4798              		.loc 1 2302 0
 4799 0158 A073     		strb	r0, [r4, #14]
 4800 015a C0F30728 		ubfx	r8, r0, #8, #8
 4801              		.loc 1 2305 0
 4802 015e 46EA0E26 		orr	r6, r6, lr, lsl #8
 4803 0162 42EA0121 		orr	r1, r2, r1, lsl #8
 4804              	.LVL692:
 4805              		.loc 1 2302 0
 4806 0166 4FEA104C 		lsr	ip, r0, #16
 4807              		.loc 1 2303 0
 4808 016a 0022     		movs	r2, #0
 4809              		.loc 1 2302 0
 4810 016c 84F80F80 		strb	r8, [r4, #15]
 4811 0170 000E     		lsrs	r0, r0, #24
 4812              	.LVL693:
 4813              		.loc 1 2307 0
 4814 0172 4FF0010E 		mov	lr, #1
 4815              		.loc 1 2308 0
 4816 0176 51EA0648 		orrs	r8, r1, r6, lsl #16
 4817              	.LVL694:
 4818              		.loc 1 2302 0
 4819 017a 84F810C0 		strb	ip, [r4, #16]
 4820 017e 6074     		strb	r0, [r4, #17]
 4821              		.loc 1 2303 0
ARM GAS  /var/folders/4k/6h5l9jl178sb4hslwv3xp1mr0000gn/T//ccjvit50.s 			page 86


 4822 0180 E272     		strb	r2, [r4, #11]
 4823              		.loc 1 2304 0
 4824 0182 2277     		strb	r2, [r4, #28]
 4825 0184 6277     		strb	r2, [r4, #29]
 4826 0186 A277     		strb	r2, [r4, #30]
 4827 0188 E277     		strb	r2, [r4, #31]
 4828              		.loc 1 2306 0
 4829 018a A276     		strb	r2, [r4, #26]
 4830 018c E276     		strb	r2, [r4, #27]
 4831 018e 2275     		strb	r2, [r4, #20]
 4832 0190 6275     		strb	r2, [r4, #21]
 4833              		.loc 1 2307 0
 4834 0192 83F804E0 		strb	lr, [r3, #4]
 4835              		.loc 1 2308 0
 4836 0196 9AD0     		beq	.L679
 4837              	.LBB405:
 4838              	.LBB406:
 4839              		.loc 1 936 0
 4840 0198 F045     		cmp	r8, lr
 4841              	.LBE406:
 4842              	.LBE405:
 4843              		.loc 1 2309 0
 4844 019a D3F830A0 		ldr	r10, [r3, #48]
 4845              	.LVL695:
 4846              	.LBB408:
 4847              	.LBB407:
 4848              		.loc 1 936 0
 4849 019e 02D0     		beq	.L697
 4850 01a0 DA69     		ldr	r2, [r3, #28]
 4851 01a2 9045     		cmp	r8, r2
 4852 01a4 02D3     		bcc	.L723
 4853              	.L697:
 4854 01a6 F724     		movs	r4, #247
 4855              	.LVL696:
 4856 01a8 0226     		movs	r6, #2
 4857 01aa 76E7     		b	.L682
 4858              	.LVL697:
 4859              	.L723:
 4860 01ac 1846     		mov	r0, r3
 4861 01ae 4146     		mov	r1, r8
 4862 01b0 FFF7FEFF 		bl	remove_chain.part.9
 4863              	.LVL698:
 4864              	.LBE407:
 4865              	.LBE408:
 4866              		.loc 1 2311 0
 4867 01b4 0646     		mov	r6, r0
 4868 01b6 0028     		cmp	r0, #0
 4869 01b8 B5D1     		bne	.L715
 4870              		.loc 1 2312 0
 4871 01ba 0598     		ldr	r0, [sp, #20]
 4872              	.LVL699:
 4873 01bc 08F1FF33 		add	r3, r8, #-1
 4874              		.loc 1 2313 0
 4875 01c0 5146     		mov	r1, r10
 4876              		.loc 1 2312 0
 4877 01c2 0361     		str	r3, [r0, #16]
 4878              		.loc 1 2313 0
ARM GAS  /var/folders/4k/6h5l9jl178sb4hslwv3xp1mr0000gn/T//ccjvit50.s 			page 87


 4879 01c4 FFF7FEFF 		bl	move_window
 4880              	.LVL700:
 4881              	.LBE417:
 4882              		.loc 1 2328 0
 4883 01c8 0646     		mov	r6, r0
 4884 01ca 0028     		cmp	r0, #0
 4885 01cc ABD1     		bne	.L715
 4886 01ce 059B     		ldr	r3, [sp, #20]
 4887 01d0 7DE7     		b	.L679
 4888              		.cfi_endproc
 4889              	.LFE38:
 4890              		.size	f_open, .-f_open
 4891 01d2 00BFAFF3 		.section	.text.f_read,"ax",%progbits
 4891      0080AFF3 
 4891      0080AFF3 
 4891      0080
 4892              		.align	2
 4893              		.p2align 4,,15
 4894              		.global	f_read
 4895              		.thumb
 4896              		.thumb_func
 4897              		.type	f_read, %function
 4898              	f_read:
 4899              	.LFB39:
 4900              		.loc 1 2379 0
 4901              		.cfi_startproc
 4902              		@ args = 0, pretend = 0, frame = 8
 4903              		@ frame_needed = 0, uses_anonymous_args = 0
 4904              	.LVL701:
 4905 0000 2DE9F04F 		push	{r4, r5, r6, r7, r8, r9, r10, fp, lr}
 4906              		.cfi_def_cfa_offset 36
 4907              		.cfi_offset 4, -36
 4908              		.cfi_offset 5, -32
 4909              		.cfi_offset 6, -28
 4910              		.cfi_offset 7, -24
 4911              		.cfi_offset 8, -20
 4912              		.cfi_offset 9, -16
 4913              		.cfi_offset 10, -12
 4914              		.cfi_offset 11, -8
 4915              		.cfi_offset 14, -4
 4916 0004 0646     		mov	r6, r0
 4917 0006 9946     		mov	r9, r3
 4918              		.loc 1 2386 0
 4919 0008 0023     		movs	r3, #0
 4920              	.LVL702:
 4921              		.loc 1 2379 0
 4922 000a 83B0     		sub	sp, sp, #12
 4923              		.cfi_def_cfa_offset 48
 4924              		.loc 1 2379 0
 4925 000c 8A46     		mov	r10, r1
 4926              	.LVL703:
 4927              		.loc 1 2386 0
 4928 000e C9F80030 		str	r3, [r9]
 4929              		.loc 1 2388 0
 4930 0012 0068     		ldr	r0, [r0]
 4931              	.LVL704:
 4932 0014 B188     		ldrh	r1, [r6, #4]
ARM GAS  /var/folders/4k/6h5l9jl178sb4hslwv3xp1mr0000gn/T//ccjvit50.s 			page 88


 4933              	.LVL705:
 4934              		.loc 1 2379 0
 4935 0016 1746     		mov	r7, r2
 4936              		.loc 1 2388 0
 4937 0018 FFF7FEFF 		bl	validate
 4938              	.LVL706:
 4939              		.loc 1 2389 0
 4940 001c 0446     		mov	r4, r0
 4941 001e 78B1     		cbz	r0, .L725
 4942              	.LBB464:
 4943              	.LBB465:
 4944              		.loc 1 592 0 discriminator 1
 4945 0020 A0F10B03 		sub	r3, r0, #11
 4946 0024 DBB2     		uxtb	r3, r3
 4947 0026 012B     		cmp	r3, #1
 4948              	.LBE465:
 4949              	.LBE464:
 4950              		.loc 1 2389 0 discriminator 1
 4951 0028 3068     		ldr	r0, [r6]
 4952              	.LVL707:
 4953              	.LBB468:
 4954              	.LBB466:
 4955              		.loc 1 592 0 discriminator 1
 4956 002a 6FD9     		bls	.L756
 4957              		.loc 1 593 0
 4958 002c 092C     		cmp	r4, #9
 4959 002e 6DD0     		beq	.L756
 4960 0030 0C30     		adds	r0, r0, #12
 4961              	.LVL708:
 4962 0032 2146     		mov	r1, r4
 4963 0034 FFF7FEFF 		bl	unlock_fs.isra.4.part.5
 4964              	.LVL709:
 4965 0038 2046     		mov	r0, r4
 4966              	.LVL710:
 4967              	.L726:
 4968              	.LBE466:
 4969              	.LBE468:
 4970              		.loc 1 2464 0
 4971 003a 03B0     		add	sp, sp, #12
 4972              		@ sp needed
 4973 003c BDE8F08F 		pop	{r4, r5, r6, r7, r8, r9, r10, fp, pc}
 4974              	.LVL711:
 4975              	.L725:
 4976              		.loc 1 2390 0
 4977 0040 B379     		ldrb	r3, [r6, #6]	@ zero_extendqisi2
 4978 0042 1A06     		lsls	r2, r3, #24
 4979 0044 00F1B380 		bmi	.L773
 4980              		.loc 1 2392 0
 4981 0048 DD07     		lsls	r5, r3, #31
 4982 004a 40F1BF80 		bpl	.L774
 4983              		.loc 1 2394 0
 4984 004e B568     		ldr	r5, [r6, #8]
 4985 0050 F368     		ldr	r3, [r6, #12]
 4986 0052 5B1B     		subs	r3, r3, r5
 4987              	.LVL712:
 4988 0054 9F42     		cmp	r7, r3
 4989 0056 28BF     		it	cs
ARM GAS  /var/folders/4k/6h5l9jl178sb4hslwv3xp1mr0000gn/T//ccjvit50.s 			page 89


 4990 0058 1F46     		movcs	r7, r3
 4991              	.LVL713:
 4992              		.loc 1 2441 0
 4993 005a 06F12408 		add	r8, r6, #36
 4994              		.loc 1 2397 0
 4995 005e 002F     		cmp	r7, #0
 4996 0060 4ED0     		beq	.L753
 4997              	.LVL714:
 4998              	.L754:
 4999              		.loc 1 2399 0
 5000 0062 C5F30804 		ubfx	r4, r5, #0, #9
 5001 0066 002C     		cmp	r4, #0
 5002 0068 72D1     		bne	.L730
 5003              		.loc 1 2400 0
 5004 006a 3368     		ldr	r3, [r6]
 5005 006c 9A78     		ldrb	r2, [r3, #2]	@ zero_extendqisi2
 5006 006e 013A     		subs	r2, r2, #1
 5007 0070 02EA5522 		and	r2, r2, r5, lsr #9
 5008              	.LVL715:
 5009              		.loc 1 2401 0
 5010 0074 12F0FF02 		ands	r2, r2, #255
 5011              	.LVL716:
 5012 0078 7FD0     		beq	.L731
 5013 007a 7169     		ldr	r1, [r6, #20]
 5014              	.LVL717:
 5015              	.L732:
 5016              	.LBB469:
 5017              	.LBB470:
 5018              		.loc 1 807 0
 5019 007c D869     		ldr	r0, [r3, #28]
 5020              		.loc 1 806 0
 5021 007e 0239     		subs	r1, r1, #2
 5022              	.LVL718:
 5023              		.loc 1 807 0
 5024 0080 0238     		subs	r0, r0, #2
 5025 0082 8142     		cmp	r1, r0
 5026 0084 80F08880 		bcs	.L739
 5027              		.loc 1 808 0
 5028 0088 9878     		ldrb	r0, [r3, #2]	@ zero_extendqisi2
 5029 008a DC6A     		ldr	r4, [r3, #44]
 5030 008c 00FB0144 		mla	r4, r0, r1, r4
 5031              	.LBE470:
 5032              	.LBE469:
 5033              		.loc 1 2417 0
 5034 0090 002C     		cmp	r4, #0
 5035 0092 00F08180 		beq	.L739
 5036              		.loc 1 2420 0
 5037 0096 5FEA572B 		lsrs	fp, r7, #9
 5038              		.loc 1 2418 0
 5039 009a 1444     		add	r4, r4, r2
 5040              	.LVL719:
 5041              		.loc 1 2420 0
 5042 009c 3AD0     		beq	.L740
 5043              		.loc 1 2421 0
 5044 009e 02EB0B01 		add	r1, r2, fp
 5045              	.LVL720:
 5046 00a2 8142     		cmp	r1, r0
ARM GAS  /var/folders/4k/6h5l9jl178sb4hslwv3xp1mr0000gn/T//ccjvit50.s 			page 90


 5047              		.loc 1 2422 0
 5048 00a4 88BF     		it	hi
 5049 00a6 C2EB000B 		rsbhi	fp, r2, r0
 5050              	.LVL721:
 5051              		.loc 1 2423 0
 5052 00aa 5146     		mov	r1, r10
 5053 00ac 5878     		ldrb	r0, [r3, #1]	@ zero_extendqisi2
 5054 00ae 2246     		mov	r2, r4
 5055 00b0 5FFA8BF3 		uxtb	r3, fp
 5056              	.LVL722:
 5057 00b4 FFF7FEFF 		bl	disk_read
 5058              	.LVL723:
 5059 00b8 0028     		cmp	r0, #0
 5060 00ba 40F08F80 		bne	.L772
 5061              		.loc 1 2430 0
 5062 00be B379     		ldrb	r3, [r6, #6]	@ zero_extendqisi2
 5063 00c0 5806     		lsls	r0, r3, #25
 5064 00c2 0ED5     		bpl	.L745
 5065              		.loc 1 2430 0 is_stmt 0 discriminator 1
 5066 00c4 B369     		ldr	r3, [r6, #24]
 5067 00c6 1C1B     		subs	r4, r3, r4
 5068              	.LVL724:
 5069 00c8 A345     		cmp	fp, r4
 5070 00ca 0AD9     		bls	.L745
 5071              		.loc 1 2431 0 is_stmt 1
 5072 00cc 0AEB4424 		add	r4, r10, r4, lsl #9
 5073 00d0 04F50072 		add	r2, r4, #512
 5074 00d4 4546     		mov	r5, r8
 5075              	.LVL725:
 5076              	.L746:
 5077              	.LBB471:
 5078              	.LBB472:
 5079              		.loc 1 541 0
 5080 00d6 15F8013B 		ldrb	r3, [r5], #1	@ zero_extendqisi2
 5081              	.LVL726:
 5082 00da 04F8013B 		strb	r3, [r4], #1
 5083              	.LVL727:
 5084              		.loc 1 540 0
 5085 00de 9442     		cmp	r4, r2
 5086 00e0 F9D1     		bne	.L746
 5087              	.LVL728:
 5088              	.L745:
 5089              	.LBE472:
 5090              	.LBE471:
 5091              		.loc 1 2434 0
 5092 00e2 4FEA4B21 		lsl	r1, fp, #9
 5093              	.LVL729:
 5094 00e6 B568     		ldr	r5, [r6, #8]
 5095 00e8 0AEB0103 		add	r3, r10, r1
 5096              	.LVL730:
 5097              	.L744:
 5098              		.loc 1 2398 0
 5099 00ec D9F80020 		ldr	r2, [r9]
 5100 00f0 0D44     		add	r5, r5, r1
 5101 00f2 0A44     		add	r2, r2, r1
 5102              		.loc 1 2397 0
 5103 00f4 7F1A     		subs	r7, r7, r1
ARM GAS  /var/folders/4k/6h5l9jl178sb4hslwv3xp1mr0000gn/T//ccjvit50.s 			page 91


 5104              	.LVL731:
 5105              		.loc 1 2398 0
 5106 00f6 B560     		str	r5, [r6, #8]
 5107 00f8 9A46     		mov	r10, r3
 5108              	.LVL732:
 5109 00fa C9F80020 		str	r2, [r9]
 5110              		.loc 1 2397 0
 5111 00fe B0D1     		bne	.L754
 5112              	.LVL733:
 5113              	.L753:
 5114              	.LBB473:
 5115              	.LBB474:
 5116              	.LBB475:
 5117              		.loc 1 596 0
 5118 0100 3368     		ldr	r3, [r6]
 5119 0102 D868     		ldr	r0, [r3, #12]
 5120 0104 FFF7FEFF 		bl	ff_rel_grant
 5121              	.LVL734:
 5122              	.LBE475:
 5123              	.LBE474:
 5124              	.LBE473:
 5125              		.loc 1 2463 0
 5126 0108 0020     		movs	r0, #0
 5127 010a 96E7     		b	.L726
 5128              	.LVL735:
 5129              	.L756:
 5130              	.LBB476:
 5131              	.LBB467:
 5132              		.loc 1 593 0
 5133 010c 2046     		mov	r0, r4
 5134              	.LVL736:
 5135              	.LBE467:
 5136              	.LBE476:
 5137              		.loc 1 2464 0
 5138 010e 03B0     		add	sp, sp, #12
 5139              		@ sp needed
 5140 0110 BDE8F08F 		pop	{r4, r5, r6, r7, r8, r9, r10, fp, pc}
 5141              	.LVL737:
 5142              	.L740:
 5143              		.loc 1 2438 0
 5144 0114 B269     		ldr	r2, [r6, #24]
 5145 0116 A242     		cmp	r2, r4
 5146 0118 16D0     		beq	.L747
 5147              		.loc 1 2440 0
 5148 011a B179     		ldrb	r1, [r6, #6]	@ zero_extendqisi2
 5149              	.LVL738:
 5150 011c 4906     		lsls	r1, r1, #25
 5151 011e 0BD5     		bpl	.L749
 5152              		.loc 1 2441 0
 5153 0120 5878     		ldrb	r0, [r3, #1]	@ zero_extendqisi2
 5154 0122 4146     		mov	r1, r8
 5155 0124 0123     		movs	r3, #1
 5156              	.LVL739:
 5157 0126 FFF7FEFF 		bl	disk_write
 5158              	.LVL740:
 5159              		.loc 1 2442 0
 5160 012a B279     		ldrb	r2, [r6, #6]	@ zero_extendqisi2
ARM GAS  /var/folders/4k/6h5l9jl178sb4hslwv3xp1mr0000gn/T//ccjvit50.s 			page 92


 5161              	.LBB477:
 5162              	.LBB478:
 5163              	.LBB479:
 5164              		.loc 1 596 0
 5165 012c 3368     		ldr	r3, [r6]
 5166              	.LBE479:
 5167              	.LBE478:
 5168              	.LBE477:
 5169              		.loc 1 2441 0
 5170 012e 0028     		cmp	r0, #0
 5171 0130 56D1     		bne	.L771
 5172              		.loc 1 2443 0
 5173 0132 22F04002 		bic	r2, r2, #64
 5174 0136 B271     		strb	r2, [r6, #6]
 5175              	.L749:
 5176              		.loc 1 2446 0
 5177 0138 5878     		ldrb	r0, [r3, #1]	@ zero_extendqisi2
 5178 013a 4146     		mov	r1, r8
 5179 013c 2246     		mov	r2, r4
 5180 013e 0123     		movs	r3, #1
 5181 0140 FFF7FEFF 		bl	disk_read
 5182              	.LVL741:
 5183 0144 0028     		cmp	r0, #0
 5184 0146 49D1     		bne	.L772
 5185              	.L747:
 5186 0148 B568     		ldr	r5, [r6, #8]
 5187              		.loc 1 2450 0
 5188 014a B461     		str	r4, [r6, #24]
 5189 014c C5F30804 		ubfx	r4, r5, #0, #9
 5190              	.LVL742:
 5191              	.L730:
 5192              		.loc 1 2452 0
 5193 0150 C4F50071 		rsb	r1, r4, #512
 5194              	.LVL743:
 5195 0154 B942     		cmp	r1, r7
 5196 0156 28BF     		it	cs
 5197 0158 3946     		movcs	r1, r7
 5198              	.LVL744:
 5199              		.loc 1 2459 0
 5200 015a 3444     		add	r4, r4, r6
 5201 015c 2434     		adds	r4, r4, #36
 5202              	.LVL745:
 5203 015e 5346     		mov	r3, r10
 5204              	.LBB480:
 5205              	.LBB481:
 5206              		.loc 1 540 0
 5207 0160 0029     		cmp	r1, #0
 5208 0162 C3D0     		beq	.L744
 5209              	.LVL746:
 5210 0164 0AEB0103 		add	r3, r10, r1
 5211              	.LVL747:
 5212 0168 5246     		mov	r2, r10
 5213              	.LVL748:
 5214              	.L752:
 5215              		.loc 1 541 0
 5216 016a 14F8015B 		ldrb	r5, [r4], #1	@ zero_extendqisi2
 5217              	.LVL749:
ARM GAS  /var/folders/4k/6h5l9jl178sb4hslwv3xp1mr0000gn/T//ccjvit50.s 			page 93


 5218 016e 02F8015B 		strb	r5, [r2], #1
 5219              	.LVL750:
 5220              		.loc 1 540 0
 5221 0172 9A42     		cmp	r2, r3
 5222 0174 F9D1     		bne	.L752
 5223 0176 B568     		ldr	r5, [r6, #8]
 5224 0178 B8E7     		b	.L744
 5225              	.LVL751:
 5226              	.L731:
 5227              	.LBE481:
 5228              	.LBE480:
 5229              		.loc 1 2402 0
 5230 017a 3DB9     		cbnz	r5, .L733
 5231              		.loc 1 2403 0
 5232 017c 3069     		ldr	r0, [r6, #16]
 5233              	.LVL752:
 5234              	.L734:
 5235              		.loc 1 2412 0
 5236 017e 0128     		cmp	r0, #1
 5237 0180 0AD9     		bls	.L739
 5238              		.loc 1 2413 0
 5239 0182 441C     		adds	r4, r0, #1
 5240 0184 36D0     		beq	.L775
 5241              		.loc 1 2414 0
 5242 0186 7061     		str	r0, [r6, #20]
 5243 0188 0146     		mov	r1, r0
 5244 018a 77E7     		b	.L732
 5245              	.LVL753:
 5246              	.L733:
 5247              		.loc 1 2410 0
 5248 018c 7169     		ldr	r1, [r6, #20]
 5249              	.LVL754:
 5250              	.LBB482:
 5251              	.LBB483:
 5252              		.loc 1 828 0
 5253 018e 0129     		cmp	r1, #1
 5254 0190 02D9     		bls	.L739
 5255 0192 D869     		ldr	r0, [r3, #28]
 5256 0194 8142     		cmp	r1, r0
 5257 0196 12D3     		bcc	.L776
 5258              	.LVL755:
 5259              	.L739:
 5260              	.LBE483:
 5261              	.LBE482:
 5262              		.loc 1 2417 0
 5263 0198 B279     		ldrb	r2, [r6, #6]	@ zero_extendqisi2
 5264 019a 62F07F02 		orn	r2, r2, #127
 5265 019e B271     		strb	r2, [r6, #6]
 5266              	.LVL756:
 5267              	.LBB485:
 5268              	.LBB486:
 5269              	.LBB487:
 5270              		.loc 1 596 0
 5271 01a0 D868     		ldr	r0, [r3, #12]
 5272 01a2 FFF7FEFF 		bl	ff_rel_grant
 5273              	.LVL757:
 5274              	.LBE487:
ARM GAS  /var/folders/4k/6h5l9jl178sb4hslwv3xp1mr0000gn/T//ccjvit50.s 			page 94


 5275              	.LBE486:
 5276              	.LBE485:
 5277              		.loc 1 2417 0
 5278 01a6 0220     		movs	r0, #2
 5279              		.loc 1 2464 0
 5280 01a8 03B0     		add	sp, sp, #12
 5281              		@ sp needed
 5282 01aa BDE8F08F 		pop	{r4, r5, r6, r7, r8, r9, r10, fp, pc}
 5283              	.LVL758:
 5284              	.L773:
 5285              	.LBB488:
 5286              	.LBB489:
 5287              	.LBB490:
 5288              		.loc 1 596 0
 5289 01ae 3368     		ldr	r3, [r6]
 5290 01b0 D868     		ldr	r0, [r3, #12]
 5291              	.LVL759:
 5292 01b2 FFF7FEFF 		bl	ff_rel_grant
 5293              	.LVL760:
 5294              	.LBE490:
 5295              	.LBE489:
 5296              	.LBE488:
 5297              		.loc 1 2391 0
 5298 01b6 0220     		movs	r0, #2
 5299              		.loc 1 2464 0
 5300 01b8 03B0     		add	sp, sp, #12
 5301              		@ sp needed
 5302 01ba BDE8F08F 		pop	{r4, r5, r6, r7, r8, r9, r10, fp, pc}
 5303              	.LVL761:
 5304              	.L776:
 5305              	.LBB491:
 5306              	.LBB484:
 5307 01be 1846     		mov	r0, r3
 5308 01c0 0192     		str	r2, [sp, #4]
 5309              	.LVL762:
 5310 01c2 FFF7FEFF 		bl	get_fat.part.6
 5311              	.LVL763:
 5312 01c6 3368     		ldr	r3, [r6]
 5313 01c8 019A     		ldr	r2, [sp, #4]
 5314 01ca D8E7     		b	.L734
 5315              	.LVL764:
 5316              	.L774:
 5317              	.LBE484:
 5318              	.LBE491:
 5319              	.LBB492:
 5320              	.LBB493:
 5321              	.LBB494:
 5322              		.loc 1 596 0
 5323 01cc 3368     		ldr	r3, [r6]
 5324 01ce D868     		ldr	r0, [r3, #12]
 5325              	.LVL765:
 5326 01d0 FFF7FEFF 		bl	ff_rel_grant
 5327              	.LVL766:
 5328              	.LBE494:
 5329              	.LBE493:
 5330              	.LBE492:
 5331              		.loc 1 2393 0
ARM GAS  /var/folders/4k/6h5l9jl178sb4hslwv3xp1mr0000gn/T//ccjvit50.s 			page 95


 5332 01d4 0720     		movs	r0, #7
 5333              		.loc 1 2464 0
 5334 01d6 03B0     		add	sp, sp, #12
 5335              		@ sp needed
 5336 01d8 BDE8F08F 		pop	{r4, r5, r6, r7, r8, r9, r10, fp, pc}
 5337              	.LVL767:
 5338              	.L772:
 5339              		.loc 1 2447 0
 5340 01dc B279     		ldrb	r2, [r6, #6]	@ zero_extendqisi2
 5341              	.LBB495:
 5342              	.LBB496:
 5343              	.LBB497:
 5344              		.loc 1 596 0
 5345 01de 3368     		ldr	r3, [r6]
 5346              	.LVL768:
 5347              	.L771:
 5348              	.LBE497:
 5349              	.LBE496:
 5350              	.LBE495:
 5351              		.loc 1 2447 0
 5352 01e0 62F07F02 		orn	r2, r2, #127
 5353 01e4 B271     		strb	r2, [r6, #6]
 5354              	.LVL769:
 5355              	.LBB500:
 5356              	.LBB499:
 5357              	.LBB498:
 5358              		.loc 1 596 0
 5359 01e6 D868     		ldr	r0, [r3, #12]
 5360 01e8 FFF7FEFF 		bl	ff_rel_grant
 5361              	.LVL770:
 5362              	.LBE498:
 5363              	.LBE499:
 5364              	.LBE500:
 5365              		.loc 1 2447 0
 5366 01ec 0120     		movs	r0, #1
 5367              		.loc 1 2464 0
 5368 01ee 03B0     		add	sp, sp, #12
 5369              		@ sp needed
 5370 01f0 BDE8F08F 		pop	{r4, r5, r6, r7, r8, r9, r10, fp, pc}
 5371              	.LVL771:
 5372              	.L775:
 5373              		.loc 1 2413 0 discriminator 1
 5374 01f4 B279     		ldrb	r2, [r6, #6]	@ zero_extendqisi2
 5375 01f6 F3E7     		b	.L771
 5376              		.cfi_endproc
 5377              	.LFE39:
 5378              		.size	f_read, .-f_read
 5379 01f8 AFF30080 		.section	.text.f_write,"ax",%progbits
 5379      AFF30080 
 5380              		.align	2
 5381              		.p2align 4,,15
 5382              		.global	f_write
 5383              		.thumb
 5384              		.thumb_func
 5385              		.type	f_write, %function
 5386              	f_write:
 5387              	.LFB40:
ARM GAS  /var/folders/4k/6h5l9jl178sb4hslwv3xp1mr0000gn/T//ccjvit50.s 			page 96


 5388              		.loc 1 2480 0
 5389              		.cfi_startproc
 5390              		@ args = 0, pretend = 0, frame = 8
 5391              		@ frame_needed = 0, uses_anonymous_args = 0
 5392              	.LVL772:
 5393 0000 2DE9F04F 		push	{r4, r5, r6, r7, r8, r9, r10, fp, lr}
 5394              		.cfi_def_cfa_offset 36
 5395              		.cfi_offset 4, -36
 5396              		.cfi_offset 5, -32
 5397              		.cfi_offset 6, -28
 5398              		.cfi_offset 7, -24
 5399              		.cfi_offset 8, -20
 5400              		.cfi_offset 9, -16
 5401              		.cfi_offset 10, -12
 5402              		.cfi_offset 11, -8
 5403              		.cfi_offset 14, -4
 5404 0004 0646     		mov	r6, r0
 5405              	.LVL773:
 5406 0006 9B46     		mov	fp, r3
 5407              		.loc 1 2488 0
 5408 0008 0023     		movs	r3, #0
 5409              	.LVL774:
 5410              		.loc 1 2480 0
 5411 000a 83B0     		sub	sp, sp, #12
 5412              		.cfi_def_cfa_offset 48
 5413              		.loc 1 2480 0
 5414 000c 8946     		mov	r9, r1
 5415              		.loc 1 2488 0
 5416 000e CBF80030 		str	r3, [fp]
 5417              		.loc 1 2490 0
 5418 0012 0068     		ldr	r0, [r0]
 5419              	.LVL775:
 5420 0014 B188     		ldrh	r1, [r6, #4]
 5421              	.LVL776:
 5422              		.loc 1 2480 0
 5423 0016 9046     		mov	r8, r2
 5424              		.loc 1 2490 0
 5425 0018 FFF7FEFF 		bl	validate
 5426              	.LVL777:
 5427              		.loc 1 2491 0
 5428 001c 0446     		mov	r4, r0
 5429 001e 88B1     		cbz	r0, .L778
 5430              	.LBB545:
 5431              	.LBB546:
 5432              		.loc 1 592 0 discriminator 1
 5433 0020 A0F10B03 		sub	r3, r0, #11
 5434 0024 DBB2     		uxtb	r3, r3
 5435 0026 012B     		cmp	r3, #1
 5436              	.LBE546:
 5437              	.LBE545:
 5438              		.loc 1 2491 0 discriminator 1
 5439 0028 3068     		ldr	r0, [r6]
 5440              	.LVL778:
 5441              	.LBB549:
 5442              	.LBB547:
 5443              		.loc 1 592 0 discriminator 1
 5444 002a 40F28C80 		bls	.L814
ARM GAS  /var/folders/4k/6h5l9jl178sb4hslwv3xp1mr0000gn/T//ccjvit50.s 			page 97


 5445              		.loc 1 593 0
 5446 002e 092C     		cmp	r4, #9
 5447 0030 00F08980 		beq	.L814
 5448 0034 0C30     		adds	r0, r0, #12
 5449              	.LVL779:
 5450 0036 2146     		mov	r1, r4
 5451 0038 FFF7FEFF 		bl	unlock_fs.isra.4.part.5
 5452              	.LVL780:
 5453 003c 2046     		mov	r0, r4
 5454              	.LVL781:
 5455              	.L779:
 5456              	.LBE547:
 5457              	.LBE549:
 5458              		.loc 1 2584 0
 5459 003e 03B0     		add	sp, sp, #12
 5460              		@ sp needed
 5461 0040 BDE8F08F 		pop	{r4, r5, r6, r7, r8, r9, r10, fp, pc}
 5462              	.LVL782:
 5463              	.L778:
 5464              		.loc 1 2492 0
 5465 0044 B379     		ldrb	r3, [r6, #6]	@ zero_extendqisi2
 5466 0046 1C06     		lsls	r4, r3, #24
 5467 0048 00F18180 		bmi	.L827
 5468              		.loc 1 2494 0
 5469 004c 9807     		lsls	r0, r3, #30
 5470              	.LVL783:
 5471 004e 40F1B580 		bpl	.L828
 5472              		.loc 1 2496 0
 5473 0052 F168     		ldr	r1, [r6, #12]
 5474 0054 B268     		ldr	r2, [r6, #8]
 5475 0056 18EB010F 		cmn	r8, r1
 5476 005a 68D2     		bcs	.L783
 5477              		.loc 1 2498 0 discriminator 1
 5478 005c B8F1000F 		cmp	r8, #0
 5479 0060 65D0     		beq	.L783
 5480              		.loc 1 2561 0
 5481 0062 06F12403 		add	r3, r6, #36
 5482 0066 0193     		str	r3, [sp, #4]
 5483 0068 06F50977 		add	r7, r6, #548
 5484              	.LVL784:
 5485              	.L811:
 5486              		.loc 1 2500 0
 5487 006c C2F30803 		ubfx	r3, r2, #0, #9
 5488 0070 002B     		cmp	r3, #0
 5489 0072 7ED1     		bne	.L785
 5490              		.loc 1 2501 0
 5491 0074 3368     		ldr	r3, [r6]
 5492 0076 9D78     		ldrb	r5, [r3, #2]	@ zero_extendqisi2
 5493 0078 013D     		subs	r5, r5, #1
 5494 007a 05EA5225 		and	r5, r5, r2, lsr #9
 5495              	.LVL785:
 5496              		.loc 1 2502 0
 5497 007e 15F0FF05 		ands	r5, r5, #255
 5498              	.LVL786:
 5499 0082 0DD1     		bne	.L786
 5500              		.loc 1 2503 0
 5501 0084 002A     		cmp	r2, #0
ARM GAS  /var/folders/4k/6h5l9jl178sb4hslwv3xp1mr0000gn/T//ccjvit50.s 			page 98


 5502 0086 40F0A180 		bne	.L787
 5503              		.loc 1 2504 0
 5504 008a 3069     		ldr	r0, [r6, #16]
 5505              	.LVL787:
 5506              		.loc 1 2505 0
 5507 008c 0028     		cmp	r0, #0
 5508 008e 00F0B080 		beq	.L829
 5509              	.LVL788:
 5510              	.L788:
 5511              		.loc 1 2516 0
 5512 0092 0128     		cmp	r0, #1
 5513 0094 00F0BD80 		beq	.L796
 5514              		.loc 1 2517 0
 5515 0098 411C     		adds	r1, r0, #1
 5516 009a 00F0C580 		beq	.L830
 5517              		.loc 1 2518 0
 5518 009e 7061     		str	r0, [r6, #20]
 5519              	.LVL789:
 5520              	.L786:
 5521              		.loc 1 2524 0
 5522 00a0 B279     		ldrb	r2, [r6, #6]	@ zero_extendqisi2
 5523 00a2 5206     		lsls	r2, r2, #25
 5524 00a4 7DD4     		bmi	.L831
 5525              	.L793:
 5526              	.LVL790:
 5527              	.LBB550:
 5528              	.LBB551:
 5529              		.loc 1 806 0
 5530 00a6 7269     		ldr	r2, [r6, #20]
 5531              		.loc 1 807 0
 5532 00a8 D969     		ldr	r1, [r3, #28]
 5533              		.loc 1 806 0
 5534 00aa 023A     		subs	r2, r2, #2
 5535              	.LVL791:
 5536              		.loc 1 807 0
 5537 00ac 0239     		subs	r1, r1, #2
 5538 00ae 8A42     		cmp	r2, r1
 5539 00b0 80F0AF80 		bcs	.L796
 5540              		.loc 1 808 0
 5541 00b4 9978     		ldrb	r1, [r3, #2]	@ zero_extendqisi2
 5542 00b6 DC6A     		ldr	r4, [r3, #44]
 5543 00b8 02FB0144 		mla	r4, r2, r1, r4
 5544              	.LBE551:
 5545              	.LBE550:
 5546              		.loc 1 2531 0
 5547 00bc 002C     		cmp	r4, #0
 5548 00be 00F0A880 		beq	.L796
 5549              		.loc 1 2534 0
 5550 00c2 5FEA582A 		lsrs	r10, r8, #9
 5551              		.loc 1 2532 0
 5552 00c6 2C44     		add	r4, r4, r5
 5553              	.LVL792:
 5554              		.loc 1 2534 0
 5555 00c8 49D0     		beq	.L797
 5556              		.loc 1 2535 0
 5557 00ca 05EB0A02 		add	r2, r5, r10
 5558              	.LVL793:
ARM GAS  /var/folders/4k/6h5l9jl178sb4hslwv3xp1mr0000gn/T//ccjvit50.s 			page 99


 5559 00ce 8A42     		cmp	r2, r1
 5560              		.loc 1 2536 0
 5561 00d0 88BF     		it	hi
 5562 00d2 C5EB010A 		rsbhi	r10, r5, r1
 5563              	.LVL794:
 5564              		.loc 1 2537 0
 5565 00d6 5878     		ldrb	r0, [r3, #1]	@ zero_extendqisi2
 5566 00d8 4946     		mov	r1, r9
 5567 00da 2246     		mov	r2, r4
 5568 00dc 5FFA8AF3 		uxtb	r3, r10
 5569              	.LVL795:
 5570 00e0 FFF7FEFF 		bl	disk_write
 5571              	.LVL796:
 5572 00e4 0028     		cmp	r0, #0
 5573 00e6 78D1     		bne	.L806
 5574              		.loc 1 2545 0
 5575 00e8 B569     		ldr	r5, [r6, #24]
 5576 00ea 2C1B     		subs	r4, r5, r4
 5577              	.LVL797:
 5578 00ec A245     		cmp	r10, r4
 5579 00ee 0CD9     		bls	.L800
 5580              		.loc 1 2546 0
 5581 00f0 09EB4425 		add	r5, r9, r4, lsl #9
 5582              	.LVL798:
 5583 00f4 019C     		ldr	r4, [sp, #4]
 5584              	.LVL799:
 5585              	.L802:
 5586              	.LBB552:
 5587              	.LBB553:
 5588              		.loc 1 541 0
 5589 00f6 15F8013B 		ldrb	r3, [r5], #1	@ zero_extendqisi2
 5590              	.LVL800:
 5591 00fa 04F8013B 		strb	r3, [r4], #1
 5592              	.LVL801:
 5593              		.loc 1 540 0
 5594 00fe BC42     		cmp	r4, r7
 5595 0100 F9D1     		bne	.L802
 5596              	.LBE553:
 5597              	.LBE552:
 5598              		.loc 1 2547 0
 5599 0102 B379     		ldrb	r3, [r6, #6]	@ zero_extendqisi2
 5600 0104 23F04003 		bic	r3, r3, #64
 5601 0108 B371     		strb	r3, [r6, #6]
 5602              	.LVL802:
 5603              	.L800:
 5604              		.loc 1 2550 0
 5605 010a 4FEA4A20 		lsl	r0, r10, #9
 5606              	.LVL803:
 5607 010e B268     		ldr	r2, [r6, #8]
 5608 0110 09EB0001 		add	r1, r9, r0
 5609              	.LVL804:
 5610              	.L803:
 5611              		.loc 1 2499 0
 5612 0114 DBF80030 		ldr	r3, [fp]
 5613 0118 0244     		add	r2, r2, r0
 5614 011a 0344     		add	r3, r3, r0
 5615              		.loc 1 2498 0
ARM GAS  /var/folders/4k/6h5l9jl178sb4hslwv3xp1mr0000gn/T//ccjvit50.s 			page 100


 5616 011c B8EB0008 		subs	r8, r8, r0
 5617              	.LVL805:
 5618              		.loc 1 2499 0
 5619 0120 B260     		str	r2, [r6, #8]
 5620 0122 8946     		mov	r9, r1
 5621 0124 CBF80030 		str	r3, [fp]
 5622              		.loc 1 2498 0
 5623 0128 A0D1     		bne	.L811
 5624 012a F168     		ldr	r1, [r6, #12]
 5625              	.LVL806:
 5626 012c B379     		ldrb	r3, [r6, #6]	@ zero_extendqisi2
 5627              	.LVL807:
 5628              	.L783:
 5629              		.loc 1 2580 0
 5630 012e 9142     		cmp	r1, r2
 5631 0130 38BF     		it	cc
 5632 0132 F260     		strcc	r2, [r6, #12]
 5633              		.loc 1 2581 0
 5634 0134 43F02003 		orr	r3, r3, #32
 5635              	.LBB554:
 5636              	.LBB555:
 5637              	.LBB556:
 5638              		.loc 1 596 0
 5639 0138 3268     		ldr	r2, [r6]
 5640              	.LBE556:
 5641              	.LBE555:
 5642              	.LBE554:
 5643              		.loc 1 2581 0
 5644 013a B371     		strb	r3, [r6, #6]
 5645              	.LVL808:
 5646              	.LBB559:
 5647              	.LBB558:
 5648              	.LBB557:
 5649              		.loc 1 596 0
 5650 013c D068     		ldr	r0, [r2, #12]
 5651 013e FFF7FEFF 		bl	ff_rel_grant
 5652              	.LVL809:
 5653              	.LBE557:
 5654              	.LBE558:
 5655              	.LBE559:
 5656              		.loc 1 2583 0
 5657 0142 0020     		movs	r0, #0
 5658 0144 7BE7     		b	.L779
 5659              	.LVL810:
 5660              	.L814:
 5661              	.LBB560:
 5662              	.LBB548:
 5663              		.loc 1 593 0
 5664 0146 2046     		mov	r0, r4
 5665              	.LVL811:
 5666              	.LBE548:
 5667              	.LBE560:
 5668              		.loc 1 2584 0
 5669 0148 03B0     		add	sp, sp, #12
 5670              		@ sp needed
 5671 014a BDE8F08F 		pop	{r4, r5, r6, r7, r8, r9, r10, fp, pc}
 5672              	.LVL812:
ARM GAS  /var/folders/4k/6h5l9jl178sb4hslwv3xp1mr0000gn/T//ccjvit50.s 			page 101


 5673              	.L827:
 5674              	.LBB561:
 5675              	.LBB562:
 5676              	.LBB563:
 5677              		.loc 1 596 0
 5678 014e 3368     		ldr	r3, [r6]
 5679 0150 D868     		ldr	r0, [r3, #12]
 5680              	.LVL813:
 5681 0152 FFF7FEFF 		bl	ff_rel_grant
 5682              	.LVL814:
 5683              	.LBE563:
 5684              	.LBE562:
 5685              	.LBE561:
 5686              		.loc 1 2493 0
 5687 0156 0220     		movs	r0, #2
 5688              		.loc 1 2584 0
 5689 0158 03B0     		add	sp, sp, #12
 5690              		@ sp needed
 5691 015a BDE8F08F 		pop	{r4, r5, r6, r7, r8, r9, r10, fp, pc}
 5692              	.LVL815:
 5693              	.L797:
 5694              		.loc 1 2559 0
 5695 015e B269     		ldr	r2, [r6, #24]
 5696              	.LVL816:
 5697 0160 A242     		cmp	r2, r4
 5698              		.loc 1 2560 0
 5699 0162 B268     		ldr	r2, [r6, #8]
 5700              		.loc 1 2559 0
 5701 0164 02D0     		beq	.L805
 5702              		.loc 1 2560 0
 5703 0166 F168     		ldr	r1, [r6, #12]
 5704 0168 8A42     		cmp	r2, r1
 5705 016a 48D3     		bcc	.L832
 5706              	.LVL817:
 5707              	.L805:
 5708              		.loc 1 2565 0
 5709 016c B461     		str	r4, [r6, #24]
 5710 016e C2F30803 		ubfx	r3, r2, #0, #9
 5711              	.LVL818:
 5712              	.L785:
 5713              		.loc 1 2567 0
 5714 0172 C3F50070 		rsb	r0, r3, #512
 5715              	.LVL819:
 5716 0176 4045     		cmp	r0, r8
 5717 0178 28BF     		it	cs
 5718 017a 4046     		movcs	r0, r8
 5719              	.LVL820:
 5720              		.loc 1 2575 0
 5721 017c 3344     		add	r3, r3, r6
 5722 017e 2433     		adds	r3, r3, #36
 5723              	.LVL821:
 5724 0180 4946     		mov	r1, r9
 5725              	.LBB564:
 5726              	.LBB565:
 5727              		.loc 1 540 0
 5728 0182 48B1     		cbz	r0, .L807
 5729              	.LVL822:
ARM GAS  /var/folders/4k/6h5l9jl178sb4hslwv3xp1mr0000gn/T//ccjvit50.s 			page 102


 5730 0184 09EB0001 		add	r1, r9, r0
 5731              	.LVL823:
 5732 0188 4C46     		mov	r4, r9
 5733              	.LVL824:
 5734              	.L809:
 5735              		.loc 1 541 0
 5736 018a 14F8012B 		ldrb	r2, [r4], #1	@ zero_extendqisi2
 5737              	.LVL825:
 5738 018e 03F8012B 		strb	r2, [r3], #1
 5739              	.LVL826:
 5740              		.loc 1 540 0
 5741 0192 8C42     		cmp	r4, r1
 5742 0194 F9D1     		bne	.L809
 5743 0196 B268     		ldr	r2, [r6, #8]
 5744              	.LVL827:
 5745              	.L807:
 5746              	.LBE565:
 5747              	.LBE564:
 5748              		.loc 1 2576 0
 5749 0198 B379     		ldrb	r3, [r6, #6]	@ zero_extendqisi2
 5750              	.LVL828:
 5751 019a 43F04003 		orr	r3, r3, #64
 5752 019e B371     		strb	r3, [r6, #6]
 5753 01a0 B8E7     		b	.L803
 5754              	.LVL829:
 5755              	.L831:
 5756              		.loc 1 2525 0
 5757 01a2 5878     		ldrb	r0, [r3, #1]	@ zero_extendqisi2
 5758 01a4 B269     		ldr	r2, [r6, #24]
 5759 01a6 0199     		ldr	r1, [sp, #4]
 5760 01a8 0123     		movs	r3, #1
 5761 01aa FFF7FEFF 		bl	disk_write
 5762              	.LVL830:
 5763              		.loc 1 2526 0
 5764 01ae B279     		ldrb	r2, [r6, #6]	@ zero_extendqisi2
 5765              	.LBB566:
 5766              	.LBB567:
 5767              	.LBB568:
 5768              		.loc 1 596 0
 5769 01b0 3368     		ldr	r3, [r6]
 5770              	.LBE568:
 5771              	.LBE567:
 5772              	.LBE566:
 5773              		.loc 1 2525 0
 5774 01b2 A0B9     		cbnz	r0, .L826
 5775              		.loc 1 2527 0
 5776 01b4 22F04002 		bic	r2, r2, #64
 5777 01b8 B271     		strb	r2, [r6, #6]
 5778 01ba 74E7     		b	.L793
 5779              	.LVL831:
 5780              	.L828:
 5781              	.LBB569:
 5782              	.LBB570:
 5783              	.LBB571:
 5784              		.loc 1 596 0
 5785 01bc 3368     		ldr	r3, [r6]
 5786 01be D868     		ldr	r0, [r3, #12]
ARM GAS  /var/folders/4k/6h5l9jl178sb4hslwv3xp1mr0000gn/T//ccjvit50.s 			page 103


 5787 01c0 FFF7FEFF 		bl	ff_rel_grant
 5788              	.LVL832:
 5789              	.LBE571:
 5790              	.LBE570:
 5791              	.LBE569:
 5792              		.loc 1 2495 0
 5793 01c4 0720     		movs	r0, #7
 5794              		.loc 1 2584 0
 5795 01c6 03B0     		add	sp, sp, #12
 5796              		@ sp needed
 5797 01c8 BDE8F08F 		pop	{r4, r5, r6, r7, r8, r9, r10, fp, pc}
 5798              	.LVL833:
 5799              	.L787:
 5800              		.loc 1 2513 0
 5801 01cc 1846     		mov	r0, r3
 5802 01ce 7169     		ldr	r1, [r6, #20]
 5803 01d0 FFF7FEFF 		bl	create_chain
 5804              	.LVL834:
 5805              	.L789:
 5806              		.loc 1 2515 0
 5807 01d4 50B3     		cbz	r0, .L833
 5808 01d6 3368     		ldr	r3, [r6]
 5809 01d8 5BE7     		b	.L788
 5810              	.LVL835:
 5811              	.L806:
 5812              		.loc 1 2562 0
 5813 01da B279     		ldrb	r2, [r6, #6]	@ zero_extendqisi2
 5814              	.LBB572:
 5815              	.LBB573:
 5816              	.LBB574:
 5817              		.loc 1 596 0
 5818 01dc 3368     		ldr	r3, [r6]
 5819              	.LVL836:
 5820              	.L826:
 5821              	.LBE574:
 5822              	.LBE573:
 5823              	.LBE572:
 5824              		.loc 1 2562 0
 5825 01de 62F07F02 		orn	r2, r2, #127
 5826 01e2 B271     		strb	r2, [r6, #6]
 5827              	.LVL837:
 5828              	.LBB577:
 5829              	.LBB576:
 5830              	.LBB575:
 5831              		.loc 1 596 0
 5832 01e4 D868     		ldr	r0, [r3, #12]
 5833 01e6 FFF7FEFF 		bl	ff_rel_grant
 5834              	.LVL838:
 5835              	.LBE575:
 5836              	.LBE576:
 5837              	.LBE577:
 5838              		.loc 1 2562 0
 5839 01ea 0120     		movs	r0, #1
 5840              		.loc 1 2584 0
 5841 01ec 03B0     		add	sp, sp, #12
 5842              		@ sp needed
 5843 01ee BDE8F08F 		pop	{r4, r5, r6, r7, r8, r9, r10, fp, pc}
ARM GAS  /var/folders/4k/6h5l9jl178sb4hslwv3xp1mr0000gn/T//ccjvit50.s 			page 104


 5844              	.LVL839:
 5845              	.L829:
 5846              		.loc 1 2506 0
 5847 01f2 1846     		mov	r0, r3
 5848              	.LVL840:
 5849 01f4 2946     		mov	r1, r5
 5850 01f6 FFF7FEFF 		bl	create_chain
 5851              	.LVL841:
 5852 01fa 3061     		str	r0, [r6, #16]
 5853 01fc EAE7     		b	.L789
 5854              	.LVL842:
 5855              	.L832:
 5856              		.loc 1 2561 0 discriminator 1
 5857 01fe 5878     		ldrb	r0, [r3, #1]	@ zero_extendqisi2
 5858 0200 0199     		ldr	r1, [sp, #4]
 5859 0202 2246     		mov	r2, r4
 5860 0204 0123     		movs	r3, #1
 5861              	.LVL843:
 5862 0206 FFF7FEFF 		bl	disk_read
 5863              	.LVL844:
 5864              		.loc 1 2560 0 discriminator 1
 5865 020a 0028     		cmp	r0, #0
 5866 020c E5D1     		bne	.L806
 5867 020e B268     		ldr	r2, [r6, #8]
 5868 0210 ACE7     		b	.L805
 5869              	.LVL845:
 5870              	.L796:
 5871              		.loc 1 2531 0
 5872 0212 B279     		ldrb	r2, [r6, #6]	@ zero_extendqisi2
 5873 0214 62F07F02 		orn	r2, r2, #127
 5874 0218 B271     		strb	r2, [r6, #6]
 5875              	.LVL846:
 5876              	.LBB578:
 5877              	.LBB579:
 5878              	.LBB580:
 5879              		.loc 1 596 0
 5880 021a D868     		ldr	r0, [r3, #12]
 5881 021c FFF7FEFF 		bl	ff_rel_grant
 5882              	.LVL847:
 5883              	.LBE580:
 5884              	.LBE579:
 5885              	.LBE578:
 5886              		.loc 1 2531 0
 5887 0220 0220     		movs	r0, #2
 5888              		.loc 1 2584 0
 5889 0222 03B0     		add	sp, sp, #12
 5890              		@ sp needed
 5891 0224 BDE8F08F 		pop	{r4, r5, r6, r7, r8, r9, r10, fp, pc}
 5892              	.LVL848:
 5893              	.L830:
 5894              		.loc 1 2517 0 discriminator 1
 5895 0228 B279     		ldrb	r2, [r6, #6]	@ zero_extendqisi2
 5896 022a D8E7     		b	.L826
 5897              	.L833:
 5898 022c B268     		ldr	r2, [r6, #8]
 5899 022e F168     		ldr	r1, [r6, #12]
 5900 0230 B379     		ldrb	r3, [r6, #6]	@ zero_extendqisi2
ARM GAS  /var/folders/4k/6h5l9jl178sb4hslwv3xp1mr0000gn/T//ccjvit50.s 			page 105


 5901 0232 7CE7     		b	.L783
 5902              		.cfi_endproc
 5903              	.LFE40:
 5904              		.size	f_write, .-f_write
 5905 0234 AFF30080 		.section	.text.f_sync,"ax",%progbits
 5905      AFF30080 
 5905      AFF30080 
 5906              		.align	2
 5907              		.p2align 4,,15
 5908              		.global	f_sync
 5909              		.thumb
 5910              		.thumb_func
 5911              		.type	f_sync, %function
 5912              	f_sync:
 5913              	.LFB41:
 5914              		.loc 1 2596 0
 5915              		.cfi_startproc
 5916              		@ args = 0, pretend = 0, frame = 0
 5917              		@ frame_needed = 0, uses_anonymous_args = 0
 5918              	.LVL849:
 5919 0000 38B5     		push	{r3, r4, r5, lr}
 5920              		.cfi_def_cfa_offset 16
 5921              		.cfi_offset 3, -16
 5922              		.cfi_offset 4, -12
 5923              		.cfi_offset 5, -8
 5924              		.cfi_offset 14, -4
 5925              		.loc 1 2596 0
 5926 0002 0446     		mov	r4, r0
 5927              		.loc 1 2602 0
 5928 0004 0068     		ldr	r0, [r0]
 5929              	.LVL850:
 5930 0006 A188     		ldrh	r1, [r4, #4]
 5931 0008 FFF7FEFF 		bl	validate
 5932              	.LVL851:
 5933              		.loc 1 2603 0
 5934 000c 0546     		mov	r5, r0
 5935 000e 0028     		cmp	r0, #0
 5936 0010 4CD1     		bne	.L835
 5937              		.loc 1 2604 0
 5938 0012 A379     		ldrb	r3, [r4, #6]	@ zero_extendqisi2
 5939 0014 9A06     		lsls	r2, r3, #26
 5940 0016 06D4     		bmi	.L847
 5941              	.LVL852:
 5942 0018 2068     		ldr	r0, [r4]
 5943              	.LBB587:
 5944              	.LBB588:
 5945 001a 2946     		mov	r1, r5
 5946 001c 0C30     		adds	r0, r0, #12
 5947              	.LVL853:
 5948 001e FFF7FEFF 		bl	unlock_fs.isra.4.part.5
 5949              	.LVL854:
 5950 0022 2846     		mov	r0, r5
 5951 0024 38BD     		pop	{r3, r4, r5, pc}
 5952              	.LVL855:
 5953              	.L847:
 5954              	.LBE588:
 5955              	.LBE587:
ARM GAS  /var/folders/4k/6h5l9jl178sb4hslwv3xp1mr0000gn/T//ccjvit50.s 			page 106


 5956              		.loc 1 2606 0
 5957 0026 5B06     		lsls	r3, r3, #25
 5958 0028 0DD5     		bpl	.L837
 5959              		.loc 1 2607 0
 5960 002a 2146     		mov	r1, r4
 5961 002c A269     		ldr	r2, [r4, #24]
 5962 002e 51F8240B 		ldr	r0, [r1], #36
 5963              	.LVL856:
 5964 0032 0123     		movs	r3, #1
 5965 0034 4078     		ldrb	r0, [r0, #1]	@ zero_extendqisi2
 5966 0036 FFF7FEFF 		bl	disk_write
 5967              	.LVL857:
 5968 003a 0028     		cmp	r0, #0
 5969 003c 46D1     		bne	.L848
 5970              		.loc 1 2609 0
 5971 003e A379     		ldrb	r3, [r4, #6]	@ zero_extendqisi2
 5972 0040 23F04003 		bic	r3, r3, #64
 5973 0044 A371     		strb	r3, [r4, #6]
 5974              	.L837:
 5975              		.loc 1 2613 0
 5976 0046 2068     		ldr	r0, [r4]
 5977 0048 E169     		ldr	r1, [r4, #28]
 5978 004a FFF7FEFF 		bl	move_window
 5979              	.LVL858:
 5980              		.loc 1 2614 0
 5981 004e 0546     		mov	r5, r0
 5982 0050 60BB     		cbnz	r0, .L835
 5983              		.loc 1 2615 0
 5984 0052 256A     		ldr	r5, [r4, #32]
 5985              	.LVL859:
 5986              		.loc 1 2616 0
 5987 0054 EB7A     		ldrb	r3, [r5, #11]	@ zero_extendqisi2
 5988 0056 43F02003 		orr	r3, r3, #32
 5989 005a EB72     		strb	r3, [r5, #11]
 5990              		.loc 1 2617 0
 5991 005c E368     		ldr	r3, [r4, #12]
 5992 005e 2B77     		strb	r3, [r5, #28]
 5993 0060 A389     		ldrh	r3, [r4, #12]
 5994 0062 1B0A     		lsrs	r3, r3, #8
 5995 0064 6B77     		strb	r3, [r5, #29]
 5996 0066 E389     		ldrh	r3, [r4, #14]
 5997 0068 AB77     		strb	r3, [r5, #30]
 5998 006a E37B     		ldrb	r3, [r4, #15]	@ zero_extendqisi2
 5999 006c EB77     		strb	r3, [r5, #31]
 6000              		.loc 1 2618 0
 6001 006e 2369     		ldr	r3, [r4, #16]
 6002 0070 AB76     		strb	r3, [r5, #26]
 6003 0072 238A     		ldrh	r3, [r4, #16]
 6004 0074 1B0A     		lsrs	r3, r3, #8
 6005 0076 EB76     		strb	r3, [r5, #27]
 6006 0078 638A     		ldrh	r3, [r4, #18]
 6007 007a 2B75     		strb	r3, [r5, #20]
 6008 007c 638A     		ldrh	r3, [r4, #18]
 6009 007e 1B0A     		lsrs	r3, r3, #8
 6010 0080 6B75     		strb	r3, [r5, #21]
 6011              		.loc 1 2619 0
 6012 0082 FFF7FEFF 		bl	get_fattime
ARM GAS  /var/folders/4k/6h5l9jl178sb4hslwv3xp1mr0000gn/T//ccjvit50.s 			page 107


 6013              	.LVL860:
 6014              		.loc 1 2620 0
 6015 0086 C0F30721 		ubfx	r1, r0, #8, #8
 6016 008a 020C     		lsrs	r2, r0, #16
 6017 008c 030E     		lsrs	r3, r0, #24
 6018 008e 2A76     		strb	r2, [r5, #24]
 6019 0090 A875     		strb	r0, [r5, #22]
 6020 0092 E975     		strb	r1, [r5, #23]
 6021 0094 6B76     		strb	r3, [r5, #25]
 6022              		.loc 1 2621 0
 6023 0096 A179     		ldrb	r1, [r4, #6]	@ zero_extendqisi2
 6024              		.loc 1 2622 0
 6025 0098 2368     		ldr	r3, [r4]
 6026              		.loc 1 2621 0
 6027 009a 21F02001 		bic	r1, r1, #32
 6028              		.loc 1 2622 0
 6029 009e 0122     		movs	r2, #1
 6030              		.loc 1 2621 0
 6031 00a0 A171     		strb	r1, [r4, #6]
 6032              		.loc 1 2622 0
 6033 00a2 1A71     		strb	r2, [r3, #4]
 6034              		.loc 1 2623 0
 6035 00a4 2068     		ldr	r0, [r4]
 6036              	.LVL861:
 6037 00a6 FFF7FEFF 		bl	sync
 6038              	.LVL862:
 6039 00aa 0546     		mov	r5, r0
 6040              	.LVL863:
 6041              	.L835:
 6042              	.LBB591:
 6043              	.LBB589:
 6044              		.loc 1 592 0
 6045 00ac A5F10B03 		sub	r3, r5, #11
 6046 00b0 DBB2     		uxtb	r3, r3
 6047 00b2 012B     		cmp	r3, #1
 6048              	.LBE589:
 6049              	.LBE591:
 6050              		.loc 1 2628 0
 6051 00b4 2068     		ldr	r0, [r4]
 6052              	.LVL864:
 6053              	.LBB592:
 6054              	.LBB590:
 6055              		.loc 1 592 0
 6056 00b6 01D9     		bls	.L842
 6057              		.loc 1 593 0
 6058 00b8 092D     		cmp	r5, #9
 6059 00ba 01D1     		bne	.L849
 6060              	.L842:
 6061 00bc 2846     		mov	r0, r5
 6062              	.LVL865:
 6063 00be 38BD     		pop	{r3, r4, r5, pc}
 6064              	.LVL866:
 6065              	.L849:
 6066 00c0 0C30     		adds	r0, r0, #12
 6067              	.LVL867:
 6068 00c2 2946     		mov	r1, r5
 6069 00c4 FFF7FEFF 		bl	unlock_fs.isra.4.part.5
ARM GAS  /var/folders/4k/6h5l9jl178sb4hslwv3xp1mr0000gn/T//ccjvit50.s 			page 108


 6070              	.LVL868:
 6071 00c8 2846     		mov	r0, r5
 6072 00ca 38BD     		pop	{r3, r4, r5, pc}
 6073              	.LVL869:
 6074              	.L848:
 6075              	.LBE590:
 6076              	.LBE592:
 6077              	.LBB593:
 6078              	.LBB594:
 6079              	.LBB595:
 6080              		.loc 1 596 0
 6081 00cc 2368     		ldr	r3, [r4]
 6082 00ce D868     		ldr	r0, [r3, #12]
 6083 00d0 FFF7FEFF 		bl	ff_rel_grant
 6084              	.LVL870:
 6085              	.LBE595:
 6086              	.LBE594:
 6087              	.LBE593:
 6088              		.loc 1 2608 0
 6089 00d4 0120     		movs	r0, #1
 6090 00d6 38BD     		pop	{r3, r4, r5, pc}
 6091              		.cfi_endproc
 6092              	.LFE41:
 6093              		.size	f_sync, .-f_sync
 6094              		.section	.text.f_close,"ax",%progbits
 6095              		.align	2
 6096              		.p2align 4,,15
 6097              		.global	f_close
 6098              		.thumb
 6099              		.thumb_func
 6100              		.type	f_close, %function
 6101              	f_close:
 6102              	.LFB42:
 6103              		.loc 1 2643 0
 6104              		.cfi_startproc
 6105              		@ args = 0, pretend = 0, frame = 0
 6106              		@ frame_needed = 0, uses_anonymous_args = 0
 6107              	.LVL871:
 6108 0000 10B5     		push	{r4, lr}
 6109              		.cfi_def_cfa_offset 8
 6110              		.cfi_offset 4, -8
 6111              		.cfi_offset 14, -4
 6112              		.loc 1 2643 0
 6113 0002 0446     		mov	r4, r0
 6114              		.loc 1 2653 0
 6115 0004 FFF7FEFF 		bl	f_sync
 6116              	.LVL872:
 6117              		.loc 1 2667 0
 6118 0008 00B9     		cbnz	r0, .L851
 6119              		.loc 1 2667 0 is_stmt 0 discriminator 1
 6120 000a 2060     		str	r0, [r4]
 6121              	.L851:
 6122              		.loc 1 2670 0 is_stmt 1
 6123 000c 10BD     		pop	{r4, pc}
 6124              		.cfi_endproc
 6125              	.LFE42:
 6126              		.size	f_close, .-f_close
ARM GAS  /var/folders/4k/6h5l9jl178sb4hslwv3xp1mr0000gn/T//ccjvit50.s 			page 109


 6127 000e 00BF     		.section	.text.f_lseek,"ax",%progbits
 6128              		.align	2
 6129              		.p2align 4,,15
 6130              		.global	f_lseek
 6131              		.thumb
 6132              		.thumb_func
 6133              		.type	f_lseek, %function
 6134              	f_lseek:
 6135              	.LFB43:
 6136              		.loc 1 2808 0
 6137              		.cfi_startproc
 6138              		@ args = 0, pretend = 0, frame = 0
 6139              		@ frame_needed = 0, uses_anonymous_args = 0
 6140              	.LVL873:
 6141 0000 70B5     		push	{r4, r5, r6, lr}
 6142              		.cfi_def_cfa_offset 16
 6143              		.cfi_offset 4, -16
 6144              		.cfi_offset 5, -12
 6145              		.cfi_offset 6, -8
 6146              		.cfi_offset 14, -4
 6147              		.loc 1 2808 0
 6148 0002 0446     		mov	r4, r0
 6149 0004 0D46     		mov	r5, r1
 6150              		.loc 1 2812 0
 6151 0006 0068     		ldr	r0, [r0]
 6152              	.LVL874:
 6153 0008 A188     		ldrh	r1, [r4, #4]
 6154              	.LVL875:
 6155 000a FFF7FEFF 		bl	validate
 6156              	.LVL876:
 6157              		.loc 1 2813 0
 6158 000e 0646     		mov	r6, r0
 6159 0010 68B1     		cbz	r0, .L853
 6160              	.LBB637:
 6161              	.LBB638:
 6162              		.loc 1 592 0 discriminator 1
 6163 0012 A0F10B03 		sub	r3, r0, #11
 6164 0016 DBB2     		uxtb	r3, r3
 6165 0018 012B     		cmp	r3, #1
 6166              	.LBE638:
 6167              	.LBE637:
 6168              		.loc 1 2813 0 discriminator 1
 6169 001a 2068     		ldr	r0, [r4]
 6170              	.LVL877:
 6171              	.LBB641:
 6172              	.LBB639:
 6173              		.loc 1 592 0 discriminator 1
 6174 001c 5BD9     		bls	.L886
 6175              		.loc 1 593 0
 6176 001e 092E     		cmp	r6, #9
 6177 0020 59D0     		beq	.L886
 6178 0022 0C30     		adds	r0, r0, #12
 6179              	.LVL878:
 6180 0024 3146     		mov	r1, r6
 6181 0026 FFF7FEFF 		bl	unlock_fs.isra.4.part.5
 6182              	.LVL879:
 6183 002a 3046     		mov	r0, r6
ARM GAS  /var/folders/4k/6h5l9jl178sb4hslwv3xp1mr0000gn/T//ccjvit50.s 			page 110


 6184 002c 70BD     		pop	{r4, r5, r6, pc}
 6185              	.LVL880:
 6186              	.L853:
 6187              	.LBE639:
 6188              	.LBE641:
 6189              		.loc 1 2814 0
 6190 002e A379     		ldrb	r3, [r4, #6]	@ zero_extendqisi2
 6191 0030 1E06     		lsls	r6, r3, #24
 6192 0032 52D4     		bmi	.L896
 6193              	.LBB642:
 6194              		.loc 1 2878 0
 6195 0034 E268     		ldr	r2, [r4, #12]
 6196 0036 AA42     		cmp	r2, r5
 6197 0038 03D2     		bcs	.L856
 6198 003a 13F0020F 		tst	r3, #2
 6199 003e 08BF     		it	eq
 6200 0040 1546     		moveq	r5, r2
 6201              	.LVL881:
 6202              	.L856:
 6203              		.loc 1 2885 0
 6204 0042 0023     		movs	r3, #0
 6205              		.loc 1 2884 0
 6206 0044 A268     		ldr	r2, [r4, #8]
 6207              	.LVL882:
 6208              		.loc 1 2887 0
 6209 0046 2068     		ldr	r0, [r4]
 6210              	.LVL883:
 6211              		.loc 1 2885 0
 6212 0048 A360     		str	r3, [r4, #8]
 6213              		.loc 1 2886 0
 6214 004a 002D     		cmp	r5, #0
 6215 004c 3DD0     		beq	.L858
 6216              		.loc 1 2887 0
 6217 004e 8678     		ldrb	r6, [r0, #2]	@ zero_extendqisi2
 6218 0050 7602     		lsls	r6, r6, #9
 6219              	.LVL884:
 6220              		.loc 1 2888 0
 6221 0052 42B1     		cbz	r2, .L859
 6222              		.loc 1 2889 0 discriminator 1
 6223 0054 013A     		subs	r2, r2, #1
 6224              	.LVL885:
 6225 0056 691E     		subs	r1, r5, #1
 6226 0058 B2FBF6F3 		udiv	r3, r2, r6
 6227 005c B1FBF6F1 		udiv	r1, r1, r6
 6228              		.loc 1 2888 0 discriminator 1
 6229 0060 9942     		cmp	r1, r3
 6230 0062 80F08480 		bcs	.L897
 6231              	.LVL886:
 6232              	.L859:
 6233              		.loc 1 2894 0
 6234 0066 2269     		ldr	r2, [r4, #16]
 6235              	.LVL887:
 6236              		.loc 1 2896 0
 6237 0068 002A     		cmp	r2, #0
 6238 006a 00F08880 		beq	.L898
 6239              	.L861:
 6240              		.loc 1 2903 0
ARM GAS  /var/folders/4k/6h5l9jl178sb4hslwv3xp1mr0000gn/T//ccjvit50.s 			page 111


 6241 006e 6261     		str	r2, [r4, #20]
 6242              	.L860:
 6243              		.loc 1 2905 0
 6244 0070 002A     		cmp	r2, #0
 6245 0072 42D1     		bne	.L864
 6246 0074 A368     		ldr	r3, [r4, #8]
 6247              		.loc 1 2885 0
 6248 0076 1546     		mov	r5, r2
 6249              	.LVL888:
 6250              	.L865:
 6251              		.loc 1 2930 0
 6252 0078 C3F30802 		ubfx	r2, r3, #0, #9
 6253 007c 002A     		cmp	r2, #0
 6254 007e 7CD0     		beq	.L893
 6255              		.loc 1 2930 0 is_stmt 0 discriminator 1
 6256 0080 A269     		ldr	r2, [r4, #24]
 6257 0082 AA42     		cmp	r2, r5
 6258 0084 79D0     		beq	.L893
 6259              		.loc 1 2933 0 is_stmt 1
 6260 0086 A379     		ldrb	r3, [r4, #6]	@ zero_extendqisi2
 6261 0088 5B06     		lsls	r3, r3, #25
 6262              		.loc 1 2934 0
 6263 008a 04F12406 		add	r6, r4, #36
 6264              		.loc 1 2933 0
 6265 008e 0AD5     		bpl	.L882
 6266              		.loc 1 2934 0
 6267 0090 4078     		ldrb	r0, [r0, #1]	@ zero_extendqisi2
 6268 0092 3146     		mov	r1, r6
 6269 0094 0123     		movs	r3, #1
 6270 0096 FFF7FEFF 		bl	disk_write
 6271              	.LVL889:
 6272 009a 20BB     		cbnz	r0, .L894
 6273              		.loc 1 2936 0
 6274 009c A379     		ldrb	r3, [r4, #6]	@ zero_extendqisi2
 6275 009e 2068     		ldr	r0, [r4]
 6276 00a0 23F04003 		bic	r3, r3, #64
 6277 00a4 A371     		strb	r3, [r4, #6]
 6278              	.L882:
 6279              		.loc 1 2939 0
 6280 00a6 4078     		ldrb	r0, [r0, #1]	@ zero_extendqisi2
 6281 00a8 3146     		mov	r1, r6
 6282 00aa 2A46     		mov	r2, r5
 6283 00ac 0123     		movs	r3, #1
 6284 00ae FFF7FEFF 		bl	disk_read
 6285              	.LVL890:
 6286 00b2 C0B9     		cbnz	r0, .L894
 6287 00b4 A368     		ldr	r3, [r4, #8]
 6288 00b6 E268     		ldr	r2, [r4, #12]
 6289 00b8 2068     		ldr	r0, [r4]
 6290              		.loc 1 2942 0
 6291 00ba A561     		str	r5, [r4, #24]
 6292              	.L879:
 6293              		.loc 1 2945 0
 6294 00bc 9A42     		cmp	r2, r3
 6295 00be 04D2     		bcs	.L858
 6296              		.loc 1 2947 0
 6297 00c0 A279     		ldrb	r2, [r4, #6]	@ zero_extendqisi2
ARM GAS  /var/folders/4k/6h5l9jl178sb4hslwv3xp1mr0000gn/T//ccjvit50.s 			page 112


 6298              		.loc 1 2946 0
 6299 00c2 E360     		str	r3, [r4, #12]
 6300              		.loc 1 2947 0
 6301 00c4 42F02003 		orr	r3, r2, #32
 6302 00c8 A371     		strb	r3, [r4, #6]
 6303              	.LVL891:
 6304              	.L858:
 6305              	.LBE642:
 6306              	.LBB666:
 6307              	.LBB667:
 6308 00ca 0C30     		adds	r0, r0, #12
 6309              	.LVL892:
 6310 00cc 0021     		movs	r1, #0
 6311 00ce FFF7FEFF 		bl	unlock_fs.isra.4.part.5
 6312              	.LVL893:
 6313 00d2 0020     		movs	r0, #0
 6314 00d4 70BD     		pop	{r4, r5, r6, pc}
 6315              	.LVL894:
 6316              	.L886:
 6317              	.LBE667:
 6318              	.LBE666:
 6319              	.LBB668:
 6320              	.LBB640:
 6321              		.loc 1 593 0
 6322 00d6 3046     		mov	r0, r6
 6323              	.LVL895:
 6324              	.LBE640:
 6325              	.LBE668:
 6326              		.loc 1 2953 0
 6327 00d8 70BD     		pop	{r4, r5, r6, pc}
 6328              	.LVL896:
 6329              	.L896:
 6330              	.LBB669:
 6331              	.LBB670:
 6332              	.LBB671:
 6333              		.loc 1 596 0
 6334 00da 2368     		ldr	r3, [r4]
 6335 00dc D868     		ldr	r0, [r3, #12]
 6336              	.LVL897:
 6337 00de FFF7FEFF 		bl	ff_rel_grant
 6338              	.LVL898:
 6339              	.LBE671:
 6340              	.LBE670:
 6341              	.LBE669:
 6342              		.loc 1 2815 0
 6343 00e2 0220     		movs	r0, #2
 6344 00e4 70BD     		pop	{r4, r5, r6, pc}
 6345              	.LVL899:
 6346              	.L894:
 6347              	.LBB672:
 6348              		.loc 1 2940 0
 6349 00e6 A279     		ldrb	r2, [r4, #6]	@ zero_extendqisi2
 6350              	.LBB643:
 6351              	.LBB644:
 6352              	.LBB645:
 6353              		.loc 1 596 0
 6354 00e8 2368     		ldr	r3, [r4]
ARM GAS  /var/folders/4k/6h5l9jl178sb4hslwv3xp1mr0000gn/T//ccjvit50.s 			page 113


 6355              	.LBE645:
 6356              	.LBE644:
 6357              	.LBE643:
 6358              		.loc 1 2940 0
 6359 00ea 62F07F02 		orn	r2, r2, #127
 6360 00ee A271     		strb	r2, [r4, #6]
 6361              	.LVL900:
 6362              	.LBB648:
 6363              	.LBB647:
 6364              	.LBB646:
 6365              		.loc 1 596 0
 6366 00f0 D868     		ldr	r0, [r3, #12]
 6367 00f2 FFF7FEFF 		bl	ff_rel_grant
 6368              	.LVL901:
 6369              	.LBE646:
 6370              	.LBE647:
 6371              	.LBE648:
 6372              		.loc 1 2940 0
 6373 00f6 0120     		movs	r0, #1
 6374 00f8 70BD     		pop	{r4, r5, r6, pc}
 6375              	.LVL902:
 6376              	.L864:
 6377              		.loc 1 2906 0 discriminator 1
 6378 00fa B542     		cmp	r5, r6
 6379 00fc 68D9     		bls	.L899
 6380              	.L875:
 6381              	.LVL903:
 6382              		.loc 1 2908 0
 6383 00fe A379     		ldrb	r3, [r4, #6]	@ zero_extendqisi2
 6384 0100 9907     		lsls	r1, r3, #30
 6385              		.loc 1 2920 0
 6386 0102 C6EB0505 		rsb	r5, r6, r5
 6387              	.LVL904:
 6388              		.loc 1 2908 0
 6389 0106 0CD4     		bmi	.L900
 6390              	.LBB649:
 6391              	.LBB650:
 6392              		.loc 1 828 0
 6393 0108 012A     		cmp	r2, #1
 6394 010a 02D9     		bls	.L895
 6395 010c C169     		ldr	r1, [r0, #28]
 6396 010e 9142     		cmp	r1, r2
 6397 0110 28D8     		bhi	.L901
 6398              	.LVL905:
 6399              	.L895:
 6400              	.LBE650:
 6401              	.LBE649:
 6402              		.loc 1 2925 0 discriminator 1
 6403 0112 63F07F03 		orn	r3, r3, #127
 6404 0116 A371     		strb	r3, [r4, #6]
 6405              	.LVL906:
 6406              	.LBB652:
 6407              	.LBB653:
 6408              	.LBB654:
 6409              		.loc 1 596 0 discriminator 1
 6410 0118 C068     		ldr	r0, [r0, #12]
 6411              	.LVL907:
ARM GAS  /var/folders/4k/6h5l9jl178sb4hslwv3xp1mr0000gn/T//ccjvit50.s 			page 114


 6412 011a FFF7FEFF 		bl	ff_rel_grant
 6413              	.LVL908:
 6414              	.LBE654:
 6415              	.LBE653:
 6416              	.LBE652:
 6417              		.loc 1 2925 0 discriminator 1
 6418 011e 0220     		movs	r0, #2
 6419 0120 70BD     		pop	{r4, r5, r6, pc}
 6420              	.LVL909:
 6421              	.L900:
 6422              		.loc 1 2909 0
 6423 0122 1146     		mov	r1, r2
 6424 0124 FFF7FEFF 		bl	create_chain
 6425              	.LVL910:
 6426              		.loc 1 2910 0
 6427 0128 0246     		mov	r2, r0
 6428 012a 0028     		cmp	r0, #0
 6429 012c 4CD0     		beq	.L902
 6430              	.LVL911:
 6431              	.L869:
 6432              		.loc 1 2916 0
 6433 012e 511C     		adds	r1, r2, #1
 6434 0130 D9D0     		beq	.L894
 6435              		.loc 1 2917 0
 6436 0132 012A     		cmp	r2, #1
 6437 0134 2ED9     		bls	.L903
 6438              		.loc 1 2917 0 is_stmt 0 discriminator 2
 6439 0136 2068     		ldr	r0, [r4]
 6440 0138 C369     		ldr	r3, [r0, #28]
 6441 013a 9A42     		cmp	r2, r3
 6442 013c 0146     		mov	r1, r0
 6443 013e 2AD2     		bcs	.L873
 6444              		.loc 1 2919 0 is_stmt 1
 6445 0140 A368     		ldr	r3, [r4, #8]
 6446              		.loc 1 2918 0
 6447 0142 6261     		str	r2, [r4, #20]
 6448              		.loc 1 2919 0
 6449 0144 3344     		add	r3, r3, r6
 6450              		.loc 1 2906 0
 6451 0146 AE42     		cmp	r6, r5
 6452              		.loc 1 2919 0
 6453 0148 A360     		str	r3, [r4, #8]
 6454              		.loc 1 2906 0
 6455 014a D8D3     		bcc	.L875
 6456              	.LVL912:
 6457              	.L867:
 6458              		.loc 1 2922 0
 6459 014c 2B44     		add	r3, r3, r5
 6460              		.loc 1 2923 0
 6461 014e C5F30801 		ubfx	r1, r5, #0, #9
 6462              		.loc 1 2922 0
 6463 0152 A360     		str	r3, [r4, #8]
 6464              		.loc 1 2923 0
 6465 0154 11B3     		cbz	r1, .L888
 6466              	.LVL913:
 6467              	.LBB655:
 6468              	.LBB656:
ARM GAS  /var/folders/4k/6h5l9jl178sb4hslwv3xp1mr0000gn/T//ccjvit50.s 			page 115


 6469              		.loc 1 807 0
 6470 0156 C169     		ldr	r1, [r0, #28]
 6471              		.loc 1 806 0
 6472 0158 023A     		subs	r2, r2, #2
 6473              	.LVL914:
 6474              		.loc 1 807 0
 6475 015a 0239     		subs	r1, r1, #2
 6476 015c 8A42     		cmp	r2, r1
 6477 015e 29D3     		bcc	.L904
 6478              	.LVL915:
 6479              	.L876:
 6480              	.LBE656:
 6481              	.LBE655:
 6482              		.loc 1 2925 0 discriminator 1
 6483 0160 A379     		ldrb	r3, [r4, #6]	@ zero_extendqisi2
 6484 0162 D6E7     		b	.L895
 6485              	.LVL916:
 6486              	.L901:
 6487              	.LBB658:
 6488              	.LBB651:
 6489 0164 1146     		mov	r1, r2
 6490 0166 FFF7FEFF 		bl	get_fat.part.6
 6491              	.LVL917:
 6492 016a 0246     		mov	r2, r0
 6493 016c DFE7     		b	.L869
 6494              	.LVL918:
 6495              	.L897:
 6496              	.LBE651:
 6497              	.LBE658:
 6498              		.loc 1 2890 0
 6499 016e 7342     		negs	r3, r6
 6500 0170 1A40     		ands	r2, r2, r3
 6501              	.LVL919:
 6502 0172 A260     		str	r2, [r4, #8]
 6503              		.loc 1 2891 0
 6504 0174 AD1A     		subs	r5, r5, r2
 6505              	.LVL920:
 6506              		.loc 1 2892 0
 6507 0176 6269     		ldr	r2, [r4, #20]
 6508              	.LVL921:
 6509 0178 7AE7     		b	.L860
 6510              	.LVL922:
 6511              	.L893:
 6512 017a E268     		ldr	r2, [r4, #12]
 6513 017c 9EE7     		b	.L879
 6514              	.LVL923:
 6515              	.L898:
 6516              		.loc 1 2897 0
 6517 017e 1146     		mov	r1, r2
 6518 0180 FFF7FEFF 		bl	create_chain
 6519              	.LVL924:
 6520              		.loc 1 2898 0
 6521 0184 0128     		cmp	r0, #1
 6522              		.loc 1 2897 0
 6523 0186 0246     		mov	r2, r0
 6524              	.LVL925:
 6525              		.loc 1 2898 0
ARM GAS  /var/folders/4k/6h5l9jl178sb4hslwv3xp1mr0000gn/T//ccjvit50.s 			page 116


 6526 0188 0AD0     		beq	.L905
 6527              		.loc 1 2899 0
 6528 018a 0130     		adds	r0, r0, #1
 6529              	.LVL926:
 6530 018c ABD0     		beq	.L894
 6531 018e 2068     		ldr	r0, [r4]
 6532              		.loc 1 2900 0
 6533 0190 2261     		str	r2, [r4, #16]
 6534 0192 6CE7     		b	.L861
 6535              	.L903:
 6536 0194 2168     		ldr	r1, [r4]
 6537              	.L873:
 6538 0196 0846     		mov	r0, r1
 6539 0198 A379     		ldrb	r3, [r4, #6]	@ zero_extendqisi2
 6540 019a BAE7     		b	.L895
 6541              	.L888:
 6542              		.loc 1 2885 0
 6543 019c 0D46     		mov	r5, r1
 6544              	.LVL927:
 6545 019e 6BE7     		b	.L865
 6546              	.LVL928:
 6547              	.L905:
 6548              		.loc 1 2898 0 discriminator 1
 6549 01a0 A279     		ldrb	r2, [r4, #6]	@ zero_extendqisi2
 6550              	.LBB659:
 6551              	.LBB660:
 6552              	.LBB661:
 6553              		.loc 1 596 0 discriminator 1
 6554 01a2 2368     		ldr	r3, [r4]
 6555              	.LBE661:
 6556              	.LBE660:
 6557              	.LBE659:
 6558              		.loc 1 2898 0 discriminator 1
 6559 01a4 62F07F02 		orn	r2, r2, #127
 6560 01a8 A271     		strb	r2, [r4, #6]
 6561              	.LVL929:
 6562              	.LBB664:
 6563              	.LBB663:
 6564              	.LBB662:
 6565              		.loc 1 596 0 discriminator 1
 6566 01aa D868     		ldr	r0, [r3, #12]
 6567              	.LVL930:
 6568 01ac FFF7FEFF 		bl	ff_rel_grant
 6569              	.LVL931:
 6570              	.LBE662:
 6571              	.LBE663:
 6572              	.LBE664:
 6573              		.loc 1 2898 0 discriminator 1
 6574 01b0 0220     		movs	r0, #2
 6575 01b2 70BD     		pop	{r4, r5, r6, pc}
 6576              	.LVL932:
 6577              	.L904:
 6578              	.LBB665:
 6579              	.LBB657:
 6580              		.loc 1 808 0
 6581 01b4 8678     		ldrb	r6, [r0, #2]	@ zero_extendqisi2
 6582              	.LVL933:
ARM GAS  /var/folders/4k/6h5l9jl178sb4hslwv3xp1mr0000gn/T//ccjvit50.s 			page 117


 6583 01b6 C16A     		ldr	r1, [r0, #44]
 6584 01b8 06FB0212 		mla	r2, r6, r2, r1
 6585              	.LVL934:
 6586              	.LBE657:
 6587              	.LBE665:
 6588              		.loc 1 2926 0
 6589 01bc 02EB5525 		add	r5, r2, r5, lsr #9
 6590              	.LVL935:
 6591              		.loc 1 2925 0
 6592 01c0 002A     		cmp	r2, #0
 6593 01c2 7FF459AF 		bne	.L865
 6594 01c6 CBE7     		b	.L876
 6595              	.LVL936:
 6596              	.L902:
 6597              		.loc 1 2910 0
 6598 01c8 3546     		mov	r5, r6
 6599 01ca A368     		ldr	r3, [r4, #8]
 6600 01cc 2068     		ldr	r0, [r4]
 6601              	.LVL937:
 6602 01ce BDE7     		b	.L867
 6603              	.LVL938:
 6604              	.L899:
 6605 01d0 A368     		ldr	r3, [r4, #8]
 6606 01d2 BBE7     		b	.L867
 6607              	.LBE672:
 6608              		.cfi_endproc
 6609              	.LFE43:
 6610              		.size	f_lseek, .-f_lseek
 6611 01d4 AFF30080 		.section	.text.f_opendir,"ax",%progbits
 6611      AFF30080 
 6611      AFF30080 
 6612              		.align	2
 6613              		.p2align 4,,15
 6614              		.global	f_opendir
 6615              		.thumb
 6616              		.thumb_func
 6617              		.type	f_opendir, %function
 6618              	f_opendir:
 6619              	.LFB44:
 6620              		.loc 1 2966 0
 6621              		.cfi_startproc
 6622              		@ args = 0, pretend = 0, frame = 24
 6623              		@ frame_needed = 0, uses_anonymous_args = 0
 6624              	.LVL939:
 6625 0000 70B5     		push	{r4, r5, r6, lr}
 6626              		.cfi_def_cfa_offset 16
 6627              		.cfi_offset 4, -16
 6628              		.cfi_offset 5, -12
 6629              		.cfi_offset 6, -8
 6630              		.cfi_offset 14, -4
 6631 0002 86B0     		sub	sp, sp, #24
 6632              		.cfi_def_cfa_offset 40
 6633              		.loc 1 2966 0
 6634 0004 06AB     		add	r3, sp, #24
 6635 0006 0546     		mov	r5, r0
 6636 0008 43F8141D 		str	r1, [r3, #-20]!
 6637              		.loc 1 2971 0
ARM GAS  /var/folders/4k/6h5l9jl178sb4hslwv3xp1mr0000gn/T//ccjvit50.s 			page 118


 6638 000c 0022     		movs	r2, #0
 6639 000e 1846     		mov	r0, r3
 6640              	.LVL940:
 6641 0010 2946     		mov	r1, r5
 6642              	.LVL941:
 6643 0012 FFF7FEFF 		bl	chk_mounted
 6644              	.LVL942:
 6645              		.loc 1 2972 0
 6646 0016 0446     		mov	r4, r0
 6647 0018 50B1     		cbz	r0, .L907
 6648              	.LVL943:
 6649              	.L923:
 6650 001a A4F10B03 		sub	r3, r4, #11
 6651 001e DBB2     		uxtb	r3, r3
 6652              	.LVL944:
 6653              	.LBB679:
 6654              	.LBB680:
 6655              		.loc 1 592 0
 6656 0020 012B     		cmp	r3, #1
 6657              	.LBE680:
 6658              	.LBE679:
 6659              		.loc 1 2992 0
 6660 0022 2868     		ldr	r0, [r5]
 6661              	.LVL945:
 6662              	.LBB683:
 6663              	.LBB681:
 6664              		.loc 1 592 0
 6665 0024 01D9     		bls	.L918
 6666              		.loc 1 593 0
 6667 0026 092C     		cmp	r4, #9
 6668 0028 1CD1     		bne	.L916
 6669              	.L918:
 6670 002a 2046     		mov	r0, r4
 6671              	.LVL946:
 6672              	.L922:
 6673              	.LBE681:
 6674              	.LBE683:
 6675              		.loc 1 2993 0
 6676 002c 06B0     		add	sp, sp, #24
 6677              	.LVL947:
 6678              		@ sp needed
 6679 002e 70BD     		pop	{r4, r5, r6, pc}
 6680              	.LVL948:
 6681              	.L907:
 6682              		.loc 1 2973 0
 6683 0030 4FF40070 		mov	r0, #512
 6684              	.LVL949:
 6685 0034 FFF7FEFF 		bl	ff_memalloc
 6686              	.LVL950:
 6687 0038 0646     		mov	r6, r0
 6688 003a 0028     		cmp	r0, #0
 6689 003c 32D0     		beq	.L924
 6690              		.loc 1 2973 0 is_stmt 0 discriminator 2
 6691 003e 03AB     		add	r3, sp, #12
 6692 0040 E861     		str	r0, [r5, #28]
 6693 0042 AB61     		str	r3, [r5, #24]
 6694              		.loc 1 2974 0 is_stmt 1 discriminator 2
ARM GAS  /var/folders/4k/6h5l9jl178sb4hslwv3xp1mr0000gn/T//ccjvit50.s 			page 119


 6695 0044 2846     		mov	r0, r5
 6696              	.LVL951:
 6697 0046 0199     		ldr	r1, [sp, #4]
 6698 0048 FFF7FEFF 		bl	follow_path
 6699              	.LVL952:
 6700 004c 0446     		mov	r4, r0
 6701              	.LVL953:
 6702              		.loc 1 2975 0 discriminator 2
 6703 004e 3046     		mov	r0, r6
 6704              	.LVL954:
 6705 0050 FFF7FEFF 		bl	ff_memfree
 6706              	.LVL955:
 6707              		.loc 1 2976 0 discriminator 2
 6708 0054 04BB     		cbnz	r4, .L911
 6709              		.loc 1 2977 0
 6710 0056 6B69     		ldr	r3, [r5, #20]
 6711 0058 B3B1     		cbz	r3, .L912
 6712              		.loc 1 2978 0
 6713 005a DA7A     		ldrb	r2, [r3, #11]	@ zero_extendqisi2
 6714 005c D206     		lsls	r2, r2, #27
 6715 005e 08D4     		bmi	.L925
 6716              	.LVL956:
 6717              		.loc 1 2992 0
 6718 0060 2868     		ldr	r0, [r5]
 6719              	.LVL957:
 6720              		.loc 1 2981 0
 6721 0062 0524     		movs	r4, #5
 6722              	.LVL958:
 6723              	.L916:
 6724 0064 0C30     		adds	r0, r0, #12
 6725              	.LVL959:
 6726              	.L915:
 6727              	.LBB684:
 6728              	.LBB682:
 6729 0066 2146     		mov	r1, r4
 6730 0068 FFF7FEFF 		bl	unlock_fs.isra.4.part.5
 6731              	.LVL960:
 6732 006c 2046     		mov	r0, r4
 6733              	.LBE682:
 6734              	.LBE684:
 6735              		.loc 1 2993 0
 6736 006e 06B0     		add	sp, sp, #24
 6737              	.LVL961:
 6738              		@ sp needed
 6739 0070 70BD     		pop	{r4, r5, r6, pc}
 6740              	.LVL962:
 6741              	.L925:
 6742              		.loc 1 2979 0
 6743 0072 5C7D     		ldrb	r4, [r3, #21]	@ zero_extendqisi2
 6744              	.LVL963:
 6745 0074 1A7D     		ldrb	r2, [r3, #20]	@ zero_extendqisi2
 6746 0076 D87E     		ldrb	r0, [r3, #27]	@ zero_extendqisi2
 6747 0078 997E     		ldrb	r1, [r3, #26]	@ zero_extendqisi2
 6748 007a 42EA0422 		orr	r2, r2, r4, lsl #8
 6749 007e 41EA0023 		orr	r3, r1, r0, lsl #8
 6750 0082 43EA0243 		orr	r3, r3, r2, lsl #16
 6751 0086 AB60     		str	r3, [r5, #8]
ARM GAS  /var/folders/4k/6h5l9jl178sb4hslwv3xp1mr0000gn/T//ccjvit50.s 			page 120


 6752              	.L912:
 6753              	.LVL964:
 6754              		.loc 1 2985 0
 6755 0088 2B68     		ldr	r3, [r5]
 6756 008a DB88     		ldrh	r3, [r3, #6]
