ARM GAS  /var/folders/4k/6h5l9jl178sb4hslwv3xp1mr0000gn/T//ccM6b2CI.s 			page 1


   1              		.syntax unified
   2              		.cpu cortex-m4
   3              		.fpu softvfp
   4              		.eabi_attribute 20, 1
   5              		.eabi_attribute 21, 1
   6              		.eabi_attribute 23, 3
   7              		.eabi_attribute 24, 1
   8              		.eabi_attribute 25, 1
   9              		.eabi_attribute 26, 1
  10              		.eabi_attribute 30, 2
  11              		.eabi_attribute 34, 1
  12              		.eabi_attribute 18, 4
  13              		.thumb
  14              		.file	"hal.c"
  15              		.text
  16              	.Ltext0:
  17              		.cfi_sections	.debug_frame
  18              		.section	.text.halInit,"ax",%progbits
  19              		.align	2
  20              		.p2align 4,,15
  21              		.global	halInit
  22              		.thumb
  23              		.thumb_func
  24              		.type	halInit, %function
  25              	halInit:
  26              	.LFB118:
  27              		.file 1 "../ChibiStudio/ChibiOS/os/hal/src/hal.c"
  28              		.loc 1 68 0
  29              		.cfi_startproc
  30              		@ args = 0, pretend = 0, frame = 0
  31              		@ frame_needed = 0, uses_anonymous_args = 0
  32 0000 08B5     		push	{r3, lr}
  33              		.cfi_def_cfa_offset 8
  34              		.cfi_offset 3, -8
  35              		.cfi_offset 14, -4
  36              		.loc 1 70 0
  37 0002 FFF7FEFF 		bl	hal_lld_init
  38              	.LVL0:
  39              		.loc 1 76 0
  40 0006 0948     		ldr	r0, .L2
  41 0008 FFF7FEFF 		bl	_pal_lld_init
  42              	.LVL1:
  43              		.loc 1 85 0
  44 000c FFF7FEFF 		bl	dcmiInit
  45              	.LVL2:
  46              		.loc 1 94 0
  47 0010 FFF7FEFF 		bl	i2cInit
  48              	.LVL3:
  49              		.loc 1 103 0
  50 0014 FFF7FEFF 		bl	pwmInit
  51              	.LVL4:
  52              		.loc 1 106 0
  53 0018 FFF7FEFF 		bl	sdInit
  54              	.LVL5:
  55              		.loc 1 112 0
  56 001c FFF7FEFF 		bl	spiInit
  57              	.LVL6:
ARM GAS  /var/folders/4k/6h5l9jl178sb4hslwv3xp1mr0000gn/T//ccM6b2CI.s 			page 2


  58              		.loc 1 121 0
  59 0020 FFF7FEFF 		bl	mmcInit
  60              	.LVL7:
  61              		.loc 1 131 0
  62 0024 BDE80840 		pop	{r3, lr}
  63              		.loc 1 130 0
  64 0028 FFF7FEBF 		b	boardInit
  65              	.LVL8:
  66              	.L3:
  67              		.align	2
  68              	.L2:
  69 002c 00000000 		.word	pal_default_config
  70              		.cfi_endproc
  71              	.LFE118:
  72              		.size	halInit, .-halInit
  73              		.section	.text.halIsCounterWithin,"ax",%progbits
  74              		.align	2
  75              		.p2align 4,,15
  76              		.global	halIsCounterWithin
  77              		.thumb
  78              		.thumb_func
  79              		.type	halIsCounterWithin, %function
  80              	halIsCounterWithin:
  81              	.LFB119:
  82              		.loc 1 177 0
  83              		.cfi_startproc
  84              		@ args = 0, pretend = 0, frame = 0
  85              		@ frame_needed = 0, uses_anonymous_args = 0
  86              		@ link register save eliminated.
  87              	.LVL9:
  88              		.loc 1 178 0
  89 0000 084B     		ldr	r3, .L13
  90              		.loc 1 180 0
  91 0002 8142     		cmp	r1, r0
  92              		.loc 1 178 0
  93 0004 5B68     		ldr	r3, [r3, #4]
  94              	.LVL10:
  95              		.loc 1 180 0
  96 0006 06D9     		bls	.L5
  97              		.loc 1 180 0 is_stmt 0 discriminator 1
  98 0008 8342     		cmp	r3, r0
  99 000a 08D3     		bcc	.L9
 100              	.L11:
 101 000c 8B42     		cmp	r3, r1
 102 000e 2CBF     		ite	cs
 103 0010 0020     		movcs	r0, #0
 104              	.LVL11:
 105 0012 0120     		movcc	r0, #1
 106 0014 7047     		bx	lr
 107              	.LVL12:
 108              	.L5:
 109              		.loc 1 181 0 is_stmt 1
 110 0016 8342     		cmp	r3, r0
 111 0018 F8D3     		bcc	.L11
 112 001a 0120     		movs	r0, #1
 113              	.LVL13:
 114              		.loc 1 182 0
ARM GAS  /var/folders/4k/6h5l9jl178sb4hslwv3xp1mr0000gn/T//ccM6b2CI.s 			page 3


 115 001c 7047     		bx	lr
 116              	.LVL14:
 117              	.L9:
 118 001e 0020     		movs	r0, #0
 119              	.LVL15:
 120 0020 7047     		bx	lr
 121              	.L14:
 122 0022 00BF     		.align	2
 123              	.L13:
 124 0024 001000E0 		.word	-536866816
 125              		.cfi_endproc
 126              	.LFE119:
 127              		.size	halIsCounterWithin, .-halIsCounterWithin
 128 0028 AFF30080 		.section	.text.halPolledDelay,"ax",%progbits
 128      AFF30080 
 129              		.align	2
 130              		.p2align 4,,15
 131              		.global	halPolledDelay
 132              		.thumb
 133              		.thumb_func
 134              		.type	halPolledDelay, %function
 135              	halPolledDelay:
 136              	.LFB120:
 137              		.loc 1 196 0
 138              		.cfi_startproc
 139              		@ args = 0, pretend = 0, frame = 0
 140              		@ frame_needed = 0, uses_anonymous_args = 0
 141              		@ link register save eliminated.
 142              	.LVL16:
 143              		.loc 1 197 0
 144 0000 0C49     		ldr	r1, .L26
 145 0002 4A68     		ldr	r2, [r1, #4]
 146              	.LVL17:
 147              		.loc 1 198 0
 148 0004 1044     		add	r0, r0, r2
 149              	.LVL18:
 150              	.L21:
 151              	.LBB4:
 152              	.LBB5:
 153              		.loc 1 180 0 discriminator 1
 154 0006 8242     		cmp	r2, r0
 155              		.loc 1 178 0 discriminator 1
 156 0008 4B68     		ldr	r3, [r1, #4]
 157              	.LVL19:
 158              		.loc 1 180 0 discriminator 1
 159 000a 0CD2     		bcs	.L16
 160              		.loc 1 180 0 is_stmt 0
 161 000c 9A42     		cmp	r2, r3
 162 000e 03D9     		bls	.L24
 163 0010 0023     		movs	r3, #0
 164              	.LVL20:
 165              	.LBE5:
 166              	.LBE4:
 167              		.loc 1 199 0 is_stmt 1
 168 0012 002B     		cmp	r3, #0
 169 0014 F7D1     		bne	.L21
 170              	.L25:
ARM GAS  /var/folders/4k/6h5l9jl178sb4hslwv3xp1mr0000gn/T//ccM6b2CI.s 			page 4


 171              		.loc 1 201 0
 172 0016 7047     		bx	lr
 173              	.LVL21:
 174              	.L24:
 175 0018 9842     		cmp	r0, r3
 176 001a 94BF     		ite	ls
 177 001c 0023     		movls	r3, #0
 178              	.LVL22:
 179 001e 0123     		movhi	r3, #1
 180              		.loc 1 199 0
 181 0020 002B     		cmp	r3, #0
 182 0022 F0D1     		bne	.L21
 183 0024 F7E7     		b	.L25
 184              	.LVL23:
 185              	.L16:
 186              	.LBB7:
 187              	.LBB6:
 188              		.loc 1 181 0
 189 0026 9A42     		cmp	r2, r3
 190 0028 F6D8     		bhi	.L24
 191 002a 0123     		movs	r3, #1
 192              	.LVL24:
 193              	.LBE6:
 194              	.LBE7:
 195              		.loc 1 199 0
 196 002c 002B     		cmp	r3, #0
 197 002e EAD1     		bne	.L21
 198 0030 F1E7     		b	.L25
 199              	.L27:
 200 0032 00BF     		.align	2
 201              	.L26:
 202 0034 001000E0 		.word	-536866816
 203              		.cfi_endproc
 204              	.LFE120:
 205              		.size	halPolledDelay, .-halPolledDelay
 206 0038 AFF30080 		.text
 206      AFF30080 
 207              	.Letext0:
 208              		.file 2 "/Users/mikevanis/Documents/workspace/gcc-arm-none-eabi-4_8-2014q1/arm-none-eabi/include/m
 209              		.file 3 "/Users/mikevanis/Documents/workspace/gcc-arm-none-eabi-4_8-2014q1/arm-none-eabi/include/s
 210              		.file 4 "../ChibiStudio/ChibiOS/os/ports/GCC/ARMCMx/chtypes.h"
 211              		.file 5 "../ChibiStudio/ChibiOS/os/ports/common/ARMCMx/nvic.h"
 212              		.file 6 "../ChibiStudio/ChibiOS/os/hal/platforms/STM32F4xx/hal_lld.h"
 213              		.file 7 "../ChibiStudio/ChibiOS/os/hal/platforms/STM32/GPIOv2/pal_lld.h"
 214              		.file 8 "../ChibiStudio/ChibiOS/os/ports/common/ARMCMx/CMSIS/include/core_cm4.h"
 215              		.file 9 "../ChibiStudio/ChibiOS/os/hal/include/dcmi.h"
 216              		.file 10 "../ChibiStudio/ChibiOS/os/hal/include/i2c.h"
 217              		.file 11 "../ChibiStudio/ChibiOS/os/hal/include/pwm.h"
 218              		.file 12 "../ChibiStudio/ChibiOS/os/hal/include/serial.h"
 219              		.file 13 "../ChibiStudio/ChibiOS/os/hal/include/spi.h"
 220              		.file 14 "../ChibiStudio/ChibiOS/os/hal/include/mmc_spi.h"
 221              		.file 15 "../ChibiStudio/ChibiOS/boards/ST_STM32F4_DISCOVERY/board.h"