ARM GAS  /var/folders/4k/6h5l9jl178sb4hslwv3xp1mr0000gn/T//ccC784Nx.s 			page 1


   1              		.syntax unified
   2              		.cpu cortex-m4
   3              		.fpu softvfp
   4              		.eabi_attribute 20, 1
   5              		.eabi_attribute 21, 1
   6              		.eabi_attribute 23, 3
   7              		.eabi_attribute 24, 1
   8              		.eabi_attribute 25, 1
   9              		.eabi_attribute 26, 1
  10              		.eabi_attribute 30, 2
  11              		.eabi_attribute 34, 1
  12              		.eabi_attribute 18, 4
  13              		.thumb
  14              		.file	"hwinit.c"
  15              		.text
  16              	.Ltext0:
  17              		.cfi_sections	.debug_frame
  18              		.section	.text.hwInit,"ax",%progbits
  19              		.align	2
  20              		.p2align 4,,15
  21              		.global	hwInit
  22              		.thumb
  23              		.thumb_func
  24              		.type	hwInit, %function
  25              	hwInit:
  26              	.LFB119:
  27              		.file 1 "hwinit.c"
  28              		.loc 1 39 0
  29              		.cfi_startproc
  30              		@ args = 0, pretend = 0, frame = 0
  31              		@ frame_needed = 0, uses_anonymous_args = 0
  32 0000 2DE9F843 		push	{r3, r4, r5, r6, r7, r8, r9, lr}
  33              		.cfi_def_cfa_offset 32
  34              		.cfi_offset 3, -32
  35              		.cfi_offset 4, -28
  36              		.cfi_offset 5, -24
  37              		.cfi_offset 6, -20
  38              		.cfi_offset 7, -16
  39              		.cfi_offset 8, -12
  40              		.cfi_offset 9, -8
  41              		.cfi_offset 14, -4
  42              		.loc 1 41 0
  43 0004 584F     		ldr	r7, .L2
  44              		.loc 1 48 0
  45 0006 594D     		ldr	r5, .L2+4
  46              		.loc 1 70 0
  47 0008 DFF88081 		ldr	r8, .L2+36
  48              		.loc 1 74 0
  49 000c DFF88091 		ldr	r9, .L2+40
  50              		.loc 1 87 0
  51 0010 574C     		ldr	r4, .L2+8
  52              		.loc 1 41 0
  53 0012 3846     		mov	r0, r7
  54 0014 4FF48071 		mov	r1, #256
  55 0018 40F20622 		movw	r2, #518
  56 001c FFF7FEFF 		bl	_pal_lld_setgroupmode
  57              	.LVL0:
ARM GAS  /var/folders/4k/6h5l9jl178sb4hslwv3xp1mr0000gn/T//ccC784Nx.s 			page 2


  58              		.loc 1 42 0
  59 0020 40F20622 		movw	r2, #518
  60 0024 3846     		mov	r0, r7
  61 0026 4FF40071 		mov	r1, #512
  62 002a FFF7FEFF 		bl	_pal_lld_setgroupmode
  63              	.LVL1:
  64              		.loc 1 45 0
  65 002e 5148     		ldr	r0, .L2+12
  66 0030 5149     		ldr	r1, .L2+16
  67 0032 FFF7FEFF 		bl	i2cStart
  68              	.LVL2:
  69              		.loc 1 48 0
  70 0036 0121     		movs	r1, #1
  71 0038 2846     		mov	r0, r5
  72 003a 0A46     		mov	r2, r1
  73 003c FFF7FEFF 		bl	_pal_lld_setgroupmode
  74              	.LVL3:
  75              		.loc 1 49 0
  76 0040 2846     		mov	r0, r5
  77 0042 0221     		movs	r1, #2
  78 0044 0122     		movs	r2, #1
  79 0046 FFF7FEFF 		bl	_pal_lld_setgroupmode
  80              	.LVL4:
  81              		.loc 1 51 0
  82 004a 0126     		movs	r6, #1
  83              		.loc 1 53 0
  84 004c 0223     		movs	r3, #2
  85              		.loc 1 56 0
  86 004e 1A46     		mov	r2, r3
  87              		.loc 1 51 0
  88 0050 6E83     		strh	r6, [r5, #26]	@ movhi
  89              		.loc 1 56 0
  90 0052 2846     		mov	r0, r5
  91              		.loc 1 53 0
  92 0054 2B83     		strh	r3, [r5, #24]	@ movhi
  93              		.loc 1 56 0
  94 0056 4FF48071 		mov	r1, #256
  95 005a FFF7FEFF 		bl	_pal_lld_setgroupmode
  96              	.LVL5:
  97              		.loc 1 61 0
  98 005e 4748     		ldr	r0, .L2+20
  99 0060 4749     		ldr	r1, .L2+24
 100 0062 FFF7FEFF 		bl	pwmStart
 101              	.LVL6:
 102              		.loc 1 64 0
 103 0066 2846     		mov	r0, r5
 104 0068 0421     		movs	r1, #4
 105 006a 40F28232 		movw	r2, #898
 106 006e FFF7FEFF 		bl	_pal_lld_setgroupmode
 107              	.LVL7:
 108              		.loc 1 65 0
 109 0072 2846     		mov	r0, r5
 110 0074 40F28232 		movw	r2, #898
 111 0078 0821     		movs	r1, #8
 112 007a FFF7FEFF 		bl	_pal_lld_setgroupmode
 113              	.LVL8:
 114              		.loc 1 67 0
ARM GAS  /var/folders/4k/6h5l9jl178sb4hslwv3xp1mr0000gn/T//ccC784Nx.s 			page 3


 115 007e 4148     		ldr	r0, .L2+28
 116 0080 4149     		ldr	r1, .L2+32
 117 0082 FFF7FEFF 		bl	sdStart
 118              	.LVL9:
 119              		.loc 1 70 0
 120 0086 4046     		mov	r0, r8
 121 0088 4021     		movs	r1, #64
 122 008a 40F28262 		movw	r2, #1666
 123 008e FFF7FEFF 		bl	_pal_lld_setgroupmode
 124              	.LVL10:
 125              		.loc 1 71 0
 126 0092 4046     		mov	r0, r8
 127 0094 8021     		movs	r1, #128
 128 0096 40F28262 		movw	r2, #1666
 129 009a FFF7FEFF 		bl	_pal_lld_setgroupmode
 130              	.LVL11:
 131              		.loc 1 72 0
 132 009e 4046     		mov	r0, r8
 133 00a0 4FF48071 		mov	r1, #256
 134 00a4 40F28262 		movw	r2, #1666
 135 00a8 FFF7FEFF 		bl	_pal_lld_setgroupmode
 136              	.LVL12:
 137              		.loc 1 73 0
 138 00ac 4046     		mov	r0, r8
 139 00ae 4FF40071 		mov	r1, #512
 140 00b2 40F28262 		movw	r2, #1666
 141 00b6 FFF7FEFF 		bl	_pal_lld_setgroupmode
 142              	.LVL13:
 143              		.loc 1 74 0
 144 00ba 4846     		mov	r0, r9
 145 00bc 1021     		movs	r1, #16
 146 00be 40F28262 		movw	r2, #1666
 147 00c2 FFF7FEFF 		bl	_pal_lld_setgroupmode
 148              	.LVL14:
 149              		.loc 1 75 0
 150 00c6 3846     		mov	r0, r7
 151 00c8 4021     		movs	r1, #64
 152 00ca 40F28262 		movw	r2, #1666
 153 00ce FFF7FEFF 		bl	_pal_lld_setgroupmode
 154              	.LVL15:
 155              		.loc 1 76 0
 156 00d2 4846     		mov	r0, r9
 157 00d4 2021     		movs	r1, #32
 158 00d6 40F28262 		movw	r2, #1666
 159 00da FFF7FEFF 		bl	_pal_lld_setgroupmode
 160              	.LVL16:
 161              		.loc 1 77 0
 162 00de 4846     		mov	r0, r9
 163 00e0 4021     		movs	r1, #64
 164 00e2 40F28262 		movw	r2, #1666
 165 00e6 FFF7FEFF 		bl	_pal_lld_setgroupmode
 166              	.LVL17:
 167              		.loc 1 78 0
 168 00ea 2846     		mov	r0, r5
 169 00ec 1021     		movs	r1, #16
 170 00ee 40F28262 		movw	r2, #1666
 171 00f2 FFF7FEFF 		bl	_pal_lld_setgroupmode
ARM GAS  /var/folders/4k/6h5l9jl178sb4hslwv3xp1mr0000gn/T//ccC784Nx.s 			page 4


 172              	.LVL18:
 173              		.loc 1 79 0
 174 00f6 3846     		mov	r0, r7
 175 00f8 8021     		movs	r1, #128
 176 00fa 40F28262 		movw	r2, #1666
 177 00fe FFF7FEFF 		bl	_pal_lld_setgroupmode
 178              	.LVL19:
 179              		.loc 1 80 0
 180 0102 2846     		mov	r0, r5
 181 0104 4021     		movs	r1, #64
 182 0106 40F28262 		movw	r2, #1666
 183 010a FFF7FEFF 		bl	_pal_lld_setgroupmode
 184              	.LVL20:
 185              		.loc 1 87 0
 186 010e 3246     		mov	r2, r6
 187 0110 2046     		mov	r0, r4
 188 0112 4FF48051 		mov	r1, #4096
 189 0116 FFF7FEFF 		bl	_pal_lld_setgroupmode
 190              	.LVL21:
 191              		.loc 1 88 0
 192 011a 2046     		mov	r0, r4
 193 011c 3246     		mov	r2, r6
 194 011e 4FF40051 		mov	r1, #8192
 195 0122 FFF7FEFF 		bl	_pal_lld_setgroupmode
 196              	.LVL22:
 197              		.loc 1 89 0
 198 0126 2046     		mov	r0, r4
 199 0128 3246     		mov	r2, r6
 200 012a 4FF48041 		mov	r1, #16384
 201 012e FFF7FEFF 		bl	_pal_lld_setgroupmode
 202              	.LVL23:
 203              		.loc 1 90 0
 204 0132 2046     		mov	r0, r4
 205 0134 3246     		mov	r2, r6
 206 0136 4FF40041 		mov	r1, #32768
 207 013a FFF7FEFF 		bl	_pal_lld_setgroupmode
 208              	.LVL24:
 209              		.loc 1 93 0
 210 013e 4FF48045 		mov	r5, #16384
 211              		.loc 1 94 0
 212 0142 4FF40043 		mov	r3, #32768
 213              		.loc 1 91 0
 214 0146 4FF48050 		mov	r0, #4096
 215              		.loc 1 92 0
 216 014a 4FF40051 		mov	r1, #8192
 217              		.loc 1 91 0
 218 014e 6083     		strh	r0, [r4, #26]	@ movhi
 219              		.loc 1 97 0
 220 0150 3246     		mov	r2, r6
 221              		.loc 1 92 0
 222 0152 6183     		strh	r1, [r4, #26]	@ movhi
 223              		.loc 1 97 0
 224 0154 2046     		mov	r0, r4
 225              		.loc 1 93 0
 226 0156 6583     		strh	r5, [r4, #26]	@ movhi
 227              		.loc 1 97 0
 228 0158 1021     		movs	r1, #16
ARM GAS  /var/folders/4k/6h5l9jl178sb4hslwv3xp1mr0000gn/T//ccC784Nx.s 			page 5


 229              		.loc 1 94 0
 230 015a 6383     		strh	r3, [r4, #26]	@ movhi
 231              		.loc 1 97 0
 232 015c FFF7FEFF 		bl	_pal_lld_setgroupmode
 233              	.LVL25:
 234              		.loc 1 98 0
 235 0160 1023     		movs	r3, #16
 236 0162 6383     		strh	r3, [r4, #26]	@ movhi
 237 0164 BDE8F883 		pop	{r3, r4, r5, r6, r7, r8, r9, pc}
 238              	.L3:
 239              		.align	2
 240              	.L2:
 241 0168 00040240 		.word	1073873920
 242 016c 00000240 		.word	1073872896
 243 0170 000C0240 		.word	1073875968
 244 0174 00000000 		.word	I2CD1
 245 0178 00000000 		.word	.LANCHOR0
 246 017c 00000000 		.word	PWMD1
 247 0180 00000000 		.word	.LANCHOR1
 248 0184 00000000 		.word	SD2
 249 0188 00000000 		.word	.LANCHOR2
 250 018c 00080240 		.word	1073874944
 251 0190 00100240 		.word	1073876992
 252              		.cfi_endproc
 253              	.LFE119:
 254              		.size	hwInit, .-hwInit
 255              		.global	uart2_config
 256 0194 AFF30080 		.section	.rodata.pwmcfg,"a",%progbits
 256      AFF30080 
 256      AFF30080 
 257              		.align	2
 258              		.set	.LANCHOR1,. + 0
 259              		.type	pwmcfg, %object
 260              		.size	pwmcfg, 52
 261              	pwmcfg:
 262 0000 002D3101 		.word	20000000
 263 0004 0400     		.short	4
 264 0006 0000     		.space	2
 265 0008 00000000 		.word	0
 266 000c 01000000 		.word	1
 267 0010 00000000 		.word	0
 268 0014 00000000 		.word	0
 269 0018 00000000 		.word	0
 270 001c 00000000 		.word	0
 271 0020 00000000 		.word	0
 272 0024 00000000 		.word	0
 273 0028 00000000 		.word	0
 274 002c 00000000 		.word	0
 275 0030 00000000 		.word	0
 276              		.section	.rodata.i2cfg1,"a",%progbits
 277              		.align	2
 278              		.set	.LANCHOR0,. + 0
 279              		.type	i2cfg1, %object
 280              		.size	i2cfg1, 12
 281              	i2cfg1:
 282 0000 01       		.byte	1
 283 0001 000000   		.space	3
ARM GAS  /var/folders/4k/6h5l9jl178sb4hslwv3xp1mr0000gn/T//ccC784Nx.s 			page 6


 284 0004 A0860100 		.word	100000
 285 0008 02       		.byte	2
 286 0009 000000   		.space	3
 287              		.section	.data.uart2_config,"aw",%progbits
 288              		.align	2
 289              		.set	.LANCHOR2,. + 0
 290              		.type	uart2_config, %object
 291              		.size	uart2_config, 12
 292              	uart2_config:
 293 0000 00960000 		.word	38400
 294 0004 0000     		.short	0
 295 0006 0040     		.short	16384
 296 0008 0000     		.short	0
 297 000a 0000     		.space	2
 298              		.text
 299              	.Letext0:
 300              		.file 2 "/Users/mikevanis/Documents/workspace/gcc-arm-none-eabi-4_8-2014q1/lib/gcc/arm-none-eabi/4
 301              		.file 3 "/Users/mikevanis/Documents/workspace/gcc-arm-none-eabi-4_8-2014q1/arm-none-eabi/include/m
 302              		.file 4 "/Users/mikevanis/Documents/workspace/gcc-arm-none-eabi-4_8-2014q1/arm-none-eabi/include/s
 303              		.file 5 "../ChibiStudio/ChibiOS/os/ports/GCC/ARMCMx/chtypes.h"
 304              		.file 6 "../ChibiStudio/ChibiOS/os/kernel/include/chlists.h"
 305              		.file 7 "../ChibiStudio/ChibiOS/os/kernel/include/chthreads.h"
 306              		.file 8 "../ChibiStudio/ChibiOS/os/ports/GCC/ARMCMx/chcore_v7m.h"
 307              		.file 9 "../ChibiStudio/ChibiOS/os/kernel/include/chmtx.h"
 308              		.file 10 "../ChibiStudio/ChibiOS/os/kernel/include/chevents.h"
 309              		.file 11 "../ChibiStudio/ChibiOS/os/kernel/include/chqueues.h"
 310              		.file 12 "../ChibiStudio/ChibiOS/os/hal/platforms/STM32F4xx/stm32f4xx.h"
 311              		.file 13 "../ChibiStudio/ChibiOS/os/hal/platforms/STM32F4xx/stm32_dma.h"
 312              		.file 14 "../ChibiStudio/ChibiOS/os/hal/platforms/STM32/GPIOv2/pal_lld.h"
 313              		.file 15 "../ChibiStudio/ChibiOS/os/hal/include/dcmi.h"
 314              		.file 16 "../ChibiStudio/ChibiOS/os/hal/platforms/STM32F4xx/dcmi_lld.h"
 315              		.file 17 "../ChibiStudio/ChibiOS/os/hal/include/i2c.h"
 316              		.file 18 "../ChibiStudio/ChibiOS/os/hal/platforms/STM32/I2Cv1/i2c_lld.h"
 317              		.file 19 "../ChibiStudio/ChibiOS/os/hal/include/pwm.h"
 318              		.file 20 "../ChibiStudio/ChibiOS/os/hal/platforms/STM32/TIMv1/pwm_lld.h"
 319              		.file 21 "../ChibiStudio/ChibiOS/os/hal/platforms/STM32/TIMv1/stm32_tim.h"
 320              		.file 22 "../ChibiStudio/ChibiOS/os/hal/include/serial.h"
 321              		.file 23 "../ChibiStudio/ChibiOS/os/hal/platforms/STM32/USARTv1/serial_lld.h"
 322              		.file 24 "../ChibiStudio/ChibiOS/os/ports/common/ARMCMx/CMSIS/include/core_cm4.h"
 323              		.file 25 "hwinit.h"
 324              		.section	.debug_info,"",%progbits
 325              	.Ldebug_info0:
 326 0000 20150000 		.4byte	0x1520
 327 0004 0400     		.2byte	0x4
 328 0006 00000000 		.4byte	.Ldebug_abbrev0
 329 000a 04       		.byte	0x4
 330 000b 01       		.uleb128 0x1
 331 000c 16060000 		.4byte	.LASF230
 332 0010 01       		.byte	0x1
 333 0011 AC010000 		.4byte	.LASF231
 334 0015 FA020000 		.4byte	.LASF232
 335 0019 00000000 		.4byte	.Ldebug_ranges0+0
 336 001d 00000000 		.4byte	0
 337 0021 00000000 		.4byte	.Ldebug_line0
 338 0025 02       		.uleb128 0x2
 339 0026 04       		.byte	0x4
 340 0027 05       		.byte	0x5
ARM GAS  /var/folders/4k/6h5l9jl178sb4hslwv3xp1mr0000gn/T//ccC784Nx.s 			page 7


 341 0028 696E7400 		.ascii	"int\000"
 342 002c 03       		.uleb128 0x3
 343 002d 05000000 		.4byte	.LASF2
 344 0031 02       		.byte	0x2
 345 0032 D4       		.byte	0xd4
 346 0033 37000000 		.4byte	0x37
 347 0037 04       		.uleb128 0x4
 348 0038 04       		.byte	0x4
 349 0039 07       		.byte	0x7
 350 003a 86050000 		.4byte	.LASF0
 351 003e 04       		.uleb128 0x4
 352 003f 01       		.byte	0x1
 353 0040 06       		.byte	0x6
 354 0041 E8010000 		.4byte	.LASF1
 355 0045 03       		.uleb128 0x3
 356 0046 05010000 		.4byte	.LASF3
 357 004a 03       		.byte	0x3
 358 004b 1C       		.byte	0x1c
 359 004c 50000000 		.4byte	0x50
 360 0050 04       		.uleb128 0x4
 361 0051 01       		.byte	0x1
 362 0052 08       		.byte	0x8
 363 0053 48020000 		.4byte	.LASF4
 364 0057 04       		.uleb128 0x4
 365 0058 02       		.byte	0x2
 366 0059 05       		.byte	0x5
 367 005a 3C080000 		.4byte	.LASF5
 368 005e 03       		.uleb128 0x3
 369 005f 39030000 		.4byte	.LASF6
 370 0063 03       		.byte	0x3
 371 0064 26       		.byte	0x26
 372 0065 69000000 		.4byte	0x69
 373 0069 04       		.uleb128 0x4
 374 006a 02       		.byte	0x2
 375 006b 07       		.byte	0x7
 376 006c 03090000 		.4byte	.LASF7
 377 0070 03       		.uleb128 0x3
 378 0071 2D090000 		.4byte	.LASF8
 379 0075 03       		.byte	0x3
 380 0076 37       		.byte	0x37
 381 0077 7B000000 		.4byte	0x7b
 382 007b 04       		.uleb128 0x4
 383 007c 04       		.byte	0x4
 384 007d 05       		.byte	0x5
 385 007e 5B010000 		.4byte	.LASF9
 386 0082 03       		.uleb128 0x3
 387 0083 9B040000 		.4byte	.LASF10
 388 0087 03       		.byte	0x3
 389 0088 38       		.byte	0x38
 390 0089 8D000000 		.4byte	0x8d
 391 008d 04       		.uleb128 0x4
 392 008e 04       		.byte	0x4
 393 008f 07       		.byte	0x7
 394 0090 12040000 		.4byte	.LASF11
 395 0094 04       		.uleb128 0x4
 396 0095 08       		.byte	0x8
 397 0096 05       		.byte	0x5
ARM GAS  /var/folders/4k/6h5l9jl178sb4hslwv3xp1mr0000gn/T//ccC784Nx.s 			page 8


 398 0097 B9040000 		.4byte	.LASF12
 399 009b 04       		.uleb128 0x4
 400 009c 08       		.byte	0x8
 401 009d 07       		.byte	0x7
 402 009e 1F070000 		.4byte	.LASF13
 403 00a2 03       		.uleb128 0x3
 404 00a3 FE010000 		.4byte	.LASF14
 405 00a7 04       		.byte	0x4
 406 00a8 2A       		.byte	0x2a
 407 00a9 45000000 		.4byte	0x45
 408 00ad 03       		.uleb128 0x3
 409 00ae 53070000 		.4byte	.LASF15
 410 00b2 04       		.byte	0x4
 411 00b3 36       		.byte	0x36
 412 00b4 5E000000 		.4byte	0x5e
 413 00b8 03       		.uleb128 0x3
 414 00b9 45000000 		.4byte	.LASF16
 415 00bd 04       		.byte	0x4
 416 00be 41       		.byte	0x41
 417 00bf 70000000 		.4byte	0x70
 418 00c3 03       		.uleb128 0x3
 419 00c4 C9080000 		.4byte	.LASF17
 420 00c8 04       		.byte	0x4
 421 00c9 42       		.byte	0x42
 422 00ca 82000000 		.4byte	0x82
 423 00ce 04       		.uleb128 0x4
 424 00cf 01       		.byte	0x1
 425 00d0 02       		.byte	0x2
 426 00d1 B1020000 		.4byte	.LASF18
 427 00d5 03       		.uleb128 0x3
 428 00d6 E9070000 		.4byte	.LASF19
 429 00da 05       		.byte	0x5
 430 00db 2C       		.byte	0x2c
 431 00dc A2000000 		.4byte	0xa2
 432 00e0 03       		.uleb128 0x3
 433 00e1 92010000 		.4byte	.LASF20
 434 00e5 05       		.byte	0x5
 435 00e6 2D       		.byte	0x2d
 436 00e7 A2000000 		.4byte	0xa2
 437 00eb 03       		.uleb128 0x3
 438 00ec 92080000 		.4byte	.LASF21
 439 00f0 05       		.byte	0x5
 440 00f1 2E       		.byte	0x2e
 441 00f2 A2000000 		.4byte	0xa2
 442 00f6 03       		.uleb128 0x3
 443 00f7 7B070000 		.4byte	.LASF22
 444 00fb 05       		.byte	0x5
 445 00fc 2F       		.byte	0x2f
 446 00fd A2000000 		.4byte	0xa2
 447 0101 03       		.uleb128 0x3
 448 0102 25000000 		.4byte	.LASF23
 449 0106 05       		.byte	0x5
 450 0107 30       		.byte	0x30
 451 0108 C3000000 		.4byte	0xc3
 452 010c 03       		.uleb128 0x3
 453 010d 5C070000 		.4byte	.LASF24
 454 0111 05       		.byte	0x5
ARM GAS  /var/folders/4k/6h5l9jl178sb4hslwv3xp1mr0000gn/T//ccC784Nx.s 			page 9


 455 0112 31       		.byte	0x31
 456 0113 B8000000 		.4byte	0xb8
 457 0117 03       		.uleb128 0x3
 458 0118 10020000 		.4byte	.LASF25
 459 011c 05       		.byte	0x5
 460 011d 33       		.byte	0x33
 461 011e C3000000 		.4byte	0xc3
 462 0122 03       		.uleb128 0x3
 463 0123 F0050000 		.4byte	.LASF26
 464 0127 05       		.byte	0x5
 465 0128 34       		.byte	0x34
 466 0129 C3000000 		.4byte	0xc3
 467 012d 03       		.uleb128 0x3
 468 012e 15000000 		.4byte	.LASF27
 469 0132 05       		.byte	0x5
 470 0133 35       		.byte	0x35
 471 0134 C3000000 		.4byte	0xc3
 472 0138 03       		.uleb128 0x3
 473 0139 69080000 		.4byte	.LASF28
 474 013d 06       		.byte	0x6
 475 013e 2A       		.byte	0x2a
 476 013f 43010000 		.4byte	0x143
 477 0143 05       		.uleb128 0x5
 478 0144 69080000 		.4byte	.LASF28
 479 0148 48       		.byte	0x48
 480 0149 07       		.byte	0x7
 481 014a 5E       		.byte	0x5e
 482 014b 40020000 		.4byte	0x240
 483 014f 06       		.uleb128 0x6
 484 0150 64010000 		.4byte	.LASF29
 485 0154 07       		.byte	0x7
 486 0155 5F       		.byte	0x5f
 487 0156 61020000 		.4byte	0x261
 488 015a 00       		.byte	0
 489 015b 06       		.uleb128 0x6
 490 015c 78010000 		.4byte	.LASF30
 491 0160 07       		.byte	0x7
 492 0161 61       		.byte	0x61
 493 0162 61020000 		.4byte	0x261
 494 0166 04       		.byte	0x4
 495 0167 06       		.uleb128 0x6
 496 0168 32030000 		.4byte	.LASF31
 497 016c 07       		.byte	0x7
 498 016d 63       		.byte	0x63
 499 016e 01010000 		.4byte	0x101
 500 0172 08       		.byte	0x8
 501 0173 06       		.uleb128 0x6
 502 0174 1F000000 		.4byte	.LASF32
 503 0178 07       		.byte	0x7
 504 0179 64       		.byte	0x64
 505 017a 1B030000 		.4byte	0x31b
 506 017e 0C       		.byte	0xc
 507 017f 06       		.uleb128 0x6
 508 0180 53010000 		.4byte	.LASF33
 509 0184 07       		.byte	0x7
 510 0185 66       		.byte	0x66
 511 0186 61020000 		.4byte	0x261
ARM GAS  /var/folders/4k/6h5l9jl178sb4hslwv3xp1mr0000gn/T//ccC784Nx.s 			page 10


 512 018a 10       		.byte	0x10
 513 018b 06       		.uleb128 0x6
 514 018c 3F070000 		.4byte	.LASF34
 515 0190 07       		.byte	0x7
 516 0191 67       		.byte	0x67
 517 0192 61020000 		.4byte	0x261
 518 0196 14       		.byte	0x14
 519 0197 06       		.uleb128 0x6
 520 0198 5F090000 		.4byte	.LASF35
 521 019c 07       		.byte	0x7
 522 019d 6E       		.byte	0x6e
 523 019e 36040000 		.4byte	0x436
 524 01a2 18       		.byte	0x18
 525 01a3 06       		.uleb128 0x6
 526 01a4 89090000 		.4byte	.LASF36
 527 01a8 07       		.byte	0x7
 528 01a9 79       		.byte	0x79
 529 01aa E0000000 		.4byte	0xe0
 530 01ae 1C       		.byte	0x1c
 531 01af 06       		.uleb128 0x6
 532 01b0 6F050000 		.4byte	.LASF37
 533 01b4 07       		.byte	0x7
 534 01b5 7D       		.byte	0x7d
 535 01b6 D5000000 		.4byte	0xd5
 536 01ba 1D       		.byte	0x1d
 537 01bb 06       		.uleb128 0x6
 538 01bc B3050000 		.4byte	.LASF38
 539 01c0 07       		.byte	0x7
 540 01c1 82       		.byte	0x82
 541 01c2 EB000000 		.4byte	0xeb
 542 01c6 1E       		.byte	0x1e
 543 01c7 06       		.uleb128 0x6
 544 01c8 F4010000 		.4byte	.LASF39
 545 01cc 07       		.byte	0x7
 546 01cd 88       		.byte	0x88
 547 01ce F6000000 		.4byte	0xf6
 548 01d2 1F       		.byte	0x1f
 549 01d3 06       		.uleb128 0x6
 550 01d4 0F060000 		.4byte	.LASF40
 551 01d8 07       		.byte	0x7
 552 01d9 8F       		.byte	0x8f
 553 01da 48030000 		.4byte	0x348
 554 01de 20       		.byte	0x20
 555 01df 07       		.uleb128 0x7
 556 01e0 705F7500 		.ascii	"p_u\000"
 557 01e4 07       		.byte	0x7
 558 01e5 B4       		.byte	0xb4
 559 01e6 01040000 		.4byte	0x401
 560 01ea 24       		.byte	0x24
 561 01eb 06       		.uleb128 0x6
 562 01ec 4E050000 		.4byte	.LASF41
 563 01f0 07       		.byte	0x7
 564 01f1 B9       		.byte	0xb9
 565 01f2 87020000 		.4byte	0x287
 566 01f6 28       		.byte	0x28
 567 01f7 06       		.uleb128 0x6
 568 01f8 2D000000 		.4byte	.LASF42
ARM GAS  /var/folders/4k/6h5l9jl178sb4hslwv3xp1mr0000gn/T//ccC784Nx.s 			page 11


 569 01fc 07       		.byte	0x7
 570 01fd BF       		.byte	0xbf
 571 01fe 67020000 		.4byte	0x267
 572 0202 2C       		.byte	0x2c
 573 0203 06       		.uleb128 0x6
 574 0204 77090000 		.4byte	.LASF43
 575 0208 07       		.byte	0x7
 576 0209 C3       		.byte	0xc3
 577 020a 0C010000 		.4byte	0x10c
 578 020e 34       		.byte	0x34
 579 020f 06       		.uleb128 0x6
 580 0210 B7030000 		.4byte	.LASF44
 581 0214 07       		.byte	0x7
 582 0215 C9       		.byte	0xc9
 583 0216 17010000 		.4byte	0x117
 584 021a 38       		.byte	0x38
 585 021b 06       		.uleb128 0x6
 586 021c 9B010000 		.4byte	.LASF45
 587 0220 07       		.byte	0x7
 588 0221 D0       		.byte	0xd0
 589 0222 48040000 		.4byte	0x448
 590 0226 3C       		.byte	0x3c
 591 0227 06       		.uleb128 0x6
 592 0228 0A070000 		.4byte	.LASF46
 593 022c 07       		.byte	0x7
 594 022d D4       		.byte	0xd4
 595 022e 01010000 		.4byte	0x101
 596 0232 40       		.byte	0x40
 597 0233 06       		.uleb128 0x6
 598 0234 A2050000 		.4byte	.LASF47
 599 0238 07       		.byte	0x7
 600 0239 DA       		.byte	0xda
 601 023a 9D020000 		.4byte	0x29d
 602 023e 44       		.byte	0x44
 603 023f 00       		.byte	0
 604 0240 08       		.uleb128 0x8
 605 0241 08       		.byte	0x8
 606 0242 06       		.byte	0x6
 607 0243 61       		.byte	0x61
 608 0244 61020000 		.4byte	0x261
 609 0248 06       		.uleb128 0x6
 610 0249 64010000 		.4byte	.LASF29
 611 024d 06       		.byte	0x6
 612 024e 62       		.byte	0x62
 613 024f 61020000 		.4byte	0x261
 614 0253 00       		.byte	0
 615 0254 06       		.uleb128 0x6
 616 0255 78010000 		.4byte	.LASF30
 617 0259 06       		.byte	0x6
 618 025a 64       		.byte	0x64
 619 025b 61020000 		.4byte	0x261
 620 025f 04       		.byte	0x4
 621 0260 00       		.byte	0
 622 0261 09       		.uleb128 0x9
 623 0262 04       		.byte	0x4
 624 0263 38010000 		.4byte	0x138
 625 0267 03       		.uleb128 0x3
ARM GAS  /var/folders/4k/6h5l9jl178sb4hslwv3xp1mr0000gn/T//ccC784Nx.s 			page 12


 626 0268 D2080000 		.4byte	.LASF48
 627 026c 06       		.byte	0x6
 628 026d 66       		.byte	0x66
 629 026e 40020000 		.4byte	0x240
 630 0272 08       		.uleb128 0x8
 631 0273 04       		.byte	0x4
 632 0274 06       		.byte	0x6
 633 0275 6B       		.byte	0x6b
 634 0276 87020000 		.4byte	0x287
 635 027a 06       		.uleb128 0x6
 636 027b 64010000 		.4byte	.LASF29
 637 027f 06       		.byte	0x6
 638 0280 6D       		.byte	0x6d
 639 0281 61020000 		.4byte	0x261
 640 0285 00       		.byte	0
 641 0286 00       		.byte	0
 642 0287 03       		.uleb128 0x3
 643 0288 C8050000 		.4byte	.LASF49
 644 028c 06       		.byte	0x6
 645 028d 70       		.byte	0x70
 646 028e 72020000 		.4byte	0x272
 647 0292 03       		.uleb128 0x3
 648 0293 B5010000 		.4byte	.LASF50
 649 0297 08       		.byte	0x8
 650 0298 E5       		.byte	0xe5
 651 0299 9D020000 		.4byte	0x29d
 652 029d 0A       		.uleb128 0xa
 653 029e 04       		.byte	0x4
 654 029f 0B       		.uleb128 0xb
 655 02a0 AA030000 		.4byte	.LASF51
 656 02a4 24       		.byte	0x24
 657 02a5 08       		.byte	0x8
 658 02a6 0C01     		.2byte	0x10c
 659 02a8 1B030000 		.4byte	0x31b
 660 02ac 0C       		.uleb128 0xc
 661 02ad 723400   		.ascii	"r4\000"
 662 02b0 08       		.byte	0x8
 663 02b1 1F01     		.2byte	0x11f
 664 02b3 92020000 		.4byte	0x292
 665 02b7 00       		.byte	0
 666 02b8 0C       		.uleb128 0xc
 667 02b9 723500   		.ascii	"r5\000"
 668 02bc 08       		.byte	0x8
 669 02bd 2001     		.2byte	0x120
 670 02bf 92020000 		.4byte	0x292
 671 02c3 04       		.byte	0x4
 672 02c4 0C       		.uleb128 0xc
 673 02c5 723600   		.ascii	"r6\000"
 674 02c8 08       		.byte	0x8
 675 02c9 2101     		.2byte	0x121
 676 02cb 92020000 		.4byte	0x292
 677 02cf 08       		.byte	0x8
 678 02d0 0C       		.uleb128 0xc
 679 02d1 723700   		.ascii	"r7\000"
 680 02d4 08       		.byte	0x8
 681 02d5 2201     		.2byte	0x122
 682 02d7 92020000 		.4byte	0x292
ARM GAS  /var/folders/4k/6h5l9jl178sb4hslwv3xp1mr0000gn/T//ccC784Nx.s 			page 13


 683 02db 0C       		.byte	0xc
 684 02dc 0C       		.uleb128 0xc
 685 02dd 723800   		.ascii	"r8\000"
 686 02e0 08       		.byte	0x8
 687 02e1 2301     		.2byte	0x123
 688 02e3 92020000 		.4byte	0x292
 689 02e7 10       		.byte	0x10
 690 02e8 0C       		.uleb128 0xc
 691 02e9 723900   		.ascii	"r9\000"
 692 02ec 08       		.byte	0x8
 693 02ed 2401     		.2byte	0x124
 694 02ef 92020000 		.4byte	0x292
 695 02f3 14       		.byte	0x14
 696 02f4 0C       		.uleb128 0xc
 697 02f5 72313000 		.ascii	"r10\000"
 698 02f9 08       		.byte	0x8
 699 02fa 2501     		.2byte	0x125
 700 02fc 92020000 		.4byte	0x292
 701 0300 18       		.byte	0x18
 702 0301 0C       		.uleb128 0xc
 703 0302 72313100 		.ascii	"r11\000"
 704 0306 08       		.byte	0x8
 705 0307 2601     		.2byte	0x126
 706 0309 92020000 		.4byte	0x292
 707 030d 1C       		.byte	0x1c
 708 030e 0C       		.uleb128 0xc
 709 030f 6C7200   		.ascii	"lr\000"
 710 0312 08       		.byte	0x8
 711 0313 2701     		.2byte	0x127
 712 0315 92020000 		.4byte	0x292
 713 0319 20       		.byte	0x20
 714 031a 00       		.byte	0
 715 031b 0B       		.uleb128 0xb
 716 031c 1C020000 		.4byte	.LASF52
 717 0320 04       		.byte	0x4
 718 0321 08       		.byte	0x8
 719 0322 3101     		.2byte	0x131
 720 0324 36030000 		.4byte	0x336
 721 0328 0C       		.uleb128 0xc
 722 0329 72313300 		.ascii	"r13\000"
 723 032d 08       		.byte	0x8
 724 032e 3201     		.2byte	0x132
 725 0330 36030000 		.4byte	0x336
 726 0334 00       		.byte	0
 727 0335 00       		.byte	0
 728 0336 09       		.uleb128 0x9
 729 0337 04       		.byte	0x4
 730 0338 9F020000 		.4byte	0x29f
 731 033c 0D       		.uleb128 0xd
 732 033d C3000000 		.4byte	0xc3
 733 0341 04       		.uleb128 0x4
 734 0342 04       		.byte	0x4
 735 0343 07       		.byte	0x7
 736 0344 0C000000 		.4byte	.LASF53
 737 0348 0D       		.uleb128 0xd
 738 0349 2D010000 		.4byte	0x12d
 739 034d 05       		.uleb128 0x5
ARM GAS  /var/folders/4k/6h5l9jl178sb4hslwv3xp1mr0000gn/T//ccC784Nx.s 			page 14


 740 034e B3040000 		.4byte	.LASF54
 741 0352 10       		.byte	0x10
 742 0353 09       		.byte	0x9
 743 0354 2C       		.byte	0x2c
 744 0355 7E030000 		.4byte	0x37e
 745 0359 06       		.uleb128 0x6
 746 035a D2040000 		.4byte	.LASF55
 747 035e 09       		.byte	0x9
 748 035f 2D       		.byte	0x2d
 749 0360 67020000 		.4byte	0x267
 750 0364 00       		.byte	0
 751 0365 06       		.uleb128 0x6
 752 0366 EF000000 		.4byte	.LASF56
 753 036a 09       		.byte	0x9
 754 036b 2F       		.byte	0x2f
 755 036c 61020000 		.4byte	0x261
 756 0370 08       		.byte	0x8
 757 0371 06       		.uleb128 0x6
 758 0372 66090000 		.4byte	.LASF57
 759 0376 09       		.byte	0x9
 760 0377 31       		.byte	0x31
 761 0378 7E030000 		.4byte	0x37e
 762 037c 0C       		.byte	0xc
 763 037d 00       		.byte	0
 764 037e 09       		.uleb128 0x9
 765 037f 04       		.byte	0x4
 766 0380 4D030000 		.4byte	0x34d
 767 0384 03       		.uleb128 0x3
 768 0385 B3040000 		.4byte	.LASF54
 769 0389 09       		.byte	0x9
 770 038a 33       		.byte	0x33
 771 038b 4D030000 		.4byte	0x34d
 772 038f 03       		.uleb128 0x3
 773 0390 A3080000 		.4byte	.LASF58
 774 0394 0A       		.byte	0xa
 775 0395 2C       		.byte	0x2c
 776 0396 9A030000 		.4byte	0x39a
 777 039a 05       		.uleb128 0x5
 778 039b A3080000 		.4byte	.LASF58
 779 039f 10       		.byte	0x10
 780 03a0 0A       		.byte	0xa
 781 03a1 31       		.byte	0x31
 782 03a2 D7030000 		.4byte	0x3d7
 783 03a6 06       		.uleb128 0x6
 784 03a7 2E040000 		.4byte	.LASF59
 785 03ab 0A       		.byte	0xa
 786 03ac 32       		.byte	0x32
 787 03ad D7030000 		.4byte	0x3d7
 788 03b1 00       		.byte	0
 789 03b2 06       		.uleb128 0x6
 790 03b3 7D090000 		.4byte	.LASF60
 791 03b7 0A       		.byte	0xa
 792 03b8 35       		.byte	0x35
 793 03b9 61020000 		.4byte	0x261
 794 03bd 04       		.byte	0x4
 795 03be 06       		.uleb128 0x6
 796 03bf 49090000 		.4byte	.LASF61
ARM GAS  /var/folders/4k/6h5l9jl178sb4hslwv3xp1mr0000gn/T//ccC784Nx.s 			page 15


 797 03c3 0A       		.byte	0xa
 798 03c4 37       		.byte	0x37
 799 03c5 17010000 		.4byte	0x117
 800 03c9 08       		.byte	0x8
 801 03ca 06       		.uleb128 0x6
 802 03cb 79000000 		.4byte	.LASF62
 803 03cf 0A       		.byte	0xa
 804 03d0 3A       		.byte	0x3a
 805 03d1 22010000 		.4byte	0x122
 806 03d5 0C       		.byte	0xc
 807 03d6 00       		.byte	0
 808 03d7 09       		.uleb128 0x9
 809 03d8 04       		.byte	0x4
 810 03d9 8F030000 		.4byte	0x38f
 811 03dd 05       		.uleb128 0x5
 812 03de 06040000 		.4byte	.LASF63
 813 03e2 04       		.byte	0x4
 814 03e3 0A       		.byte	0xa
 815 03e4 41       		.byte	0x41
 816 03e5 F6030000 		.4byte	0x3f6
 817 03e9 06       		.uleb128 0x6
 818 03ea E8030000 		.4byte	.LASF64
 819 03ee 0A       		.byte	0xa
 820 03ef 42       		.byte	0x42
 821 03f0 D7030000 		.4byte	0x3d7
 822 03f4 00       		.byte	0
 823 03f5 00       		.byte	0
 824 03f6 03       		.uleb128 0x3
 825 03f7 06040000 		.4byte	.LASF63
 826 03fb 0A       		.byte	0xa
 827 03fc 45       		.byte	0x45
 828 03fd DD030000 		.4byte	0x3dd
 829 0401 0E       		.uleb128 0xe
 830 0402 04       		.byte	0x4
 831 0403 07       		.byte	0x7
 832 0404 96       		.byte	0x96
 833 0405 36040000 		.4byte	0x436
 834 0409 0F       		.uleb128 0xf
 835 040a FC080000 		.4byte	.LASF65
 836 040e 07       		.byte	0x7
 837 040f 9D       		.byte	0x9d
 838 0410 0C010000 		.4byte	0x10c
 839 0414 0F       		.uleb128 0xf
 840 0415 F7000000 		.4byte	.LASF66
 841 0419 07       		.byte	0x7
 842 041a A4       		.byte	0xa4
 843 041b 0C010000 		.4byte	0x10c
 844 041f 0F       		.uleb128 0xf
 845 0420 51030000 		.4byte	.LASF67
 846 0424 07       		.byte	0x7
 847 0425 AB       		.byte	0xab
 848 0426 9D020000 		.4byte	0x29d
 849 042a 0F       		.uleb128 0xf
 850 042b 1F010000 		.4byte	.LASF68
 851 042f 07       		.byte	0x7
 852 0430 B2       		.byte	0xb2
 853 0431 17010000 		.4byte	0x117
ARM GAS  /var/folders/4k/6h5l9jl178sb4hslwv3xp1mr0000gn/T//ccC784Nx.s 			page 16


 854 0435 00       		.byte	0
 855 0436 09       		.uleb128 0x9
 856 0437 04       		.byte	0x4
 857 0438 3C040000 		.4byte	0x43c
 858 043c 10       		.uleb128 0x10
 859 043d 41040000 		.4byte	0x441
 860 0441 04       		.uleb128 0x4
 861 0442 01       		.byte	0x1
 862 0443 08       		.byte	0x8
 863 0444 E8020000 		.4byte	.LASF69
 864 0448 09       		.uleb128 0x9
 865 0449 04       		.byte	0x4
 866 044a 84030000 		.4byte	0x384
 867 044e 09       		.uleb128 0x9
 868 044f 04       		.byte	0x4
 869 0450 54040000 		.4byte	0x454
 870 0454 11       		.uleb128 0x11
 871 0455 0C010000 		.4byte	0x10c
 872 0459 63040000 		.4byte	0x463
 873 045d 12       		.uleb128 0x12
 874 045e 9D020000 		.4byte	0x29d
 875 0462 00       		.byte	0
 876 0463 03       		.uleb128 0x3
 877 0464 44030000 		.4byte	.LASF70
 878 0468 0B       		.byte	0xb
 879 0469 37       		.byte	0x37
 880 046a 6E040000 		.4byte	0x46e
 881 046e 05       		.uleb128 0x5
 882 046f 44030000 		.4byte	.LASF70
 883 0473 24       		.byte	0x24
 884 0474 0B       		.byte	0xb
 885 0475 45       		.byte	0x45
 886 0476 DB040000 		.4byte	0x4db
 887 047a 06       		.uleb128 0x6
 888 047b DF070000 		.4byte	.LASF71
 889 047f 0B       		.byte	0xb
 890 0480 46       		.byte	0x46
 891 0481 67020000 		.4byte	0x267
 892 0485 00       		.byte	0
 893 0486 06       		.uleb128 0x6
 894 0487 F0030000 		.4byte	.LASF72
 895 048b 0B       		.byte	0xb
 896 048c 47       		.byte	0x47
 897 048d 2C000000 		.4byte	0x2c
 898 0491 08       		.byte	0x8
 899 0492 06       		.uleb128 0x6
 900 0493 41010000 		.4byte	.LASF73
 901 0497 0B       		.byte	0xb
 902 0498 48       		.byte	0x48
 903 0499 FD040000 		.4byte	0x4fd
 904 049d 0C       		.byte	0xc
 905 049e 06       		.uleb128 0x6
 906 049f 19010000 		.4byte	.LASF74
 907 04a3 0B       		.byte	0xb
 908 04a4 49       		.byte	0x49
 909 04a5 FD040000 		.4byte	0x4fd
 910 04a9 10       		.byte	0x10
ARM GAS  /var/folders/4k/6h5l9jl178sb4hslwv3xp1mr0000gn/T//ccC784Nx.s 			page 17


 911 04aa 06       		.uleb128 0x6
 912 04ab 4F040000 		.4byte	.LASF75
 913 04af 0B       		.byte	0xb
 914 04b0 4B       		.byte	0x4b
 915 04b1 FD040000 		.4byte	0x4fd
 916 04b5 14       		.byte	0x14
 917 04b6 06       		.uleb128 0x6
 918 04b7 6B010000 		.4byte	.LASF76
 919 04bb 0B       		.byte	0xb
 920 04bc 4C       		.byte	0x4c
 921 04bd FD040000 		.4byte	0x4fd
 922 04c1 18       		.byte	0x18
 923 04c2 06       		.uleb128 0x6
 924 04c3 4A010000 		.4byte	.LASF77
 925 04c7 0B       		.byte	0xb
 926 04c8 4D       		.byte	0x4d
 927 04c9 DB040000 		.4byte	0x4db
 928 04cd 1C       		.byte	0x1c
 929 04ce 06       		.uleb128 0x6
 930 04cf 6A020000 		.4byte	.LASF78
 931 04d3 0B       		.byte	0xb
 932 04d4 4E       		.byte	0x4e
 933 04d5 9D020000 		.4byte	0x29d
 934 04d9 20       		.byte	0x20
 935 04da 00       		.byte	0
 936 04db 03       		.uleb128 0x3
 937 04dc 44050000 		.4byte	.LASF79
 938 04e0 0B       		.byte	0xb
 939 04e1 3A       		.byte	0x3a
 940 04e2 E6040000 		.4byte	0x4e6
 941 04e6 09       		.uleb128 0x9
 942 04e7 04       		.byte	0x4
 943 04e8 EC040000 		.4byte	0x4ec
 944 04ec 13       		.uleb128 0x13
 945 04ed F7040000 		.4byte	0x4f7
 946 04f1 12       		.uleb128 0x12
 947 04f2 F7040000 		.4byte	0x4f7
 948 04f6 00       		.byte	0
 949 04f7 09       		.uleb128 0x9
 950 04f8 04       		.byte	0x4
 951 04f9 63040000 		.4byte	0x463
 952 04fd 09       		.uleb128 0x9
 953 04fe 04       		.byte	0x4
 954 04ff A2000000 		.4byte	0xa2
 955 0503 03       		.uleb128 0x3
 956 0504 22090000 		.4byte	.LASF80
 957 0508 0B       		.byte	0xb
 958 0509 82       		.byte	0x82
 959 050a 63040000 		.4byte	0x463
 960 050e 03       		.uleb128 0x3
 961 050f 72030000 		.4byte	.LASF81
 962 0513 0B       		.byte	0xb
 963 0514 F5       		.byte	0xf5
 964 0515 63040000 		.4byte	0x463
 965 0519 11       		.uleb128 0x11
 966 051a 2C000000 		.4byte	0x2c
 967 051e 32050000 		.4byte	0x532
ARM GAS  /var/folders/4k/6h5l9jl178sb4hslwv3xp1mr0000gn/T//ccC784Nx.s 			page 18


 968 0522 12       		.uleb128 0x12
 969 0523 9D020000 		.4byte	0x29d
 970 0527 12       		.uleb128 0x12
 971 0528 32050000 		.4byte	0x532
 972 052c 12       		.uleb128 0x12
 973 052d 2C000000 		.4byte	0x2c
 974 0531 00       		.byte	0
 975 0532 09       		.uleb128 0x9
 976 0533 04       		.byte	0x4
 977 0534 38050000 		.4byte	0x538
 978 0538 10       		.uleb128 0x10
 979 0539 A2000000 		.4byte	0xa2
 980 053d 09       		.uleb128 0x9
 981 053e 04       		.byte	0x4
 982 053f 19050000 		.4byte	0x519
 983 0543 11       		.uleb128 0x11
 984 0544 2C000000 		.4byte	0x2c
 985 0548 5C050000 		.4byte	0x55c
 986 054c 12       		.uleb128 0x12
 987 054d 9D020000 		.4byte	0x29d
 988 0551 12       		.uleb128 0x12
 989 0552 FD040000 		.4byte	0x4fd
 990 0556 12       		.uleb128 0x12
 991 0557 2C000000 		.4byte	0x2c
 992 055b 00       		.byte	0
 993 055c 09       		.uleb128 0x9
 994 055d 04       		.byte	0x4
 995 055e 43050000 		.4byte	0x543
 996 0562 11       		.uleb128 0x11
 997 0563 0C010000 		.4byte	0x10c
 998 0567 76050000 		.4byte	0x576
 999 056b 12       		.uleb128 0x12
 1000 056c 9D020000 		.4byte	0x29d
 1001 0570 12       		.uleb128 0x12
 1002 0571 A2000000 		.4byte	0xa2
 1003 0575 00       		.byte	0
 1004 0576 09       		.uleb128 0x9
 1005 0577 04       		.byte	0x4
 1006 0578 62050000 		.4byte	0x562
 1007 057c 14       		.uleb128 0x14
 1008 057d C3000000 		.4byte	0xc3
 1009 0581 8C050000 		.4byte	0x58c
 1010 0585 15       		.uleb128 0x15
 1011 0586 41030000 		.4byte	0x341
 1012 058a 03       		.byte	0x3
 1013 058b 00       		.byte	0
 1014 058c 0D       		.uleb128 0xd
 1015 058d AD000000 		.4byte	0xad
 1016 0591 0D       		.uleb128 0xd
 1017 0592 B8000000 		.4byte	0xb8
 1018 0596 16       		.uleb128 0x16
 1019 0597 2C       		.byte	0x2c
 1020 0598 0C       		.byte	0xc
 1021 0599 9E02     		.2byte	0x29e
 1022 059b 2C060000 		.4byte	0x62c
 1023 059f 0C       		.uleb128 0xc
 1024 05a0 435200   		.ascii	"CR\000"
ARM GAS  /var/folders/4k/6h5l9jl178sb4hslwv3xp1mr0000gn/T//ccC784Nx.s 			page 19


 1025 05a3 0C       		.byte	0xc
 1026 05a4 A002     		.2byte	0x2a0
 1027 05a6 3C030000 		.4byte	0x33c
 1028 05aa 00       		.byte	0
 1029 05ab 0C       		.uleb128 0xc
 1030 05ac 535200   		.ascii	"SR\000"
 1031 05af 0C       		.byte	0xc
 1032 05b0 A102     		.2byte	0x2a1
 1033 05b2 3C030000 		.4byte	0x33c
 1034 05b6 04       		.byte	0x4
 1035 05b7 17       		.uleb128 0x17
 1036 05b8 3F090000 		.4byte	.LASF82
 1037 05bc 0C       		.byte	0xc
 1038 05bd A202     		.2byte	0x2a2
 1039 05bf 3C030000 		.4byte	0x33c
 1040 05c3 08       		.byte	0x8
 1041 05c4 0C       		.uleb128 0xc
 1042 05c5 49455200 		.ascii	"IER\000"
 1043 05c9 0C       		.byte	0xc
 1044 05ca A302     		.2byte	0x2a3
 1045 05cc 3C030000 		.4byte	0x33c
 1046 05d0 0C       		.byte	0xc
 1047 05d1 17       		.uleb128 0x17
 1048 05d2 29040000 		.4byte	.LASF83
 1049 05d6 0C       		.byte	0xc
 1050 05d7 A402     		.2byte	0x2a4
 1051 05d9 3C030000 		.4byte	0x33c
 1052 05dd 10       		.byte	0x10
 1053 05de 0C       		.uleb128 0xc
 1054 05df 49435200 		.ascii	"ICR\000"
 1055 05e3 0C       		.byte	0xc
 1056 05e4 A502     		.2byte	0x2a5
 1057 05e6 3C030000 		.4byte	0x33c
 1058 05ea 14       		.byte	0x14
 1059 05eb 17       		.uleb128 0x17
 1060 05ec 8D080000 		.4byte	.LASF84
 1061 05f0 0C       		.byte	0xc
 1062 05f1 A602     		.2byte	0x2a6
 1063 05f3 3C030000 		.4byte	0x33c
 1064 05f7 18       		.byte	0x18
 1065 05f8 17       		.uleb128 0x17
 1066 05f9 81040000 		.4byte	.LASF85
 1067 05fd 0C       		.byte	0xc
 1068 05fe A702     		.2byte	0x2a7
 1069 0600 3C030000 		.4byte	0x33c
 1070 0604 1C       		.byte	0x1c
 1071 0605 17       		.uleb128 0x17
 1072 0606 D4050000 		.4byte	.LASF86
 1073 060a 0C       		.byte	0xc
 1074 060b A802     		.2byte	0x2a8
 1075 060d 3C030000 		.4byte	0x33c
 1076 0611 20       		.byte	0x20
 1077 0612 17       		.uleb128 0x17
 1078 0613 7F010000 		.4byte	.LASF87
 1079 0617 0C       		.byte	0xc
 1080 0618 A902     		.2byte	0x2a9
 1081 061a 3C030000 		.4byte	0x33c
ARM GAS  /var/folders/4k/6h5l9jl178sb4hslwv3xp1mr0000gn/T//ccC784Nx.s 			page 20


 1082 061e 24       		.byte	0x24
 1083 061f 0C       		.uleb128 0xc
 1084 0620 445200   		.ascii	"DR\000"
 1085 0623 0C       		.byte	0xc
 1086 0624 AA02     		.2byte	0x2aa
 1087 0626 3C030000 		.4byte	0x33c
 1088 062a 28       		.byte	0x28
 1089 062b 00       		.byte	0
 1090 062c 18       		.uleb128 0x18
 1091 062d A6040000 		.4byte	.LASF88
 1092 0631 0C       		.byte	0xc
 1093 0632 AB02     		.2byte	0x2ab
 1094 0634 96050000 		.4byte	0x596
 1095 0638 16       		.uleb128 0x16
 1096 0639 18       		.byte	0x18
 1097 063a 0C       		.byte	0xc
 1098 063b B102     		.2byte	0x2b1
 1099 063d 8F060000 		.4byte	0x68f
 1100 0641 0C       		.uleb128 0xc
 1101 0642 435200   		.ascii	"CR\000"
 1102 0645 0C       		.byte	0xc
 1103 0646 B302     		.2byte	0x2b3
 1104 0648 3C030000 		.4byte	0x33c
 1105 064c 00       		.byte	0
 1106 064d 17       		.uleb128 0x17
 1107 064e 44090000 		.4byte	.LASF89
 1108 0652 0C       		.byte	0xc
 1109 0653 B402     		.2byte	0x2b4
 1110 0655 3C030000 		.4byte	0x33c
 1111 0659 04       		.byte	0x4
 1112 065a 0C       		.uleb128 0xc
 1113 065b 50415200 		.ascii	"PAR\000"
 1114 065f 0C       		.byte	0xc
 1115 0660 B502     		.2byte	0x2b5
 1116 0662 3C030000 		.4byte	0x33c
 1117 0666 08       		.byte	0x8
 1118 0667 17       		.uleb128 0x17
 1119 0668 2D080000 		.4byte	.LASF90
 1120 066c 0C       		.byte	0xc
 1121 066d B602     		.2byte	0x2b6
 1122 066f 3C030000 		.4byte	0x33c
 1123 0673 0C       		.byte	0xc
 1124 0674 17       		.uleb128 0x17
 1125 0675 00000000 		.4byte	.LASF91
 1126 0679 0C       		.byte	0xc
 1127 067a B702     		.2byte	0x2b7
 1128 067c 3C030000 		.4byte	0x33c
 1129 0680 10       		.byte	0x10
 1130 0681 0C       		.uleb128 0xc
 1131 0682 46435200 		.ascii	"FCR\000"
 1132 0686 0C       		.byte	0xc
 1133 0687 B802     		.2byte	0x2b8
 1134 0689 3C030000 		.4byte	0x33c
 1135 068d 14       		.byte	0x14
 1136 068e 00       		.byte	0
 1137 068f 18       		.uleb128 0x18
 1138 0690 FC050000 		.4byte	.LASF92
ARM GAS  /var/folders/4k/6h5l9jl178sb4hslwv3xp1mr0000gn/T//ccC784Nx.s 			page 21


 1139 0694 0C       		.byte	0xc
 1140 0695 B902     		.2byte	0x2b9
 1141 0697 38060000 		.4byte	0x638
 1142 069b 16       		.uleb128 0x16
 1143 069c 28       		.byte	0x28
 1144 069d 0C       		.byte	0xc
 1145 069e F603     		.2byte	0x3f6
 1146 06a0 A8070000 		.4byte	0x7a8
 1147 06a4 0C       		.uleb128 0xc
 1148 06a5 43523100 		.ascii	"CR1\000"
 1149 06a9 0C       		.byte	0xc
 1150 06aa F803     		.2byte	0x3f8
 1151 06ac 8C050000 		.4byte	0x58c
 1152 06b0 00       		.byte	0
 1153 06b1 17       		.uleb128 0x17
 1154 06b2 34020000 		.4byte	.LASF93
 1155 06b6 0C       		.byte	0xc
 1156 06b7 F903     		.2byte	0x3f9
 1157 06b9 AD000000 		.4byte	0xad
 1158 06bd 02       		.byte	0x2
 1159 06be 0C       		.uleb128 0xc
 1160 06bf 43523200 		.ascii	"CR2\000"
 1161 06c3 0C       		.byte	0xc
 1162 06c4 FA03     		.2byte	0x3fa
 1163 06c6 8C050000 		.4byte	0x58c
 1164 06ca 04       		.byte	0x4
 1165 06cb 17       		.uleb128 0x17
 1166 06cc 3E020000 		.4byte	.LASF94
 1167 06d0 0C       		.byte	0xc
 1168 06d1 FB03     		.2byte	0x3fb
 1169 06d3 AD000000 		.4byte	0xad
 1170 06d7 06       		.byte	0x6
 1171 06d8 17       		.uleb128 0x17
 1172 06d9 FD070000 		.4byte	.LASF95
 1173 06dd 0C       		.byte	0xc
 1174 06de FC03     		.2byte	0x3fc
 1175 06e0 8C050000 		.4byte	0x58c
 1176 06e4 08       		.byte	0x8
 1177 06e5 17       		.uleb128 0x17
 1178 06e6 B7020000 		.4byte	.LASF96
 1179 06ea 0C       		.byte	0xc
 1180 06eb FD03     		.2byte	0x3fd
 1181 06ed AD000000 		.4byte	0xad
 1182 06f1 0A       		.byte	0xa
 1183 06f2 17       		.uleb128 0x17
 1184 06f3 02080000 		.4byte	.LASF97
 1185 06f7 0C       		.byte	0xc
 1186 06f8 FE03     		.2byte	0x3fe
 1187 06fa 8C050000 		.4byte	0x58c
 1188 06fe 0C       		.byte	0xc
 1189 06ff 17       		.uleb128 0x17
 1190 0700 56020000 		.4byte	.LASF98
 1191 0704 0C       		.byte	0xc
 1192 0705 FF03     		.2byte	0x3ff
 1193 0707 AD000000 		.4byte	0xad
 1194 070b 0E       		.byte	0xe
 1195 070c 0C       		.uleb128 0xc
ARM GAS  /var/folders/4k/6h5l9jl178sb4hslwv3xp1mr0000gn/T//ccC784Nx.s 			page 22


 1196 070d 445200   		.ascii	"DR\000"
 1197 0710 0C       		.byte	0xc
 1198 0711 0004     		.2byte	0x400
 1199 0713 8C050000 		.4byte	0x58c
 1200 0717 10       		.byte	0x10
 1201 0718 17       		.uleb128 0x17
 1202 0719 60020000 		.4byte	.LASF99
 1203 071d 0C       		.byte	0xc
 1204 071e 0104     		.2byte	0x401
 1205 0720 AD000000 		.4byte	0xad
 1206 0724 12       		.byte	0x12
 1207 0725 0C       		.uleb128 0xc
 1208 0726 53523100 		.ascii	"SR1\000"
 1209 072a 0C       		.byte	0xc
 1210 072b 0204     		.2byte	0x402
 1211 072d 8C050000 		.4byte	0x58c
 1212 0731 14       		.byte	0x14
 1213 0732 17       		.uleb128 0x17
 1214 0733 C1020000 		.4byte	.LASF100
 1215 0737 0C       		.byte	0xc
 1216 0738 0304     		.2byte	0x403
 1217 073a AD000000 		.4byte	0xad
 1218 073e 16       		.byte	0x16
 1219 073f 0C       		.uleb128 0xc
 1220 0740 53523200 		.ascii	"SR2\000"
 1221 0744 0C       		.byte	0xc
 1222 0745 0404     		.2byte	0x404
 1223 0747 8C050000 		.4byte	0x58c
 1224 074b 18       		.byte	0x18
 1225 074c 17       		.uleb128 0x17
 1226 074d 71020000 		.4byte	.LASF101
 1227 0751 0C       		.byte	0xc
 1228 0752 0504     		.2byte	0x405
 1229 0754 AD000000 		.4byte	0xad
 1230 0758 1A       		.byte	0x1a
 1231 0759 0C       		.uleb128 0xc
 1232 075a 43435200 		.ascii	"CCR\000"
 1233 075e 0C       		.byte	0xc
 1234 075f 0604     		.2byte	0x406
 1235 0761 8C050000 		.4byte	0x58c
 1236 0765 1C       		.byte	0x1c
 1237 0766 17       		.uleb128 0x17
 1238 0767 7B020000 		.4byte	.LASF102
 1239 076b 0C       		.byte	0xc
 1240 076c 0704     		.2byte	0x407
 1241 076e AD000000 		.4byte	0xad
 1242 0772 1E       		.byte	0x1e
 1243 0773 17       		.uleb128 0x17
 1244 0774 36040000 		.4byte	.LASF103
 1245 0778 0C       		.byte	0xc
 1246 0779 0804     		.2byte	0x408
 1247 077b 8C050000 		.4byte	0x58c
 1248 077f 20       		.byte	0x20
 1249 0780 17       		.uleb128 0x17
 1250 0781 85020000 		.4byte	.LASF104
 1251 0785 0C       		.byte	0xc
 1252 0786 0904     		.2byte	0x409
ARM GAS  /var/folders/4k/6h5l9jl178sb4hslwv3xp1mr0000gn/T//ccC784Nx.s 			page 23


 1253 0788 AD000000 		.4byte	0xad
 1254 078c 22       		.byte	0x22
 1255 078d 17       		.uleb128 0x17
 1256 078e 0D050000 		.4byte	.LASF105
 1257 0792 0C       		.byte	0xc
 1258 0793 0A04     		.2byte	0x40a
 1259 0795 8C050000 		.4byte	0x58c
 1260 0799 24       		.byte	0x24
 1261 079a 17       		.uleb128 0x17
 1262 079b 8F020000 		.4byte	.LASF106
 1263 079f 0C       		.byte	0xc
 1264 07a0 0B04     		.2byte	0x40b
 1265 07a2 AD000000 		.4byte	0xad
 1266 07a6 26       		.byte	0x26
 1267 07a7 00       		.byte	0
 1268 07a8 18       		.uleb128 0x18
 1269 07a9 A4070000 		.4byte	.LASF107
 1270 07ad 0C       		.byte	0xc
 1271 07ae 0C04     		.2byte	0x40c
 1272 07b0 9B060000 		.4byte	0x69b
 1273 07b4 16       		.uleb128 0x16
 1274 07b5 1C       		.byte	0x1c
 1275 07b6 0C       		.byte	0xc
 1276 07b7 2905     		.2byte	0x529
 1277 07b9 72080000 		.4byte	0x872
 1278 07bd 0C       		.uleb128 0xc
 1279 07be 535200   		.ascii	"SR\000"
 1280 07c1 0C       		.byte	0xc
 1281 07c2 2B05     		.2byte	0x52b
 1282 07c4 8C050000 		.4byte	0x58c
 1283 07c8 00       		.byte	0
 1284 07c9 17       		.uleb128 0x17
 1285 07ca 34020000 		.4byte	.LASF93
 1286 07ce 0C       		.byte	0xc
 1287 07cf 2C05     		.2byte	0x52c
 1288 07d1 AD000000 		.4byte	0xad
 1289 07d5 02       		.byte	0x2
 1290 07d6 0C       		.uleb128 0xc
 1291 07d7 445200   		.ascii	"DR\000"
 1292 07da 0C       		.byte	0xc
 1293 07db 2D05     		.2byte	0x52d
 1294 07dd 8C050000 		.4byte	0x58c
 1295 07e1 04       		.byte	0x4
 1296 07e2 17       		.uleb128 0x17
 1297 07e3 3E020000 		.4byte	.LASF94
 1298 07e7 0C       		.byte	0xc
 1299 07e8 2E05     		.2byte	0x52e
 1300 07ea AD000000 		.4byte	0xad
 1301 07ee 06       		.byte	0x6
 1302 07ef 0C       		.uleb128 0xc
 1303 07f0 42525200 		.ascii	"BRR\000"
 1304 07f4 0C       		.byte	0xc
 1305 07f5 2F05     		.2byte	0x52f
 1306 07f7 8C050000 		.4byte	0x58c
 1307 07fb 08       		.byte	0x8
 1308 07fc 17       		.uleb128 0x17
 1309 07fd B7020000 		.4byte	.LASF96
ARM GAS  /var/folders/4k/6h5l9jl178sb4hslwv3xp1mr0000gn/T//ccC784Nx.s 			page 24


 1310 0801 0C       		.byte	0xc
 1311 0802 3005     		.2byte	0x530
 1312 0804 AD000000 		.4byte	0xad
 1313 0808 0A       		.byte	0xa
 1314 0809 0C       		.uleb128 0xc
 1315 080a 43523100 		.ascii	"CR1\000"
 1316 080e 0C       		.byte	0xc
 1317 080f 3105     		.2byte	0x531
 1318 0811 8C050000 		.4byte	0x58c
 1319 0815 0C       		.byte	0xc
 1320 0816 17       		.uleb128 0x17
 1321 0817 56020000 		.4byte	.LASF98
 1322 081b 0C       		.byte	0xc
 1323 081c 3205     		.2byte	0x532
 1324 081e AD000000 		.4byte	0xad
 1325 0822 0E       		.byte	0xe
 1326 0823 0C       		.uleb128 0xc
 1327 0824 43523200 		.ascii	"CR2\000"
 1328 0828 0C       		.byte	0xc
 1329 0829 3305     		.2byte	0x533
 1330 082b 8C050000 		.4byte	0x58c
 1331 082f 10       		.byte	0x10
 1332 0830 17       		.uleb128 0x17
 1333 0831 60020000 		.4byte	.LASF99
 1334 0835 0C       		.byte	0xc
 1335 0836 3405     		.2byte	0x534
 1336 0838 AD000000 		.4byte	0xad
 1337 083c 12       		.byte	0x12
 1338 083d 0C       		.uleb128 0xc
 1339 083e 43523300 		.ascii	"CR3\000"
 1340 0842 0C       		.byte	0xc
 1341 0843 3505     		.2byte	0x535
 1342 0845 8C050000 		.4byte	0x58c
 1343 0849 14       		.byte	0x14
 1344 084a 17       		.uleb128 0x17
 1345 084b C1020000 		.4byte	.LASF100
 1346 084f 0C       		.byte	0xc
 1347 0850 3605     		.2byte	0x536
 1348 0852 AD000000 		.4byte	0xad
 1349 0856 16       		.byte	0x16
 1350 0857 17       		.uleb128 0x17
 1351 0858 EF040000 		.4byte	.LASF108
 1352 085c 0C       		.byte	0xc
 1353 085d 3705     		.2byte	0x537
 1354 085f 8C050000 		.4byte	0x58c
 1355 0863 18       		.byte	0x18
 1356 0864 17       		.uleb128 0x17
 1357 0865 71020000 		.4byte	.LASF101
 1358 0869 0C       		.byte	0xc
 1359 086a 3805     		.2byte	0x538
 1360 086c AD000000 		.4byte	0xad
 1361 0870 1A       		.byte	0x1a
 1362 0871 00       		.byte	0
 1363 0872 18       		.uleb128 0x18
 1364 0873 64030000 		.4byte	.LASF109
 1365 0877 0C       		.byte	0xc
 1366 0878 3905     		.2byte	0x539
ARM GAS  /var/folders/4k/6h5l9jl178sb4hslwv3xp1mr0000gn/T//ccC784Nx.s 			page 25


 1367 087a B4070000 		.4byte	0x7b4
 1368 087e 08       		.uleb128 0x8
 1369 087f 0C       		.byte	0xc
 1370 0880 0D       		.byte	0xd
 1371 0881 DA       		.byte	0xda
 1372 0882 C3080000 		.4byte	0x8c3
 1373 0886 06       		.uleb128 0x6
 1374 0887 8C030000 		.4byte	.LASF110
 1375 088b 0D       		.byte	0xd
 1376 088c DB       		.byte	0xdb
 1377 088d C3080000 		.4byte	0x8c3
 1378 0891 00       		.byte	0
 1379 0892 06       		.uleb128 0x6
 1380 0893 51090000 		.4byte	.LASF111
 1381 0897 0D       		.byte	0xd
 1382 0898 DC       		.byte	0xdc
 1383 0899 C9080000 		.4byte	0x8c9
 1384 089d 04       		.byte	0x4
 1385 089e 06       		.uleb128 0x6
 1386 089f F3020000 		.4byte	.LASF112
 1387 08a3 0D       		.byte	0xd
 1388 08a4 DD       		.byte	0xdd
 1389 08a5 A2000000 		.4byte	0xa2
 1390 08a9 08       		.byte	0x8
 1391 08aa 06       		.uleb128 0x6
 1392 08ab 7C050000 		.4byte	.LASF113
 1393 08af 0D       		.byte	0xd
 1394 08b0 DF       		.byte	0xdf
 1395 08b1 A2000000 		.4byte	0xa2
 1396 08b5 09       		.byte	0x9
 1397 08b6 06       		.uleb128 0x6
 1398 08b7 9D070000 		.4byte	.LASF114
 1399 08bb 0D       		.byte	0xd
 1400 08bc E0       		.byte	0xe0
 1401 08bd A2000000 		.4byte	0xa2
 1402 08c1 0A       		.byte	0xa
 1403 08c2 00       		.byte	0
 1404 08c3 09       		.uleb128 0x9
 1405 08c4 04       		.byte	0x4
 1406 08c5 8F060000 		.4byte	0x68f
 1407 08c9 09       		.uleb128 0x9
 1408 08ca 04       		.byte	0x4
 1409 08cb 3C030000 		.4byte	0x33c
 1410 08cf 03       		.uleb128 0x3
 1411 08d0 3C040000 		.4byte	.LASF115
 1412 08d4 0D       		.byte	0xd
 1413 08d5 E1       		.byte	0xe1
 1414 08d6 7E080000 		.4byte	0x87e
 1415 08da 11       		.uleb128 0x11
 1416 08db 0C010000 		.4byte	0x10c
 1417 08df F3080000 		.4byte	0x8f3
 1418 08e3 12       		.uleb128 0x12
 1419 08e4 9D020000 		.4byte	0x29d
 1420 08e8 12       		.uleb128 0x12
 1421 08e9 A2000000 		.4byte	0xa2
 1422 08ed 12       		.uleb128 0x12
 1423 08ee 2D010000 		.4byte	0x12d
ARM GAS  /var/folders/4k/6h5l9jl178sb4hslwv3xp1mr0000gn/T//ccC784Nx.s 			page 26


 1424 08f2 00       		.byte	0
 1425 08f3 09       		.uleb128 0x9
 1426 08f4 04       		.byte	0x4
 1427 08f5 DA080000 		.4byte	0x8da
 1428 08f9 11       		.uleb128 0x11
 1429 08fa 0C010000 		.4byte	0x10c
 1430 08fe 0D090000 		.4byte	0x90d
 1431 0902 12       		.uleb128 0x12
 1432 0903 9D020000 		.4byte	0x29d
 1433 0907 12       		.uleb128 0x12
 1434 0908 2D010000 		.4byte	0x12d
 1435 090c 00       		.byte	0
 1436 090d 09       		.uleb128 0x9
 1437 090e 04       		.byte	0x4
 1438 090f F9080000 		.4byte	0x8f9
 1439 0913 11       		.uleb128 0x11
 1440 0914 2C000000 		.4byte	0x2c
 1441 0918 31090000 		.4byte	0x931
 1442 091c 12       		.uleb128 0x12
 1443 091d 9D020000 		.4byte	0x29d
 1444 0921 12       		.uleb128 0x12
 1445 0922 32050000 		.4byte	0x532
 1446 0926 12       		.uleb128 0x12
 1447 0927 2C000000 		.4byte	0x2c
 1448 092b 12       		.uleb128 0x12
 1449 092c 2D010000 		.4byte	0x12d
 1450 0930 00       		.byte	0
 1451 0931 09       		.uleb128 0x9
 1452 0932 04       		.byte	0x4
 1453 0933 13090000 		.4byte	0x913
 1454 0937 11       		.uleb128 0x11
 1455 0938 2C000000 		.4byte	0x2c
 1456 093c 55090000 		.4byte	0x955
 1457 0940 12       		.uleb128 0x12
 1458 0941 9D020000 		.4byte	0x29d
 1459 0945 12       		.uleb128 0x12
 1460 0946 FD040000 		.4byte	0x4fd
 1461 094a 12       		.uleb128 0x12
 1462 094b 2C000000 		.4byte	0x2c
 1463 094f 12       		.uleb128 0x12
 1464 0950 2D010000 		.4byte	0x12d
 1465 0954 00       		.byte	0
 1466 0955 09       		.uleb128 0x9
 1467 0956 04       		.byte	0x4
 1468 0957 37090000 		.4byte	0x937
 1469 095b 08       		.uleb128 0x8
 1470 095c 04       		.byte	0x4
 1471 095d 0E       		.byte	0xe
 1472 095e 96       		.byte	0x96
 1473 095f 7C090000 		.4byte	0x97c
 1474 0963 07       		.uleb128 0x7
 1475 0964 73657400 		.ascii	"set\000"
 1476 0968 0E       		.byte	0xe
 1477 0969 97       		.byte	0x97
 1478 096a AD000000 		.4byte	0xad
 1479 096e 00       		.byte	0
 1480 096f 06       		.uleb128 0x6
ARM GAS  /var/folders/4k/6h5l9jl178sb4hslwv3xp1mr0000gn/T//ccC784Nx.s 			page 27


 1481 0970 D8030000 		.4byte	.LASF116
 1482 0974 0E       		.byte	0xe
 1483 0975 98       		.byte	0x98
 1484 0976 AD000000 		.4byte	0xad
 1485 097a 02       		.byte	0x2
 1486 097b 00       		.byte	0
 1487 097c 0E       		.uleb128 0xe
 1488 097d 04       		.byte	0x4
 1489 097e 0E       		.byte	0xe
 1490 097f 94       		.byte	0x94
 1491 0980 97090000 		.4byte	0x997
 1492 0984 19       		.uleb128 0x19
 1493 0985 5700     		.ascii	"W\000"
 1494 0987 0E       		.byte	0xe
 1495 0988 95       		.byte	0x95
 1496 0989 C3000000 		.4byte	0xc3
 1497 098d 19       		.uleb128 0x19
 1498 098e 4800     		.ascii	"H\000"
 1499 0990 0E       		.byte	0xe
 1500 0991 99       		.byte	0x99
 1501 0992 5B090000 		.4byte	0x95b
 1502 0996 00       		.byte	0
 1503 0997 08       		.uleb128 0x8
 1504 0998 28       		.byte	0x28
 1505 0999 0E       		.byte	0xe
 1506 099a 8C       		.byte	0x8c
 1507 099b 180A0000 		.4byte	0xa18
 1508 099f 06       		.uleb128 0x6
 1509 09a0 69050000 		.4byte	.LASF117
 1510 09a4 0E       		.byte	0xe
 1511 09a5 8E       		.byte	0x8e
 1512 09a6 3C030000 		.4byte	0x33c
 1513 09aa 00       		.byte	0
 1514 09ab 06       		.uleb128 0x6
 1515 09ac D8070000 		.4byte	.LASF118
 1516 09b0 0E       		.byte	0xe
 1517 09b1 8F       		.byte	0x8f
 1518 09b2 3C030000 		.4byte	0x33c
 1519 09b6 04       		.byte	0x4
 1520 09b7 06       		.uleb128 0x6
 1521 09b8 86040000 		.4byte	.LASF119
 1522 09bc 0E       		.byte	0xe
 1523 09bd 90       		.byte	0x90
 1524 09be 3C030000 		.4byte	0x33c
 1525 09c2 08       		.byte	0x8
 1526 09c3 06       		.uleb128 0x6
 1527 09c4 26010000 		.4byte	.LASF120
 1528 09c8 0E       		.byte	0xe
 1529 09c9 91       		.byte	0x91
 1530 09ca 3C030000 		.4byte	0x33c
 1531 09ce 0C       		.byte	0xc
 1532 09cf 07       		.uleb128 0x7
 1533 09d0 49445200 		.ascii	"IDR\000"
 1534 09d4 0E       		.byte	0xe
 1535 09d5 92       		.byte	0x92
 1536 09d6 3C030000 		.4byte	0x33c
 1537 09da 10       		.byte	0x10
ARM GAS  /var/folders/4k/6h5l9jl178sb4hslwv3xp1mr0000gn/T//ccC784Nx.s 			page 28


 1538 09db 07       		.uleb128 0x7
 1539 09dc 4F445200 		.ascii	"ODR\000"
 1540 09e0 0E       		.byte	0xe
 1541 09e1 93       		.byte	0x93
 1542 09e2 3C030000 		.4byte	0x33c
 1543 09e6 14       		.byte	0x14
 1544 09e7 06       		.uleb128 0x6
 1545 09e8 64080000 		.4byte	.LASF121
 1546 09ec 0E       		.byte	0xe
 1547 09ed 9A       		.byte	0x9a
 1548 09ee 180A0000 		.4byte	0xa18
 1549 09f2 18       		.byte	0x18
 1550 09f3 06       		.uleb128 0x6
 1551 09f4 57040000 		.4byte	.LASF122
 1552 09f8 0E       		.byte	0xe
 1553 09f9 9B       		.byte	0x9b
 1554 09fa 3C030000 		.4byte	0x33c
 1555 09fe 1C       		.byte	0x1c
 1556 09ff 06       		.uleb128 0x6
 1557 0a00 98070000 		.4byte	.LASF123
 1558 0a04 0E       		.byte	0xe
 1559 0a05 9C       		.byte	0x9c
 1560 0a06 3C030000 		.4byte	0x33c
 1561 0a0a 20       		.byte	0x20
 1562 0a0b 06       		.uleb128 0x6
 1563 0a0c 93070000 		.4byte	.LASF124
 1564 0a10 0E       		.byte	0xe
 1565 0a11 9D       		.byte	0x9d
 1566 0a12 3C030000 		.4byte	0x33c
 1567 0a16 24       		.byte	0x24
 1568 0a17 00       		.byte	0
 1569 0a18 0D       		.uleb128 0xd
 1570 0a19 7C090000 		.4byte	0x97c
 1571 0a1d 03       		.uleb128 0x3
 1572 0a1e 76080000 		.4byte	.LASF125
 1573 0a22 0E       		.byte	0xe
 1574 0a23 9E       		.byte	0x9e
 1575 0a24 97090000 		.4byte	0x997
 1576 0a28 03       		.uleb128 0x3
 1577 0a29 93030000 		.4byte	.LASF126
 1578 0a2d 0E       		.byte	0xe
 1579 0a2e F0       		.byte	0xf0
 1580 0a2f C3000000 		.4byte	0xc3
 1581 0a33 03       		.uleb128 0x3
 1582 0a34 D0000000 		.4byte	.LASF127
 1583 0a38 0E       		.byte	0xe
 1584 0a39 F5       		.byte	0xf5
 1585 0a3a C3000000 		.4byte	0xc3
 1586 0a3e 03       		.uleb128 0x3
 1587 0a3f 87010000 		.4byte	.LASF128
 1588 0a43 0E       		.byte	0xe
 1589 0a44 FD       		.byte	0xfd
 1590 0a45 490A0000 		.4byte	0xa49
 1591 0a49 09       		.uleb128 0x9
 1592 0a4a 04       		.byte	0x4
 1593 0a4b 1D0A0000 		.4byte	0xa1d
 1594 0a4f 1A       		.uleb128 0x1a
ARM GAS  /var/folders/4k/6h5l9jl178sb4hslwv3xp1mr0000gn/T//ccC784Nx.s 			page 29


 1595 0a50 01       		.byte	0x1
 1596 0a51 0F       		.byte	0xf
 1597 0a52 3D       		.byte	0x3d
 1598 0a53 7C0A0000 		.4byte	0xa7c
 1599 0a57 1B       		.uleb128 0x1b
 1600 0a58 FA030000 		.4byte	.LASF129
 1601 0a5c 00       		.sleb128 0
 1602 0a5d 1B       		.uleb128 0x1b
 1603 0a5e 06020000 		.4byte	.LASF130
 1604 0a62 01       		.sleb128 1
 1605 0a63 1B       		.uleb128 0x1b
 1606 0a64 5C040000 		.4byte	.LASF131
 1607 0a68 02       		.sleb128 2
 1608 0a69 1B       		.uleb128 0x1b
 1609 0a6a 11080000 		.4byte	.LASF132
 1610 0a6e 03       		.sleb128 3
 1611 0a6f 1B       		.uleb128 0x1b
 1612 0a70 BE010000 		.4byte	.LASF133
 1613 0a74 04       		.sleb128 4
 1614 0a75 1B       		.uleb128 0x1b
 1615 0a76 85070000 		.4byte	.LASF134
 1616 0a7a 05       		.sleb128 5
 1617 0a7b 00       		.byte	0
 1618 0a7c 03       		.uleb128 0x3
 1619 0a7d F1070000 		.4byte	.LASF135
 1620 0a81 0F       		.byte	0xf
 1621 0a82 44       		.byte	0x44
 1622 0a83 4F0A0000 		.4byte	0xa4f
 1623 0a87 03       		.uleb128 0x3
 1624 0a88 EA080000 		.4byte	.LASF136
 1625 0a8c 10       		.byte	0x10
 1626 0a8d A3       		.byte	0xa3
 1627 0a8e 920A0000 		.4byte	0xa92
 1628 0a92 05       		.uleb128 0x5
 1629 0a93 EA080000 		.4byte	.LASF136
 1630 0a97 18       		.byte	0x18
 1631 0a98 10       		.byte	0x10
 1632 0a99 C4       		.byte	0xc4
 1633 0a9a E70A0000 		.4byte	0xae7
 1634 0a9e 06       		.uleb128 0x6
 1635 0a9f 89000000 		.4byte	.LASF137
 1636 0aa3 10       		.byte	0x10
 1637 0aa4 C8       		.byte	0xc8
 1638 0aa5 7C0A0000 		.4byte	0xa7c
 1639 0aa9 00       		.byte	0
 1640 0aaa 06       		.uleb128 0x6
 1641 0aab 82000000 		.4byte	.LASF138
 1642 0aaf 10       		.byte	0x10
 1643 0ab0 CC       		.byte	0xcc
 1644 0ab1 400B0000 		.4byte	0xb40
 1645 0ab5 04       		.byte	0x4
 1646 0ab6 06       		.uleb128 0x6
 1647 0ab7 26080000 		.4byte	.LASF139
 1648 0abb 10       		.byte	0x10
 1649 0abc D1       		.byte	0xd1
 1650 0abd 61020000 		.4byte	0x261
 1651 0ac1 08       		.byte	0x8
ARM GAS  /var/folders/4k/6h5l9jl178sb4hslwv3xp1mr0000gn/T//ccC784Nx.s 			page 30


 1652 0ac2 06       		.uleb128 0x6
 1653 0ac3 73010000 		.4byte	.LASF140
 1654 0ac7 10       		.byte	0x10
 1655 0ac8 DB       		.byte	0xdb
 1656 0ac9 4B0B0000 		.4byte	0xb4b
 1657 0acd 0C       		.byte	0xc
 1658 0ace 06       		.uleb128 0x6
 1659 0acf 8E040000 		.4byte	.LASF141
 1660 0ad3 10       		.byte	0x10
 1661 0ad4 DF       		.byte	0xdf
 1662 0ad5 510B0000 		.4byte	0xb51
 1663 0ad9 10       		.byte	0x10
 1664 0ada 06       		.uleb128 0x6
 1665 0adb 3A050000 		.4byte	.LASF142
 1666 0adf 10       		.byte	0x10
 1667 0ae0 E3       		.byte	0xe3
 1668 0ae1 C3000000 		.4byte	0xc3
 1669 0ae5 14       		.byte	0x14
 1670 0ae6 00       		.byte	0
 1671 0ae7 03       		.uleb128 0x3
 1672 0ae8 93050000 		.4byte	.LASF143
 1673 0aec 10       		.byte	0x10
 1674 0aed AB       		.byte	0xab
 1675 0aee F20A0000 		.4byte	0xaf2
 1676 0af2 09       		.uleb128 0x9
 1677 0af3 04       		.byte	0x4
 1678 0af4 F80A0000 		.4byte	0xaf8
 1679 0af8 13       		.uleb128 0x13
 1680 0af9 030B0000 		.4byte	0xb03
 1681 0afd 12       		.uleb128 0x12
 1682 0afe 030B0000 		.4byte	0xb03
 1683 0b02 00       		.byte	0
 1684 0b03 09       		.uleb128 0x9
 1685 0b04 04       		.byte	0x4
 1686 0b05 870A0000 		.4byte	0xa87
 1687 0b09 08       		.uleb128 0x8
 1688 0b0a 0C       		.byte	0xc
 1689 0b0b 10       		.byte	0x10
 1690 0b0c B0       		.byte	0xb0
 1691 0b0d 350B0000 		.4byte	0xb35
 1692 0b11 06       		.uleb128 0x6
 1693 0b12 38000000 		.4byte	.LASF144
 1694 0b16 10       		.byte	0x10
 1695 0b17 B4       		.byte	0xb4
 1696 0b18 E70A0000 		.4byte	0xae7
 1697 0b1c 00       		.byte	0
 1698 0b1d 06       		.uleb128 0x6
 1699 0b1e DA040000 		.4byte	.LASF145
 1700 0b22 10       		.byte	0x10
 1701 0b23 B8       		.byte	0xb8
 1702 0b24 E70A0000 		.4byte	0xae7
 1703 0b28 04       		.byte	0x4
 1704 0b29 07       		.uleb128 0x7
 1705 0b2a 637200   		.ascii	"cr\000"
 1706 0b2d 10       		.byte	0x10
 1707 0b2e BE       		.byte	0xbe
 1708 0b2f C3000000 		.4byte	0xc3
ARM GAS  /var/folders/4k/6h5l9jl178sb4hslwv3xp1mr0000gn/T//ccC784Nx.s 			page 31


 1709 0b33 08       		.byte	0x8
 1710 0b34 00       		.byte	0
 1711 0b35 03       		.uleb128 0x3
 1712 0b36 D7010000 		.4byte	.LASF146
 1713 0b3a 10       		.byte	0x10
 1714 0b3b BF       		.byte	0xbf
 1715 0b3c 090B0000 		.4byte	0xb09
 1716 0b40 09       		.uleb128 0x9
 1717 0b41 04       		.byte	0x4
 1718 0b42 460B0000 		.4byte	0xb46
 1719 0b46 10       		.uleb128 0x10
 1720 0b47 350B0000 		.4byte	0xb35
 1721 0b4b 09       		.uleb128 0x9
 1722 0b4c 04       		.byte	0x4
 1723 0b4d 2C060000 		.4byte	0x62c
 1724 0b51 09       		.uleb128 0x9
 1725 0b52 04       		.byte	0x4
 1726 0b53 570B0000 		.4byte	0xb57
 1727 0b57 10       		.uleb128 0x10
 1728 0b58 CF080000 		.4byte	0x8cf
 1729 0b5c 1A       		.uleb128 0x1a
 1730 0b5d 01       		.byte	0x1
 1731 0b5e 11       		.byte	0x11
 1732 0b5f 5A       		.byte	0x5a
 1733 0b60 890B0000 		.4byte	0xb89
 1734 0b64 1B       		.uleb128 0x1b
 1735 0b65 C7040000 		.4byte	.LASF147
 1736 0b69 00       		.sleb128 0
 1737 0b6a 1B       		.uleb128 0x1b
 1738 0b6b 56090000 		.4byte	.LASF148
 1739 0b6f 01       		.sleb128 1
 1740 0b70 1B       		.uleb128 0x1b
 1741 0b71 E6050000 		.4byte	.LASF149
 1742 0b75 02       		.sleb128 2
 1743 0b76 1B       		.uleb128 0x1b
 1744 0b77 7E030000 		.4byte	.LASF150
 1745 0b7b 03       		.sleb128 3
 1746 0b7c 1B       		.uleb128 0x1b
 1747 0b7d A3020000 		.4byte	.LASF151
 1748 0b81 04       		.sleb128 4
 1749 0b82 1B       		.uleb128 0x1b
 1750 0b83 C2030000 		.4byte	.LASF152
 1751 0b87 05       		.sleb128 5
 1752 0b88 00       		.byte	0
 1753 0b89 03       		.uleb128 0x3
 1754 0b8a 12050000 		.4byte	.LASF153
 1755 0b8e 11       		.byte	0x11
 1756 0b8f 61       		.byte	0x61
 1757 0b90 5C0B0000 		.4byte	0xb5c
 1758 0b94 18       		.uleb128 0x18
 1759 0b95 0F010000 		.4byte	.LASF154
 1760 0b99 12       		.byte	0x12
 1761 0b9a 3501     		.2byte	0x135
 1762 0b9c AD000000 		.4byte	0xad
 1763 0ba0 18       		.uleb128 0x18
 1764 0ba1 DF080000 		.4byte	.LASF155
 1765 0ba5 12       		.byte	0x12
ARM GAS  /var/folders/4k/6h5l9jl178sb4hslwv3xp1mr0000gn/T//ccC784Nx.s 			page 32


 1766 0ba6 3A01     		.2byte	0x13a
 1767 0ba8 C3000000 		.4byte	0xc3
 1768 0bac 1C       		.uleb128 0x1c
 1769 0bad 01       		.byte	0x1
 1770 0bae 12       		.byte	0x12
 1771 0baf 3F01     		.2byte	0x13f
 1772 0bb1 C80B0000 		.4byte	0xbc8
 1773 0bb5 1B       		.uleb128 0x1b
 1774 0bb6 DD020000 		.4byte	.LASF156
 1775 0bba 01       		.sleb128 1
 1776 0bbb 1B       		.uleb128 0x1b
 1777 0bbc 62070000 		.4byte	.LASF157
 1778 0bc0 02       		.sleb128 2
 1779 0bc1 1B       		.uleb128 0x1b
 1780 0bc2 52080000 		.4byte	.LASF158
 1781 0bc6 03       		.sleb128 3
 1782 0bc7 00       		.byte	0
 1783 0bc8 18       		.uleb128 0x18
 1784 0bc9 47070000 		.4byte	.LASF159
 1785 0bcd 12       		.byte	0x12
 1786 0bce 4301     		.2byte	0x143
 1787 0bd0 AC0B0000 		.4byte	0xbac
 1788 0bd4 1C       		.uleb128 0x1c
 1789 0bd5 01       		.byte	0x1
 1790 0bd6 12       		.byte	0x12
 1791 0bd7 4801     		.2byte	0x148
 1792 0bd9 F00B0000 		.4byte	0xbf0
 1793 0bdd 1B       		.uleb128 0x1b
 1794 0bde B0070000 		.4byte	.LASF160
 1795 0be2 01       		.sleb128 1
 1796 0be3 1B       		.uleb128 0x1b
 1797 0be4 61000000 		.4byte	.LASF161
 1798 0be8 02       		.sleb128 2
 1799 0be9 1B       		.uleb128 0x1b
 1800 0bea F5060000 		.4byte	.LASF162
 1801 0bee 03       		.sleb128 3
 1802 0bef 00       		.byte	0
 1803 0bf0 18       		.uleb128 0x18
 1804 0bf1 2C010000 		.4byte	.LASF163
 1805 0bf5 12       		.byte	0x12
 1806 0bf6 4C01     		.2byte	0x14c
 1807 0bf8 D40B0000 		.4byte	0xbd4
 1808 0bfc 16       		.uleb128 0x16
 1809 0bfd 0C       		.byte	0xc
 1810 0bfe 12       		.byte	0x12
 1811 0bff 5101     		.2byte	0x151
 1812 0c01 2D0C0000 		.4byte	0xc2d
 1813 0c05 17       		.uleb128 0x17
 1814 0c06 B1080000 		.4byte	.LASF164
 1815 0c0a 12       		.byte	0x12
 1816 0c0b 5201     		.2byte	0x152
 1817 0c0d C80B0000 		.4byte	0xbc8
 1818 0c11 00       		.byte	0
 1819 0c12 17       		.uleb128 0x17
 1820 0c13 16090000 		.4byte	.LASF165
 1821 0c17 12       		.byte	0x12
 1822 0c18 5301     		.2byte	0x153
ARM GAS  /var/folders/4k/6h5l9jl178sb4hslwv3xp1mr0000gn/T//ccC784Nx.s 			page 33


 1823 0c1a C3000000 		.4byte	0xc3
 1824 0c1e 04       		.byte	0x4
 1825 0c1f 17       		.uleb128 0x17
 1826 0c20 CD030000 		.4byte	.LASF166
 1827 0c24 12       		.byte	0x12
 1828 0c25 5601     		.2byte	0x156
 1829 0c27 F00B0000 		.4byte	0xbf0
 1830 0c2b 08       		.byte	0x8
 1831 0c2c 00       		.byte	0
 1832 0c2d 18       		.uleb128 0x18
 1833 0c2e 15070000 		.4byte	.LASF167
 1834 0c32 12       		.byte	0x12
 1835 0c33 5801     		.2byte	0x158
 1836 0c35 FC0B0000 		.4byte	0xbfc
 1837 0c39 18       		.uleb128 0x18
 1838 0c3a DE030000 		.4byte	.LASF168
 1839 0c3e 12       		.byte	0x12
 1840 0c3f 5D01     		.2byte	0x15d
 1841 0c41 450C0000 		.4byte	0xc45
 1842 0c45 0B       		.uleb128 0xb
 1843 0c46 DE030000 		.4byte	.LASF168
 1844 0c4a 38       		.byte	0x38
 1845 0c4b 12       		.byte	0x12
 1846 0c4c 6201     		.2byte	0x162
 1847 0c4e E20C0000 		.4byte	0xce2
 1848 0c52 17       		.uleb128 0x17
 1849 0c53 89000000 		.4byte	.LASF137
 1850 0c57 12       		.byte	0x12
 1851 0c58 6601     		.2byte	0x166
 1852 0c5a 890B0000 		.4byte	0xb89
 1853 0c5e 00       		.byte	0
 1854 0c5f 17       		.uleb128 0x17
 1855 0c60 82000000 		.4byte	.LASF138
 1856 0c64 12       		.byte	0x12
 1857 0c65 6A01     		.2byte	0x16a
 1858 0c67 E20C0000 		.4byte	0xce2
 1859 0c6b 04       		.byte	0x4
 1860 0c6c 17       		.uleb128 0x17
 1861 0c6d 58030000 		.4byte	.LASF169
 1862 0c71 12       		.byte	0x12
 1863 0c72 6E01     		.2byte	0x16e
 1864 0c74 A00B0000 		.4byte	0xba0
 1865 0c78 08       		.byte	0x8
 1866 0c79 17       		.uleb128 0x17
 1867 0c7a 1D050000 		.4byte	.LASF170
 1868 0c7e 12       		.byte	0x12
 1869 0c7f 7401     		.2byte	0x174
 1870 0c81 84030000 		.4byte	0x384
 1871 0c85 0C       		.byte	0xc
 1872 0c86 17       		.uleb128 0x17
 1873 0c87 26080000 		.4byte	.LASF139
 1874 0c8b 12       		.byte	0x12
 1875 0c8c 8001     		.2byte	0x180
 1876 0c8e 61020000 		.4byte	0x261
 1877 0c92 1C       		.byte	0x1c
 1878 0c93 17       		.uleb128 0x17
 1879 0c94 5E050000 		.4byte	.LASF171
ARM GAS  /var/folders/4k/6h5l9jl178sb4hslwv3xp1mr0000gn/T//ccC784Nx.s 			page 34


 1880 0c98 12       		.byte	0x12
 1881 0c99 8401     		.2byte	0x184
 1882 0c9b 940B0000 		.4byte	0xb94
 1883 0c9f 20       		.byte	0x20
 1884 0ca0 17       		.uleb128 0x17
 1885 0ca1 3A050000 		.4byte	.LASF142
 1886 0ca5 12       		.byte	0x12
 1887 0ca6 8801     		.2byte	0x188
 1888 0ca8 C3000000 		.4byte	0xc3
 1889 0cac 24       		.byte	0x24
 1890 0cad 17       		.uleb128 0x17
 1891 0cae 6D090000 		.4byte	.LASF172
 1892 0cb2 12       		.byte	0x12
 1893 0cb3 8C01     		.2byte	0x18c
 1894 0cb5 C3000000 		.4byte	0xc3
 1895 0cb9 28       		.byte	0x28
 1896 0cba 17       		.uleb128 0x17
 1897 0cbb 8E040000 		.4byte	.LASF141
 1898 0cbf 12       		.byte	0x12
 1899 0cc0 9001     		.2byte	0x190
 1900 0cc2 510B0000 		.4byte	0xb51
 1901 0cc6 2C       		.byte	0x2c
 1902 0cc7 17       		.uleb128 0x17
 1903 0cc8 63050000 		.4byte	.LASF173
 1904 0ccc 12       		.byte	0x12
 1905 0ccd 9401     		.2byte	0x194
 1906 0ccf 510B0000 		.4byte	0xb51
 1907 0cd3 30       		.byte	0x30
 1908 0cd4 0C       		.uleb128 0xc
 1909 0cd5 69326300 		.ascii	"i2c\000"
 1910 0cd9 12       		.byte	0x12
 1911 0cda 9801     		.2byte	0x198
 1912 0cdc ED0C0000 		.4byte	0xced
 1913 0ce0 34       		.byte	0x34
 1914 0ce1 00       		.byte	0
 1915 0ce2 09       		.uleb128 0x9
 1916 0ce3 04       		.byte	0x4
 1917 0ce4 E80C0000 		.4byte	0xce8
 1918 0ce8 10       		.uleb128 0x10
 1919 0ce9 2D0C0000 		.4byte	0xc2d
 1920 0ced 09       		.uleb128 0x9
 1921 0cee 04       		.byte	0x4
 1922 0cef A8070000 		.4byte	0x7a8
 1923 0cf3 1A       		.uleb128 0x1a
 1924 0cf4 01       		.byte	0x1
 1925 0cf5 13       		.byte	0x13
 1926 0cf6 55       		.byte	0x55
 1927 0cf7 0E0D0000 		.4byte	0xd0e
 1928 0cfb 1B       		.uleb128 0x1b
 1929 0cfc BC000000 		.4byte	.LASF174
 1930 0d00 00       		.sleb128 0
 1931 0d01 1B       		.uleb128 0x1b
 1932 0d02 36070000 		.4byte	.LASF175
 1933 0d06 01       		.sleb128 1
 1934 0d07 1B       		.uleb128 0x1b
 1935 0d08 32080000 		.4byte	.LASF176
 1936 0d0c 02       		.sleb128 2
ARM GAS  /var/folders/4k/6h5l9jl178sb4hslwv3xp1mr0000gn/T//ccC784Nx.s 			page 35


 1937 0d0d 00       		.byte	0
 1938 0d0e 03       		.uleb128 0x3
 1939 0d0f B9080000 		.4byte	.LASF177
 1940 0d13 13       		.byte	0x13
 1941 0d14 59       		.byte	0x59
 1942 0d15 F30C0000 		.4byte	0xcf3
 1943 0d19 03       		.uleb128 0x3
 1944 0d1a DC050000 		.4byte	.LASF178
 1945 0d1e 13       		.byte	0x13
 1946 0d1f 5E       		.byte	0x5e
 1947 0d20 240D0000 		.4byte	0xd24
 1948 0d24 0B       		.uleb128 0xb
 1949 0d25 DC050000 		.4byte	.LASF178
 1950 0d29 14       		.byte	0x14
 1951 0d2a 14       		.byte	0x14
 1952 0d2b 6F01     		.2byte	0x16f
 1953 0d2d 730D0000 		.4byte	0xd73
 1954 0d31 17       		.uleb128 0x17
 1955 0d32 89000000 		.4byte	.LASF137
 1956 0d36 14       		.byte	0x14
 1957 0d37 7301     		.2byte	0x173
 1958 0d39 0E0D0000 		.4byte	0xd0e
 1959 0d3d 00       		.byte	0
 1960 0d3e 17       		.uleb128 0x17
 1961 0d3f 82000000 		.4byte	.LASF138
 1962 0d43 14       		.byte	0x14
 1963 0d44 7701     		.2byte	0x177
 1964 0d46 7B0F0000 		.4byte	0xf7b
 1965 0d4a 04       		.byte	0x4
 1966 0d4b 17       		.uleb128 0x17
 1967 0d4c C4070000 		.4byte	.LASF179
 1968 0d50 14       		.byte	0x14
 1969 0d51 7B01     		.2byte	0x17b
 1970 0d53 CB0E0000 		.4byte	0xecb
 1971 0d57 08       		.byte	0x8
 1972 0d58 17       		.uleb128 0x17
 1973 0d59 7B040000 		.4byte	.LASF180
 1974 0d5d 14       		.byte	0x14
 1975 0d5e 8301     		.2byte	0x183
 1976 0d60 C3000000 		.4byte	0xc3
 1977 0d64 0C       		.byte	0xc
 1978 0d65 0C       		.uleb128 0xc
 1979 0d66 74696D00 		.ascii	"tim\000"
 1980 0d6a 14       		.byte	0x14
 1981 0d6b 8701     		.2byte	0x187
 1982 0d6d 860F0000 		.4byte	0xf86
 1983 0d71 10       		.byte	0x10
 1984 0d72 00       		.byte	0
 1985 0d73 03       		.uleb128 0x3
 1986 0d74 BA050000 		.4byte	.LASF181
 1987 0d78 13       		.byte	0x13
 1988 0d79 65       		.byte	0x65
 1989 0d7a 7E0D0000 		.4byte	0xd7e
 1990 0d7e 09       		.uleb128 0x9
 1991 0d7f 04       		.byte	0x4
 1992 0d80 840D0000 		.4byte	0xd84
 1993 0d84 13       		.uleb128 0x13
ARM GAS  /var/folders/4k/6h5l9jl178sb4hslwv3xp1mr0000gn/T//ccC784Nx.s 			page 36


 1994 0d85 8F0D0000 		.4byte	0xd8f
 1995 0d89 12       		.uleb128 0x12
 1996 0d8a 8F0D0000 		.4byte	0xd8f
 1997 0d8e 00       		.byte	0
 1998 0d8f 09       		.uleb128 0x9
 1999 0d90 04       		.byte	0x4
 2000 0d91 190D0000 		.4byte	0xd19
 2001 0d95 16       		.uleb128 0x16
 2002 0d96 60       		.byte	0x60
 2003 0d97 15       		.byte	0x15
 2004 0d98 9E01     		.2byte	0x19e
 2005 0d9a AE0E0000 		.4byte	0xeae
 2006 0d9e 0C       		.uleb128 0xc
 2007 0d9f 43523100 		.ascii	"CR1\000"
 2008 0da3 15       		.byte	0x15
 2009 0da4 9F01     		.2byte	0x19f
 2010 0da6 3C030000 		.4byte	0x33c
 2011 0daa 00       		.byte	0
 2012 0dab 0C       		.uleb128 0xc
 2013 0dac 43523200 		.ascii	"CR2\000"
 2014 0db0 15       		.byte	0x15
 2015 0db1 A001     		.2byte	0x1a0
 2016 0db3 3C030000 		.4byte	0x33c
 2017 0db7 04       		.byte	0x4
 2018 0db8 17       		.uleb128 0x17
 2019 0db9 BF070000 		.4byte	.LASF182
 2020 0dbd 15       		.byte	0x15
 2021 0dbe A101     		.2byte	0x1a1
 2022 0dc0 3C030000 		.4byte	0x33c
 2023 0dc4 08       		.byte	0x8
 2024 0dc5 17       		.uleb128 0x17
 2025 0dc6 24040000 		.4byte	.LASF183
 2026 0dca 15       		.byte	0x15
 2027 0dcb A201     		.2byte	0x1a2
 2028 0dcd 3C030000 		.4byte	0x33c
 2029 0dd1 0C       		.byte	0xc
 2030 0dd2 0C       		.uleb128 0xc
 2031 0dd3 535200   		.ascii	"SR\000"
 2032 0dd6 15       		.byte	0x15
 2033 0dd7 A301     		.2byte	0x1a3
 2034 0dd9 3C030000 		.4byte	0x33c
 2035 0ddd 10       		.byte	0x10
 2036 0dde 0C       		.uleb128 0xc
 2037 0ddf 45475200 		.ascii	"EGR\000"
 2038 0de3 15       		.byte	0x15
 2039 0de4 A401     		.2byte	0x1a4
 2040 0de6 3C030000 		.4byte	0x33c
 2041 0dea 14       		.byte	0x14
 2042 0deb 17       		.uleb128 0x17
 2043 0dec CB020000 		.4byte	.LASF184
 2044 0df0 15       		.byte	0x15
 2045 0df1 A501     		.2byte	0x1a5
 2046 0df3 3C030000 		.4byte	0x33c
 2047 0df7 18       		.byte	0x18
 2048 0df8 17       		.uleb128 0x17
 2049 0df9 D1020000 		.4byte	.LASF185
 2050 0dfd 15       		.byte	0x15
ARM GAS  /var/folders/4k/6h5l9jl178sb4hslwv3xp1mr0000gn/T//ccC784Nx.s 			page 37


 2051 0dfe A601     		.2byte	0x1a6
 2052 0e00 3C030000 		.4byte	0x33c
 2053 0e04 1C       		.byte	0x1c
 2054 0e05 17       		.uleb128 0x17
 2055 0e06 76070000 		.4byte	.LASF186
 2056 0e0a 15       		.byte	0x15
 2057 0e0b A701     		.2byte	0x1a7
 2058 0e0d 3C030000 		.4byte	0x33c
 2059 0e11 20       		.byte	0x20
 2060 0e12 0C       		.uleb128 0xc
 2061 0e13 434E5400 		.ascii	"CNT\000"
 2062 0e17 15       		.byte	0x15
 2063 0e18 A801     		.2byte	0x1a8
 2064 0e1a 3C030000 		.4byte	0x33c
 2065 0e1e 24       		.byte	0x24
 2066 0e1f 0C       		.uleb128 0xc
 2067 0e20 50534300 		.ascii	"PSC\000"
 2068 0e24 15       		.byte	0x15
 2069 0e25 A901     		.2byte	0x1a9
 2070 0e27 3C030000 		.4byte	0x33c
 2071 0e2b 28       		.byte	0x28
 2072 0e2c 0C       		.uleb128 0xc
 2073 0e2d 41525200 		.ascii	"ARR\000"
 2074 0e31 15       		.byte	0x15
 2075 0e32 AA01     		.2byte	0x1aa
 2076 0e34 3C030000 		.4byte	0x33c
 2077 0e38 2C       		.byte	0x2c
 2078 0e39 0C       		.uleb128 0xc
 2079 0e3a 52435200 		.ascii	"RCR\000"
 2080 0e3e 15       		.byte	0x15
 2081 0e3f AB01     		.2byte	0x1ab
 2082 0e41 3C030000 		.4byte	0x33c
 2083 0e45 30       		.byte	0x30
 2084 0e46 0C       		.uleb128 0xc
 2085 0e47 43435200 		.ascii	"CCR\000"
 2086 0e4b 15       		.byte	0x15
 2087 0e4c AC01     		.2byte	0x1ac
 2088 0e4e AE0E0000 		.4byte	0xeae
 2089 0e52 34       		.byte	0x34
 2090 0e53 17       		.uleb128 0x17
 2091 0e54 C4080000 		.4byte	.LASF187
 2092 0e58 15       		.byte	0x15
 2093 0e59 AD01     		.2byte	0x1ad
 2094 0e5b 3C030000 		.4byte	0x33c
 2095 0e5f 44       		.byte	0x44
 2096 0e60 0C       		.uleb128 0xc
 2097 0e61 44435200 		.ascii	"DCR\000"
 2098 0e65 15       		.byte	0x15
 2099 0e66 AE01     		.2byte	0x1ae
 2100 0e68 3C030000 		.4byte	0x33c
 2101 0e6c 48       		.byte	0x48
 2102 0e6d 17       		.uleb128 0x17
 2103 0e6e B2000000 		.4byte	.LASF188
 2104 0e72 15       		.byte	0x15
 2105 0e73 AF01     		.2byte	0x1af
 2106 0e75 3C030000 		.4byte	0x33c
 2107 0e79 4C       		.byte	0x4c
ARM GAS  /var/folders/4k/6h5l9jl178sb4hslwv3xp1mr0000gn/T//ccC784Nx.s 			page 38


 2108 0e7a 0C       		.uleb128 0xc
 2109 0e7b 4F5200   		.ascii	"OR\000"
 2110 0e7e 15       		.byte	0x15
 2111 0e7f B001     		.2byte	0x1b0
 2112 0e81 3C030000 		.4byte	0x33c
 2113 0e85 50       		.byte	0x50
 2114 0e86 17       		.uleb128 0x17
 2115 0e87 D7020000 		.4byte	.LASF189
 2116 0e8b 15       		.byte	0x15
 2117 0e8c B101     		.2byte	0x1b1
 2118 0e8e 3C030000 		.4byte	0x33c
 2119 0e92 54       		.byte	0x54
 2120 0e93 17       		.uleb128 0x17
 2121 0e94 00010000 		.4byte	.LASF190
 2122 0e98 15       		.byte	0x15
 2123 0e99 B201     		.2byte	0x1b2
 2124 0e9b 3C030000 		.4byte	0x33c
 2125 0e9f 58       		.byte	0x58
 2126 0ea0 17       		.uleb128 0x17
 2127 0ea1 F0060000 		.4byte	.LASF191
 2128 0ea5 15       		.byte	0x15
 2129 0ea6 B301     		.2byte	0x1b3
 2130 0ea8 3C030000 		.4byte	0x33c
 2131 0eac 5C       		.byte	0x5c
 2132 0ead 00       		.byte	0
 2133 0eae 0D       		.uleb128 0xd
 2134 0eaf 7C050000 		.4byte	0x57c
 2135 0eb3 18       		.uleb128 0x18
 2136 0eb4 6F040000 		.4byte	.LASF192
 2137 0eb8 15       		.byte	0x15
 2138 0eb9 B401     		.2byte	0x1b4
 2139 0ebb 950D0000 		.4byte	0xd95
 2140 0ebf 18       		.uleb128 0x18
 2141 0ec0 A0030000 		.4byte	.LASF193
 2142 0ec4 14       		.byte	0x14
 2143 0ec5 2001     		.2byte	0x120
 2144 0ec7 C3000000 		.4byte	0xc3
 2145 0ecb 18       		.uleb128 0x18
 2146 0ecc 2B020000 		.4byte	.LASF194
 2147 0ed0 14       		.byte	0x14
 2148 0ed1 2A01     		.2byte	0x12a
 2149 0ed3 AD000000 		.4byte	0xad
 2150 0ed7 16       		.uleb128 0x16
 2151 0ed8 08       		.byte	0x8
 2152 0ed9 14       		.byte	0x14
 2153 0eda 2F01     		.2byte	0x12f
 2154 0edc FB0E0000 		.4byte	0xefb
 2155 0ee0 17       		.uleb128 0x17
 2156 0ee1 46080000 		.4byte	.LASF195
 2157 0ee5 14       		.byte	0x14
 2158 0ee6 3301     		.2byte	0x133
 2159 0ee8 BF0E0000 		.4byte	0xebf
 2160 0eec 00       		.byte	0
 2161 0eed 17       		.uleb128 0x17
 2162 0eee C7000000 		.4byte	.LASF196
 2163 0ef2 14       		.byte	0x14
 2164 0ef3 3901     		.2byte	0x139
ARM GAS  /var/folders/4k/6h5l9jl178sb4hslwv3xp1mr0000gn/T//ccC784Nx.s 			page 39


 2165 0ef5 730D0000 		.4byte	0xd73
 2166 0ef9 04       		.byte	0x4
 2167 0efa 00       		.byte	0
 2168 0efb 18       		.uleb128 0x18
 2169 0efc 94000000 		.4byte	.LASF197
 2170 0f00 14       		.byte	0x14
 2171 0f01 3B01     		.2byte	0x13b
 2172 0f03 D70E0000 		.4byte	0xed7
 2173 0f07 16       		.uleb128 0x16
 2174 0f08 34       		.byte	0x34
 2175 0f09 14       		.byte	0x14
 2176 0f0a 4001     		.2byte	0x140
 2177 0f0c 5F0F0000 		.4byte	0xf5f
 2178 0f10 17       		.uleb128 0x17
 2179 0f11 30050000 		.4byte	.LASF198
 2180 0f15 14       		.byte	0x14
 2181 0f16 4601     		.2byte	0x146
 2182 0f18 C3000000 		.4byte	0xc3
 2183 0f1c 00       		.byte	0
 2184 0f1d 17       		.uleb128 0x17
 2185 0f1e C4070000 		.4byte	.LASF179
 2186 0f22 14       		.byte	0x14
 2187 0f23 4C01     		.2byte	0x14c
 2188 0f25 CB0E0000 		.4byte	0xecb
 2189 0f29 04       		.byte	0x4
 2190 0f2a 17       		.uleb128 0x17
 2191 0f2b C7000000 		.4byte	.LASF196
 2192 0f2f 14       		.byte	0x14
 2193 0f30 5201     		.2byte	0x152
 2194 0f32 730D0000 		.4byte	0xd73
 2195 0f36 08       		.byte	0x8
 2196 0f37 17       		.uleb128 0x17
 2197 0f38 AA050000 		.4byte	.LASF199
 2198 0f3c 14       		.byte	0x14
 2199 0f3d 5601     		.2byte	0x156
 2200 0f3f 5F0F0000 		.4byte	0xf5f
 2201 0f43 0C       		.byte	0xc
 2202 0f44 0C       		.uleb128 0xc
 2203 0f45 63723200 		.ascii	"cr2\000"
 2204 0f49 14       		.byte	0x14
 2205 0f4a 5C01     		.2byte	0x15c
 2206 0f4c C3000000 		.4byte	0xc3
 2207 0f50 2C       		.byte	0x2c
 2208 0f51 17       		.uleb128 0x17
 2209 0f52 B7000000 		.4byte	.LASF200
 2210 0f56 14       		.byte	0x14
 2211 0f57 6901     		.2byte	0x169
 2212 0f59 C3000000 		.4byte	0xc3
 2213 0f5d 30       		.byte	0x30
 2214 0f5e 00       		.byte	0
 2215 0f5f 14       		.uleb128 0x14
 2216 0f60 FB0E0000 		.4byte	0xefb
 2217 0f64 6F0F0000 		.4byte	0xf6f
 2218 0f68 15       		.uleb128 0x15
 2219 0f69 41030000 		.4byte	0x341
 2220 0f6d 03       		.byte	0x3
 2221 0f6e 00       		.byte	0
ARM GAS  /var/folders/4k/6h5l9jl178sb4hslwv3xp1mr0000gn/T//ccC784Nx.s 			page 40


 2222 0f6f 18       		.uleb128 0x18
 2223 0f70 83080000 		.4byte	.LASF201
 2224 0f74 14       		.byte	0x14
 2225 0f75 6A01     		.2byte	0x16a
 2226 0f77 070F0000 		.4byte	0xf07
 2227 0f7b 09       		.uleb128 0x9
 2228 0f7c 04       		.byte	0x4
 2229 0f7d 810F0000 		.4byte	0xf81
 2230 0f81 10       		.uleb128 0x10
 2231 0f82 6F0F0000 		.4byte	0xf6f
 2232 0f86 09       		.uleb128 0x9
 2233 0f87 04       		.byte	0x4
 2234 0f88 B30E0000 		.4byte	0xeb3
 2235 0f8c 1A       		.uleb128 0x1a
 2236 0f8d 01       		.byte	0x1
 2237 0f8e 16       		.byte	0x16
 2238 0f8f 64       		.byte	0x64
 2239 0f90 A70F0000 		.4byte	0xfa7
 2240 0f94 1B       		.uleb128 0x1b
 2241 0f95 99020000 		.4byte	.LASF202
 2242 0f99 00       		.sleb128 0
 2243 0f9a 1B       		.uleb128 0x1b
 2244 0f9b 37090000 		.4byte	.LASF203
 2245 0f9f 01       		.sleb128 1
 2246 0fa0 1B       		.uleb128 0x1b
 2247 0fa1 1D080000 		.4byte	.LASF204
 2248 0fa5 02       		.sleb128 2
 2249 0fa6 00       		.byte	0
 2250 0fa7 03       		.uleb128 0x3
 2251 0fa8 07080000 		.4byte	.LASF205
 2252 0fac 16       		.byte	0x16
 2253 0fad 68       		.byte	0x68
 2254 0fae 8C0F0000 		.4byte	0xf8c
 2255 0fb2 03       		.uleb128 0x3
 2256 0fb3 CB070000 		.4byte	.LASF206
 2257 0fb7 16       		.byte	0x16
 2258 0fb8 6D       		.byte	0x6d
 2259 0fb9 BD0F0000 		.4byte	0xfbd
 2260 0fbd 05       		.uleb128 0x5
 2261 0fbe CB070000 		.4byte	.LASF206
 2262 0fc2 78       		.byte	0x78
 2263 0fc3 16       		.byte	0x16
 2264 0fc4 87       		.byte	0x87
 2265 0fc5 28100000 		.4byte	0x1028
 2266 0fc9 07       		.uleb128 0x7
 2267 0fca 766D7400 		.ascii	"vmt\000"
 2268 0fce 16       		.byte	0x16
 2269 0fcf 89       		.byte	0x89
 2270 0fd0 D9100000 		.4byte	0x10d9
 2271 0fd4 00       		.byte	0
 2272 0fd5 06       		.uleb128 0x6
 2273 0fd6 58050000 		.4byte	.LASF207
 2274 0fda 16       		.byte	0x16
 2275 0fdb 8A       		.byte	0x8a
 2276 0fdc F6030000 		.4byte	0x3f6
 2277 0fe0 04       		.byte	0x4
 2278 0fe1 06       		.uleb128 0x6
ARM GAS  /var/folders/4k/6h5l9jl178sb4hslwv3xp1mr0000gn/T//ccC784Nx.s 			page 41


 2279 0fe2 89000000 		.4byte	.LASF137
 2280 0fe6 16       		.byte	0x16
 2281 0fe7 8A       		.byte	0x8a
 2282 0fe8 A70F0000 		.4byte	0xfa7
 2283 0fec 08       		.byte	0x8
 2284 0fed 06       		.uleb128 0x6
 2285 0fee 4B080000 		.4byte	.LASF208
 2286 0ff2 16       		.byte	0x16
 2287 0ff3 8A       		.byte	0x8a
 2288 0ff4 03050000 		.4byte	0x503
 2289 0ff8 0C       		.byte	0xc
 2290 0ff9 06       		.uleb128 0x6
 2291 0ffa A5010000 		.4byte	.LASF209
 2292 0ffe 16       		.byte	0x16
 2293 0fff 8A       		.byte	0x8a
 2294 1000 0E050000 		.4byte	0x50e
 2295 1004 30       		.byte	0x30
 2296 1005 07       		.uleb128 0x7
 2297 1006 696200   		.ascii	"ib\000"
 2298 1009 16       		.byte	0x16
 2299 100a 8A       		.byte	0x8a
 2300 100b E4100000 		.4byte	0x10e4
 2301 100f 54       		.byte	0x54
 2302 1010 07       		.uleb128 0x7
 2303 1011 6F6200   		.ascii	"ob\000"
 2304 1014 16       		.byte	0x16
 2305 1015 8A       		.byte	0x8a
 2306 1016 E4100000 		.4byte	0x10e4
 2307 101a 64       		.byte	0x64
 2308 101b 06       		.uleb128 0x6
 2309 101c E2010000 		.4byte	.LASF210
 2310 1020 16       		.byte	0x16
 2311 1021 8A       		.byte	0x8a
 2312 1022 F4100000 		.4byte	0x10f4
 2313 1026 74       		.byte	0x74
 2314 1027 00       		.byte	0
 2315 1028 08       		.uleb128 0x8
 2316 1029 0C       		.byte	0xc
 2317 102a 17       		.byte	0x17
 2318 102b D7       		.byte	0xd7
 2319 102c 61100000 		.4byte	0x1061
 2320 1030 06       		.uleb128 0x6
 2321 1031 B1030000 		.4byte	.LASF211
 2322 1035 17       		.byte	0x17
 2323 1036 DB       		.byte	0xdb
 2324 1037 C3000000 		.4byte	0xc3
 2325 103b 00       		.byte	0
 2326 103c 07       		.uleb128 0x7
 2327 103d 63723100 		.ascii	"cr1\000"
 2328 1041 17       		.byte	0x17
 2329 1042 E0       		.byte	0xe0
 2330 1043 AD000000 		.4byte	0xad
 2331 1047 04       		.byte	0x4
 2332 1048 07       		.uleb128 0x7
 2333 1049 63723200 		.ascii	"cr2\000"
 2334 104d 17       		.byte	0x17
 2335 104e E4       		.byte	0xe4
ARM GAS  /var/folders/4k/6h5l9jl178sb4hslwv3xp1mr0000gn/T//ccC784Nx.s 			page 42


 2336 104f AD000000 		.4byte	0xad
 2337 1053 06       		.byte	0x6
 2338 1054 07       		.uleb128 0x7
 2339 1055 63723300 		.ascii	"cr3\000"
 2340 1059 17       		.byte	0x17
 2341 105a E8       		.byte	0xe8
 2342 105b AD000000 		.4byte	0xad
 2343 105f 08       		.byte	0x8
 2344 1060 00       		.byte	0
 2345 1061 03       		.uleb128 0x3
 2346 1062 4D000000 		.4byte	.LASF212
 2347 1066 17       		.byte	0x17
 2348 1067 E9       		.byte	0xe9
 2349 1068 28100000 		.4byte	0x1028
 2350 106c 05       		.uleb128 0x5
 2351 106d FD040000 		.4byte	.LASF213
 2352 1071 20       		.byte	0x20
 2353 1072 16       		.byte	0x16
 2354 1073 7C       		.byte	0x7c
 2355 1074 D9100000 		.4byte	0x10d9
 2356 1078 06       		.uleb128 0x6
 2357 1079 73000000 		.4byte	.LASF214
 2358 107d 16       		.byte	0x16
 2359 107e 7D       		.byte	0x7d
 2360 107f 3D050000 		.4byte	0x53d
 2361 1083 00       		.byte	0
 2362 1084 06       		.uleb128 0x6
 2363 1085 77050000 		.4byte	.LASF215
 2364 1089 16       		.byte	0x16
 2365 108a 7D       		.byte	0x7d
 2366 108b 5C050000 		.4byte	0x55c
 2367 108f 04       		.byte	0x4
 2368 1090 07       		.uleb128 0x7
 2369 1091 70757400 		.ascii	"put\000"
 2370 1095 16       		.byte	0x16
 2371 1096 7D       		.byte	0x7d
 2372 1097 76050000 		.4byte	0x576
 2373 109b 08       		.byte	0x8
 2374 109c 07       		.uleb128 0x7
 2375 109d 67657400 		.ascii	"get\000"
 2376 10a1 16       		.byte	0x16
 2377 10a2 7D       		.byte	0x7d
 2378 10a3 4E040000 		.4byte	0x44e
 2379 10a7 0C       		.byte	0xc
 2380 10a8 06       		.uleb128 0x6
 2381 10a9 8F000000 		.4byte	.LASF216
 2382 10ad 16       		.byte	0x16
 2383 10ae 7D       		.byte	0x7d
 2384 10af F3080000 		.4byte	0x8f3
 2385 10b3 10       		.byte	0x10
 2386 10b4 06       		.uleb128 0x6
 2387 10b5 5F030000 		.4byte	.LASF217
 2388 10b9 16       		.byte	0x16
 2389 10ba 7D       		.byte	0x7d
 2390 10bb 0D090000 		.4byte	0x90d
 2391 10bf 14       		.byte	0x14
 2392 10c0 06       		.uleb128 0x6
ARM GAS  /var/folders/4k/6h5l9jl178sb4hslwv3xp1mr0000gn/T//ccC784Nx.s 			page 43


 2393 10c1 5A000000 		.4byte	.LASF218
 2394 10c5 16       		.byte	0x16
 2395 10c6 7D       		.byte	0x7d
 2396 10c7 31090000 		.4byte	0x931
 2397 10cb 18       		.byte	0x18
 2398 10cc 06       		.uleb128 0x6
 2399 10cd 3B010000 		.4byte	.LASF219
 2400 10d1 16       		.byte	0x16
 2401 10d2 7D       		.byte	0x7d
 2402 10d3 55090000 		.4byte	0x955
 2403 10d7 1C       		.byte	0x1c
 2404 10d8 00       		.byte	0
 2405 10d9 09       		.uleb128 0x9
 2406 10da 04       		.byte	0x4
 2407 10db DF100000 		.4byte	0x10df
 2408 10df 10       		.uleb128 0x10
 2409 10e0 6C100000 		.4byte	0x106c
 2410 10e4 14       		.uleb128 0x14
 2411 10e5 A2000000 		.4byte	0xa2
 2412 10e9 F4100000 		.4byte	0x10f4
 2413 10ed 15       		.uleb128 0x15
 2414 10ee 41030000 		.4byte	0x341
 2415 10f2 0F       		.byte	0xf
 2416 10f3 00       		.byte	0
 2417 10f4 09       		.uleb128 0x9
 2418 10f5 04       		.byte	0x4
 2419 10f6 72080000 		.4byte	0x872
 2420 10fa 1D       		.uleb128 0x1d
 2421 10fb 94040000 		.4byte	.LASF233
 2422 10ff 01       		.byte	0x1
 2423 1100 27       		.byte	0x27
 2424 1101 00000000 		.4byte	.LFB119
 2425 1105 94010000 		.4byte	.LFE119-.LFB119
 2426 1109 01       		.uleb128 0x1
 2427 110a 9C       		.byte	0x9c
 2428 110b 3F140000 		.4byte	0x143f
 2429 110f 1E       		.uleb128 0x1e
 2430 1110 20000000 		.4byte	.LVL0
 2431 1114 AD140000 		.4byte	0x14ad
 2432 1118 31110000 		.4byte	0x1131
 2433 111c 1F       		.uleb128 0x1f
 2434 111d 01       		.uleb128 0x1
 2435 111e 52       		.byte	0x52
 2436 111f 03       		.uleb128 0x3
 2437 1120 0A       		.byte	0xa
 2438 1121 0602     		.2byte	0x206
 2439 1123 1F       		.uleb128 0x1f
 2440 1124 01       		.uleb128 0x1
 2441 1125 51       		.byte	0x51
 2442 1126 03       		.uleb128 0x3
 2443 1127 0A       		.byte	0xa
 2444 1128 0001     		.2byte	0x100
 2445 112a 1F       		.uleb128 0x1f
 2446 112b 01       		.uleb128 0x1
 2447 112c 50       		.byte	0x50
 2448 112d 02       		.uleb128 0x2
 2449 112e 77       		.byte	0x77
ARM GAS  /var/folders/4k/6h5l9jl178sb4hslwv3xp1mr0000gn/T//ccC784Nx.s 			page 44


 2450 112f 00       		.sleb128 0
 2451 1130 00       		.byte	0
 2452 1131 1E       		.uleb128 0x1e
 2453 1132 2E000000 		.4byte	.LVL1
 2454 1136 AD140000 		.4byte	0x14ad
 2455 113a 53110000 		.4byte	0x1153
 2456 113e 1F       		.uleb128 0x1f
 2457 113f 01       		.uleb128 0x1
 2458 1140 52       		.byte	0x52
 2459 1141 03       		.uleb128 0x3
 2460 1142 0A       		.byte	0xa
 2461 1143 0602     		.2byte	0x206
 2462 1145 1F       		.uleb128 0x1f
 2463 1146 01       		.uleb128 0x1
 2464 1147 51       		.byte	0x51
 2465 1148 03       		.uleb128 0x3
 2466 1149 0A       		.byte	0xa
 2467 114a 0002     		.2byte	0x200
 2468 114c 1F       		.uleb128 0x1f
 2469 114d 01       		.uleb128 0x1
 2470 114e 50       		.byte	0x50
 2471 114f 02       		.uleb128 0x2
 2472 1150 77       		.byte	0x77
 2473 1151 00       		.sleb128 0
 2474 1152 00       		.byte	0
 2475 1153 1E       		.uleb128 0x1e
 2476 1154 36000000 		.4byte	.LVL2
 2477 1158 C9140000 		.4byte	0x14c9
 2478 115c 6A110000 		.4byte	0x116a
 2479 1160 1F       		.uleb128 0x1f
 2480 1161 01       		.uleb128 0x1
 2481 1162 51       		.byte	0x51
 2482 1163 05       		.uleb128 0x5
 2483 1164 03       		.byte	0x3
 2484 1165 00000000 		.4byte	.LANCHOR0
 2485 1169 00       		.byte	0
 2486 116a 1E       		.uleb128 0x1e
 2487 116b 40000000 		.4byte	.LVL3
 2488 116f AD140000 		.4byte	0x14ad
 2489 1173 88110000 		.4byte	0x1188
 2490 1177 1F       		.uleb128 0x1f
 2491 1178 01       		.uleb128 0x1
 2492 1179 52       		.byte	0x52
 2493 117a 01       		.uleb128 0x1
 2494 117b 31       		.byte	0x31
 2495 117c 1F       		.uleb128 0x1f
 2496 117d 01       		.uleb128 0x1
 2497 117e 51       		.byte	0x51
 2498 117f 01       		.uleb128 0x1
 2499 1180 31       		.byte	0x31
 2500 1181 1F       		.uleb128 0x1f
 2501 1182 01       		.uleb128 0x1
 2502 1183 50       		.byte	0x50
 2503 1184 02       		.uleb128 0x2
 2504 1185 75       		.byte	0x75
 2505 1186 00       		.sleb128 0
 2506 1187 00       		.byte	0
ARM GAS  /var/folders/4k/6h5l9jl178sb4hslwv3xp1mr0000gn/T//ccC784Nx.s 			page 45


 2507 1188 1E       		.uleb128 0x1e
 2508 1189 4A000000 		.4byte	.LVL4
 2509 118d AD140000 		.4byte	0x14ad
 2510 1191 A6110000 		.4byte	0x11a6
 2511 1195 1F       		.uleb128 0x1f
 2512 1196 01       		.uleb128 0x1
 2513 1197 52       		.byte	0x52
 2514 1198 01       		.uleb128 0x1
 2515 1199 31       		.byte	0x31
 2516 119a 1F       		.uleb128 0x1f
 2517 119b 01       		.uleb128 0x1
 2518 119c 51       		.byte	0x51
 2519 119d 01       		.uleb128 0x1
 2520 119e 32       		.byte	0x32
 2521 119f 1F       		.uleb128 0x1f
 2522 11a0 01       		.uleb128 0x1
 2523 11a1 50       		.byte	0x50
 2524 11a2 02       		.uleb128 0x2
 2525 11a3 75       		.byte	0x75
 2526 11a4 00       		.sleb128 0
 2527 11a5 00       		.byte	0
 2528 11a6 1E       		.uleb128 0x1e
 2529 11a7 5E000000 		.4byte	.LVL5
 2530 11ab AD140000 		.4byte	0x14ad
 2531 11af C6110000 		.4byte	0x11c6
 2532 11b3 1F       		.uleb128 0x1f
 2533 11b4 01       		.uleb128 0x1
 2534 11b5 52       		.byte	0x52
 2535 11b6 01       		.uleb128 0x1
 2536 11b7 32       		.byte	0x32
 2537 11b8 1F       		.uleb128 0x1f
 2538 11b9 01       		.uleb128 0x1
 2539 11ba 51       		.byte	0x51
 2540 11bb 03       		.uleb128 0x3
 2541 11bc 0A       		.byte	0xa
 2542 11bd 0001     		.2byte	0x100
 2543 11bf 1F       		.uleb128 0x1f
 2544 11c0 01       		.uleb128 0x1
 2545 11c1 50       		.byte	0x50
 2546 11c2 02       		.uleb128 0x2
 2547 11c3 75       		.byte	0x75
 2548 11c4 00       		.sleb128 0
 2549 11c5 00       		.byte	0
 2550 11c6 1E       		.uleb128 0x1e
 2551 11c7 66000000 		.4byte	.LVL6
 2552 11cb E5140000 		.4byte	0x14e5
 2553 11cf DD110000 		.4byte	0x11dd
 2554 11d3 1F       		.uleb128 0x1f
 2555 11d4 01       		.uleb128 0x1
 2556 11d5 51       		.byte	0x51
 2557 11d6 05       		.uleb128 0x5
 2558 11d7 03       		.byte	0x3
 2559 11d8 00000000 		.4byte	.LANCHOR1
 2560 11dc 00       		.byte	0
 2561 11dd 1E       		.uleb128 0x1e
 2562 11de 72000000 		.4byte	.LVL7
 2563 11e2 AD140000 		.4byte	0x14ad
ARM GAS  /var/folders/4k/6h5l9jl178sb4hslwv3xp1mr0000gn/T//ccC784Nx.s 			page 46


 2564 11e6 FD110000 		.4byte	0x11fd
 2565 11ea 1F       		.uleb128 0x1f
 2566 11eb 01       		.uleb128 0x1
 2567 11ec 52       		.byte	0x52
 2568 11ed 03       		.uleb128 0x3
 2569 11ee 0A       		.byte	0xa
 2570 11ef 8203     		.2byte	0x382
 2571 11f1 1F       		.uleb128 0x1f
 2572 11f2 01       		.uleb128 0x1
 2573 11f3 51       		.byte	0x51
 2574 11f4 01       		.uleb128 0x1
 2575 11f5 34       		.byte	0x34
 2576 11f6 1F       		.uleb128 0x1f
 2577 11f7 01       		.uleb128 0x1
 2578 11f8 50       		.byte	0x50
 2579 11f9 02       		.uleb128 0x2
 2580 11fa 75       		.byte	0x75
 2581 11fb 00       		.sleb128 0
 2582 11fc 00       		.byte	0
 2583 11fd 1E       		.uleb128 0x1e
 2584 11fe 7E000000 		.4byte	.LVL8
 2585 1202 AD140000 		.4byte	0x14ad
 2586 1206 1D120000 		.4byte	0x121d
 2587 120a 1F       		.uleb128 0x1f
 2588 120b 01       		.uleb128 0x1
 2589 120c 52       		.byte	0x52
 2590 120d 03       		.uleb128 0x3
 2591 120e 0A       		.byte	0xa
 2592 120f 8203     		.2byte	0x382
 2593 1211 1F       		.uleb128 0x1f
 2594 1212 01       		.uleb128 0x1
 2595 1213 51       		.byte	0x51
 2596 1214 01       		.uleb128 0x1
 2597 1215 38       		.byte	0x38
 2598 1216 1F       		.uleb128 0x1f
 2599 1217 01       		.uleb128 0x1
 2600 1218 50       		.byte	0x50
 2601 1219 02       		.uleb128 0x2
 2602 121a 75       		.byte	0x75
 2603 121b 00       		.sleb128 0
 2604 121c 00       		.byte	0
 2605 121d 1E       		.uleb128 0x1e
 2606 121e 86000000 		.4byte	.LVL9
 2607 1222 FB140000 		.4byte	0x14fb
 2608 1226 34120000 		.4byte	0x1234
 2609 122a 1F       		.uleb128 0x1f
 2610 122b 01       		.uleb128 0x1
 2611 122c 51       		.byte	0x51
 2612 122d 05       		.uleb128 0x5
 2613 122e 03       		.byte	0x3
 2614 122f 00000000 		.4byte	.LANCHOR2
 2615 1233 00       		.byte	0
 2616 1234 1E       		.uleb128 0x1e
 2617 1235 92000000 		.4byte	.LVL10
 2618 1239 AD140000 		.4byte	0x14ad
 2619 123d 55120000 		.4byte	0x1255
 2620 1241 1F       		.uleb128 0x1f
ARM GAS  /var/folders/4k/6h5l9jl178sb4hslwv3xp1mr0000gn/T//ccC784Nx.s 			page 47


 2621 1242 01       		.uleb128 0x1
 2622 1243 52       		.byte	0x52
 2623 1244 03       		.uleb128 0x3
 2624 1245 0A       		.byte	0xa
 2625 1246 8206     		.2byte	0x682
 2626 1248 1F       		.uleb128 0x1f
 2627 1249 01       		.uleb128 0x1
 2628 124a 51       		.byte	0x51
 2629 124b 02       		.uleb128 0x2
 2630 124c 08       		.byte	0x8
 2631 124d 40       		.byte	0x40
 2632 124e 1F       		.uleb128 0x1f
 2633 124f 01       		.uleb128 0x1
 2634 1250 50       		.byte	0x50
 2635 1251 02       		.uleb128 0x2
 2636 1252 78       		.byte	0x78
 2637 1253 00       		.sleb128 0
 2638 1254 00       		.byte	0
 2639 1255 1E       		.uleb128 0x1e
 2640 1256 9E000000 		.4byte	.LVL11
 2641 125a AD140000 		.4byte	0x14ad
 2642 125e 76120000 		.4byte	0x1276
 2643 1262 1F       		.uleb128 0x1f
 2644 1263 01       		.uleb128 0x1
 2645 1264 52       		.byte	0x52
 2646 1265 03       		.uleb128 0x3
 2647 1266 0A       		.byte	0xa
 2648 1267 8206     		.2byte	0x682
 2649 1269 1F       		.uleb128 0x1f
 2650 126a 01       		.uleb128 0x1
 2651 126b 51       		.byte	0x51
 2652 126c 02       		.uleb128 0x2
 2653 126d 08       		.byte	0x8
 2654 126e 80       		.byte	0x80
 2655 126f 1F       		.uleb128 0x1f
 2656 1270 01       		.uleb128 0x1
 2657 1271 50       		.byte	0x50
 2658 1272 02       		.uleb128 0x2
 2659 1273 78       		.byte	0x78
 2660 1274 00       		.sleb128 0
 2661 1275 00       		.byte	0
 2662 1276 1E       		.uleb128 0x1e
 2663 1277 AC000000 		.4byte	.LVL12
 2664 127b AD140000 		.4byte	0x14ad
 2665 127f 98120000 		.4byte	0x1298
 2666 1283 1F       		.uleb128 0x1f
 2667 1284 01       		.uleb128 0x1
 2668 1285 52       		.byte	0x52
 2669 1286 03       		.uleb128 0x3
 2670 1287 0A       		.byte	0xa
 2671 1288 8206     		.2byte	0x682
 2672 128a 1F       		.uleb128 0x1f
 2673 128b 01       		.uleb128 0x1
 2674 128c 51       		.byte	0x51
 2675 128d 03       		.uleb128 0x3
 2676 128e 0A       		.byte	0xa
 2677 128f 0001     		.2byte	0x100
ARM GAS  /var/folders/4k/6h5l9jl178sb4hslwv3xp1mr0000gn/T//ccC784Nx.s 			page 48


 2678 1291 1F       		.uleb128 0x1f
 2679 1292 01       		.uleb128 0x1
 2680 1293 50       		.byte	0x50
 2681 1294 02       		.uleb128 0x2
 2682 1295 78       		.byte	0x78
 2683 1296 00       		.sleb128 0
 2684 1297 00       		.byte	0
 2685 1298 1E       		.uleb128 0x1e
 2686 1299 BA000000 		.4byte	.LVL13
 2687 129d AD140000 		.4byte	0x14ad
 2688 12a1 BA120000 		.4byte	0x12ba
 2689 12a5 1F       		.uleb128 0x1f
 2690 12a6 01       		.uleb128 0x1
 2691 12a7 52       		.byte	0x52
 2692 12a8 03       		.uleb128 0x3
 2693 12a9 0A       		.byte	0xa
 2694 12aa 8206     		.2byte	0x682
 2695 12ac 1F       		.uleb128 0x1f
 2696 12ad 01       		.uleb128 0x1
 2697 12ae 51       		.byte	0x51
 2698 12af 03       		.uleb128 0x3
 2699 12b0 0A       		.byte	0xa
 2700 12b1 0002     		.2byte	0x200
 2701 12b3 1F       		.uleb128 0x1f
 2702 12b4 01       		.uleb128 0x1
 2703 12b5 50       		.byte	0x50
 2704 12b6 02       		.uleb128 0x2
 2705 12b7 78       		.byte	0x78
 2706 12b8 00       		.sleb128 0
 2707 12b9 00       		.byte	0
 2708 12ba 1E       		.uleb128 0x1e
 2709 12bb C6000000 		.4byte	.LVL14
 2710 12bf AD140000 		.4byte	0x14ad
 2711 12c3 DA120000 		.4byte	0x12da
 2712 12c7 1F       		.uleb128 0x1f
 2713 12c8 01       		.uleb128 0x1
 2714 12c9 52       		.byte	0x52
 2715 12ca 03       		.uleb128 0x3
 2716 12cb 0A       		.byte	0xa
 2717 12cc 8206     		.2byte	0x682
 2718 12ce 1F       		.uleb128 0x1f
 2719 12cf 01       		.uleb128 0x1
 2720 12d0 51       		.byte	0x51
 2721 12d1 01       		.uleb128 0x1
 2722 12d2 40       		.byte	0x40
 2723 12d3 1F       		.uleb128 0x1f
 2724 12d4 01       		.uleb128 0x1
 2725 12d5 50       		.byte	0x50
 2726 12d6 02       		.uleb128 0x2
 2727 12d7 79       		.byte	0x79
 2728 12d8 00       		.sleb128 0
 2729 12d9 00       		.byte	0
 2730 12da 1E       		.uleb128 0x1e
 2731 12db D2000000 		.4byte	.LVL15
 2732 12df AD140000 		.4byte	0x14ad
 2733 12e3 FB120000 		.4byte	0x12fb
 2734 12e7 1F       		.uleb128 0x1f
ARM GAS  /var/folders/4k/6h5l9jl178sb4hslwv3xp1mr0000gn/T//ccC784Nx.s 			page 49


 2735 12e8 01       		.uleb128 0x1
 2736 12e9 52       		.byte	0x52
 2737 12ea 03       		.uleb128 0x3
 2738 12eb 0A       		.byte	0xa
 2739 12ec 8206     		.2byte	0x682
 2740 12ee 1F       		.uleb128 0x1f
 2741 12ef 01       		.uleb128 0x1
 2742 12f0 51       		.byte	0x51
 2743 12f1 02       		.uleb128 0x2
 2744 12f2 08       		.byte	0x8
 2745 12f3 40       		.byte	0x40
 2746 12f4 1F       		.uleb128 0x1f
 2747 12f5 01       		.uleb128 0x1
 2748 12f6 50       		.byte	0x50
 2749 12f7 02       		.uleb128 0x2
 2750 12f8 77       		.byte	0x77
 2751 12f9 00       		.sleb128 0
 2752 12fa 00       		.byte	0
 2753 12fb 1E       		.uleb128 0x1e
 2754 12fc DE000000 		.4byte	.LVL16
 2755 1300 AD140000 		.4byte	0x14ad
 2756 1304 1C130000 		.4byte	0x131c
 2757 1308 1F       		.uleb128 0x1f
 2758 1309 01       		.uleb128 0x1
 2759 130a 52       		.byte	0x52
 2760 130b 03       		.uleb128 0x3
 2761 130c 0A       		.byte	0xa
 2762 130d 8206     		.2byte	0x682
 2763 130f 1F       		.uleb128 0x1f
 2764 1310 01       		.uleb128 0x1
 2765 1311 51       		.byte	0x51
 2766 1312 02       		.uleb128 0x2
 2767 1313 08       		.byte	0x8
 2768 1314 20       		.byte	0x20
 2769 1315 1F       		.uleb128 0x1f
 2770 1316 01       		.uleb128 0x1
 2771 1317 50       		.byte	0x50
 2772 1318 02       		.uleb128 0x2
 2773 1319 79       		.byte	0x79
 2774 131a 00       		.sleb128 0
 2775 131b 00       		.byte	0
 2776 131c 1E       		.uleb128 0x1e
 2777 131d EA000000 		.4byte	.LVL17
 2778 1321 AD140000 		.4byte	0x14ad
 2779 1325 3D130000 		.4byte	0x133d
 2780 1329 1F       		.uleb128 0x1f
 2781 132a 01       		.uleb128 0x1
 2782 132b 52       		.byte	0x52
 2783 132c 03       		.uleb128 0x3
 2784 132d 0A       		.byte	0xa
 2785 132e 8206     		.2byte	0x682
 2786 1330 1F       		.uleb128 0x1f
 2787 1331 01       		.uleb128 0x1
 2788 1332 51       		.byte	0x51
 2789 1333 02       		.uleb128 0x2
 2790 1334 08       		.byte	0x8
 2791 1335 40       		.byte	0x40
ARM GAS  /var/folders/4k/6h5l9jl178sb4hslwv3xp1mr0000gn/T//ccC784Nx.s 			page 50


 2792 1336 1F       		.uleb128 0x1f
 2793 1337 01       		.uleb128 0x1
 2794 1338 50       		.byte	0x50
 2795 1339 02       		.uleb128 0x2
 2796 133a 79       		.byte	0x79
 2797 133b 00       		.sleb128 0
 2798 133c 00       		.byte	0
 2799 133d 1E       		.uleb128 0x1e
 2800 133e F6000000 		.4byte	.LVL18
 2801 1342 AD140000 		.4byte	0x14ad
 2802 1346 5D130000 		.4byte	0x135d
 2803 134a 1F       		.uleb128 0x1f
 2804 134b 01       		.uleb128 0x1
 2805 134c 52       		.byte	0x52
 2806 134d 03       		.uleb128 0x3
 2807 134e 0A       		.byte	0xa
 2808 134f 8206     		.2byte	0x682
 2809 1351 1F       		.uleb128 0x1f
 2810 1352 01       		.uleb128 0x1
 2811 1353 51       		.byte	0x51
 2812 1354 01       		.uleb128 0x1
 2813 1355 40       		.byte	0x40
 2814 1356 1F       		.uleb128 0x1f
 2815 1357 01       		.uleb128 0x1
 2816 1358 50       		.byte	0x50
 2817 1359 02       		.uleb128 0x2
 2818 135a 75       		.byte	0x75
 2819 135b 00       		.sleb128 0
 2820 135c 00       		.byte	0
 2821 135d 1E       		.uleb128 0x1e
 2822 135e 02010000 		.4byte	.LVL19
 2823 1362 AD140000 		.4byte	0x14ad
 2824 1366 7E130000 		.4byte	0x137e
 2825 136a 1F       		.uleb128 0x1f
 2826 136b 01       		.uleb128 0x1
 2827 136c 52       		.byte	0x52
 2828 136d 03       		.uleb128 0x3
 2829 136e 0A       		.byte	0xa
 2830 136f 8206     		.2byte	0x682
 2831 1371 1F       		.uleb128 0x1f
 2832 1372 01       		.uleb128 0x1
 2833 1373 51       		.byte	0x51
 2834 1374 02       		.uleb128 0x2
 2835 1375 08       		.byte	0x8
 2836 1376 80       		.byte	0x80
 2837 1377 1F       		.uleb128 0x1f
 2838 1378 01       		.uleb128 0x1
 2839 1379 50       		.byte	0x50
 2840 137a 02       		.uleb128 0x2
 2841 137b 77       		.byte	0x77
 2842 137c 00       		.sleb128 0
 2843 137d 00       		.byte	0
 2844 137e 1E       		.uleb128 0x1e
 2845 137f 0E010000 		.4byte	.LVL20
 2846 1383 AD140000 		.4byte	0x14ad
 2847 1387 9F130000 		.4byte	0x139f
 2848 138b 1F       		.uleb128 0x1f
ARM GAS  /var/folders/4k/6h5l9jl178sb4hslwv3xp1mr0000gn/T//ccC784Nx.s 			page 51


 2849 138c 01       		.uleb128 0x1
 2850 138d 52       		.byte	0x52
 2851 138e 03       		.uleb128 0x3
 2852 138f 0A       		.byte	0xa
 2853 1390 8206     		.2byte	0x682
 2854 1392 1F       		.uleb128 0x1f
 2855 1393 01       		.uleb128 0x1
 2856 1394 51       		.byte	0x51
 2857 1395 02       		.uleb128 0x2
 2858 1396 08       		.byte	0x8
 2859 1397 40       		.byte	0x40
 2860 1398 1F       		.uleb128 0x1f
 2861 1399 01       		.uleb128 0x1
 2862 139a 50       		.byte	0x50
 2863 139b 02       		.uleb128 0x2
 2864 139c 75       		.byte	0x75
 2865 139d 00       		.sleb128 0
 2866 139e 00       		.byte	0
 2867 139f 1E       		.uleb128 0x1e
 2868 13a0 1A010000 		.4byte	.LVL21
 2869 13a4 AD140000 		.4byte	0x14ad
 2870 13a8 C0130000 		.4byte	0x13c0
 2871 13ac 1F       		.uleb128 0x1f
 2872 13ad 01       		.uleb128 0x1
 2873 13ae 52       		.byte	0x52
 2874 13af 02       		.uleb128 0x2
 2875 13b0 76       		.byte	0x76
 2876 13b1 00       		.sleb128 0
 2877 13b2 1F       		.uleb128 0x1f
 2878 13b3 01       		.uleb128 0x1
 2879 13b4 51       		.byte	0x51
 2880 13b5 03       		.uleb128 0x3
 2881 13b6 0A       		.byte	0xa
 2882 13b7 0010     		.2byte	0x1000
 2883 13b9 1F       		.uleb128 0x1f
 2884 13ba 01       		.uleb128 0x1
 2885 13bb 50       		.byte	0x50
 2886 13bc 02       		.uleb128 0x2
 2887 13bd 74       		.byte	0x74
 2888 13be 00       		.sleb128 0
 2889 13bf 00       		.byte	0
 2890 13c0 1E       		.uleb128 0x1e
 2891 13c1 26010000 		.4byte	.LVL22
 2892 13c5 AD140000 		.4byte	0x14ad
 2893 13c9 E1130000 		.4byte	0x13e1
 2894 13cd 1F       		.uleb128 0x1f
 2895 13ce 01       		.uleb128 0x1
 2896 13cf 52       		.byte	0x52
 2897 13d0 02       		.uleb128 0x2
 2898 13d1 76       		.byte	0x76
 2899 13d2 00       		.sleb128 0
 2900 13d3 1F       		.uleb128 0x1f
 2901 13d4 01       		.uleb128 0x1
 2902 13d5 51       		.byte	0x51
 2903 13d6 03       		.uleb128 0x3
 2904 13d7 0A       		.byte	0xa
 2905 13d8 0020     		.2byte	0x2000
ARM GAS  /var/folders/4k/6h5l9jl178sb4hslwv3xp1mr0000gn/T//ccC784Nx.s 			page 52


 2906 13da 1F       		.uleb128 0x1f
 2907 13db 01       		.uleb128 0x1
 2908 13dc 50       		.byte	0x50
 2909 13dd 02       		.uleb128 0x2
 2910 13de 74       		.byte	0x74
 2911 13df 00       		.sleb128 0
 2912 13e0 00       		.byte	0
 2913 13e1 1E       		.uleb128 0x1e
 2914 13e2 32010000 		.4byte	.LVL23
 2915 13e6 AD140000 		.4byte	0x14ad
 2916 13ea 02140000 		.4byte	0x1402
 2917 13ee 1F       		.uleb128 0x1f
 2918 13ef 01       		.uleb128 0x1
 2919 13f0 52       		.byte	0x52
 2920 13f1 02       		.uleb128 0x2
 2921 13f2 76       		.byte	0x76
 2922 13f3 00       		.sleb128 0
 2923 13f4 1F       		.uleb128 0x1f
 2924 13f5 01       		.uleb128 0x1
 2925 13f6 51       		.byte	0x51
 2926 13f7 03       		.uleb128 0x3
 2927 13f8 0A       		.byte	0xa
 2928 13f9 0040     		.2byte	0x4000
 2929 13fb 1F       		.uleb128 0x1f
 2930 13fc 01       		.uleb128 0x1
 2931 13fd 50       		.byte	0x50
 2932 13fe 02       		.uleb128 0x2
 2933 13ff 74       		.byte	0x74
 2934 1400 00       		.sleb128 0
 2935 1401 00       		.byte	0
 2936 1402 1E       		.uleb128 0x1e
 2937 1403 3E010000 		.4byte	.LVL24
 2938 1407 AD140000 		.4byte	0x14ad
 2939 140b 23140000 		.4byte	0x1423
 2940 140f 1F       		.uleb128 0x1f
 2941 1410 01       		.uleb128 0x1
 2942 1411 52       		.byte	0x52
 2943 1412 02       		.uleb128 0x2
 2944 1413 76       		.byte	0x76
 2945 1414 00       		.sleb128 0
 2946 1415 1F       		.uleb128 0x1f
 2947 1416 01       		.uleb128 0x1
 2948 1417 51       		.byte	0x51
 2949 1418 03       		.uleb128 0x3
 2950 1419 0A       		.byte	0xa
 2951 141a 0080     		.2byte	0x8000
 2952 141c 1F       		.uleb128 0x1f
 2953 141d 01       		.uleb128 0x1
 2954 141e 50       		.byte	0x50
 2955 141f 02       		.uleb128 0x2
 2956 1420 74       		.byte	0x74
 2957 1421 00       		.sleb128 0
 2958 1422 00       		.byte	0
 2959 1423 20       		.uleb128 0x20
 2960 1424 60010000 		.4byte	.LVL25
 2961 1428 AD140000 		.4byte	0x14ad
 2962 142c 1F       		.uleb128 0x1f
ARM GAS  /var/folders/4k/6h5l9jl178sb4hslwv3xp1mr0000gn/T//ccC784Nx.s 			page 53


 2963 142d 01       		.uleb128 0x1
 2964 142e 52       		.byte	0x52
 2965 142f 02       		.uleb128 0x2
 2966 1430 76       		.byte	0x76
 2967 1431 00       		.sleb128 0
 2968 1432 1F       		.uleb128 0x1f
 2969 1433 01       		.uleb128 0x1
 2970 1434 51       		.byte	0x51
 2971 1435 01       		.uleb128 0x1
 2972 1436 40       		.byte	0x40
 2973 1437 1F       		.uleb128 0x1f
 2974 1438 01       		.uleb128 0x1
 2975 1439 50       		.byte	0x50
 2976 143a 02       		.uleb128 0x2
 2977 143b 74       		.byte	0x74
 2978 143c 00       		.sleb128 0
 2979 143d 00       		.byte	0
 2980 143e 00       		.byte	0
 2981 143f 21       		.uleb128 0x21
 2982 1440 CF010000 		.4byte	.LASF234
 2983 1444 19       		.byte	0x19
 2984 1445 06       		.byte	0x6
 2985 1446 460B0000 		.4byte	0xb46
 2986 144a 22       		.uleb128 0x22
 2987 144b 24020000 		.4byte	.LASF220
 2988 144f 01       		.byte	0x1
 2989 1450 08       		.byte	0x8
 2990 1451 E80C0000 		.4byte	0xce8
 2991 1455 05       		.uleb128 0x5
 2992 1456 03       		.byte	0x3
 2993 1457 00000000 		.4byte	i2cfg1
 2994 145b 22       		.uleb128 0x22
 2995 145c F5080000 		.4byte	.LASF221
 2996 1460 01       		.byte	0x1
 2997 1461 17       		.byte	0x17
 2998 1462 810F0000 		.4byte	0xf81
 2999 1466 05       		.uleb128 0x5
 3000 1467 03       		.byte	0x3
 3001 1468 00000000 		.4byte	pwmcfg
 3002 146c 23       		.uleb128 0x23
 3003 146d 23050000 		.4byte	.LASF222
 3004 1471 18       		.byte	0x18
 3005 1472 9806     		.2byte	0x698
 3006 1474 91050000 		.4byte	0x591
 3007 1478 23       		.uleb128 0x23
 3008 1479 ED020000 		.4byte	.LASF223
 3009 147d 12       		.byte	0x12
 3010 147e AE01     		.2byte	0x1ae
 3011 1480 390C0000 		.4byte	0xc39
 3012 1484 23       		.uleb128 0x23
 3013 1485 70080000 		.4byte	.LASF224
 3014 1489 14       		.byte	0x14
 3015 148a B301     		.2byte	0x1b3
 3016 148c 190D0000 		.4byte	0xd19
 3017 1490 24       		.uleb128 0x24
 3018 1491 53443200 		.ascii	"SD2\000"
 3019 1495 17       		.byte	0x17
ARM GAS  /var/folders/4k/6h5l9jl178sb4hslwv3xp1mr0000gn/T//ccC784Nx.s 			page 54


 3020 1496 1201     		.2byte	0x112
 3021 1498 B20F0000 		.4byte	0xfb2
 3022 149c 25       		.uleb128 0x25
 3023 149d A5000000 		.4byte	.LASF225
 3024 14a1 01       		.byte	0x1
 3025 14a2 0F       		.byte	0xf
 3026 14a3 61100000 		.4byte	0x1061
 3027 14a7 05       		.uleb128 0x5
 3028 14a8 03       		.byte	0x3
 3029 14a9 00000000 		.4byte	uart2_config
 3030 14ad 26       		.uleb128 0x26
 3031 14ae D9000000 		.4byte	.LASF226
 3032 14b2 0E       		.byte	0xe
 3033 14b3 C201     		.2byte	0x1c2
 3034 14b5 C9140000 		.4byte	0x14c9
 3035 14b9 12       		.uleb128 0x12
 3036 14ba 3E0A0000 		.4byte	0xa3e
 3037 14be 12       		.uleb128 0x12
 3038 14bf 280A0000 		.4byte	0xa28
 3039 14c3 12       		.uleb128 0x12
 3040 14c4 330A0000 		.4byte	0xa33
 3041 14c8 00       		.byte	0
 3042 14c9 27       		.uleb128 0x27
 3043 14ca 9A080000 		.4byte	.LASF227
 3044 14ce 11       		.byte	0x11
 3045 14cf 81       		.byte	0x81
 3046 14d0 DF140000 		.4byte	0x14df
 3047 14d4 12       		.uleb128 0x12
 3048 14d5 DF140000 		.4byte	0x14df
 3049 14d9 12       		.uleb128 0x12
 3050 14da E20C0000 		.4byte	0xce2
 3051 14de 00       		.byte	0
 3052 14df 09       		.uleb128 0x9
 3053 14e0 04       		.byte	0x4
 3054 14e1 390C0000 		.4byte	0xc39
 3055 14e5 27       		.uleb128 0x27
 3056 14e6 F4040000 		.4byte	.LASF228
 3057 14ea 13       		.byte	0x13
 3058 14eb F4       		.byte	0xf4
 3059 14ec FB140000 		.4byte	0x14fb
 3060 14f0 12       		.uleb128 0x12
 3061 14f1 8F0D0000 		.4byte	0xd8f
 3062 14f5 12       		.uleb128 0x12
 3063 14f6 7B0F0000 		.4byte	0xf7b
 3064 14fa 00       		.byte	0
 3065 14fb 26       		.uleb128 0x26
 3066 14fc 67040000 		.4byte	.LASF229
 3067 1500 16       		.byte	0x16
 3068 1501 3701     		.2byte	0x137
 3069 1503 12150000 		.4byte	0x1512
 3070 1507 12       		.uleb128 0x12
 3071 1508 12150000 		.4byte	0x1512
 3072 150c 12       		.uleb128 0x12
 3073 150d 18150000 		.4byte	0x1518
 3074 1511 00       		.byte	0
 3075 1512 09       		.uleb128 0x9
 3076 1513 04       		.byte	0x4
ARM GAS  /var/folders/4k/6h5l9jl178sb4hslwv3xp1mr0000gn/T//ccC784Nx.s 			page 55


 3077 1514 B20F0000 		.4byte	0xfb2
 3078 1518 09       		.uleb128 0x9
 3079 1519 04       		.byte	0x4
 3080 151a 1E150000 		.4byte	0x151e
 3081 151e 10       		.uleb128 0x10
 3082 151f 61100000 		.4byte	0x1061
 3083 1523 00       		.byte	0
 3084              		.section	.debug_abbrev,"",%progbits
 3085              	.Ldebug_abbrev0:
 3086 0000 01       		.uleb128 0x1
 3087 0001 11       		.uleb128 0x11
 3088 0002 01       		.byte	0x1
 3089 0003 25       		.uleb128 0x25
 3090 0004 0E       		.uleb128 0xe
 3091 0005 13       		.uleb128 0x13
 3092 0006 0B       		.uleb128 0xb
 3093 0007 03       		.uleb128 0x3
 3094 0008 0E       		.uleb128 0xe
 3095 0009 1B       		.uleb128 0x1b
 3096 000a 0E       		.uleb128 0xe
 3097 000b 55       		.uleb128 0x55
 3098 000c 17       		.uleb128 0x17
 3099 000d 11       		.uleb128 0x11
 3100 000e 01       		.uleb128 0x1
 3101 000f 10       		.uleb128 0x10
 3102 0010 17       		.uleb128 0x17
 3103 0011 00       		.byte	0
 3104 0012 00       		.byte	0
 3105 0013 02       		.uleb128 0x2
 3106 0014 24       		.uleb128 0x24
 3107 0015 00       		.byte	0
 3108 0016 0B       		.uleb128 0xb
 3109 0017 0B       		.uleb128 0xb
 3110 0018 3E       		.uleb128 0x3e
 3111 0019 0B       		.uleb128 0xb
 3112 001a 03       		.uleb128 0x3
 3113 001b 08       		.uleb128 0x8
 3114 001c 00       		.byte	0
 3115 001d 00       		.byte	0
 3116 001e 03       		.uleb128 0x3
 3117 001f 16       		.uleb128 0x16
 3118 0020 00       		.byte	0
 3119 0021 03       		.uleb128 0x3
 3120 0022 0E       		.uleb128 0xe
 3121 0023 3A       		.uleb128 0x3a
 3122 0024 0B       		.uleb128 0xb
 3123 0025 3B       		.uleb128 0x3b
 3124 0026 0B       		.uleb128 0xb
 3125 0027 49       		.uleb128 0x49
 3126 0028 13       		.uleb128 0x13
 3127 0029 00       		.byte	0
 3128 002a 00       		.byte	0
 3129 002b 04       		.uleb128 0x4
 3130 002c 24       		.uleb128 0x24
 3131 002d 00       		.byte	0
 3132 002e 0B       		.uleb128 0xb
 3133 002f 0B       		.uleb128 0xb
ARM GAS  /var/folders/4k/6h5l9jl178sb4hslwv3xp1mr0000gn/T//ccC784Nx.s 			page 56


 3134 0030 3E       		.uleb128 0x3e
 3135 0031 0B       		.uleb128 0xb
 3136 0032 03       		.uleb128 0x3
 3137 0033 0E       		.uleb128 0xe
 3138 0034 00       		.byte	0
 3139 0035 00       		.byte	0
 3140 0036 05       		.uleb128 0x5
 3141 0037 13       		.uleb128 0x13
 3142 0038 01       		.byte	0x1
 3143 0039 03       		.uleb128 0x3
 3144 003a 0E       		.uleb128 0xe
 3145 003b 0B       		.uleb128 0xb
 3146 003c 0B       		.uleb128 0xb
 3147 003d 3A       		.uleb128 0x3a
 3148 003e 0B       		.uleb128 0xb
 3149 003f 3B       		.uleb128 0x3b
 3150 0040 0B       		.uleb128 0xb
 3151 0041 01       		.uleb128 0x1
 3152 0042 13       		.uleb128 0x13
 3153 0043 00       		.byte	0
 3154 0044 00       		.byte	0
 3155 0045 06       		.uleb128 0x6
 3156 0046 0D       		.uleb128 0xd
 3157 0047 00       		.byte	0
 3158 0048 03       		.uleb128 0x3
 3159 0049 0E       		.uleb128 0xe
 3160 004a 3A       		.uleb128 0x3a
 3161 004b 0B       		.uleb128 0xb
 3162 004c 3B       		.uleb128 0x3b
 3163 004d 0B       		.uleb128 0xb
 3164 004e 49       		.uleb128 0x49
 3165 004f 13       		.uleb128 0x13
 3166 0050 38       		.uleb128 0x38
 3167 0051 0B       		.uleb128 0xb
 3168 0052 00       		.byte	0
 3169 0053 00       		.byte	0
 3170 0054 07       		.uleb128 0x7
 3171 0055 0D       		.uleb128 0xd
 3172 0056 00       		.byte	0
 3173 0057 03       		.uleb128 0x3
 3174 0058 08       		.uleb128 0x8
 3175 0059 3A       		.uleb128 0x3a
 3176 005a 0B       		.uleb128 0xb
 3177 005b 3B       		.uleb128 0x3b
 3178 005c 0B       		.uleb128 0xb
 3179 005d 49       		.uleb128 0x49
 3180 005e 13       		.uleb128 0x13
 3181 005f 38       		.uleb128 0x38
 3182 0060 0B       		.uleb128 0xb
 3183 0061 00       		.byte	0
 3184 0062 00       		.byte	0
 3185 0063 08       		.uleb128 0x8
 3186 0064 13       		.uleb128 0x13
 3187 0065 01       		.byte	0x1
 3188 0066 0B       		.uleb128 0xb
 3189 0067 0B       		.uleb128 0xb
 3190 0068 3A       		.uleb128 0x3a
ARM GAS  /var/folders/4k/6h5l9jl178sb4hslwv3xp1mr0000gn/T//ccC784Nx.s 			page 57


 3191 0069 0B       		.uleb128 0xb
 3192 006a 3B       		.uleb128 0x3b
 3193 006b 0B       		.uleb128 0xb
 3194 006c 01       		.uleb128 0x1
 3195 006d 13       		.uleb128 0x13
 3196 006e 00       		.byte	0
 3197 006f 00       		.byte	0
 3198 0070 09       		.uleb128 0x9
 3199 0071 0F       		.uleb128 0xf
 3200 0072 00       		.byte	0
 3201 0073 0B       		.uleb128 0xb
 3202 0074 0B       		.uleb128 0xb
 3203 0075 49       		.uleb128 0x49
 3204 0076 13       		.uleb128 0x13
 3205 0077 00       		.byte	0
 3206 0078 00       		.byte	0
 3207 0079 0A       		.uleb128 0xa
 3208 007a 0F       		.uleb128 0xf
 3209 007b 00       		.byte	0
 3210 007c 0B       		.uleb128 0xb
 3211 007d 0B       		.uleb128 0xb
 3212 007e 00       		.byte	0
 3213 007f 00       		.byte	0
 3214 0080 0B       		.uleb128 0xb
 3215 0081 13       		.uleb128 0x13
 3216 0082 01       		.byte	0x1
 3217 0083 03       		.uleb128 0x3
 3218 0084 0E       		.uleb128 0xe
 3219 0085 0B       		.uleb128 0xb
 3220 0086 0B       		.uleb128 0xb
 3221 0087 3A       		.uleb128 0x3a
 3222 0088 0B       		.uleb128 0xb
 3223 0089 3B       		.uleb128 0x3b
 3224 008a 05       		.uleb128 0x5
 3225 008b 01       		.uleb128 0x1
 3226 008c 13       		.uleb128 0x13
 3227 008d 00       		.byte	0
 3228 008e 00       		.byte	0
 3229 008f 0C       		.uleb128 0xc
 3230 0090 0D       		.uleb128 0xd
 3231 0091 00       		.byte	0
 3232 0092 03       		.uleb128 0x3
 3233 0093 08       		.uleb128 0x8
 3234 0094 3A       		.uleb128 0x3a
 3235 0095 0B       		.uleb128 0xb
 3236 0096 3B       		.uleb128 0x3b
 3237 0097 05       		.uleb128 0x5
 3238 0098 49       		.uleb128 0x49
 3239 0099 13       		.uleb128 0x13
 3240 009a 38       		.uleb128 0x38
 3241 009b 0B       		.uleb128 0xb
 3242 009c 00       		.byte	0
 3243 009d 00       		.byte	0
 3244 009e 0D       		.uleb128 0xd
 3245 009f 35       		.uleb128 0x35
 3246 00a0 00       		.byte	0
 3247 00a1 49       		.uleb128 0x49
ARM GAS  /var/folders/4k/6h5l9jl178sb4hslwv3xp1mr0000gn/T//ccC784Nx.s 			page 58


 3248 00a2 13       		.uleb128 0x13
 3249 00a3 00       		.byte	0
 3250 00a4 00       		.byte	0
 3251 00a5 0E       		.uleb128 0xe
 3252 00a6 17       		.uleb128 0x17
 3253 00a7 01       		.byte	0x1
 3254 00a8 0B       		.uleb128 0xb
 3255 00a9 0B       		.uleb128 0xb
 3256 00aa 3A       		.uleb128 0x3a
 3257 00ab 0B       		.uleb128 0xb
 3258 00ac 3B       		.uleb128 0x3b
 3259 00ad 0B       		.uleb128 0xb
 3260 00ae 01       		.uleb128 0x1
 3261 00af 13       		.uleb128 0x13
 3262 00b0 00       		.byte	0
 3263 00b1 00       		.byte	0
 3264 00b2 0F       		.uleb128 0xf
 3265 00b3 0D       		.uleb128 0xd
 3266 00b4 00       		.byte	0
 3267 00b5 03       		.uleb128 0x3
 3268 00b6 0E       		.uleb128 0xe
 3269 00b7 3A       		.uleb128 0x3a
 3270 00b8 0B       		.uleb128 0xb
 3271 00b9 3B       		.uleb128 0x3b
 3272 00ba 0B       		.uleb128 0xb
 3273 00bb 49       		.uleb128 0x49
 3274 00bc 13       		.uleb128 0x13
 3275 00bd 00       		.byte	0
 3276 00be 00       		.byte	0
 3277 00bf 10       		.uleb128 0x10
 3278 00c0 26       		.uleb128 0x26
 3279 00c1 00       		.byte	0
 3280 00c2 49       		.uleb128 0x49
 3281 00c3 13       		.uleb128 0x13
 3282 00c4 00       		.byte	0
 3283 00c5 00       		.byte	0
 3284 00c6 11       		.uleb128 0x11
 3285 00c7 15       		.uleb128 0x15
 3286 00c8 01       		.byte	0x1
 3287 00c9 27       		.uleb128 0x27
 3288 00ca 19       		.uleb128 0x19
 3289 00cb 49       		.uleb128 0x49
 3290 00cc 13       		.uleb128 0x13
 3291 00cd 01       		.uleb128 0x1
 3292 00ce 13       		.uleb128 0x13
 3293 00cf 00       		.byte	0
 3294 00d0 00       		.byte	0
 3295 00d1 12       		.uleb128 0x12
 3296 00d2 05       		.uleb128 0x5
 3297 00d3 00       		.byte	0
 3298 00d4 49       		.uleb128 0x49
 3299 00d5 13       		.uleb128 0x13
 3300 00d6 00       		.byte	0
 3301 00d7 00       		.byte	0
 3302 00d8 13       		.uleb128 0x13
 3303 00d9 15       		.uleb128 0x15
 3304 00da 01       		.byte	0x1
ARM GAS  /var/folders/4k/6h5l9jl178sb4hslwv3xp1mr0000gn/T//ccC784Nx.s 			page 59


 3305 00db 27       		.uleb128 0x27
 3306 00dc 19       		.uleb128 0x19
 3307 00dd 01       		.uleb128 0x1
 3308 00de 13       		.uleb128 0x13
 3309 00df 00       		.byte	0
 3310 00e0 00       		.byte	0
 3311 00e1 14       		.uleb128 0x14
 3312 00e2 01       		.uleb128 0x1
 3313 00e3 01       		.byte	0x1
 3314 00e4 49       		.uleb128 0x49
 3315 00e5 13       		.uleb128 0x13
 3316 00e6 01       		.uleb128 0x1
 3317 00e7 13       		.uleb128 0x13
 3318 00e8 00       		.byte	0
 3319 00e9 00       		.byte	0
 3320 00ea 15       		.uleb128 0x15
 3321 00eb 21       		.uleb128 0x21
 3322 00ec 00       		.byte	0
 3323 00ed 49       		.uleb128 0x49
 3324 00ee 13       		.uleb128 0x13
 3325 00ef 2F       		.uleb128 0x2f
 3326 00f0 0B       		.uleb128 0xb
 3327 00f1 00       		.byte	0
 3328 00f2 00       		.byte	0
 3329 00f3 16       		.uleb128 0x16
 3330 00f4 13       		.uleb128 0x13
 3331 00f5 01       		.byte	0x1
 3332 00f6 0B       		.uleb128 0xb
 3333 00f7 0B       		.uleb128 0xb
 3334 00f8 3A       		.uleb128 0x3a
 3335 00f9 0B       		.uleb128 0xb
 3336 00fa 3B       		.uleb128 0x3b
 3337 00fb 05       		.uleb128 0x5
 3338 00fc 01       		.uleb128 0x1
 3339 00fd 13       		.uleb128 0x13
 3340 00fe 00       		.byte	0
 3341 00ff 00       		.byte	0
 3342 0100 17       		.uleb128 0x17
 3343 0101 0D       		.uleb128 0xd
 3344 0102 00       		.byte	0
 3345 0103 03       		.uleb128 0x3
 3346 0104 0E       		.uleb128 0xe
 3347 0105 3A       		.uleb128 0x3a
 3348 0106 0B       		.uleb128 0xb
 3349 0107 3B       		.uleb128 0x3b
 3350 0108 05       		.uleb128 0x5
 3351 0109 49       		.uleb128 0x49
 3352 010a 13       		.uleb128 0x13
 3353 010b 38       		.uleb128 0x38
 3354 010c 0B       		.uleb128 0xb
 3355 010d 00       		.byte	0
 3356 010e 00       		.byte	0
 3357 010f 18       		.uleb128 0x18
 3358 0110 16       		.uleb128 0x16
 3359 0111 00       		.byte	0
 3360 0112 03       		.uleb128 0x3
 3361 0113 0E       		.uleb128 0xe
ARM GAS  /var/folders/4k/6h5l9jl178sb4hslwv3xp1mr0000gn/T//ccC784Nx.s 			page 60


 3362 0114 3A       		.uleb128 0x3a
 3363 0115 0B       		.uleb128 0xb
 3364 0116 3B       		.uleb128 0x3b
 3365 0117 05       		.uleb128 0x5
 3366 0118 49       		.uleb128 0x49
 3367 0119 13       		.uleb128 0x13
 3368 011a 00       		.byte	0
 3369 011b 00       		.byte	0
 3370 011c 19       		.uleb128 0x19
 3371 011d 0D       		.uleb128 0xd
 3372 011e 00       		.byte	0
 3373 011f 03       		.uleb128 0x3
 3374 0120 08       		.uleb128 0x8
 3375 0121 3A       		.uleb128 0x3a
 3376 0122 0B       		.uleb128 0xb
 3377 0123 3B       		.uleb128 0x3b
 3378 0124 0B       		.uleb128 0xb
 3379 0125 49       		.uleb128 0x49
 3380 0126 13       		.uleb128 0x13
 3381 0127 00       		.byte	0
 3382 0128 00       		.byte	0
 3383 0129 1A       		.uleb128 0x1a
 3384 012a 04       		.uleb128 0x4
 3385 012b 01       		.byte	0x1
 3386 012c 0B       		.uleb128 0xb
 3387 012d 0B       		.uleb128 0xb
 3388 012e 3A       		.uleb128 0x3a
 3389 012f 0B       		.uleb128 0xb
 3390 0130 3B       		.uleb128 0x3b
 3391 0131 0B       		.uleb128 0xb
 3392 0132 01       		.uleb128 0x1
 3393 0133 13       		.uleb128 0x13
 3394 0134 00       		.byte	0
 3395 0135 00       		.byte	0
 3396 0136 1B       		.uleb128 0x1b
 3397 0137 28       		.uleb128 0x28
 3398 0138 00       		.byte	0
 3399 0139 03       		.uleb128 0x3
 3400 013a 0E       		.uleb128 0xe
 3401 013b 1C       		.uleb128 0x1c
 3402 013c 0D       		.uleb128 0xd
 3403 013d 00       		.byte	0
 3404 013e 00       		.byte	0
 3405 013f 1C       		.uleb128 0x1c
 3406 0140 04       		.uleb128 0x4
 3407 0141 01       		.byte	0x1
 3408 0142 0B       		.uleb128 0xb
 3409 0143 0B       		.uleb128 0xb
 3410 0144 3A       		.uleb128 0x3a
 3411 0145 0B       		.uleb128 0xb
 3412 0146 3B       		.uleb128 0x3b
 3413 0147 05       		.uleb128 0x5
 3414 0148 01       		.uleb128 0x1
 3415 0149 13       		.uleb128 0x13
 3416 014a 00       		.byte	0
 3417 014b 00       		.byte	0
 3418 014c 1D       		.uleb128 0x1d
ARM GAS  /var/folders/4k/6h5l9jl178sb4hslwv3xp1mr0000gn/T//ccC784Nx.s 			page 61


 3419 014d 2E       		.uleb128 0x2e
 3420 014e 01       		.byte	0x1
 3421 014f 3F       		.uleb128 0x3f
 3422 0150 19       		.uleb128 0x19
 3423 0151 03       		.uleb128 0x3
 3424 0152 0E       		.uleb128 0xe
 3425 0153 3A       		.uleb128 0x3a
 3426 0154 0B       		.uleb128 0xb
 3427 0155 3B       		.uleb128 0x3b
 3428 0156 0B       		.uleb128 0xb
 3429 0157 27       		.uleb128 0x27
 3430 0158 19       		.uleb128 0x19
 3431 0159 11       		.uleb128 0x11
 3432 015a 01       		.uleb128 0x1
 3433 015b 12       		.uleb128 0x12
 3434 015c 06       		.uleb128 0x6
 3435 015d 40       		.uleb128 0x40
 3436 015e 18       		.uleb128 0x18
 3437 015f 9742     		.uleb128 0x2117
 3438 0161 19       		.uleb128 0x19
 3439 0162 01       		.uleb128 0x1
 3440 0163 13       		.uleb128 0x13
 3441 0164 00       		.byte	0
 3442 0165 00       		.byte	0
 3443 0166 1E       		.uleb128 0x1e
 3444 0167 898201   		.uleb128 0x4109
 3445 016a 01       		.byte	0x1
 3446 016b 11       		.uleb128 0x11
 3447 016c 01       		.uleb128 0x1
 3448 016d 31       		.uleb128 0x31
 3449 016e 13       		.uleb128 0x13
 3450 016f 01       		.uleb128 0x1
 3451 0170 13       		.uleb128 0x13
 3452 0171 00       		.byte	0
 3453 0172 00       		.byte	0
 3454 0173 1F       		.uleb128 0x1f
 3455 0174 8A8201   		.uleb128 0x410a
 3456 0177 00       		.byte	0
 3457 0178 02       		.uleb128 0x2
 3458 0179 18       		.uleb128 0x18
 3459 017a 9142     		.uleb128 0x2111
 3460 017c 18       		.uleb128 0x18
 3461 017d 00       		.byte	0
 3462 017e 00       		.byte	0
 3463 017f 20       		.uleb128 0x20
 3464 0180 898201   		.uleb128 0x4109
 3465 0183 01       		.byte	0x1
 3466 0184 11       		.uleb128 0x11
 3467 0185 01       		.uleb128 0x1
 3468 0186 31       		.uleb128 0x31
 3469 0187 13       		.uleb128 0x13
 3470 0188 00       		.byte	0
 3471 0189 00       		.byte	0
 3472 018a 21       		.uleb128 0x21
 3473 018b 34       		.uleb128 0x34
 3474 018c 00       		.byte	0
 3475 018d 03       		.uleb128 0x3
ARM GAS  /var/folders/4k/6h5l9jl178sb4hslwv3xp1mr0000gn/T//ccC784Nx.s 			page 62


 3476 018e 0E       		.uleb128 0xe
 3477 018f 3A       		.uleb128 0x3a
 3478 0190 0B       		.uleb128 0xb
 3479 0191 3B       		.uleb128 0x3b
 3480 0192 0B       		.uleb128 0xb
 3481 0193 49       		.uleb128 0x49
 3482 0194 13       		.uleb128 0x13
 3483 0195 00       		.byte	0
 3484 0196 00       		.byte	0
 3485 0197 22       		.uleb128 0x22
 3486 0198 34       		.uleb128 0x34
 3487 0199 00       		.byte	0
 3488 019a 03       		.uleb128 0x3
 3489 019b 0E       		.uleb128 0xe
 3490 019c 3A       		.uleb128 0x3a
 3491 019d 0B       		.uleb128 0xb
 3492 019e 3B       		.uleb128 0x3b
 3493 019f 0B       		.uleb128 0xb
 3494 01a0 49       		.uleb128 0x49
 3495 01a1 13       		.uleb128 0x13
 3496 01a2 02       		.uleb128 0x2
 3497 01a3 18       		.uleb128 0x18
 3498 01a4 00       		.byte	0
 3499 01a5 00       		.byte	0
 3500 01a6 23       		.uleb128 0x23
 3501 01a7 34       		.uleb128 0x34
 3502 01a8 00       		.byte	0
 3503 01a9 03       		.uleb128 0x3
 3504 01aa 0E       		.uleb128 0xe
 3505 01ab 3A       		.uleb128 0x3a
 3506 01ac 0B       		.uleb128 0xb
 3507 01ad 3B       		.uleb128 0x3b
 3508 01ae 05       		.uleb128 0x5
 3509 01af 49       		.uleb128 0x49
 3510 01b0 13       		.uleb128 0x13
 3511 01b1 3F       		.uleb128 0x3f
 3512 01b2 19       		.uleb128 0x19
 3513 01b3 3C       		.uleb128 0x3c
 3514 01b4 19       		.uleb128 0x19
 3515 01b5 00       		.byte	0
 3516 01b6 00       		.byte	0
 3517 01b7 24       		.uleb128 0x24
 3518 01b8 34       		.uleb128 0x34
 3519 01b9 00       		.byte	0
 3520 01ba 03       		.uleb128 0x3
 3521 01bb 08       		.uleb128 0x8
 3522 01bc 3A       		.uleb128 0x3a
 3523 01bd 0B       		.uleb128 0xb
 3524 01be 3B       		.uleb128 0x3b
 3525 01bf 05       		.uleb128 0x5
 3526 01c0 49       		.uleb128 0x49
 3527 01c1 13       		.uleb128 0x13
 3528 01c2 3F       		.uleb128 0x3f
 3529 01c3 19       		.uleb128 0x19
 3530 01c4 3C       		.uleb128 0x3c
 3531 01c5 19       		.uleb128 0x19
 3532 01c6 00       		.byte	0
ARM GAS  /var/folders/4k/6h5l9jl178sb4hslwv3xp1mr0000gn/T//ccC784Nx.s 			page 63


 3533 01c7 00       		.byte	0
 3534 01c8 25       		.uleb128 0x25
 3535 01c9 34       		.uleb128 0x34
 3536 01ca 00       		.byte	0
 3537 01cb 03       		.uleb128 0x3
 3538 01cc 0E       		.uleb128 0xe
 3539 01cd 3A       		.uleb128 0x3a
 3540 01ce 0B       		.uleb128 0xb
 3541 01cf 3B       		.uleb128 0x3b
 3542 01d0 0B       		.uleb128 0xb
 3543 01d1 49       		.uleb128 0x49
 3544 01d2 13       		.uleb128 0x13
 3545 01d3 3F       		.uleb128 0x3f
 3546 01d4 19       		.uleb128 0x19
 3547 01d5 02       		.uleb128 0x2
 3548 01d6 18       		.uleb128 0x18
 3549 01d7 00       		.byte	0
 3550 01d8 00       		.byte	0
 3551 01d9 26       		.uleb128 0x26
 3552 01da 2E       		.uleb128 0x2e
 3553 01db 01       		.byte	0x1
 3554 01dc 3F       		.uleb128 0x3f
 3555 01dd 19       		.uleb128 0x19
 3556 01de 03       		.uleb128 0x3
 3557 01df 0E       		.uleb128 0xe
 3558 01e0 3A       		.uleb128 0x3a
 3559 01e1 0B       		.uleb128 0xb
 3560 01e2 3B       		.uleb128 0x3b
 3561 01e3 05       		.uleb128 0x5
 3562 01e4 27       		.uleb128 0x27
 3563 01e5 19       		.uleb128 0x19
 3564 01e6 3C       		.uleb128 0x3c
 3565 01e7 19       		.uleb128 0x19
 3566 01e8 01       		.uleb128 0x1
 3567 01e9 13       		.uleb128 0x13
 3568 01ea 00       		.byte	0
 3569 01eb 00       		.byte	0
 3570 01ec 27       		.uleb128 0x27
 3571 01ed 2E       		.uleb128 0x2e
 3572 01ee 01       		.byte	0x1
 3573 01ef 3F       		.uleb128 0x3f
 3574 01f0 19       		.uleb128 0x19
 3575 01f1 03       		.uleb128 0x3
 3576 01f2 0E       		.uleb128 0xe
 3577 01f3 3A       		.uleb128 0x3a
 3578 01f4 0B       		.uleb128 0xb
 3579 01f5 3B       		.uleb128 0x3b
 3580 01f6 0B       		.uleb128 0xb
 3581 01f7 27       		.uleb128 0x27
 3582 01f8 19       		.uleb128 0x19
 3583 01f9 3C       		.uleb128 0x3c
 3584 01fa 19       		.uleb128 0x19
 3585 01fb 01       		.uleb128 0x1
 3586 01fc 13       		.uleb128 0x13
 3587 01fd 00       		.byte	0
 3588 01fe 00       		.byte	0
 3589 01ff 00       		.byte	0
ARM GAS  /var/folders/4k/6h5l9jl178sb4hslwv3xp1mr0000gn/T//ccC784Nx.s 			page 64


 3590              		.section	.debug_aranges,"",%progbits
 3591 0000 1C000000 		.4byte	0x1c
 3592 0004 0200     		.2byte	0x2
 3593 0006 00000000 		.4byte	.Ldebug_info0
 3594 000a 04       		.byte	0x4
 3595 000b 00       		.byte	0
 3596 000c 0000     		.2byte	0
 3597 000e 0000     		.2byte	0
 3598 0010 00000000 		.4byte	.LFB119
 3599 0014 94010000 		.4byte	.LFE119-.LFB119
 3600 0018 00000000 		.4byte	0
 3601 001c 00000000 		.4byte	0
 3602              		.section	.debug_ranges,"",%progbits
 3603              	.Ldebug_ranges0:
 3604 0000 00000000 		.4byte	.LFB119
 3605 0004 94010000 		.4byte	.LFE119
 3606 0008 00000000 		.4byte	0
 3607 000c 00000000 		.4byte	0
 3608              		.section	.debug_line,"",%progbits
 3609              	.Ldebug_line0:
 3610 0000 84040000 		.section	.debug_str,"MS",%progbits,1
 3610      02003804 
 3610      00000201 
 3610      FB0E0D00 
 3610      01010101 
 3611              	.LASF91:
 3612 0000 4D314152 		.ascii	"M1AR\000"
 3612      00
 3613              	.LASF2:
 3614 0005 73697A65 		.ascii	"size_t\000"
 3614      5F7400
 3615              	.LASF53:
 3616 000c 73697A65 		.ascii	"sizetype\000"
 3616      74797065 
 3616      00
 3617              	.LASF27:
 3618 0015 73797374 		.ascii	"systime_t\000"
 3618      696D655F 
 3618      7400
 3619              	.LASF32:
 3620 001f 705F6374 		.ascii	"p_ctx\000"
 3620      7800
 3621              	.LASF23:
 3622 0025 74707269 		.ascii	"tprio_t\000"
 3622      6F5F7400 
 3623              	.LASF42:
 3624 002d 705F6D73 		.ascii	"p_msgqueue\000"
 3624      67717565 
 3624      756500
 3625              	.LASF144:
 3626 0038 6672616D 		.ascii	"frame_end_cb\000"
 3626      655F656E 
 3626      645F6362 
 3626      00
 3627              	.LASF16:
 3628 0045 696E7433 		.ascii	"int32_t\000"
 3628      325F7400 
ARM GAS  /var/folders/4k/6h5l9jl178sb4hslwv3xp1mr0000gn/T//ccC784Nx.s 			page 65


 3629              	.LASF212:
 3630 004d 53657269 		.ascii	"SerialConfig\000"
 3630      616C436F 
 3630      6E666967 
 3630      00
 3631              	.LASF218:
 3632 005a 77726974 		.ascii	"writet\000"
 3632      657400
 3633              	.LASF161:
 3634 0061 46415354 		.ascii	"FAST_DUTY_CYCLE_2\000"
 3634      5F445554 
 3634      595F4359 
 3634      434C455F 
 3634      3200
 3635              	.LASF214:
 3636 0073 77726974 		.ascii	"write\000"
 3636      6500
 3637              	.LASF62:
 3638 0079 656C5F66 		.ascii	"el_flags\000"
 3638      6C616773 
 3638      00
 3639              	.LASF138:
 3640 0082 636F6E66 		.ascii	"config\000"
 3640      696700
 3641              	.LASF137:
 3642 0089 73746174 		.ascii	"state\000"
 3642      6500
 3643              	.LASF216:
 3644 008f 70757474 		.ascii	"putt\000"
 3644      00
 3645              	.LASF197:
 3646 0094 50574D43 		.ascii	"PWMChannelConfig\000"
 3646      68616E6E 
 3646      656C436F 
 3646      6E666967 
 3646      00
 3647              	.LASF225:
 3648 00a5 75617274 		.ascii	"uart2_config\000"
 3648      325F636F 
 3648      6E666967 
 3648      00
 3649              	.LASF188:
 3650 00b2 444D4152 		.ascii	"DMAR\000"
 3650      00
 3651              	.LASF200:
 3652 00b7 64696572 		.ascii	"dier\000"
 3652      00
 3653              	.LASF174:
 3654 00bc 50574D5F 		.ascii	"PWM_UNINIT\000"
 3654      554E494E 
 3654      495400
 3655              	.LASF196:
 3656 00c7 63616C6C 		.ascii	"callback\000"
 3656      6261636B 
 3656      00
 3657              	.LASF127:
 3658 00d0 696F6D6F 		.ascii	"iomode_t\000"
ARM GAS  /var/folders/4k/6h5l9jl178sb4hslwv3xp1mr0000gn/T//ccC784Nx.s 			page 66


 3658      64655F74 
 3658      00
 3659              	.LASF226:
 3660 00d9 5F70616C 		.ascii	"_pal_lld_setgroupmode\000"
 3660      5F6C6C64 
 3660      5F736574 
 3660      67726F75 
 3660      706D6F64 
 3661              	.LASF56:
 3662 00ef 6D5F6F77 		.ascii	"m_owner\000"
 3662      6E657200 
 3663              	.LASF66:
 3664 00f7 65786974 		.ascii	"exitcode\000"
 3664      636F6465 
 3664      00
 3665              	.LASF190:
 3666 0100 43435235 		.ascii	"CCR5\000"
 3666      00
 3667              	.LASF3:
 3668 0105 5F5F7569 		.ascii	"__uint8_t\000"
 3668      6E74385F 
 3668      7400
 3669              	.LASF154:
 3670 010f 69326361 		.ascii	"i2caddr_t\000"
 3670      6464725F 
 3670      7400
 3671              	.LASF74:
 3672 0119 715F746F 		.ascii	"q_top\000"
 3672      7000
 3673              	.LASF68:
 3674 011f 65776D61 		.ascii	"ewmask\000"
 3674      736B00
 3675              	.LASF120:
 3676 0126 50555044 		.ascii	"PUPDR\000"
 3676      5200
 3677              	.LASF163:
 3678 012c 69326364 		.ascii	"i2cdutycycle_t\000"
 3678      75747963 
 3678      79636C65 
 3678      5F7400
 3679              	.LASF219:
 3680 013b 72656164 		.ascii	"readt\000"
 3680      7400
 3681              	.LASF73:
 3682 0141 715F6275 		.ascii	"q_buffer\000"
 3682      66666572 
 3682      00
 3683              	.LASF77:
 3684 014a 715F6E6F 		.ascii	"q_notify\000"
 3684      74696679 
 3684      00
 3685              	.LASF33:
 3686 0153 705F6E65 		.ascii	"p_newer\000"
 3686      77657200 
 3687              	.LASF9:
 3688 015b 6C6F6E67 		.ascii	"long int\000"
 3688      20696E74 
ARM GAS  /var/folders/4k/6h5l9jl178sb4hslwv3xp1mr0000gn/T//ccC784Nx.s 			page 67


 3688      00
 3689              	.LASF29:
 3690 0164 705F6E65 		.ascii	"p_next\000"
 3690      787400
 3691              	.LASF76:
 3692 016b 715F7264 		.ascii	"q_rdptr\000"
 3692      70747200 
 3693              	.LASF140:
 3694 0173 64636D69 		.ascii	"dcmi\000"
 3694      00
 3695              	.LASF30:
 3696 0178 705F7072 		.ascii	"p_prev\000"
 3696      657600
 3697              	.LASF87:
 3698 017f 43575349 		.ascii	"CWSIZER\000"
 3698      5A455200 
 3699              	.LASF128:
 3700 0187 696F706F 		.ascii	"ioportid_t\000"
 3700      72746964 
 3700      5F7400
 3701              	.LASF20:
 3702 0192 74737461 		.ascii	"tstate_t\000"
 3702      74655F74 
 3702      00
 3703              	.LASF45:
 3704 019b 705F6D74 		.ascii	"p_mtxlist\000"
 3704      786C6973 
 3704      7400
 3705              	.LASF209:
 3706 01a5 6F717565 		.ascii	"oqueue\000"
 3706      756500
 3707              	.LASF231:
 3708 01ac 6877696E 		.ascii	"hwinit.c\000"
 3708      69742E63 
 3708      00
 3709              	.LASF50:
 3710 01b5 72656761 		.ascii	"regarm_t\000"
 3710      726D5F74 
 3710      00
 3711              	.LASF133:
 3712 01be 44434D49 		.ascii	"DCMI_LISTEN_ONCE\000"
 3712      5F4C4953 
 3712      54454E5F 
 3712      4F4E4345 
 3712      00
 3713              	.LASF234:
 3714 01cf 64636D69 		.ascii	"dcmicfg\000"
 3714      63666700 
 3715              	.LASF146:
 3716 01d7 44434D49 		.ascii	"DCMIConfig\000"
 3716      436F6E66 
 3716      696700
 3717              	.LASF210:
 3718 01e2 75736172 		.ascii	"usart\000"
 3718      7400
 3719              	.LASF1:
 3720 01e8 7369676E 		.ascii	"signed char\000"
ARM GAS  /var/folders/4k/6h5l9jl178sb4hslwv3xp1mr0000gn/T//ccC784Nx.s 			page 68


 3720      65642063 
 3720      68617200 
 3721              	.LASF39:
 3722 01f4 705F7072 		.ascii	"p_preempt\000"
 3722      65656D70 
 3722      7400
 3723              	.LASF14:
 3724 01fe 75696E74 		.ascii	"uint8_t\000"
 3724      385F7400 
 3725              	.LASF130:
 3726 0206 44434D49 		.ascii	"DCMI_STOP\000"
 3726      5F53544F 
 3726      5000
 3727              	.LASF25:
 3728 0210 6576656E 		.ascii	"eventmask_t\000"
 3728      746D6173 
 3728      6B5F7400 
 3729              	.LASF52:
 3730 021c 636F6E74 		.ascii	"context\000"
 3730      65787400 
 3731              	.LASF220:
 3732 0224 69326366 		.ascii	"i2cfg1\000"
 3732      673100
 3733              	.LASF194:
 3734 022b 70776D63 		.ascii	"pwmcnt_t\000"
 3734      6E745F74 
 3734      00
 3735              	.LASF93:
 3736 0234 52455345 		.ascii	"RESERVED0\000"
 3736      52564544 
 3736      3000
 3737              	.LASF94:
 3738 023e 52455345 		.ascii	"RESERVED1\000"
 3738      52564544 
 3738      3100
 3739              	.LASF4:
 3740 0248 756E7369 		.ascii	"unsigned char\000"
 3740      676E6564 
 3740      20636861 
 3740      7200
 3741              	.LASF98:
 3742 0256 52455345 		.ascii	"RESERVED3\000"
 3742      52564544 
 3742      3300
 3743              	.LASF99:
 3744 0260 52455345 		.ascii	"RESERVED4\000"
 3744      52564544 
 3744      3400
 3745              	.LASF78:
 3746 026a 715F6C69 		.ascii	"q_link\000"
 3746      6E6B00
 3747              	.LASF101:
 3748 0271 52455345 		.ascii	"RESERVED6\000"
 3748      52564544 
 3748      3600
 3749              	.LASF102:
 3750 027b 52455345 		.ascii	"RESERVED7\000"
ARM GAS  /var/folders/4k/6h5l9jl178sb4hslwv3xp1mr0000gn/T//ccC784Nx.s 			page 69


 3750      52564544 
 3750      3700
 3751              	.LASF104:
 3752 0285 52455345 		.ascii	"RESERVED8\000"
 3752      52564544 
 3752      3800
 3753              	.LASF106:
 3754 028f 52455345 		.ascii	"RESERVED9\000"
 3754      52564544 
 3754      3900
 3755              	.LASF202:
 3756 0299 53445F55 		.ascii	"SD_UNINIT\000"
 3756      4E494E49 
 3756      5400
 3757              	.LASF151:
 3758 02a3 4932435F 		.ascii	"I2C_ACTIVE_RX\000"
 3758      41435449 
 3758      56455F52 
 3758      5800
 3759              	.LASF18:
 3760 02b1 5F426F6F 		.ascii	"_Bool\000"
 3760      6C00
 3761              	.LASF96:
 3762 02b7 52455345 		.ascii	"RESERVED2\000"
 3762      52564544 
 3762      3200
 3763              	.LASF100:
 3764 02c1 52455345 		.ascii	"RESERVED5\000"
 3764      52564544 
 3764      3500
 3765              	.LASF184:
 3766 02cb 43434D52 		.ascii	"CCMR1\000"
 3766      3100
 3767              	.LASF185:
 3768 02d1 43434D52 		.ascii	"CCMR2\000"
 3768      3200
 3769              	.LASF189:
 3770 02d7 43434D52 		.ascii	"CCMR3\000"
 3770      3300
 3771              	.LASF156:
 3772 02dd 4F504D4F 		.ascii	"OPMODE_I2C\000"
 3772      44455F49 
 3772      324300
 3773              	.LASF69:
 3774 02e8 63686172 		.ascii	"char\000"
 3774      00
 3775              	.LASF223:
 3776 02ed 49324344 		.ascii	"I2CD1\000"
 3776      3100
 3777              	.LASF112:
 3778 02f3 69736869 		.ascii	"ishift\000"
 3778      667400
 3779              	.LASF232:
 3780 02fa 2F557365 		.ascii	"/Users/mikevanis/Documents/workspace/STM32_DCMI_CAM"
 3780      72732F6D 
 3780      696B6576 
 3780      616E6973 
ARM GAS  /var/folders/4k/6h5l9jl178sb4hslwv3xp1mr0000gn/T//ccC784Nx.s 			page 70


 3780      2F446F63 
 3781 032d 4552412F 		.ascii	"ERA/\000"
 3781      00
 3782              	.LASF31:
 3783 0332 705F7072 		.ascii	"p_prio\000"
 3783      696F00
 3784              	.LASF6:
 3785 0339 5F5F7569 		.ascii	"__uint16_t\000"
 3785      6E743136 
 3785      5F7400
 3786              	.LASF70:
 3787 0344 47656E65 		.ascii	"GenericQueue\000"
 3787      72696351 
 3787      75657565 
 3787      00
 3788              	.LASF67:
 3789 0351 77746F62 		.ascii	"wtobjp\000"
 3789      6A7000
 3790              	.LASF169:
 3791 0358 6572726F 		.ascii	"errors\000"
 3791      727300
 3792              	.LASF217:
 3793 035f 67657474 		.ascii	"gett\000"
 3793      00
 3794              	.LASF109:
 3795 0364 55534152 		.ascii	"USART_TypeDef\000"
 3795      545F5479 
 3795      70654465 
 3795      6600
 3796              	.LASF81:
 3797 0372 4F757470 		.ascii	"OutputQueue\000"
 3797      75745175 
 3797      65756500 
 3798              	.LASF150:
 3799 037e 4932435F 		.ascii	"I2C_ACTIVE_TX\000"
 3799      41435449 
 3799      56455F54 
 3799      5800
 3800              	.LASF110:
 3801 038c 73747265 		.ascii	"stream\000"
 3801      616D00
 3802              	.LASF126:
 3803 0393 696F706F 		.ascii	"ioportmask_t\000"
 3803      72746D61 
 3803      736B5F74 
 3803      00
 3804              	.LASF193:
 3805 03a0 70776D6D 		.ascii	"pwmmode_t\000"
 3805      6F64655F 
 3805      7400
 3806              	.LASF51:
 3807 03aa 696E7463 		.ascii	"intctx\000"
 3807      747800
 3808              	.LASF211:
 3809 03b1 73706565 		.ascii	"speed\000"
 3809      6400
 3810              	.LASF44:
ARM GAS  /var/folders/4k/6h5l9jl178sb4hslwv3xp1mr0000gn/T//ccC784Nx.s 			page 71


 3811 03b7 705F6570 		.ascii	"p_epending\000"
 3811      656E6469 
 3811      6E6700
 3812              	.LASF152:
 3813 03c2 4932435F 		.ascii	"I2C_LOCKED\000"
 3813      4C4F434B 
 3813      454400
 3814              	.LASF166:
 3815 03cd 64757479 		.ascii	"duty_cycle\000"
 3815      5F637963 
 3815      6C6500
 3816              	.LASF116:
 3817 03d8 636C6561 		.ascii	"clear\000"
 3817      7200
 3818              	.LASF168:
 3819 03de 49324344 		.ascii	"I2CDriver\000"
 3819      72697665 
 3819      7200
 3820              	.LASF64:
 3821 03e8 65735F6E 		.ascii	"es_next\000"
 3821      65787400 
 3822              	.LASF72:
 3823 03f0 715F636F 		.ascii	"q_counter\000"
 3823      756E7465 
 3823      7200
 3824              	.LASF129:
 3825 03fa 44434D49 		.ascii	"DCMI_UNINIT\000"
 3825      5F554E49 
 3825      4E495400 
 3826              	.LASF63:
 3827 0406 4576656E 		.ascii	"EventSource\000"
 3827      74536F75 
 3827      72636500 
 3828              	.LASF11:
 3829 0412 6C6F6E67 		.ascii	"long unsigned int\000"
 3829      20756E73 
 3829      69676E65 
 3829      6420696E 
 3829      7400
 3830              	.LASF183:
 3831 0424 44494552 		.ascii	"DIER\000"
 3831      00
 3832              	.LASF83:
 3833 0429 4D495352 		.ascii	"MISR\000"
 3833      00
 3834              	.LASF59:
 3835 042e 656C5F6E 		.ascii	"el_next\000"
 3835      65787400 
 3836              	.LASF103:
 3837 0436 54524953 		.ascii	"TRISE\000"
 3837      4500
 3838              	.LASF115:
 3839 043c 73746D33 		.ascii	"stm32_dma_stream_t\000"
 3839      325F646D 
 3839      615F7374 
 3839      7265616D 
 3839      5F7400
ARM GAS  /var/folders/4k/6h5l9jl178sb4hslwv3xp1mr0000gn/T//ccC784Nx.s 			page 72


 3840              	.LASF75:
 3841 044f 715F7772 		.ascii	"q_wrptr\000"
 3841      70747200 
 3842              	.LASF122:
 3843 0457 4C434B52 		.ascii	"LCKR\000"
 3843      00
 3844              	.LASF131:
 3845 045c 44434D49 		.ascii	"DCMI_READY\000"
 3845      5F524541 
 3845      445900
 3846              	.LASF229:
 3847 0467 73645374 		.ascii	"sdStart\000"
 3847      61727400 
 3848              	.LASF192:
 3849 046f 73746D33 		.ascii	"stm32_tim_t\000"
 3849      325F7469 
 3849      6D5F7400 
 3850              	.LASF180:
 3851 047b 636C6F63 		.ascii	"clock\000"
 3851      6B00
 3852              	.LASF85:
 3853 0481 45535552 		.ascii	"ESUR\000"
 3853      00
 3854              	.LASF119:
 3855 0486 4F535045 		.ascii	"OSPEEDR\000"
 3855      45445200 
 3856              	.LASF141:
 3857 048e 646D6172 		.ascii	"dmarx\000"
 3857      7800
 3858              	.LASF233:
 3859 0494 6877496E 		.ascii	"hwInit\000"
 3859      697400
 3860              	.LASF10:
 3861 049b 5F5F7569 		.ascii	"__uint32_t\000"
 3861      6E743332 
 3861      5F7400
 3862              	.LASF88:
 3863 04a6 44434D49 		.ascii	"DCMI_TypeDef\000"
 3863      5F547970 
 3863      65446566 
 3863      00
 3864              	.LASF54:
 3865 04b3 4D757465 		.ascii	"Mutex\000"
 3865      7800
 3866              	.LASF12:
 3867 04b9 6C6F6E67 		.ascii	"long long int\000"
 3867      206C6F6E 
 3867      6720696E 
 3867      7400
 3868              	.LASF147:
 3869 04c7 4932435F 		.ascii	"I2C_UNINIT\000"
 3869      554E494E 
 3869      495400
 3870              	.LASF55:
 3871 04d2 6D5F7175 		.ascii	"m_queue\000"
 3871      65756500 
 3872              	.LASF145:
ARM GAS  /var/folders/4k/6h5l9jl178sb4hslwv3xp1mr0000gn/T//ccC784Nx.s 			page 73


 3873 04da 7472616E 		.ascii	"transfer_complete_cb\000"
 3873      73666572 
 3873      5F636F6D 
 3873      706C6574 
 3873      655F6362 
 3874              	.LASF108:
 3875 04ef 47545052 		.ascii	"GTPR\000"
 3875      00
 3876              	.LASF228:
 3877 04f4 70776D53 		.ascii	"pwmStart\000"
 3877      74617274 
 3877      00
 3878              	.LASF213:
 3879 04fd 53657269 		.ascii	"SerialDriverVMT\000"
 3879      616C4472 
 3879      69766572 
 3879      564D5400 
 3880              	.LASF105:
 3881 050d 464C5452 		.ascii	"FLTR\000"
 3881      00
 3882              	.LASF153:
 3883 0512 69326373 		.ascii	"i2cstate_t\000"
 3883      74617465 
 3883      5F7400
 3884              	.LASF170:
 3885 051d 6D757465 		.ascii	"mutex\000"
 3885      7800
 3886              	.LASF222:
 3887 0523 49544D5F 		.ascii	"ITM_RxBuffer\000"
 3887      52784275 
 3887      66666572 
 3887      00
 3888              	.LASF198:
 3889 0530 66726571 		.ascii	"frequency\000"
 3889      75656E63 
 3889      7900
 3890              	.LASF142:
 3891 053a 7278646D 		.ascii	"rxdmamode\000"
 3891      616D6F64 
 3891      6500
 3892              	.LASF79:
 3893 0544 716E6F74 		.ascii	"qnotify_t\000"
 3893      6966795F 
 3893      7400
 3894              	.LASF41:
 3895 054e 705F7761 		.ascii	"p_waiting\000"
 3895      6974696E 
 3895      6700
 3896              	.LASF207:
 3897 0558 6576656E 		.ascii	"event\000"
 3897      7400
 3898              	.LASF171:
 3899 055e 61646472 		.ascii	"addr\000"
 3899      00
 3900              	.LASF173:
 3901 0563 646D6174 		.ascii	"dmatx\000"
 3901      7800
ARM GAS  /var/folders/4k/6h5l9jl178sb4hslwv3xp1mr0000gn/T//ccC784Nx.s 			page 74


 3902              	.LASF117:
 3903 0569 4D4F4445 		.ascii	"MODER\000"
 3903      5200
 3904              	.LASF37:
 3905 056f 705F666C 		.ascii	"p_flags\000"
 3905      61677300 
 3906              	.LASF215:
 3907 0577 72656164 		.ascii	"read\000"
 3907      00
 3908              	.LASF113:
 3909 057c 73656C66 		.ascii	"selfindex\000"
 3909      696E6465 
 3909      7800
 3910              	.LASF0:
 3911 0586 756E7369 		.ascii	"unsigned int\000"
 3911      676E6564 
 3911      20696E74 
 3911      00
 3912              	.LASF143:
 3913 0593 64636D69 		.ascii	"dcmicallback_t\000"
 3913      63616C6C 
 3913      6261636B 
 3913      5F7400
 3914              	.LASF47:
 3915 05a2 705F6D70 		.ascii	"p_mpool\000"
 3915      6F6F6C00 
 3916              	.LASF199:
 3917 05aa 6368616E 		.ascii	"channels\000"
 3917      6E656C73 
 3917      00
 3918              	.LASF38:
 3919 05b3 705F7265 		.ascii	"p_refs\000"
 3919      667300
 3920              	.LASF181:
 3921 05ba 70776D63 		.ascii	"pwmcallback_t\000"
 3921      616C6C62 
 3921      61636B5F 
 3921      7400
 3922              	.LASF49:
 3923 05c8 54687265 		.ascii	"ThreadsList\000"
 3923      6164734C 
 3923      69737400 
 3924              	.LASF86:
 3925 05d4 43575354 		.ascii	"CWSTRTR\000"
 3925      52545200 
 3926              	.LASF178:
 3927 05dc 50574D44 		.ascii	"PWMDriver\000"
 3927      72697665 
 3927      7200
 3928              	.LASF149:
 3929 05e6 4932435F 		.ascii	"I2C_READY\000"
 3929      52454144 
 3929      5900
 3930              	.LASF26:
 3931 05f0 666C6167 		.ascii	"flagsmask_t\000"
 3931      736D6173 
 3931      6B5F7400 
ARM GAS  /var/folders/4k/6h5l9jl178sb4hslwv3xp1mr0000gn/T//ccC784Nx.s 			page 75


 3932              	.LASF92:
 3933 05fc 444D415F 		.ascii	"DMA_Stream_TypeDef\000"
 3933      53747265 
 3933      616D5F54 
 3933      79706544 
 3933      656600
 3934              	.LASF40:
 3935 060f 705F7469 		.ascii	"p_time\000"
 3935      6D6500
 3936              	.LASF230:
 3937 0616 474E5520 		.ascii	"GNU C 4.8.3 20140228 (release) [ARM/embedded-4_8-br"
 3937      4320342E 
 3937      382E3320 
 3937      32303134 
 3937      30323238 
 3938 0649 616E6368 		.ascii	"anch revision 208322] -mcpu=cortex-m4 -mno-thumb-in"
 3938      20726576 
 3938      6973696F 
 3938      6E203230 
 3938      38333232 
 3939 067c 74657277 		.ascii	"terwork -mthumb -ggdb -O2 -fomit-frame-pointer -fal"
 3939      6F726B20 
 3939      2D6D7468 
 3939      756D6220 
 3939      2D676764 
 3940 06af 69676E2D 		.ascii	"ign-functions=16 -ffunction-sections -fdata-section"
 3940      66756E63 
 3940      74696F6E 
 3940      733D3136 
 3940      202D6666 
 3941 06e2 73202D66 		.ascii	"s -fno-common\000"
 3941      6E6F2D63 
 3941      6F6D6D6F 
 3941      6E00
 3942              	.LASF191:
 3943 06f0 43435236 		.ascii	"CCR6\000"
 3943      00
 3944              	.LASF162:
 3945 06f5 46415354 		.ascii	"FAST_DUTY_CYCLE_16_9\000"
 3945      5F445554 
 3945      595F4359 
 3945      434C455F 
 3945      31365F39 
 3946              	.LASF46:
 3947 070a 705F7265 		.ascii	"p_realprio\000"
 3947      616C7072 
 3947      696F00
 3948              	.LASF167:
 3949 0715 49324343 		.ascii	"I2CConfig\000"
 3949      6F6E6669 
 3949      6700
 3950              	.LASF13:
 3951 071f 6C6F6E67 		.ascii	"long long unsigned int\000"
 3951      206C6F6E 
 3951      6720756E 
 3951      7369676E 
 3951      65642069 
ARM GAS  /var/folders/4k/6h5l9jl178sb4hslwv3xp1mr0000gn/T//ccC784Nx.s 			page 76


 3952              	.LASF175:
 3953 0736 50574D5F 		.ascii	"PWM_STOP\000"
 3953      53544F50 
 3953      00
 3954              	.LASF34:
 3955 073f 705F6F6C 		.ascii	"p_older\000"
 3955      64657200 
 3956              	.LASF159:
 3957 0747 6932636F 		.ascii	"i2copmode_t\000"
 3957      706D6F64 
 3957      655F7400 
 3958              	.LASF15:
 3959 0753 75696E74 		.ascii	"uint16_t\000"
 3959      31365F74 
 3959      00
 3960              	.LASF24:
 3961 075c 6D73675F 		.ascii	"msg_t\000"
 3961      7400
 3962              	.LASF157:
 3963 0762 4F504D4F 		.ascii	"OPMODE_SMBUS_DEVICE\000"
 3963      44455F53 
 3963      4D425553 
 3963      5F444556 
 3963      49434500 
 3964              	.LASF186:
 3965 0776 43434552 		.ascii	"CCER\000"
 3965      00
 3966              	.LASF22:
 3967 077b 74736C69 		.ascii	"tslices_t\000"
 3967      6365735F 
 3967      7400
 3968              	.LASF134:
 3969 0785 44434D49 		.ascii	"DCMI_COMPLETE\000"
 3969      5F434F4D 
 3969      504C4554 
 3969      4500
 3970              	.LASF124:
 3971 0793 41465248 		.ascii	"AFRH\000"
 3971      00
 3972              	.LASF123:
 3973 0798 4146524C 		.ascii	"AFRL\000"
 3973      00
 3974              	.LASF114:
 3975 079d 76656374 		.ascii	"vector\000"
 3975      6F7200
 3976              	.LASF107:
 3977 07a4 4932435F 		.ascii	"I2C_TypeDef\000"
 3977      54797065 
 3977      44656600 
 3978              	.LASF160:
 3979 07b0 5354445F 		.ascii	"STD_DUTY_CYCLE\000"
 3979      44555459 
 3979      5F435943 
 3979      4C4500
 3980              	.LASF182:
 3981 07bf 534D4352 		.ascii	"SMCR\000"
 3981      00
ARM GAS  /var/folders/4k/6h5l9jl178sb4hslwv3xp1mr0000gn/T//ccC784Nx.s 			page 77


 3982              	.LASF179:
 3983 07c4 70657269 		.ascii	"period\000"
 3983      6F6400
 3984              	.LASF206:
 3985 07cb 53657269 		.ascii	"SerialDriver\000"
 3985      616C4472 
 3985      69766572 
 3985      00
 3986              	.LASF118:
 3987 07d8 4F545950 		.ascii	"OTYPER\000"
 3987      455200
 3988              	.LASF71:
 3989 07df 715F7761 		.ascii	"q_waiting\000"
 3989      6974696E 
 3989      6700
 3990              	.LASF19:
 3991 07e9 746D6F64 		.ascii	"tmode_t\000"
 3991      655F7400 
 3992              	.LASF135:
 3993 07f1 64636D69 		.ascii	"dcmistate_t\000"
 3993      73746174 
 3993      655F7400 
 3994              	.LASF95:
 3995 07fd 4F415231 		.ascii	"OAR1\000"
 3995      00
 3996              	.LASF97:
 3997 0802 4F415232 		.ascii	"OAR2\000"
 3997      00
 3998              	.LASF205:
 3999 0807 73647374 		.ascii	"sdstate_t\000"
 3999      6174655F 
 3999      7400
 4000              	.LASF132:
 4001 0811 44434D49 		.ascii	"DCMI_LISTEN\000"
 4001      5F4C4953 
 4001      54454E00 
 4002              	.LASF204:
 4003 081d 53445F52 		.ascii	"SD_READY\000"
 4003      45414459 
 4003      00
 4004              	.LASF139:
 4005 0826 74687265 		.ascii	"thread\000"
 4005      616400
 4006              	.LASF90:
 4007 082d 4D304152 		.ascii	"M0AR\000"
 4007      00
 4008              	.LASF176:
 4009 0832 50574D5F 		.ascii	"PWM_READY\000"
 4009      52454144 
 4009      5900
 4010              	.LASF5:
 4011 083c 73686F72 		.ascii	"short int\000"
 4011      7420696E 
 4011      7400
 4012              	.LASF195:
 4013 0846 6D6F6465 		.ascii	"mode\000"
 4013      00
ARM GAS  /var/folders/4k/6h5l9jl178sb4hslwv3xp1mr0000gn/T//ccC784Nx.s 			page 78


 4014              	.LASF208:
 4015 084b 69717565 		.ascii	"iqueue\000"
 4015      756500
 4016              	.LASF158:
 4017 0852 4F504D4F 		.ascii	"OPMODE_SMBUS_HOST\000"
 4017      44455F53 
 4017      4D425553 
 4017      5F484F53 
 4017      5400
 4018              	.LASF121:
 4019 0864 42535252 		.ascii	"BSRR\000"
 4019      00
 4020              	.LASF28:
 4021 0869 54687265 		.ascii	"Thread\000"
 4021      616400
 4022              	.LASF224:
 4023 0870 50574D44 		.ascii	"PWMD1\000"
 4023      3100
 4024              	.LASF125:
 4025 0876 4750494F 		.ascii	"GPIO_TypeDef\000"
 4025      5F547970 
 4025      65446566 
 4025      00
 4026              	.LASF201:
 4027 0883 50574D43 		.ascii	"PWMConfig\000"
 4027      6F6E6669 
 4027      6700
 4028              	.LASF84:
 4029 088d 45534352 		.ascii	"ESCR\000"
 4029      00
 4030              	.LASF21:
 4031 0892 74726566 		.ascii	"trefs_t\000"
 4031      735F7400 
 4032              	.LASF227:
 4033 089a 69326353 		.ascii	"i2cStart\000"
 4033      74617274 
 4033      00
 4034              	.LASF58:
 4035 08a3 4576656E 		.ascii	"EventListener\000"
 4035      744C6973 
 4035      74656E65 
 4035      7200
 4036              	.LASF164:
 4037 08b1 6F705F6D 		.ascii	"op_mode\000"
 4037      6F646500 
 4038              	.LASF177:
 4039 08b9 70776D73 		.ascii	"pwmstate_t\000"
 4039      74617465 
 4039      5F7400
 4040              	.LASF187:
 4041 08c4 42445452 		.ascii	"BDTR\000"
 4041      00
 4042              	.LASF17:
 4043 08c9 75696E74 		.ascii	"uint32_t\000"
 4043      33325F74 
 4043      00
 4044              	.LASF48:
ARM GAS  /var/folders/4k/6h5l9jl178sb4hslwv3xp1mr0000gn/T//ccC784Nx.s 			page 79


 4045 08d2 54687265 		.ascii	"ThreadsQueue\000"
 4045      61647351 
 4045      75657565 
 4045      00
 4046              	.LASF155:
 4047 08df 69326366 		.ascii	"i2cflags_t\000"
 4047      6C616773 
 4047      5F7400
 4048              	.LASF136:
 4049 08ea 44434D49 		.ascii	"DCMIDriver\000"
 4049      44726976 
 4049      657200
 4050              	.LASF221:
 4051 08f5 70776D63 		.ascii	"pwmcfg\000"
 4051      666700
 4052              	.LASF65:
 4053 08fc 7264796D 		.ascii	"rdymsg\000"
 4053      736700
 4054              	.LASF7:
 4055 0903 73686F72 		.ascii	"short unsigned int\000"
 4055      7420756E 
 4055      7369676E 
 4055      65642069 
 4055      6E7400
 4056              	.LASF165:
 4057 0916 636C6F63 		.ascii	"clock_speed\000"
 4057      6B5F7370 
 4057      65656400 
 4058              	.LASF80:
 4059 0922 496E7075 		.ascii	"InputQueue\000"
 4059      74517565 
 4059      756500
 4060              	.LASF8:
 4061 092d 5F5F696E 		.ascii	"__int32_t\000"
 4061      7433325F 
 4061      7400
 4062              	.LASF203:
 4063 0937 53445F53 		.ascii	"SD_STOP\000"
 4063      544F5000 
 4064              	.LASF82:
 4065 093f 52495352 		.ascii	"RISR\000"
 4065      00
 4066              	.LASF89:
 4067 0944 4E445452 		.ascii	"NDTR\000"
 4067      00
 4068              	.LASF61:
 4069 0949 656C5F6D 		.ascii	"el_mask\000"
 4069      61736B00 
 4070              	.LASF111:
 4071 0951 69666372 		.ascii	"ifcr\000"
 4071      00
 4072              	.LASF148:
 4073 0956 4932435F 		.ascii	"I2C_STOP\000"
 4073      53544F50 
 4073      00
 4074              	.LASF35:
 4075 095f 705F6E61 		.ascii	"p_name\000"
ARM GAS  /var/folders/4k/6h5l9jl178sb4hslwv3xp1mr0000gn/T//ccC784Nx.s 			page 80


 4075      6D6500
 4076              	.LASF57:
 4077 0966 6D5F6E65 		.ascii	"m_next\000"
 4077      787400
 4078              	.LASF172:
 4079 096d 7478646D 		.ascii	"txdmamode\000"
 4079      616D6F64 
 4079      6500
 4080              	.LASF43:
 4081 0977 705F6D73 		.ascii	"p_msg\000"
 4081      6700
 4082              	.LASF60:
 4083 097d 656C5F6C 		.ascii	"el_listener\000"
 4083      69737465 
 4083      6E657200 
 4084              	.LASF36:
 4085 0989 705F7374 		.ascii	"p_state\000"
 4085      61746500 
 4086              		.ident	"GCC: (GNU Tools for ARM Embedded Processors) 4.8.3 20140228 (release) [ARM/embedded-4_8-br
ARM GAS  /var/folders/4k/6h5l9jl178sb4hslwv3xp1mr0000gn/T//ccC784Nx.s 			page 81


DEFINED SYMBOLS
                            *ABS*:0000000000000000 hwinit.c
/var/folders/4k/6h5l9jl178sb4hslwv3xp1mr0000gn/T//ccC784Nx.s:19     .text.hwInit:0000000000000000 $t
/var/folders/4k/6h5l9jl178sb4hslwv3xp1mr0000gn/T//ccC784Nx.s:25     .text.hwInit:0000000000000000 hwInit
/var/folders/4k/6h5l9jl178sb4hslwv3xp1mr0000gn/T//ccC784Nx.s:241    .text.hwInit:0000000000000168 $d
/var/folders/4k/6h5l9jl178sb4hslwv3xp1mr0000gn/T//ccC784Nx.s:292    .data.uart2_config:0000000000000000 uart2_config
/var/folders/4k/6h5l9jl178sb4hslwv3xp1mr0000gn/T//ccC784Nx.s:257    .rodata.pwmcfg:0000000000000000 $d
/var/folders/4k/6h5l9jl178sb4hslwv3xp1mr0000gn/T//ccC784Nx.s:261    .rodata.pwmcfg:0000000000000000 pwmcfg
/var/folders/4k/6h5l9jl178sb4hslwv3xp1mr0000gn/T//ccC784Nx.s:277    .rodata.i2cfg1:0000000000000000 $d
/var/folders/4k/6h5l9jl178sb4hslwv3xp1mr0000gn/T//ccC784Nx.s:281    .rodata.i2cfg1:0000000000000000 i2cfg1
/var/folders/4k/6h5l9jl178sb4hslwv3xp1mr0000gn/T//ccC784Nx.s:288    .data.uart2_config:0000000000000000 $d
                     .debug_frame:0000000000000010 $d
/var/folders/4k/6h5l9jl178sb4hslwv3xp1mr0000gn/T//ccC784Nx.s:256    .text.hwInit:0000000000000194 $t

UNDEFINED SYMBOLS
_pal_lld_setgroupmode
i2cStart
pwmStart
sdStart
I2CD1
PWMD1
SD2
