ARM GAS  /var/folders/4k/6h5l9jl178sb4hslwv3xp1mr0000gn/T//ccC784Nx.s 			page 1


   1              		.syntax unified
   2              		.cpu cortex-m4
   3              		.fpu softvfp
   4              		.eabi_attribute 20, 1
   5              		.eabi_attribute 21, 1
   6              		.eabi_attribute 23, 3
   7              		.eabi_attribute 24, 1
   8              		.eabi_attribute 25, 1
   9              		.eabi_attribute 26, 1
  10              		.eabi_attribute 30, 2
  11              		.eabi_attribute 34, 1
  12              		.eabi_attribute 18, 4
  13              		.thumb
  14              		.file	"hwinit.c"
  15              		.text
  16              	.Ltext0:
  17              		.cfi_sections	.debug_frame
  18              		.section	.text.hwInit,"ax",%progbits
  19              		.align	2
  20              		.p2align 4,,15
  21              		.global	hwInit
  22              		.thumb
  23              		.thumb_func
  24              		.type	hwInit, %function
  25              	hwInit:
  26              	.LFB119:
  27              		.file 1 "hwinit.c"
  28              		.loc 1 39 0
  29              		.cfi_startproc
  30              		@ args = 0, pretend = 0, frame = 0
  31              		@ frame_needed = 0, uses_anonymous_args = 0
  32 0000 2DE9F843 		push	{r3, r4, r5, r6, r7, r8, r9, lr}
  33              		.cfi_def_cfa_offset 32
  34              		.cfi_offset 3, -32
  35              		.cfi_offset 4, -28
  36              		.cfi_offset 5, -24
  37              		.cfi_offset 6, -20
  38              		.cfi_offset 7, -16
  39              		.cfi_offset 8, -12
  40              		.cfi_offset 9, -8
  41              		.cfi_offset 14, -4
  42              		.loc 1 41 0
  43 0004 584F     		ldr	r7, .L2
  44              		.loc 1 48 0
  45 0006 594D     		ldr	r5, .L2+4
  46              		.loc 1 70 0
  47 0008 DFF88081 		ldr	r8, .L2+36
  48              		.loc 1 74 0
  49 000c DFF88091 		ldr	r9, .L2+40
  50              		.loc 1 87 0
  51 0010 574C     		ldr	r4, .L2+8
  52              		.loc 1 41 0
  53 0012 3846     		mov	r0, r7
  54 0014 4FF48071 		mov	r1, #256
  55 0018 40F20622 		movw	r2, #518
  56 001c FFF7FEFF 		bl	_pal_lld_setgroupmode
  57              	.LVL0:
ARM GAS  /var/folders/4k/6h5l9jl178sb4hslwv3xp1mr0000gn/T//ccC784Nx.s 			page 2


  58              		.loc 1 42 0
  59 0020 40F20622 		movw	r2, #518
  60 0024 3846     		mov	r0, r7
  61 0026 4FF40071 		mov	r1, #512
  62 002a FFF7FEFF 		bl	_pal_lld_setgroupmode
  63              	.LVL1:
  64              		.loc 1 45 0
  65 002e 5148     		ldr	r0, .L2+12
  66 0030 5149     		ldr	r1, .L2+16
  67 0032 FFF7FEFF 		bl	i2cStart
  68              	.LVL2:
  69              		.loc 1 48 0
  70 0036 0121     		movs	r1, #1
  71 0038 2846     		mov	r0, r5
  72 003a 0A46     		mov	r2, r1
  73 003c FFF7FEFF 		bl	_pal_lld_setgroupmode
  74              	.LVL3:
  75              		.loc 1 49 0
  76 0040 2846     		mov	r0, r5
  77 0042 0221     		movs	r1, #2
  78 0044 0122     		movs	r2, #1
  79 0046 FFF7FEFF 		bl	_pal_lld_setgroupmode
  80              	.LVL4:
  81              		.loc 1 51 0
  82 004a 0126     		movs	r6, #1
  83              		.loc 1 53 0
  84 004c 0223     		movs	r3, #2
  85              		.loc 1 56 0
  86 004e 1A46     		mov	r2, r3
  87              		.loc 1 51 0
  88 0050 6E83     		strh	r6, [r5, #26]	@ movhi
  89              		.loc 1 56 0
  90 0052 2846     		mov	r0, r5
  91              		.loc 1 53 0
  92 0054 2B83     		strh	r3, [r5, #24]	@ movhi
  93              		.loc 1 56 0
  94 0056 4FF48071 		mov	r1, #256
  95 005a FFF7FEFF 		bl	_pal_lld_setgroupmode
  96              	.LVL5:
  97              		.loc 1 61 0
  98 005e 4748     		ldr	r0, .L2+20
  99 0060 4749     		ldr	r1, .L2+24
 100 0062 FFF7FEFF 		bl	pwmStart
 101              	.LVL6:
 102              		.loc 1 64 0
 103 0066 2846     		mov	r0, r5
 104 0068 0421     		movs	r1, #4
 105 006a 40F28232 		movw	r2, #898
 106 006e FFF7FEFF 		bl	_pal_lld_setgroupmode
 107              	.LVL7:
 108              		.loc 1 65 0
 109 0072 2846     		mov	r0, r5
 110 0074 40F28232 		movw	r2, #898
 111 0078 0821     		movs	r1, #8
 112 007a FFF7FEFF 		bl	_pal_lld_setgroupmode
 113              	.LVL8:
 114              		.loc 1 67 0
ARM GAS  /var/folders/4k/6h5l9jl178sb4hslwv3xp1mr0000gn/T//ccC784Nx.s 			page 3


 115 007e 4148     		ldr	r0, .L2+28
 116 0080 4149     		ldr	r1, .L2+32
 117 0082 FFF7FEFF 		bl	sdStart
 118              	.LVL9:
 119              		.loc 1 70 0
 120 0086 4046     		mov	r0, r8
 121 0088 4021     		movs	r1, #64
 122 008a 40F28262 		movw	r2, #1666
 123 008e FFF7FEFF 		bl	_pal_lld_setgroupmode
 124              	.LVL10:
 125              		.loc 1 71 0
 126 0092 4046     		mov	r0, r8
 127 0094 8021     		movs	r1, #128
 128 0096 40F28262 		movw	r2, #1666
 129 009a FFF7FEFF 		bl	_pal_lld_setgroupmode
 130              	.LVL11:
 131              		.loc 1 72 0
 132 009e 4046     		mov	r0, r8
 133 00a0 4FF48071 		mov	r1, #256
 134 00a4 40F28262 		movw	r2, #1666
 135 00a8 FFF7FEFF 		bl	_pal_lld_setgroupmode
 136              	.LVL12:
 137              		.loc 1 73 0
 138 00ac 4046     		mov	r0, r8
 139 00ae 4FF40071 		mov	r1, #512
 140 00b2 40F28262 		movw	r2, #1666
 141 00b6 FFF7FEFF 		bl	_pal_lld_setgroupmode
 142              	.LVL13:
 143              		.loc 1 74 0
 144 00ba 4846     		mov	r0, r9
 145 00bc 1021     		movs	r1, #16
 146 00be 40F28262 		movw	r2, #1666
 147 00c2 FFF7FEFF 		bl	_pal_lld_setgroupmode
 148              	.LVL14:
 149              		.loc 1 75 0
 150 00c6 3846     		mov	r0, r7
 151 00c8 4021     		movs	r1, #64
 152 00ca 40F28262 		movw	r2, #1666
 153 00ce FFF7FEFF 		bl	_pal_lld_setgroupmode
 154              	.LVL15:
 155              		.loc 1 76 0
 156 00d2 4846     		mov	r0, r9
 157 00d4 2021     		movs	r1, #32
 158 00d6 40F28262 		movw	r2, #1666
 159 00da FFF7FEFF 		bl	_pal_lld_setgroupmode
 160              	.LVL16:
 161              		.loc 1 77 0
 162 00de 4846     		mov	r0, r9
 163 00e0 4021     		movs	r1, #64
 164 00e2 40F28262 		movw	r2, #1666
 165 00e6 FFF7FEFF 		bl	_pal_lld_setgroupmode
 166              	.LVL17:
 167              		.loc 1 78 0
 168 00ea 2846     		mov	r0, r5
 169 00ec 1021     		movs	r1, #16
 170 00ee 40F28262 		movw	r2, #1666
 171 00f2 FFF7FEFF 		bl	_pal_lld_setgroupmode
ARM GAS  /var/folders/4k/6h5l9jl178sb4hslwv3xp1mr0000gn/T//ccC784Nx.s 			page 4


 172              	.LVL18:
 173              		.loc 1 79 0
 174 00f6 3846     		mov	r0, r7
 175 00f8 8021     		movs	r1, #128
 176 00fa 40F28262 		movw	r2, #1666
 177 00fe FFF7FEFF 		bl	_pal_lld_setgroupmode
 178              	.LVL19:
 179              		.loc 1 80 0
 180 0102 2846     		mov	r0, r5
 181 0104 4021     		movs	r1, #64
 182 0106 40F28262 		movw	r2, #1666
 183 010a FFF7FEFF 		bl	_pal_lld_setgroupmode
 184              	.LVL20:
 185              		.loc 1 87 0
 186 010e 3246     		mov	r2, r6
 187 0110 2046     		mov	r0, r4
 188 0112 4FF48051 		mov	r1, #4096
 189 0116 FFF7FEFF 		bl	_pal_lld_setgroupmode
 190              	.LVL21:
 191              		.loc 1 88 0
 192 011a 2046     		mov	r0, r4
 193 011c 3246     		mov	r2, r6
 194 011e 4FF40051 		mov	r1, #8192
 195 0122 FFF7FEFF 		bl	_pal_lld_setgroupmode
 196              	.LVL22:
 197              		.loc 1 89 0
 198 0126 2046     		mov	r0, r4
 199 0128 3246     		mov	r2, r6
 200 012a 4FF48041 		mov	r1, #16384
 201 012e FFF7FEFF 		bl	_pal_lld_setgroupmode
 202              	.LVL23:
 203              		.loc 1 90 0
 204 0132 2046     		mov	r0, r4
 205 0134 3246     		mov	r2, r6
 206 0136 4FF40041 		mov	r1, #32768
 207 013a FFF7FEFF 		bl	_pal_lld_setgroupmode
 208              	.LVL24:
 209              		.loc 1 93 0
 210 013e 4FF48045 		mov	r5, #16384
 211              		.loc 1 94 0
 212 0142 4FF40043 		mov	r3, #32768
 213              		.loc 1 91 0
 214 0146 4FF48050 		mov	r0, #4096
 215              		.loc 1 92 0
 216 014a 4FF40051 		mov	r1, #8192
 217              		.loc 1 91 0
 218 014e 6083     		strh	r0, [r4, #26]	@ movhi
 219              		.loc 1 97 0
 220 0150 3246     		mov	r2, r6
 221              		.loc 1 92 0
 222 0152 6183     		strh	r1, [r4, #26]	@ movhi
 223              		.loc 1 97 0
 224 0154 2046     		mov	r0, r4
 225              		.loc 1 93 0
 226 0156 6583     		strh	r5, [r4, #26]	@ movhi
 227              		.loc 1 97 0
 228 0158 1021     		movs	r1, #16
ARM GAS  /var/folders/4k/6h5l9jl178sb4hslwv3xp1mr0000gn/T//ccC784Nx.s 			page 5


 229              		.loc 1 94 0
 230 015a 6383     		strh	r3, [r4, #26]	@ movhi
 231              		.loc 1 97 0
 232 015c FFF7FEFF 		bl	_pal_lld_setgroupmode
 233              	.LVL25:
 234              		.loc 1 98 0
 235 0160 1023     		movs	r3, #16
 236 0162 6383     		strh	r3, [r4, #26]	@ movhi
 237 0164 BDE8F883 		pop	{r3, r4, r5, r6, r7, r8, r9, pc}
 238              	.L3:
 239              		.align	2
 240              	.L2:
 241 0168 00040240 		.word	1073873920
 242 016c 00000240 		.word	1073872896
 243 0170 000C0240 		.word	1073875968
 244 0174 00000000 		.word	I2CD1
 245 0178 00000000 		.word	.LANCHOR0
 246 017c 00000000 		.word	PWMD1
 247 0180 00000000 		.word	.LANCHOR1
 248 0184 00000000 		.word	SD2
 249 0188 00000000 		.word	.LANCHOR2
 250 018c 00080240 		.word	1073874944
 251 0190 00100240 		.word	1073876992
 252              		.cfi_endproc
 253              	.LFE119:
 254              		.size	hwInit, .-hwInit
 255              		.global	uart2_config
 256 0194 AFF30080 		.section	.rodata.pwmcfg,"a",%progbits
 256      AFF30080 
 256      AFF30080 
 257              		.align	2
 258              		.set	.LANCHOR1,. + 0
 259              		.type	pwmcfg, %object
 260              		.size	pwmcfg, 52
 261              	pwmcfg:
 262 0000 002D3101 		.word	20000000
 263 0004 0400     		.short	4
 264 0006 0000     		.space	2
 265 0008 00000000 		.word	0
 266 000c 01000000 		.word	1
 267 0010 00000000 		.word	0
 268 0014 00000000 		.word	0
 269 0018 00000000 		.word	0
 270 001c 00000000 		.word	0
 271 0020 00000000 		.word	0
 272 0024 00000000 		.word	0
 273 0028 00000000 		.word	0
 274 002c 00000000 		.word	0
 275 0030 00000000 		.word	0
 276              		.section	.rodata.i2cfg1,"a",%progbits
 277              		.align	2
 278              		.set	.LANCHOR0,. + 0
 279              		.type	i2cfg1, %object
 280              		.size	i2cfg1, 12
 281              	i2cfg1:
 282 0000 01       		.byte	1
 283 0001 000000   		.space	3
ARM GAS  /var/folders/4k/6h5l9jl178sb4hslwv3xp1mr0000gn/T//ccC784Nx.s 			page 6


 284 0004 A0860100 		.word	100000
 285 0008 02       		.byte	2
 286 0009 000000   		.space	3
 287              		.section	.data.uart2_config,"aw",%progbits
 288              		.align	2
 289              		.set	.LANCHOR2,. + 0
 290              		.type	uart2_config, %object
 291              		.size	uart2_config, 12
 292              	uart2_config:
 293 0000 00960000 		.word	38400
 294 0004 0000     		.short	0
 295 0006 0040     		.short	16384
 296 0008 0000     		.short	0
 297 000a 0000     		.space	2
 298              		.text
 299              	.Letext0:
 300              		.file 2 "/Users/mikevanis/Documents/workspace/gcc-arm-none-eabi-4_8-2014q1/lib/gcc/arm-none-eabi/4
 301              		.file 3 "/Users/mikevanis/Documents/workspace/gcc-arm-none-eabi-4_8-2014q1/arm-none-eabi/include/m
 302              		.file 4 "/Users/mikevanis/Documents/workspace/gcc-arm-none-eabi-4_8-2014q1/arm-none-eabi/include/s
 303              		.file 5 "../ChibiStudio/ChibiOS/os/ports/GCC/ARMCMx/chtypes.h"
 304              		.file 6 "../ChibiStudio/ChibiOS/os/kernel/include/chlists.h"
 305              		.file 7 "../ChibiStudio/ChibiOS/os/kernel/include/chthreads.h"
 306              		.file 8 "../ChibiStudio/ChibiOS/os/ports/GCC/ARMCMx/chcore_v7m.h"
 307              		.file 9 "../ChibiStudio/ChibiOS/os/kernel/include/chmtx.h"
 308              		.file 10 "../ChibiStudio/ChibiOS/os/kernel/include/chevents.h"
 309              		.file 11 "../ChibiStudio/ChibiOS/os/kernel/include/chqueues.h"
 310              		.file 12 "../ChibiStudio/ChibiOS/os/hal/platforms/STM32F4xx/stm32f4xx.h"
 311              		.file 13 "../ChibiStudio/ChibiOS/os/hal/platforms/STM32F4xx/stm32_dma.h"
 312              		.file 14 "../ChibiStudio/ChibiOS/os/hal/platforms/STM32/GPIOv2/pal_lld.h"
 313              		.file 15 "../ChibiStudio/ChibiOS/os/hal/include/dcmi.h"
 314              		.file 16 "../ChibiStudio/ChibiOS/os/hal/platforms/STM32F4xx/dcmi_lld.h"
 315              		.file 17 "../ChibiStudio/ChibiOS/os/hal/include/i2c.h"
 316              		.file 18 "../ChibiStudio/ChibiOS/os/hal/platforms/STM32/I2Cv1/i2c_lld.h"
 317              		.file 19 "../ChibiStudio/ChibiOS/os/hal/include/pwm.h"
 318              		.file 20 "../ChibiStudio/ChibiOS/os/hal/platforms/STM32/TIMv1/pwm_lld.h"
 319              		.file 21 "../ChibiStudio/ChibiOS/os/hal/platforms/STM32/TIMv1/stm32_tim.h"
 320              		.file 22 "../ChibiStudio/ChibiOS/os/hal/include/serial.h"
 321              		.file 23 "../ChibiStudio/ChibiOS/os/hal/platforms/STM32/USARTv1/serial_lld.h"
 322              		.file 24 "../ChibiStudio/ChibiOS/os/ports/common/ARMCMx/CMSIS/include/core_cm4.h"
 323              		.file 25 "hwinit.h"