ARM GAS  /var/folders/4k/6h5l9jl178sb4hslwv3xp1mr0000gn/T//ccHJuePB.s 			page 1


   1              		.syntax unified
   2              		.cpu cortex-m4
   3              		.fpu softvfp
   4              		.eabi_attribute 20, 1
   5              		.eabi_attribute 21, 1
   6              		.eabi_attribute 23, 3
   7              		.eabi_attribute 24, 1
   8              		.eabi_attribute 25, 1
   9              		.eabi_attribute 26, 1
  10              		.eabi_attribute 30, 2
  11              		.eabi_attribute 34, 1
  12              		.eabi_attribute 18, 4
  13              		.thumb
  14              		.file	"main.c"
  15              		.text
  16              	.Ltext0:
  17              		.cfi_sections	.debug_frame
  18              		.section	.text.dmaTxferEndCb,"ax",%progbits
  19              		.align	2
  20              		.p2align 4,,15
  21              		.global	dmaTxferEndCb
  22              		.thumb
  23              		.thumb_func
  24              		.type	dmaTxferEndCb, %function
  25              	dmaTxferEndCb:
  26              	.LFB125:
  27              		.file 1 "main.c"
  28              		.loc 1 209 0
  29              		.cfi_startproc
  30              		@ args = 0, pretend = 0, frame = 0
  31              		@ frame_needed = 0, uses_anonymous_args = 0
  32              		@ link register save eliminated.
  33              	.LVL0:
  34              		.loc 1 211 0
  35 0000 024B     		ldr	r3, .L2
  36 0002 5A69     		ldr	r2, [r3, #20]
  37 0004 82F40042 		eor	r2, r2, #32768
  38 0008 5A61     		str	r2, [r3, #20]
  39 000a 7047     		bx	lr
  40              	.L3:
  41              		.align	2
  42              	.L2:
  43 000c 000C0240 		.word	1073875968
  44              		.cfi_endproc
  45              	.LFE125:
  46              		.size	dmaTxferEndCb, .-dmaTxferEndCb
  47              		.section	.text.frameEndCb,"ax",%progbits
  48              		.align	2
  49              		.p2align 4,,15
  50              		.global	frameEndCb
  51              		.thumb
  52              		.thumb_func
  53              		.type	frameEndCb, %function
  54              	frameEndCb:
  55              	.LFB124:
  56              		.loc 1 195 0
  57              		.cfi_startproc
ARM GAS  /var/folders/4k/6h5l9jl178sb4hslwv3xp1mr0000gn/T//ccHJuePB.s 			page 2


  58              		@ args = 0, pretend = 0, frame = 0
  59              		@ frame_needed = 0, uses_anonymous_args = 0
  60              	.LVL1:
  61 0000 10B5     		push	{r4, lr}
  62              		.cfi_def_cfa_offset 8
  63              		.cfi_offset 4, -8
  64              		.cfi_offset 14, -4
  65              		.loc 1 202 0
  66 0002 084C     		ldr	r4, .L7
  67 0004 2368     		ldr	r3, [r4]
  68 0006 0133     		adds	r3, r3, #1
  69              		.loc 1 203 0
  70 0008 092B     		cmp	r3, #9
  71              		.loc 1 202 0
  72 000a 2360     		str	r3, [r4]
  73              		.loc 1 203 0
  74 000c 04DD     		ble	.L5
  75              		.loc 1 204 0
  76 000e 0648     		ldr	r0, .L7+4
  77              	.LVL2:
  78 0010 FFF7FEFF 		bl	dcmiStop
  79              	.LVL3:
  80              		.loc 1 205 0
  81 0014 0023     		movs	r3, #0
  82 0016 2360     		str	r3, [r4]
  83              	.L5:
  84              		.loc 1 206 0
  85 0018 044B     		ldr	r3, .L7+8
  86 001a 5A69     		ldr	r2, [r3, #20]
  87 001c 82F48052 		eor	r2, r2, #4096
  88 0020 5A61     		str	r2, [r3, #20]
  89 0022 10BD     		pop	{r4, pc}
  90              	.L8:
  91              		.align	2
  92              	.L7:
  93 0024 00000000 		.word	.LANCHOR0
  94 0028 00000000 		.word	DCMID1
  95 002c 000C0240 		.word	1073875968
  96              		.cfi_endproc
  97              	.LFE124:
  98              		.size	frameEndCb, .-frameEndCb
  99              		.section	.text.chprintf,"ax",%progbits
 100              		.align	2
 101              		.p2align 4,,15
 102              		.thumb
 103              		.thumb_func
 104              		.type	chprintf, %function
 105              	chprintf:
 106              	.LFB118:
 107              		.file 2 "../ChibiStudio/ChibiOS/os/various/chprintf.h"
 108              		.loc 2 69 0
 109              		.cfi_startproc
 110              		@ args = 4, pretend = 12, frame = 8
 111              		@ frame_needed = 0, uses_anonymous_args = 1
 112              	.LVL4:
 113 0000 0EB4     		push	{r1, r2, r3}
 114              		.cfi_def_cfa_offset 12
ARM GAS  /var/folders/4k/6h5l9jl178sb4hslwv3xp1mr0000gn/T//ccHJuePB.s 			page 3


 115              		.cfi_offset 1, -12
 116              		.cfi_offset 2, -8
 117              		.cfi_offset 3, -4
 118 0002 00B5     		push	{lr}
 119              		.cfi_def_cfa_offset 16
 120              		.cfi_offset 14, -16
 121 0004 82B0     		sub	sp, sp, #8
 122              		.cfi_def_cfa_offset 24
 123              		.loc 2 69 0
 124 0006 03AA     		add	r2, sp, #12
 125 0008 52F8041B 		ldr	r1, [r2], #4
 126              		.loc 2 72 0
 127 000c 0192     		str	r2, [sp, #4]
 128              		.loc 2 73 0
 129 000e FFF7FEFF 		bl	chvprintf
 130              	.LVL5:
 131              		.loc 2 75 0
 132 0012 02B0     		add	sp, sp, #8
 133              		@ sp needed
 134 0014 5DF804EB 		ldr	lr, [sp], #4
 135 0018 03B0     		add	sp, sp, #12
 136 001a 7047     		bx	lr
 137              		.cfi_endproc
 138              	.LFE118:
 139              		.size	chprintf, .-chprintf
 140 001c AFF30080 		.section	.text.cmd_get_total_questions,"ax",%progbits
 141              		.align	2
 142              		.p2align 4,,15
 143              		.thumb
 144              		.thumb_func
 145              		.type	cmd_get_total_questions, %function
 146              	cmd_get_total_questions:
 147              	.LFB140:
 148              		.loc 1 594 0
 149              		.cfi_startproc
 150              		@ args = 0, pretend = 0, frame = 0
 151              		@ frame_needed = 0, uses_anonymous_args = 0
 152              		@ link register save eliminated.
 153              	.LVL6:
 154              		.loc 1 600 0
 155 0000 0149     		ldr	r1, .L11
 156              	.LVL7:
 157 0002 FFF7FEBF 		b	chprintf
 158              	.LVL8:
 159              	.L12:
 160 0006 00BF     		.align	2
 161              	.L11:
 162 0008 00000000 		.word	.LC0
 163              		.cfi_endproc
 164              	.LFE140:
 165              		.size	cmd_get_total_questions, .-cmd_get_total_questions
 166 000c AFF30080 		.section	.text.cmd_cam_status,"ax",%progbits
 167              		.align	2
 168              		.p2align 4,,15
 169              		.thumb
 170              		.thumb_func
 171              		.type	cmd_cam_status, %function
ARM GAS  /var/folders/4k/6h5l9jl178sb4hslwv3xp1mr0000gn/T//ccHJuePB.s 			page 4


 172              	cmd_cam_status:
 173              	.LFB136:
 174              		.loc 1 470 0
 175              		.cfi_startproc
 176              		@ args = 0, pretend = 0, frame = 0
 177              		@ frame_needed = 0, uses_anonymous_args = 0
 178              	.LVL9:
 179 0000 10B5     		push	{r4, lr}
 180              		.cfi_def_cfa_offset 8
 181              		.cfi_offset 4, -8
 182              		.cfi_offset 14, -4
 183              		.loc 1 480 0
 184 0002 2249     		ldr	r1, .L25
 185              	.LVL10:
 186              		.loc 1 470 0
 187 0004 0446     		mov	r4, r0
 188              		.loc 1 480 0
 189 0006 FFF7FEFF 		bl	chprintf
 190              	.LVL11:
 191              		.loc 1 481 0
 192 000a 214B     		ldr	r3, .L25+4
 193 000c 1B78     		ldrb	r3, [r3]	@ zero_extendqisi2
 194              		.loc 1 482 0
 195 000e 2046     		mov	r0, r4
 196              		.loc 1 481 0
 197 0010 FBB1     		cbz	r3, .L14
 198              		.loc 1 482 0
 199 0012 2049     		ldr	r1, .L25+8
 200 0014 FFF7FEFF 		bl	chprintf
 201              	.LVL12:
 202              		.loc 1 487 0
 203 0018 1F4B     		ldr	r3, .L25+12
 204 001a 1B78     		ldrb	r3, [r3]	@ zero_extendqisi2
 205              		.loc 1 488 0
 206 001c 2046     		mov	r0, r4
 207              		.loc 1 487 0
 208 001e 03B3     		cbz	r3, .L16
 209              	.L23:
 210              		.loc 1 488 0
 211 0020 1E49     		ldr	r1, .L25+16
 212 0022 FFF7FEFF 		bl	chprintf
 213              	.LVL13:
 214              		.loc 1 493 0
 215 0026 1E4B     		ldr	r3, .L25+20
 216 0028 1B78     		ldrb	r3, [r3]	@ zero_extendqisi2
 217              		.loc 1 494 0
 218 002a 2046     		mov	r0, r4
 219              		.loc 1 493 0
 220 002c 0BB3     		cbz	r3, .L18
 221              	.LVL14:
 222              	.L24:
 223              		.loc 1 494 0
 224 002e 1D49     		ldr	r1, .L25+24
 225 0030 FFF7FEFF 		bl	chprintf
 226              	.LVL15:
 227              		.loc 1 499 0
 228 0034 1C4B     		ldr	r3, .L25+28
ARM GAS  /var/folders/4k/6h5l9jl178sb4hslwv3xp1mr0000gn/T//ccHJuePB.s 			page 5


 229 0036 1B78     		ldrb	r3, [r3]	@ zero_extendqisi2
 230              		.loc 1 500 0
 231 0038 2046     		mov	r0, r4
 232              		.loc 1 499 0
 233 003a 13BB     		cbnz	r3, .L22
 234              	.LVL16:
 235              	.L20:
 236              		.loc 1 502 0
 237 003c 1B49     		ldr	r1, .L25+32
 238 003e FFF7FEFF 		bl	chprintf
 239              	.LVL17:
 240              	.L21:
 241              		.loc 1 505 0
 242 0042 1B4B     		ldr	r3, .L25+36
 243 0044 1B49     		ldr	r1, .L25+40
 244 0046 1A78     		ldrb	r2, [r3]	@ zero_extendqisi2
 245 0048 2046     		mov	r0, r4
 246              		.loc 1 506 0
 247 004a BDE81040 		pop	{r4, lr}
 248              	.LVL18:
 249              		.loc 1 505 0
 250 004e FFF7FEBF 		b	chprintf
 251              	.LVL19:
 252              	.L14:
 253              		.loc 1 484 0
 254 0052 1949     		ldr	r1, .L25+44
 255 0054 FFF7FEFF 		bl	chprintf
 256              	.LVL20:
 257              		.loc 1 487 0
 258 0058 0F4B     		ldr	r3, .L25+12
 259 005a 1B78     		ldrb	r3, [r3]	@ zero_extendqisi2
 260              		.loc 1 488 0
 261 005c 2046     		mov	r0, r4
 262              		.loc 1 487 0
 263 005e 002B     		cmp	r3, #0
 264 0060 DED1     		bne	.L23
 265              	.LVL21:
 266              	.L16:
 267              		.loc 1 490 0
 268 0062 1649     		ldr	r1, .L25+48
 269 0064 FFF7FEFF 		bl	chprintf
 270              	.LVL22:
 271              		.loc 1 493 0
 272 0068 0D4B     		ldr	r3, .L25+20
 273 006a 1B78     		ldrb	r3, [r3]	@ zero_extendqisi2
 274              		.loc 1 494 0
 275 006c 2046     		mov	r0, r4
 276              		.loc 1 493 0
 277 006e 002B     		cmp	r3, #0
 278 0070 DDD1     		bne	.L24
 279              	.LVL23:
 280              	.L18:
 281              		.loc 1 496 0
 282 0072 1349     		ldr	r1, .L25+52
 283 0074 FFF7FEFF 		bl	chprintf
 284              	.LVL24:
 285              		.loc 1 499 0
ARM GAS  /var/folders/4k/6h5l9jl178sb4hslwv3xp1mr0000gn/T//ccHJuePB.s 			page 6


 286 0078 0B4B     		ldr	r3, .L25+28
 287 007a 1B78     		ldrb	r3, [r3]	@ zero_extendqisi2
 288              		.loc 1 500 0
 289 007c 2046     		mov	r0, r4
 290              		.loc 1 499 0
 291 007e 002B     		cmp	r3, #0
 292 0080 DCD0     		beq	.L20
 293              	.LVL25:
 294              	.L22:
 295              		.loc 1 500 0
 296 0082 1049     		ldr	r1, .L25+56
 297 0084 FFF7FEFF 		bl	chprintf
 298              	.LVL26:
 299 0088 DBE7     		b	.L21
 300              	.L26:
 301 008a 00BF     		.align	2
 302              	.L25:
 303 008c 1C000000 		.word	.LC1
 304 0090 00000000 		.word	.LANCHOR1
 305 0094 2C000000 		.word	.LC2
 306 0098 00000000 		.word	.LANCHOR2
 307 009c 4C000000 		.word	.LC4
 308 00a0 00000000 		.word	.LANCHOR3
 309 00a4 74000000 		.word	.LC6
 310 00a8 00000000 		.word	.LANCHOR4
 311 00ac B4000000 		.word	.LC9
 312 00b0 00000000 		.word	.LANCHOR5
 313 00b4 C4000000 		.word	.LC10
 314 00b8 3C000000 		.word	.LC3
 315 00bc 60000000 		.word	.LC5
 316 00c0 8C000000 		.word	.LC7
 317 00c4 A4000000 		.word	.LC8
 318              		.cfi_endproc
 319              	.LFE136:
 320              		.size	cmd_cam_status, .-cmd_cam_status
 321 00c8 AFF30080 		.section	.text.cmd_index_questions,"ax",%progbits
 321      AFF30080 
 322              		.align	2
 323              		.p2align 4,,15
 324              		.thumb
 325              		.thumb_func
 326              		.type	cmd_index_questions, %function
 327              	cmd_index_questions:
 328              	.LFB139:
 329              		.loc 1 559 0
 330              		.cfi_startproc
 331              		@ args = 0, pretend = 0, frame = 648
 332              		@ frame_needed = 0, uses_anonymous_args = 0
 333              	.LVL27:
 334 0000 70B5     		push	{r4, r5, r6, lr}
 335              		.cfi_def_cfa_offset 16
 336              		.cfi_offset 4, -16
 337              		.cfi_offset 5, -12
 338              		.cfi_offset 6, -8
 339              		.cfi_offset 14, -4
 340              		.loc 1 567 0
 341 0002 2249     		ldr	r1, .L36
ARM GAS  /var/folders/4k/6h5l9jl178sb4hslwv3xp1mr0000gn/T//ccHJuePB.s 			page 7


 342              	.LVL28:
 343              		.loc 1 559 0
 344 0004 ADF5227D 		sub	sp, sp, #648
 345              		.cfi_def_cfa_offset 664
 346              		.loc 1 559 0
 347 0008 0546     		mov	r5, r0
 348              		.loc 1 567 0
 349 000a FFF7FEFF 		bl	chprintf
 350              	.LVL29:
 351              		.loc 1 569 0
 352 000e 19A8     		add	r0, sp, #100
 353 0010 1F49     		ldr	r1, .L36+4
 354 0012 0122     		movs	r2, #1
 355 0014 FFF7FEFF 		bl	f_open
 356              	.LVL30:
 357              		.loc 1 570 0
 358 0018 0646     		mov	r6, r0
 359              		.loc 1 571 0
 360 001a 2846     		mov	r0, r5
 361              	.LVL31:
 362              		.loc 1 570 0
 363 001c 6EBB     		cbnz	r6, .L34
 364              	.LBB4:
 365              		.loc 1 575 0
 366 001e 1D49     		ldr	r1, .L36+8
 367              		.loc 1 576 0
 368 0020 1D4C     		ldr	r4, .L36+12
 369              		.loc 1 575 0
 370 0022 FFF7FEFF 		bl	chprintf
 371              	.LVL32:
 372              		.loc 1 579 0
 373 0026 BDF87020 		ldrh	r2, [sp, #112]
 374 002a 1C49     		ldr	r1, .L36+16
 375              		.loc 1 576 0
 376 002c 2670     		strb	r6, [r4]
 377              	.LVL33:
 378              		.loc 1 579 0
 379 002e 2846     		mov	r0, r5
 380 0030 FFF7FEFF 		bl	chprintf
 381              	.LVL34:
 382              		.loc 1 580 0
 383 0034 1B9A     		ldr	r2, [sp, #108]
 384 0036 1C9B     		ldr	r3, [sp, #112]
 385 0038 9A42     		cmp	r2, r3
 386 003a 24D0     		beq	.L35
 387 003c 184E     		ldr	r6, .L36+20
 388              	.L32:
 389              	.LBB5:
 390              		.loc 1 583 0
 391 003e 6421     		movs	r1, #100
 392 0040 0DEB0102 		add	r2, sp, r1
 393 0044 6846     		mov	r0, sp
 394 0046 FFF7FEFF 		bl	f_gets
 395              	.LVL35:
 396              		.loc 1 584 0
 397 004a 6946     		mov	r1, sp
 398 004c 2846     		mov	r0, r5
ARM GAS  /var/folders/4k/6h5l9jl178sb4hslwv3xp1mr0000gn/T//ccHJuePB.s 			page 8


 399 004e FFF7FEFF 		bl	chprintf
 400              	.LVL36:
 401              		.loc 1 585 0
 402 0052 2278     		ldrb	r2, [r4]	@ zero_extendqisi2
 403 0054 1B9B     		ldr	r3, [sp, #108]
 404              	.LBE5:
 405              		.loc 1 580 0
 406 0056 1C99     		ldr	r1, [sp, #112]
 407              	.LBB6:
 408              		.loc 1 585 0
 409 0058 26F81230 		strh	r3, [r6, r2, lsl #1]	@ movhi
 410              		.loc 1 586 0
 411 005c 0132     		adds	r2, r2, #1
 412 005e D2B2     		uxtb	r2, r2
 413              	.LBE6:
 414              		.loc 1 580 0
 415 0060 9942     		cmp	r1, r3
 416              	.LBB7:
 417              		.loc 1 586 0
 418 0062 2270     		strb	r2, [r4]
 419              	.LBE7:
 420              		.loc 1 580 0
 421 0064 EBD1     		bne	.L32
 422              	.L31:
 423              		.loc 1 588 0
 424 0066 2846     		mov	r0, r5
 425 0068 0E49     		ldr	r1, .L36+24
 426 006a FFF7FEFF 		bl	chprintf
 427              	.LVL37:
 428              	.LBE4:
 429              		.loc 1 591 0
 430 006e 19A8     		add	r0, sp, #100
 431 0070 FFF7FEFF 		bl	f_close
 432              	.LVL38:
 433              		.loc 1 592 0
 434 0074 0DF5227D 		add	sp, sp, #648
 435              		@ sp needed
 436 0078 70BD     		pop	{r4, r5, r6, pc}
 437              	.LVL39:
 438              	.L34:
 439              		.loc 1 571 0
 440 007a 0B49     		ldr	r1, .L36+28
 441 007c FFF7FEFF 		bl	chprintf
 442              	.LVL40:
 443              		.loc 1 592 0
 444 0080 0DF5227D 		add	sp, sp, #648
 445              		@ sp needed
 446 0084 70BD     		pop	{r4, r5, r6, pc}
 447              	.LVL41:
 448              	.L35:
 449 0086 2278     		ldrb	r2, [r4]	@ zero_extendqisi2
 450 0088 EDE7     		b	.L31
 451              	.L37:
 452 008a 00BF     		.align	2
 453              	.L36:
 454 008c E0000000 		.word	.LC11
 455 0090 F4000000 		.word	.LC12
ARM GAS  /var/folders/4k/6h5l9jl178sb4hslwv3xp1mr0000gn/T//ccHJuePB.s 			page 9


 456 0094 14010000 		.word	.LC14
 457 0098 00000000 		.word	.LANCHOR6
 458 009c 24010000 		.word	.LC15
 459 00a0 00000000 		.word	.LANCHOR7
 460 00a4 38010000 		.word	.LC16
 461 00a8 FC000000 		.word	.LC13
 462              		.cfi_endproc
 463              	.LFE139:
 464              		.size	cmd_index_questions, .-cmd_index_questions
 465 00ac AFF30080 		.section	.text.cmd_cam_id,"ax",%progbits
 466              		.align	2
 467              		.p2align 4,,15
 468              		.thumb
 469              		.thumb_func
 470              		.type	cmd_cam_id, %function
 471              	cmd_cam_id:
 472              	.LFB129:
 473              		.loc 1 329 0
 474              		.cfi_startproc
 475              		@ args = 0, pretend = 0, frame = 8
 476              		@ frame_needed = 0, uses_anonymous_args = 0
 477              	.LVL42:
 478 0000 10B5     		push	{r4, lr}
 479              		.cfi_def_cfa_offset 8
 480              		.cfi_offset 4, -8
 481              		.cfi_offset 14, -4
 482              		.loc 1 336 0
 483 0002 1D49     		ldr	r1, .L49
 484              	.LVL43:
 485              		.loc 1 329 0
 486 0004 82B0     		sub	sp, sp, #8
 487              		.cfi_def_cfa_offset 16
 488              		.loc 1 329 0
 489 0006 0446     		mov	r4, r0
 490              		.loc 1 336 0
 491 0008 FFF7FEFF 		bl	chprintf
 492              	.LVL44:
 493              		.loc 1 337 0
 494 000c FF20     		movs	r0, #255
 495 000e 0121     		movs	r1, #1
 496 0010 FFF7FEFF 		bl	cam_write_reg
 497              	.LVL45:
 498 0014 50BB     		cbnz	r0, .L47
 499              	.L39:
 500              		.loc 1 340 0
 501 0016 0DF10701 		add	r1, sp, #7
 502 001a 0A20     		movs	r0, #10
 503 001c FFF7FEFF 		bl	cam_read_reg
 504              	.LVL46:
 505 0020 88B1     		cbz	r0, .L40
 506              		.loc 1 341 0
 507 0022 2046     		mov	r0, r4
 508 0024 1549     		ldr	r1, .L49+4
 509 0026 FFF7FEFF 		bl	chprintf
 510              	.LVL47:
 511              		.loc 1 345 0
 512 002a 0DF10701 		add	r1, sp, #7
ARM GAS  /var/folders/4k/6h5l9jl178sb4hslwv3xp1mr0000gn/T//ccHJuePB.s 			page 10


 513 002e 0B20     		movs	r0, #11
 514 0030 FFF7FEFF 		bl	cam_read_reg
 515              	.LVL48:
 516 0034 A0B9     		cbnz	r0, .L48
 517              	.L42:
 518              		.loc 1 348 0
 519 0036 2046     		mov	r0, r4
 520 0038 1149     		ldr	r1, .L49+8
 521 003a 9DF80720 		ldrb	r2, [sp, #7]	@ zero_extendqisi2
 522 003e FFF7FEFF 		bl	chprintf
 523              	.LVL49:
 524              		.loc 1 350 0
 525 0042 02B0     		add	sp, sp, #8
 526              		@ sp needed
 527 0044 10BD     		pop	{r4, pc}
 528              	.LVL50:
 529              	.L40:
 530              		.loc 1 343 0
 531 0046 2046     		mov	r0, r4
 532 0048 0E49     		ldr	r1, .L49+12
 533 004a 9DF80720 		ldrb	r2, [sp, #7]	@ zero_extendqisi2
 534 004e FFF7FEFF 		bl	chprintf
 535              	.LVL51:
 536              		.loc 1 345 0
 537 0052 0DF10701 		add	r1, sp, #7
 538 0056 0B20     		movs	r0, #11
 539 0058 FFF7FEFF 		bl	cam_read_reg
 540              	.LVL52:
 541 005c 0028     		cmp	r0, #0
 542 005e EAD0     		beq	.L42
 543              	.L48:
 544              		.loc 1 346 0
 545 0060 2046     		mov	r0, r4
 546 0062 0949     		ldr	r1, .L49+16
 547 0064 FFF7FEFF 		bl	chprintf
 548              	.LVL53:
 549              		.loc 1 350 0
 550 0068 02B0     		add	sp, sp, #8
 551              		@ sp needed
 552 006a 10BD     		pop	{r4, pc}
 553              	.LVL54:
 554              	.L47:
 555              		.loc 1 338 0
 556 006c 2046     		mov	r0, r4
 557 006e 0749     		ldr	r1, .L49+20
 558 0070 FFF7FEFF 		bl	chprintf
 559              	.LVL55:
 560 0074 CFE7     		b	.L39
 561              	.L50:
 562 0076 00BF     		.align	2
 563              	.L49:
 564 0078 50010000 		.word	.LC17
 565 007c 84010000 		.word	.LC19
 566 0080 D4010000 		.word	.LC22
 567 0084 A0010000 		.word	.LC20
 568 0088 B8010000 		.word	.LC21
 569 008c 6C010000 		.word	.LC18
ARM GAS  /var/folders/4k/6h5l9jl178sb4hslwv3xp1mr0000gn/T//ccHJuePB.s 			page 11


 570              		.cfi_endproc
 571              	.LFE129:
 572              		.size	cmd_cam_id, .-cmd_cam_id
 573              		.section	.text.cam_save,"ax",%progbits
 574              		.align	2
 575              		.p2align 4,,15
 576              		.thumb
 577              		.thumb_func
 578              		.type	cam_save, %function
 579              	cam_save:
 580              	.LFB146:
 581              		.loc 1 731 0
 582              		.cfi_startproc
 583              		@ args = 0, pretend = 0, frame = 552
 584              		@ frame_needed = 0, uses_anonymous_args = 0
 585              	.LVL56:
 586 0000 2DE9F041 		push	{r4, r5, r6, r7, r8, lr}
 587              		.cfi_def_cfa_offset 24
 588              		.cfi_offset 4, -24
 589              		.cfi_offset 5, -20
 590              		.cfi_offset 6, -16
 591              		.cfi_offset 7, -12
 592              		.cfi_offset 8, -8
 593              		.cfi_offset 14, -4
 594 0004 ADF50A7D 		sub	sp, sp, #552
 595              		.cfi_def_cfa_offset 576
 596              		.loc 1 731 0
 597 0008 0146     		mov	r1, r0
 598              		.loc 1 735 0
 599 000a 0B22     		movs	r2, #11
 600 000c 01A8     		add	r0, sp, #4
 601              	.LVL57:
 602 000e FFF7FEFF 		bl	f_open
 603              	.LVL58:
 604              		.loc 1 736 0
 605 0012 48BB     		cbnz	r0, .L51
 606 0014 164E     		ldr	r6, .L56
 607 0016 0446     		mov	r4, r0
 608              		.loc 1 754 0
 609 0018 B046     		mov	r8, r6
 610 001a 02E0     		b	.L55
 611              	.LVL59:
 612              	.L53:
 613 001c 0134     		adds	r4, r4, #1
 614              	.LVL60:
 615              		.loc 1 760 0
 616 001e FFF7FEFF 		bl	f_putc
 617              	.LVL61:
 618              	.L55:
 619 0022 A3B2     		uxth	r3, r4
 620              		.loc 1 754 0
 621 0024 5D1C     		adds	r5, r3, #1
 622 0026 F05C     		ldrb	r0, [r6, r3]	@ zero_extendqisi2
 623 0028 114F     		ldr	r7, .L56
 624 002a FF28     		cmp	r0, #255
 625              		.loc 1 756 0
 626 002c 01A9     		add	r1, sp, #4
ARM GAS  /var/folders/4k/6h5l9jl178sb4hslwv3xp1mr0000gn/T//ccHJuePB.s 			page 12


 627              		.loc 1 754 0
 628 002e F5D1     		bne	.L53
 629              		.loc 1 754 0 is_stmt 0 discriminator 1
 630 0030 18F80530 		ldrb	r3, [r8, r5]	@ zero_extendqisi2
 631 0034 D92B     		cmp	r3, #217
 632 0036 F1D1     		bne	.L53
 633              		.loc 1 756 0 is_stmt 1
 634 0038 FFF7FEFF 		bl	f_putc
 635              	.LVL62:
 636              		.loc 1 775 0
 637 003c 0D4C     		ldr	r4, .L56+4
 638              	.LVL63:
 639              		.loc 1 757 0
 640 003e 785D     		ldrb	r0, [r7, r5]	@ zero_extendqisi2
 641 0040 01A9     		add	r1, sp, #4
 642 0042 FFF7FEFF 		bl	f_putc
 643              	.LVL64:
 644              		.loc 1 774 0
 645 0046 01A8     		add	r0, sp, #4
 646 0048 FFF7FEFF 		bl	f_close
 647              	.LVL65:
 648              		.loc 1 775 0
 649 004c 6369     		ldr	r3, [r4, #20]
 650 004e 83F40053 		eor	r3, r3, #8192
 651 0052 6361     		str	r3, [r4, #20]
 652              		.loc 1 776 0
 653 0054 FA20     		movs	r0, #250
 654 0056 FFF7FEFF 		bl	chThdSleep
 655              	.LVL66:
 656 005a 6169     		ldr	r1, [r4, #20]
 657              		.loc 1 778 0
 658 005c 064B     		ldr	r3, .L56+8
 659              		.loc 1 776 0
 660 005e 81F40051 		eor	r1, r1, #8192
 661              		.loc 1 778 0
 662 0062 0022     		movs	r2, #0
 663              		.loc 1 776 0
 664 0064 6161     		str	r1, [r4, #20]
 665              		.loc 1 778 0
 666 0066 1A70     		strb	r2, [r3]
 667              	.L51:
 668              		.loc 1 779 0
 669 0068 0DF50A7D 		add	sp, sp, #552
 670              		@ sp needed
 671 006c BDE8F081 		pop	{r4, r5, r6, r7, r8, pc}
 672              	.L57:
 673              		.align	2
 674              	.L56:
 675 0070 00000000 		.word	.LANCHOR8
 676 0074 000C0240 		.word	1073875968
 677 0078 00000000 		.word	.LANCHOR3
 678              		.cfi_endproc
 679              	.LFE146:
 680              		.size	cam_save, .-cam_save
 681 007c AFF30080 		.section	.text.cmd_cam_reset,"ax",%progbits
 682              		.align	2
 683              		.p2align 4,,15
ARM GAS  /var/folders/4k/6h5l9jl178sb4hslwv3xp1mr0000gn/T//ccHJuePB.s 			page 13


 684              		.thumb
 685              		.thumb_func
 686              		.type	cmd_cam_reset, %function
 687              	cmd_cam_reset:
 688              	.LFB133:
 689              		.loc 1 396 0
 690              		.cfi_startproc
 691              		@ args = 0, pretend = 0, frame = 0
 692              		@ frame_needed = 0, uses_anonymous_args = 0
 693              	.LVL67:
 694 0000 38B5     		push	{r3, r4, r5, lr}
 695              		.cfi_def_cfa_offset 16
 696              		.cfi_offset 3, -16
 697              		.cfi_offset 4, -12
 698              		.cfi_offset 5, -8
 699              		.cfi_offset 14, -4
 700              		.loc 1 405 0
 701 0002 0D4C     		ldr	r4, .L59
 702              		.loc 1 403 0
 703 0004 0D49     		ldr	r1, .L59+4
 704              	.LVL68:
 705              		.loc 1 405 0
 706 0006 0125     		movs	r5, #1
 707              		.loc 1 403 0
 708 0008 FFF7FEFF 		bl	chprintf
 709              	.LVL69:
 710              		.loc 1 406 0
 711 000c 0520     		movs	r0, #5
 712              		.loc 1 405 0
 713 000e 6583     		strh	r5, [r4, #26]	@ movhi
 714              		.loc 1 406 0
 715 0010 FFF7FEFF 		bl	chThdSleep
 716              	.LVL70:
 717              		.loc 1 407 0
 718 0014 0520     		movs	r0, #5
 719              		.loc 1 406 0
 720 0016 2583     		strh	r5, [r4, #24]	@ movhi
 721              		.loc 1 407 0
 722 0018 FFF7FEFF 		bl	chThdSleep
 723              	.LVL71:
 724              		.loc 1 409 0
 725 001c 0223     		movs	r3, #2
 726 001e 6383     		strh	r3, [r4, #26]	@ movhi
 727              		.loc 1 410 0
 728 0020 0A20     		movs	r0, #10
 729 0022 FFF7FEFF 		bl	chThdSleep
 730              	.LVL72:
 731              		.loc 1 411 0
 732 0026 0648     		ldr	r0, .L59+8
 733              		.loc 1 412 0
 734 0028 0649     		ldr	r1, .L59+12
 735              		.loc 1 413 0
 736 002a 074A     		ldr	r2, .L59+16
 737              		.loc 1 411 0
 738 002c 0023     		movs	r3, #0
 739 002e 0370     		strb	r3, [r0]
 740              		.loc 1 412 0
ARM GAS  /var/folders/4k/6h5l9jl178sb4hslwv3xp1mr0000gn/T//ccHJuePB.s 			page 14


 741 0030 0B70     		strb	r3, [r1]
 742              		.loc 1 413 0
 743 0032 1370     		strb	r3, [r2]
 744 0034 38BD     		pop	{r3, r4, r5, pc}
 745              	.L60:
 746 0036 00BF     		.align	2
 747              	.L59:
 748 0038 00000240 		.word	1073872896
 749 003c E8010000 		.word	.LC23
 750 0040 00000000 		.word	.LANCHOR2
 751 0044 00000000 		.word	.LANCHOR3
 752 0048 00000000 		.word	.LANCHOR4
 753              		.cfi_endproc
 754              	.LFE133:
 755              		.size	cmd_cam_reset, .-cmd_cam_reset
 756 004c AFF30080 		.section	.text.cmd_cam_off,"ax",%progbits
 757              		.align	2
 758              		.p2align 4,,15
 759              		.thumb
 760              		.thumb_func
 761              		.type	cmd_cam_off, %function
 762              	cmd_cam_off:
 763              	.LFB131:
 764              		.loc 1 363 0
 765              		.cfi_startproc
 766              		@ args = 0, pretend = 0, frame = 0
 767              		@ frame_needed = 0, uses_anonymous_args = 0
 768              	.LVL73:
 769 0000 38B5     		push	{r3, r4, r5, lr}
 770              		.cfi_def_cfa_offset 16
 771              		.cfi_offset 3, -16
 772              		.cfi_offset 4, -12
 773              		.cfi_offset 5, -8
 774              		.cfi_offset 14, -4
 775              		.loc 1 372 0
 776 0002 0F4C     		ldr	r4, .L62
 777              		.loc 1 370 0
 778 0004 0F49     		ldr	r1, .L62+4
 779              	.LVL74:
 780              		.loc 1 363 0
 781 0006 0546     		mov	r5, r0
 782              		.loc 1 370 0
 783 0008 FFF7FEFF 		bl	chprintf
 784              	.LVL75:
 785              		.loc 1 372 0
 786 000c 2046     		mov	r0, r4
 787 000e 4FF48071 		mov	r1, #256
 788 0012 0522     		movs	r2, #5
 789 0014 FFF7FEFF 		bl	_pal_lld_setgroupmode
 790              	.LVL76:
 791 0018 4FF48072 		mov	r2, #256
 792              		.loc 1 375 0
 793 001c 0223     		movs	r3, #2
 794              		.loc 1 372 0
 795 001e 2283     		strh	r2, [r4, #24]	@ movhi
 796              		.loc 1 377 0
 797 0020 0520     		movs	r0, #5
ARM GAS  /var/folders/4k/6h5l9jl178sb4hslwv3xp1mr0000gn/T//ccHJuePB.s 			page 15


 798              		.loc 1 375 0
 799 0022 2383     		strh	r3, [r4, #24]	@ movhi
 800              		.loc 1 377 0
 801 0024 FFF7FEFF 		bl	chThdSleep
 802              	.LVL77:
 803              		.loc 1 380 0
 804 0028 074C     		ldr	r4, .L62+8
 805              		.loc 1 381 0
 806 002a 084A     		ldr	r2, .L62+12
 807              		.loc 1 382 0
 808 002c 0849     		ldr	r1, .L62+16
 809              		.loc 1 380 0
 810 002e 0023     		movs	r3, #0
 811 0030 2370     		strb	r3, [r4]
 812              		.loc 1 381 0
 813 0032 1370     		strb	r3, [r2]
 814              		.loc 1 382 0
 815 0034 2846     		mov	r0, r5
 816              		.loc 1 383 0
 817 0036 BDE83840 		pop	{r3, r4, r5, lr}
 818              	.LVL78:
 819              		.loc 1 382 0
 820 003a FFF7FEBF 		b	chprintf
 821              	.LVL79:
 822              	.L63:
 823 003e 00BF     		.align	2
 824              	.L62:
 825 0040 00000240 		.word	1073872896
 826 0044 F8010000 		.word	.LC24
 827 0048 00000000 		.word	.LANCHOR1
 828 004c 00000000 		.word	.LANCHOR2
 829 0050 0C020000 		.word	.LC25
 830              		.cfi_endproc
 831              	.LFE131:
 832              		.size	cmd_cam_off, .-cmd_cam_off
 833 0054 AFF30080 		.section	.text.Thread1,"ax",%progbits
 833      AFF30080 
 833      AFF30080 
 834              		.align	2
 835              		.p2align 4,,15
 836              		.thumb
 837              		.thumb_func
 838              		.type	Thread1, %function
 839              	Thread1:
 840              	.LFB121:
 841              		.loc 1 104 0
 842              		.cfi_startproc
 843              		@ args = 0, pretend = 0, frame = 0
 844              		@ frame_needed = 0, uses_anonymous_args = 0
 845              	.LVL80:
 846 0000 38B5     		push	{r3, r4, r5, lr}
 847              		.cfi_def_cfa_offset 16
 848              		.cfi_offset 3, -16
 849              		.cfi_offset 4, -12
 850              		.cfi_offset 5, -8
 851              		.cfi_offset 14, -4
 852              		.loc 1 107 0
ARM GAS  /var/folders/4k/6h5l9jl178sb4hslwv3xp1mr0000gn/T//ccHJuePB.s 			page 16


 853 0002 094B     		ldr	r3, .L68
 854 0004 094A     		ldr	r2, .L68+4
 855 0006 9B69     		ldr	r3, [r3, #24]
 856 0008 094D     		ldr	r5, .L68+8
 857              		.loc 1 109 0
 858 000a 0A4C     		ldr	r4, .L68+12
 859              		.loc 1 107 0
 860 000c 9A61     		str	r2, [r3, #24]
 861              	.LVL81:
 862              	.L66:
 863              		.loc 1 109 0
 864 000e 6369     		ldr	r3, [r4, #20]
 865 0010 83F48053 		eor	r3, r3, #4096
 866 0014 6361     		str	r3, [r4, #20]
 867              		.loc 1 110 0
 868 0016 2B78     		ldrb	r3, [r5]	@ zero_extendqisi2
 869 0018 002B     		cmp	r3, #0
 870 001a 0CBF     		ite	eq
 871 001c 4FF4FA70 		moveq	r0, #500
 872 0020 7D20     		movne	r0, #125
 873 0022 FFF7FEFF 		bl	chThdSleep
 874              	.LVL82:
 875              		.loc 1 111 0
 876 0026 F2E7     		b	.L66
 877              	.L69:
 878              		.align	2
 879              	.L68:
 880 0028 00000000 		.word	rlist
 881 002c 1C020000 		.word	.LC26
 882 0030 00000000 		.word	.LANCHOR9
 883 0034 000C0240 		.word	1073875968
 884              		.cfi_endproc
 885              	.LFE121:
 886              		.size	Thread1, .-Thread1
 887 0038 AFF30080 		.section	.text.cmd_cam_capture,"ax",%progbits
 887      AFF30080 
 888              		.align	2
 889              		.p2align 4,,15
 890              		.thumb
 891              		.thumb_func
 892              		.type	cmd_cam_capture, %function
 893              	cmd_cam_capture:
 894              	.LFB134:
 895              		.loc 1 416 0
 896              		.cfi_startproc
 897              		@ args = 0, pretend = 0, frame = 0
 898              		@ frame_needed = 0, uses_anonymous_args = 0
 899              	.LVL83:
 900 0000 F8B5     		push	{r3, r4, r5, r6, r7, lr}
 901              		.cfi_def_cfa_offset 24
 902              		.cfi_offset 3, -24
 903              		.cfi_offset 4, -20
 904              		.cfi_offset 5, -16
 905              		.cfi_offset 6, -12
 906              		.cfi_offset 7, -8
 907              		.cfi_offset 14, -4
 908              	.LBB10:
ARM GAS  /var/folders/4k/6h5l9jl178sb4hslwv3xp1mr0000gn/T//ccHJuePB.s 			page 17


 909              	.LBB11:
 910              		.loc 1 721 0
 911 0002 114E     		ldr	r6, .L71
 912              		.loc 1 720 0
 913 0004 114C     		ldr	r4, .L71+4
 914              		.loc 1 721 0
 915 0006 1249     		ldr	r1, .L71+8
 916              	.LVL84:
 917              	.LBE11:
 918              	.LBE10:
 919              		.loc 1 416 0
 920 0008 0746     		mov	r7, r0
 921              	.LBB15:
 922              	.LBB12:
 923              		.loc 1 720 0
 924 000a 0125     		movs	r5, #1
 925              		.loc 1 721 0
 926 000c 3046     		mov	r0, r6
 927              	.LVL85:
 928              		.loc 1 720 0
 929 000e 2570     		strb	r5, [r4]
 930              		.loc 1 721 0
 931 0010 FFF7FEFF 		bl	dcmiStart
 932              	.LVL86:
 933              		.loc 1 722 0
 934 0014 FA20     		movs	r0, #250
 935 0016 FFF7FEFF 		bl	chThdSleep
 936              	.LVL87:
 937              		.loc 1 723 0
 938 001a 0E4A     		ldr	r2, .L71+12
 939 001c 0E4B     		ldr	r3, .L71+16
 940 001e 1268     		ldr	r2, [r2]
 941 0020 1B68     		ldr	r3, [r3]
 942 0022 3046     		mov	r0, r6
 943 0024 4CF25031 		movw	r1, #50000
 944 0028 FFF7FEFF 		bl	dcmiStartReceiveOneShot
 945              	.LVL88:
 946              		.loc 1 725 0
 947 002c FA20     		movs	r0, #250
 948 002e FFF7FEFF 		bl	chThdSleep
 949              	.LVL89:
 950              		.loc 1 728 0
 951 0032 0A4B     		ldr	r3, .L71+20
 952              	.LBE12:
 953              	.LBE15:
 954              		.loc 1 424 0
 955 0034 0A49     		ldr	r1, .L71+24
 956              	.LBB16:
 957              	.LBB13:
 958              		.loc 1 728 0
 959 0036 1D70     		strb	r5, [r3]
 960              		.loc 1 727 0
 961 0038 0023     		movs	r3, #0
 962              	.LBE13:
 963              	.LBE16:
 964              		.loc 1 424 0
 965 003a 3846     		mov	r0, r7
ARM GAS  /var/folders/4k/6h5l9jl178sb4hslwv3xp1mr0000gn/T//ccHJuePB.s 			page 18


 966              	.LBB17:
 967              	.LBB14:
 968              		.loc 1 727 0
 969 003c 2370     		strb	r3, [r4]
 970              	.LBE14:
 971              	.LBE17:
 972              		.loc 1 425 0
 973 003e BDE8F840 		pop	{r3, r4, r5, r6, r7, lr}
 974              	.LVL90:
 975              		.loc 1 424 0
 976 0042 FFF7FEBF 		b	chprintf
 977              	.LVL91:
 978              	.L72:
 979 0046 00BF     		.align	2
 980              	.L71:
 981 0048 00000000 		.word	DCMID1
 982 004c 00000000 		.word	.LANCHOR4
 983 0050 00000000 		.word	.LANCHOR10
 984 0054 00000000 		.word	.LANCHOR11
 985 0058 00000000 		.word	.LANCHOR12
 986 005c 00000000 		.word	.LANCHOR3
 987 0060 24020000 		.word	.LC27
 988              		.cfi_endproc
 989              	.LFE134:
 990              		.size	cmd_cam_capture, .-cmd_cam_capture
 991 0064 AFF30080 		.section	.text.cmd_cam_on,"ax",%progbits
 991      AFF30080 
 991      AFF30080 
 992              		.align	2
 993              		.p2align 4,,15
 994              		.thumb
 995              		.thumb_func
 996              		.type	cmd_cam_on, %function
 997              	cmd_cam_on:
 998              	.LFB132:
 999              		.loc 1 385 0
 1000              		.cfi_startproc
 1001              		@ args = 0, pretend = 0, frame = 0
 1002              		@ frame_needed = 0, uses_anonymous_args = 0
 1003              	.LVL92:
 1004 0000 38B5     		push	{r3, r4, r5, lr}
 1005              		.cfi_def_cfa_offset 16
 1006              		.cfi_offset 3, -16
 1007              		.cfi_offset 4, -12
 1008              		.cfi_offset 5, -8
 1009              		.cfi_offset 14, -4
 1010              		.loc 1 392 0
 1011 0002 0949     		ldr	r1, .L74
 1012              	.LVL93:
 1013              	.LBB20:
 1014              	.LBB21:
 1015              		.loc 1 712 0
 1016 0004 094D     		ldr	r5, .L74+4
 1017              		.loc 1 713 0
 1018 0006 0A4C     		ldr	r4, .L74+8
 1019              	.LBE21:
 1020              	.LBE20:
ARM GAS  /var/folders/4k/6h5l9jl178sb4hslwv3xp1mr0000gn/T//ccHJuePB.s 			page 19


 1021              		.loc 1 392 0
 1022 0008 FFF7FEFF 		bl	chprintf
 1023              	.LVL94:
 1024              	.LBB23:
 1025              	.LBB22:
 1026              		.loc 1 711 0
 1027 000c 0948     		ldr	r0, .L74+12
 1028 000e 0021     		movs	r1, #0
 1029 0010 0222     		movs	r2, #2
 1030 0012 FFF7FEFF 		bl	pwmEnableChannel
 1031              	.LVL95:
 1032              		.loc 1 714 0
 1033 0016 0848     		ldr	r0, .L74+16
 1034              		.loc 1 715 0
 1035 0018 084A     		ldr	r2, .L74+20
 1036              		.loc 1 712 0
 1037 001a 0023     		movs	r3, #0
 1038              		.loc 1 715 0
 1039 001c 0121     		movs	r1, #1
 1040              		.loc 1 712 0
 1041 001e 2B70     		strb	r3, [r5]
 1042              		.loc 1 713 0
 1043 0020 2370     		strb	r3, [r4]
 1044              		.loc 1 714 0
 1045 0022 0370     		strb	r3, [r0]
 1046              		.loc 1 715 0
 1047 0024 1170     		strb	r1, [r2]
 1048 0026 38BD     		pop	{r3, r4, r5, pc}
 1049              	.L75:
 1050              		.align	2
 1051              	.L74:
 1052 0028 40020000 		.word	.LC28
 1053 002c 00000000 		.word	.LANCHOR2
 1054 0030 00000000 		.word	.LANCHOR3
 1055 0034 00000000 		.word	PWMD1
 1056 0038 00000000 		.word	.LANCHOR4
 1057 003c 00000000 		.word	.LANCHOR1
 1058              	.LBE22:
 1059              	.LBE23:
 1060              		.cfi_endproc
 1061              	.LFE132:
 1062              		.size	cmd_cam_on, .-cmd_cam_on
 1063              		.section	.text.cmd_cam_init,"ax",%progbits
 1064              		.align	2
 1065              		.p2align 4,,15
 1066              		.thumb
 1067              		.thumb_func
 1068              		.type	cmd_cam_init, %function
 1069              	cmd_cam_init:
 1070              	.LFB130:
 1071              		.loc 1 352 0
 1072              		.cfi_startproc
 1073              		@ args = 0, pretend = 0, frame = 0
 1074              		@ frame_needed = 0, uses_anonymous_args = 0
 1075              	.LVL96:
 1076 0000 10B5     		push	{r4, lr}
 1077              		.cfi_def_cfa_offset 8
ARM GAS  /var/folders/4k/6h5l9jl178sb4hslwv3xp1mr0000gn/T//ccHJuePB.s 			page 20


 1078              		.cfi_offset 4, -8
 1079              		.cfi_offset 14, -4
 1080              	.LBB26:
 1081              	.LBB27:
 1082              		.loc 1 641 0
 1083 0002 2748     		ldr	r0, .L104
 1084              	.LVL97:
 1085              		.loc 1 643 0
 1086 0004 274C     		ldr	r4, .L104+4
 1087              		.loc 1 641 0
 1088 0006 FFF7FEFF 		bl	cam_write_array
 1089              	.LVL98:
 1090 000a 18B1     		cbz	r0, .L77
 1091              		.loc 1 643 0
 1092 000c 2378     		ldrb	r3, [r4]	@ zero_extendqisi2
 1093 000e 43F00103 		orr	r3, r3, #1
 1094 0012 2370     		strb	r3, [r4]
 1095              	.L77:
 1096              		.loc 1 646 0
 1097 0014 FA20     		movs	r0, #250
 1098 0016 FFF7FEFF 		bl	chThdSleep
 1099              	.LVL99:
 1100              		.loc 1 648 0
 1101 001a 2348     		ldr	r0, .L104+8
 1102 001c FFF7FEFF 		bl	cam_write_array
 1103              	.LVL100:
 1104 0020 18B1     		cbz	r0, .L78
 1105              		.loc 1 650 0
 1106 0022 2378     		ldrb	r3, [r4]	@ zero_extendqisi2
 1107 0024 43F00203 		orr	r3, r3, #2
 1108 0028 2370     		strb	r3, [r4]
 1109              	.L78:
 1110              		.loc 1 652 0
 1111 002a 2048     		ldr	r0, .L104+12
 1112 002c FFF7FEFF 		bl	cam_write_array
 1113              	.LVL101:
 1114 0030 18B1     		cbz	r0, .L79
 1115              		.loc 1 654 0
 1116 0032 2378     		ldrb	r3, [r4]	@ zero_extendqisi2
 1117 0034 43F00403 		orr	r3, r3, #4
 1118 0038 2370     		strb	r3, [r4]
 1119              	.L79:
 1120              		.loc 1 657 0
 1121 003a 0121     		movs	r1, #1
 1122 003c FF20     		movs	r0, #255
 1123 003e FFF7FEFF 		bl	cam_write_reg
 1124              	.LVL102:
 1125              		.loc 1 661 0
 1126 0042 1520     		movs	r0, #21
 1127 0044 0021     		movs	r1, #0
 1128 0046 FFF7FEFF 		bl	cam_write_reg
 1129              	.LVL103:
 1130              		.loc 1 666 0
 1131 004a 1948     		ldr	r0, .L104+16
 1132 004c FFF7FEFF 		bl	cam_write_array
 1133              	.LVL104:
 1134 0050 18B1     		cbz	r0, .L80
ARM GAS  /var/folders/4k/6h5l9jl178sb4hslwv3xp1mr0000gn/T//ccHJuePB.s 			page 21


 1135              		.loc 1 668 0
 1136 0052 2378     		ldrb	r3, [r4]	@ zero_extendqisi2
 1137 0054 43F00803 		orr	r3, r3, #8
 1138 0058 2370     		strb	r3, [r4]
 1139              	.L80:
 1140              		.loc 1 671 0
 1141 005a 6420     		movs	r0, #100
 1142 005c FFF7FEFF 		bl	chThdSleep
 1143              	.LVL105:
 1144              		.loc 1 681 0
 1145 0060 1448     		ldr	r0, .L104+20
 1146 0062 FFF7FEFF 		bl	cam_write_array
 1147              	.LVL106:
 1148 0066 18B1     		cbz	r0, .L81
 1149              		.loc 1 683 0
 1150 0068 2378     		ldrb	r3, [r4]	@ zero_extendqisi2
 1151 006a 43F01003 		orr	r3, r3, #16
 1152 006e 2370     		strb	r3, [r4]
 1153              	.L81:
 1154              		.loc 1 686 0
 1155 0070 0F48     		ldr	r0, .L104+16
 1156 0072 FFF7FEFF 		bl	cam_write_array
 1157              	.LVL107:
 1158 0076 18B1     		cbz	r0, .L82
 1159              		.loc 1 688 0
 1160 0078 2378     		ldrb	r3, [r4]	@ zero_extendqisi2
 1161 007a 43F02003 		orr	r3, r3, #32
 1162 007e 2370     		strb	r3, [r4]
 1163              	.L82:
 1164              		.loc 1 692 0
 1165 0080 0D48     		ldr	r0, .L104+24
 1166 0082 FFF7FEFF 		bl	cam_write_array
 1167              	.LVL108:
 1168              		.loc 1 696 0
 1169 0086 0D48     		ldr	r0, .L104+28
 1170 0088 FFF7FEFF 		bl	cam_write_array
 1171              	.LVL109:
 1172              		.loc 1 700 0
 1173 008c 2378     		ldrb	r3, [r4]	@ zero_extendqisi2
 1174 008e 1BB9     		cbnz	r3, .L103
 1175              		.loc 1 705 0
 1176 0090 0B4B     		ldr	r3, .L104+32
 1177 0092 0122     		movs	r2, #1
 1178 0094 1A70     		strb	r2, [r3]
 1179 0096 10BD     		pop	{r4, pc}
 1180              	.L103:
 1181              		.loc 1 702 0
 1182 0098 094B     		ldr	r3, .L104+32
 1183 009a 0022     		movs	r2, #0
 1184 009c 1A70     		strb	r2, [r3]
 1185 009e 10BD     		pop	{r4, pc}
 1186              	.L105:
 1187              		.align	2
 1188              	.L104:
 1189 00a0 00000000 		.word	.LANCHOR13
 1190 00a4 00000000 		.word	.LANCHOR5
 1191 00a8 00000000 		.word	.LANCHOR14
ARM GAS  /var/folders/4k/6h5l9jl178sb4hslwv3xp1mr0000gn/T//ccHJuePB.s 			page 22


 1192 00ac 00000000 		.word	.LANCHOR15
 1193 00b0 00000000 		.word	.LANCHOR16
 1194 00b4 00000000 		.word	.LANCHOR17
 1195 00b8 00000000 		.word	.LANCHOR18
 1196 00bc 00000000 		.word	.LANCHOR19
 1197 00c0 00000000 		.word	.LANCHOR2
 1198              	.LBE27:
 1199              	.LBE26:
 1200              		.cfi_endproc
 1201              	.LFE130:
 1202              		.size	cmd_cam_init, .-cmd_cam_init
 1203 00c4 AFF30080 		.section	.text.tmrfunc,"ax",%progbits
 1203      AFF30080 
 1203      AFF30080 
 1204              		.align	2
 1205              		.p2align 4,,15
 1206              		.thumb
 1207              		.thumb_func
 1208              		.type	tmrfunc, %function
 1209              	tmrfunc:
 1210              	.LFB119:
 1211              		.loc 1 43 0
 1212              		.cfi_startproc
 1213              		@ args = 0, pretend = 0, frame = 0
 1214              		@ frame_needed = 0, uses_anonymous_args = 0
 1215              	.LVL110:
 1216 0000 38B5     		push	{r3, r4, r5, lr}
 1217              		.cfi_def_cfa_offset 16
 1218              		.cfi_offset 3, -16
 1219              		.cfi_offset 4, -12
 1220              		.cfi_offset 5, -8
 1221              		.cfi_offset 14, -4
 1222              		.loc 1 43 0
 1223 0002 0446     		mov	r4, r0
 1224              	.LVL111:
 1225              	.LBB28:
 1226              		.loc 1 46 0
 1227 0004 2023     		movs	r3, #32
 1228              	@ 46 "main.c" 1
 1229 0006 83F31188 		msr     BASEPRI, r3
 1230              	@ 0 "" 2
 1231              		.thumb
 1232              	.LBE28:
 1233              		.loc 1 48 0
 1234 000a 144D     		ldr	r5, .L113
 1235 000c 2B68     		ldr	r3, [r5]
 1236 000e 8BB1     		cbz	r3, .L107
 1237              		.loc 1 49 0
 1238 0010 0368     		ldr	r3, [r0]
 1239 0012 1B68     		ldr	r3, [r3]
 1240 0014 9847     		blx	r3
 1241              	.LVL112:
 1242 0016 C8B1     		cbz	r0, .L108
 1243              		.loc 1 50 0
 1244 0018 2968     		ldr	r1, [r5]
 1245 001a 0139     		subs	r1, r1, #1
 1246 001c 2960     		str	r1, [r5]
ARM GAS  /var/folders/4k/6h5l9jl178sb4hslwv3xp1mr0000gn/T//ccHJuePB.s 			page 23


 1247 001e C1B1     		cbz	r1, .L112
 1248              	.L110:
 1249              		.loc 1 61 0
 1250 0020 2346     		mov	r3, r4
 1251 0022 0F48     		ldr	r0, .L113+4
 1252 0024 0F4A     		ldr	r2, .L113+8
 1253 0026 0A21     		movs	r1, #10
 1254 0028 FFF7FEFF 		bl	chVTSetI
 1255              	.LVL113:
 1256              	.LBB29:
 1257              		.loc 1 62 0
 1258 002c 0023     		movs	r3, #0
 1259              	@ 62 "main.c" 1
 1260 002e 83F31188 		msr     BASEPRI, r3
 1261              	@ 0 "" 2
 1262              		.thumb
 1263 0032 38BD     		pop	{r3, r4, r5, pc}
 1264              	.LVL114:
 1265              	.L107:
 1266              	.LBE29:
 1267              		.loc 1 56 0
 1268 0034 0368     		ldr	r3, [r0]
 1269 0036 1B68     		ldr	r3, [r3]
 1270 0038 9847     		blx	r3
 1271              	.LVL115:
 1272 003a 0028     		cmp	r0, #0
 1273 003c F0D1     		bne	.L110
 1274              		.loc 1 58 0
 1275 003e 0146     		mov	r1, r0
 1276              		.loc 1 57 0
 1277 0040 0A23     		movs	r3, #10
 1278              		.loc 1 58 0
 1279 0042 0948     		ldr	r0, .L113+12
 1280              		.loc 1 57 0
 1281 0044 2B60     		str	r3, [r5]
 1282              		.loc 1 58 0
 1283 0046 FFF7FEFF 		bl	chEvtBroadcastFlagsI
 1284              	.LVL116:
 1285 004a E9E7     		b	.L110
 1286              	.L108:
 1287              		.loc 1 54 0
 1288 004c 0A23     		movs	r3, #10
 1289 004e 2B60     		str	r3, [r5]
 1290 0050 E6E7     		b	.L110
 1291              	.L112:
 1292              		.loc 1 51 0
 1293 0052 0648     		ldr	r0, .L113+16
 1294 0054 FFF7FEFF 		bl	chEvtBroadcastFlagsI
 1295              	.LVL117:
 1296 0058 E2E7     		b	.L110
 1297              	.L114:
 1298 005a 00BF     		.align	2
 1299              	.L113:
 1300 005c 00000000 		.word	.LANCHOR20
 1301 0060 00000000 		.word	.LANCHOR23
 1302 0064 00000000 		.word	tmrfunc
 1303 0068 00000000 		.word	.LANCHOR22
ARM GAS  /var/folders/4k/6h5l9jl178sb4hslwv3xp1mr0000gn/T//ccHJuePB.s 			page 24


 1304 006c 00000000 		.word	.LANCHOR21
 1305              		.cfi_endproc
 1306              	.LFE119:
 1307              		.size	tmrfunc, .-tmrfunc
 1308              		.section	.text.RemoveHandler,"ax",%progbits
 1309              		.align	2
 1310              		.p2align 4,,15
 1311              		.thumb
 1312              		.thumb_func
 1313              		.type	RemoveHandler, %function
 1314              	RemoveHandler:
 1315              	.LFB123:
 1316              		.loc 1 136 0
 1317              		.cfi_startproc
 1318              		@ args = 0, pretend = 0, frame = 0
 1319              		@ frame_needed = 0, uses_anonymous_args = 0
 1320              	.LVL118:
 1321 0000 08B5     		push	{r3, lr}
 1322              		.cfi_def_cfa_offset 8
 1323              		.cfi_offset 3, -8
 1324              		.cfi_offset 14, -4
 1325              		.loc 1 139 0
 1326 0002 0348     		ldr	r0, .L116
 1327              	.LVL119:
 1328 0004 FFF7FEFF 		bl	mmcDisconnect
 1329              	.LVL120:
 1330              		.loc 1 140 0
 1331 0008 024B     		ldr	r3, .L116+4
 1332 000a 0022     		movs	r2, #0
 1333 000c 1A70     		strb	r2, [r3]
 1334 000e 08BD     		pop	{r3, pc}
 1335              	.L117:
 1336              		.align	2
 1337              	.L116:
 1338 0010 00000000 		.word	.LANCHOR24
 1339 0014 00000000 		.word	.LANCHOR9
 1340              		.cfi_endproc
 1341              	.LFE123:
 1342              		.size	RemoveHandler, .-RemoveHandler
 1343 0018 AFF30080 		.section	.text.AsciiToHex,"ax",%progbits
 1343      AFF30080 
 1344              		.align	2
 1345              		.p2align 4,,15
 1346              		.thumb
 1347              		.thumb_func
 1348              		.type	AsciiToHex, %function
 1349              	AsciiToHex:
 1350              	.LFB147:
 1351              		.loc 1 781 0
 1352              		.cfi_startproc
 1353              		@ args = 0, pretend = 0, frame = 0
 1354              		@ frame_needed = 0, uses_anonymous_args = 0
 1355              		@ link register save eliminated.
 1356              	.LVL121:
 1357              		.loc 1 782 0
 1358 0000 3028     		cmp	r0, #48
 1359 0002 28D0     		beq	.L121
ARM GAS  /var/folders/4k/6h5l9jl178sb4hslwv3xp1mr0000gn/T//ccHJuePB.s 			page 25


 1360              		.loc 1 784 0
 1361 0004 3128     		cmp	r0, #49
 1362 0006 28D0     		beq	.L122
 1363              		.loc 1 786 0
 1364 0008 3228     		cmp	r0, #50
 1365 000a 20D0     		beq	.L123
 1366              		.loc 1 788 0
 1367 000c 3328     		cmp	r0, #51
 1368 000e 26D0     		beq	.L124
 1369              		.loc 1 790 0
 1370 0010 3428     		cmp	r0, #52
 1371 0012 1ED0     		beq	.L125
 1372              		.loc 1 792 0
 1373 0014 3528     		cmp	r0, #53
 1374 0016 26D0     		beq	.L126
 1375              		.loc 1 794 0
 1376 0018 3628     		cmp	r0, #54
 1377 001a 22D0     		beq	.L127
 1378              		.loc 1 796 0
 1379 001c 3728     		cmp	r0, #55
 1380 001e 24D0     		beq	.L128
 1381              		.loc 1 798 0
 1382 0020 3828     		cmp	r0, #56
 1383 0022 24D0     		beq	.L129
 1384              		.loc 1 800 0
 1385 0024 3928     		cmp	r0, #57
 1386 0026 24D0     		beq	.L130
 1387              		.loc 1 802 0
 1388 0028 00F0DF03 		and	r3, r0, #223
 1389 002c 412B     		cmp	r3, #65
 1390 002e 22D0     		beq	.L131
 1391              		.loc 1 804 0
 1392 0030 422B     		cmp	r3, #66
 1393 0032 22D0     		beq	.L132
 1394              		.loc 1 806 0
 1395 0034 432B     		cmp	r3, #67
 1396 0036 22D0     		beq	.L133
 1397              		.loc 1 808 0
 1398 0038 4428     		cmp	r0, #68
 1399 003a 22D0     		beq	.L134
 1400              	.LVL122:
 1401              	.LBB32:
 1402              	.LBB33:
 1403 003c 6428     		cmp	r0, #100
 1404 003e 20D0     		beq	.L134
 1405              		.loc 1 810 0
 1406 0040 452B     		cmp	r3, #69
 1407 0042 20D0     		beq	.L136
 1408              		.loc 1 812 0
 1409 0044 462B     		cmp	r3, #70
 1410              		.loc 1 813 0
 1411 0046 14BF     		ite	ne
 1412 0048 7F20     		movne	r0, #127
 1413 004a 0F20     		moveq	r0, #15
 1414              	.LVL123:
 1415 004c 7047     		bx	lr
 1416              	.LVL124:
ARM GAS  /var/folders/4k/6h5l9jl178sb4hslwv3xp1mr0000gn/T//ccHJuePB.s 			page 26


 1417              	.L123:
 1418              	.LBE33:
 1419              	.LBE32:
 1420              		.loc 1 787 0
 1421 004e 0220     		movs	r0, #2
 1422              	.LVL125:
 1423 0050 7047     		bx	lr
 1424              	.LVL126:
 1425              	.L125:
 1426              		.loc 1 791 0
 1427 0052 0420     		movs	r0, #4
 1428              	.LVL127:
 1429 0054 7047     		bx	lr
 1430              	.LVL128:
 1431              	.L121:
 1432              		.loc 1 783 0
 1433 0056 0020     		movs	r0, #0
 1434              	.LVL129:
 1435 0058 7047     		bx	lr
 1436              	.LVL130:
 1437              	.L122:
 1438              		.loc 1 785 0
 1439 005a 0120     		movs	r0, #1
 1440              	.LVL131:
 1441 005c 7047     		bx	lr
 1442              	.LVL132:
 1443              	.L124:
 1444              		.loc 1 789 0
 1445 005e 0320     		movs	r0, #3
 1446              	.LVL133:
 1447 0060 7047     		bx	lr
 1448              	.LVL134:
 1449              	.L127:
 1450              		.loc 1 795 0
 1451 0062 0620     		movs	r0, #6
 1452              	.LVL135:
 1453 0064 7047     		bx	lr
 1454              	.LVL136:
 1455              	.L126:
 1456              		.loc 1 793 0
 1457 0066 0520     		movs	r0, #5
 1458              	.LVL137:
 1459 0068 7047     		bx	lr
 1460              	.LVL138:
 1461              	.L128:
 1462              		.loc 1 797 0
 1463 006a 0720     		movs	r0, #7
 1464              	.LVL139:
 1465 006c 7047     		bx	lr
 1466              	.LVL140:
 1467              	.L129:
 1468              		.loc 1 799 0
 1469 006e 0820     		movs	r0, #8
 1470              	.LVL141:
 1471 0070 7047     		bx	lr
 1472              	.LVL142:
 1473              	.L130:
ARM GAS  /var/folders/4k/6h5l9jl178sb4hslwv3xp1mr0000gn/T//ccHJuePB.s 			page 27


 1474              		.loc 1 801 0
 1475 0072 0920     		movs	r0, #9
 1476              	.LVL143:
 1477 0074 7047     		bx	lr
 1478              	.LVL144:
 1479              	.L131:
 1480              		.loc 1 803 0
 1481 0076 0A20     		movs	r0, #10
 1482              	.LVL145:
 1483 0078 7047     		bx	lr
 1484              	.LVL146:
 1485              	.L132:
 1486              		.loc 1 805 0
 1487 007a 0B20     		movs	r0, #11
 1488              	.LVL147:
 1489 007c 7047     		bx	lr
 1490              	.LVL148:
 1491              	.L133:
 1492              		.loc 1 807 0
 1493 007e 0C20     		movs	r0, #12
 1494              	.LVL149:
 1495 0080 7047     		bx	lr
 1496              	.LVL150:
 1497              	.L134:
 1498              		.loc 1 809 0
 1499 0082 0D20     		movs	r0, #13
 1500              	.LVL151:
 1501              		.loc 1 815 0
 1502 0084 7047     		bx	lr
 1503              	.LVL152:
 1504              	.L136:
 1505              	.LBB35:
 1506              	.LBB34:
 1507              		.loc 1 811 0
 1508 0086 0E20     		movs	r0, #14
 1509              	.LVL153:
 1510 0088 7047     		bx	lr
 1511              	.LBE34:
 1512              	.LBE35:
 1513              		.cfi_endproc
 1514              	.LFE147:
 1515              		.size	AsciiToHex, .-AsciiToHex
 1516 008a 00BFAFF3 		.section	.text.cmd_mark_question,"ax",%progbits
 1516      0080
 1517              		.align	2
 1518              		.p2align 4,,15
 1519              		.thumb
 1520              		.thumb_func
 1521              		.type	cmd_mark_question, %function
 1522              	cmd_mark_question:
 1523              	.LFB142:
 1524              		.loc 1 621 0
 1525              		.cfi_startproc
 1526              		@ args = 0, pretend = 0, frame = 0
 1527              		@ frame_needed = 0, uses_anonymous_args = 0
 1528              	.LVL154:
 1529              		.loc 1 628 0
ARM GAS  /var/folders/4k/6h5l9jl178sb4hslwv3xp1mr0000gn/T//ccHJuePB.s 			page 28


 1530 0000 0129     		cmp	r1, #1
 1531              		.loc 1 621 0
 1532 0002 70B5     		push	{r4, r5, r6, lr}
 1533              		.cfi_def_cfa_offset 16
 1534              		.cfi_offset 4, -16
 1535              		.cfi_offset 5, -12
 1536              		.cfi_offset 6, -8
 1537              		.cfi_offset 14, -4
 1538              		.loc 1 621 0
 1539 0004 0446     		mov	r4, r0
 1540              		.loc 1 628 0
 1541 0006 1DD1     		bne	.L142
 1542              		.loc 1 634 0
 1543 0008 1368     		ldr	r3, [r2]
 1544 000a 5D78     		ldrb	r5, [r3, #1]	@ zero_extendqisi2
 1545 000c 1878     		ldrb	r0, [r3]	@ zero_extendqisi2
 1546              	.LVL155:
 1547 000e 85B1     		cbz	r5, .L143
 1548              		.loc 1 635 0
 1549 0010 FFF7FEFF 		bl	AsciiToHex
 1550              	.LVL156:
 1551 0014 0646     		mov	r6, r0
 1552 0016 2846     		mov	r0, r5
 1553 0018 FFF7FEFF 		bl	AsciiToHex
 1554              	.LVL157:
 1555 001c 06EB8606 		add	r6, r6, r6, lsl #2
 1556 0020 00EB4600 		add	r0, r0, r6, lsl #1
 1557 0024 C2B2     		uxtb	r2, r0
 1558              	.LVL158:
 1559              		.loc 1 636 0
 1560 0026 0C49     		ldr	r1, .L144
 1561 0028 2046     		mov	r0, r4
 1562              	.LVL159:
 1563              		.loc 1 637 0
 1564 002a BDE87040 		pop	{r4, r5, r6, lr}
 1565              	.LVL160:
 1566              		.loc 1 636 0
 1567 002e FFF7FEBF 		b	chprintf
 1568              	.LVL161:
 1569              	.L143:
 1570              		.loc 1 634 0 discriminator 1
 1571 0032 FFF7FEFF 		bl	AsciiToHex
 1572              	.LVL162:
 1573              		.loc 1 636 0 discriminator 1
 1574 0036 0849     		ldr	r1, .L144
 1575              		.loc 1 634 0 discriminator 1
 1576 0038 0246     		mov	r2, r0
 1577              	.LVL163:
 1578              		.loc 1 636 0 discriminator 1
 1579 003a 2046     		mov	r0, r4
 1580              	.LVL164:
 1581              		.loc 1 637 0 discriminator 1
 1582 003c BDE87040 		pop	{r4, r5, r6, lr}
 1583              	.LVL165:
 1584              		.loc 1 636 0 discriminator 1
 1585 0040 FFF7FEBF 		b	chprintf
 1586              	.LVL166:
ARM GAS  /var/folders/4k/6h5l9jl178sb4hslwv3xp1mr0000gn/T//ccHJuePB.s 			page 29


 1587              	.L142:
 1588              	.LBB38:
 1589              	.LBB39:
 1590              		.loc 1 629 0
 1591 0044 0549     		ldr	r1, .L144+4
 1592              	.LVL167:
 1593 0046 FFF7FEFF 		bl	chprintf
 1594              	.LVL168:
 1595              		.loc 1 630 0
 1596 004a 2046     		mov	r0, r4
 1597 004c 0449     		ldr	r1, .L144+8
 1598              	.LBE39:
 1599              	.LBE38:
 1600              		.loc 1 637 0
 1601 004e BDE87040 		pop	{r4, r5, r6, lr}
 1602              	.LVL169:
 1603              	.LBB41:
 1604              	.LBB40:
 1605              		.loc 1 630 0
 1606 0052 FFF7FEBF 		b	chprintf
 1607              	.LVL170:
 1608              	.L145:
 1609 0056 00BF     		.align	2
 1610              	.L144:
 1611 0058 B4020000 		.word	.LC31
 1612 005c 54020000 		.word	.LC29
 1613 0060 74020000 		.word	.LC30
 1614              	.LBE40:
 1615              	.LBE41:
 1616              		.cfi_endproc
 1617              	.LFE142:
 1618              		.size	cmd_mark_question, .-cmd_mark_question
 1619 0064 AFF30080 		.section	.text.cmd_get_question,"ax",%progbits
 1619      AFF30080 
 1619      AFF30080 
 1620              		.align	2
 1621              		.p2align 4,,15
 1622              		.thumb
 1623              		.thumb_func
 1624              		.type	cmd_get_question, %function
 1625              	cmd_get_question:
 1626              	.LFB141:
 1627              		.loc 1 603 0
 1628              		.cfi_startproc
 1629              		@ args = 0, pretend = 0, frame = 0
 1630              		@ frame_needed = 0, uses_anonymous_args = 0
 1631              	.LVL171:
 1632              		.loc 1 611 0
 1633 0000 0129     		cmp	r1, #1
 1634              		.loc 1 603 0
 1635 0002 70B5     		push	{r4, r5, r6, lr}
 1636              		.cfi_def_cfa_offset 16
 1637              		.cfi_offset 4, -16
 1638              		.cfi_offset 5, -12
 1639              		.cfi_offset 6, -8
 1640              		.cfi_offset 14, -4
 1641              		.loc 1 603 0
ARM GAS  /var/folders/4k/6h5l9jl178sb4hslwv3xp1mr0000gn/T//ccHJuePB.s 			page 30


 1642 0004 0446     		mov	r4, r0
 1643              	.LVL172:
 1644              		.loc 1 611 0
 1645 0006 1DD1     		bne	.L150
 1646              		.loc 1 617 0
 1647 0008 1368     		ldr	r3, [r2]
 1648 000a 5D78     		ldrb	r5, [r3, #1]	@ zero_extendqisi2
 1649 000c 1878     		ldrb	r0, [r3]	@ zero_extendqisi2
 1650              	.LVL173:
 1651 000e 85B1     		cbz	r5, .L151
 1652              		.loc 1 618 0
 1653 0010 FFF7FEFF 		bl	AsciiToHex
 1654              	.LVL174:
 1655 0014 0646     		mov	r6, r0
 1656 0016 2846     		mov	r0, r5
 1657 0018 FFF7FEFF 		bl	AsciiToHex
 1658              	.LVL175:
 1659 001c 06EB8606 		add	r6, r6, r6, lsl #2
 1660 0020 00EB4600 		add	r0, r0, r6, lsl #1
 1661 0024 C2B2     		uxtb	r2, r0
 1662              	.LVL176:
 1663              		.loc 1 619 0
 1664 0026 0C49     		ldr	r1, .L152
 1665 0028 2046     		mov	r0, r4
 1666              	.LVL177:
 1667              		.loc 1 620 0
 1668 002a BDE87040 		pop	{r4, r5, r6, lr}
 1669              	.LVL178:
 1670              		.loc 1 619 0
 1671 002e FFF7FEBF 		b	chprintf
 1672              	.LVL179:
 1673              	.L151:
 1674              		.loc 1 617 0 discriminator 1
 1675 0032 FFF7FEFF 		bl	AsciiToHex
 1676              	.LVL180:
 1677              		.loc 1 619 0 discriminator 1
 1678 0036 0849     		ldr	r1, .L152
 1679              		.loc 1 617 0 discriminator 1
 1680 0038 0246     		mov	r2, r0
 1681              	.LVL181:
 1682              		.loc 1 619 0 discriminator 1
 1683 003a 2046     		mov	r0, r4
 1684              	.LVL182:
 1685              		.loc 1 620 0 discriminator 1
 1686 003c BDE87040 		pop	{r4, r5, r6, lr}
 1687              	.LVL183:
 1688              		.loc 1 619 0 discriminator 1
 1689 0040 FFF7FEBF 		b	chprintf
 1690              	.LVL184:
 1691              	.L150:
 1692              	.LBB44:
 1693              	.LBB45:
 1694              		.loc 1 612 0
 1695 0044 0549     		ldr	r1, .L152+4
 1696              	.LVL185:
 1697 0046 FFF7FEFF 		bl	chprintf
 1698              	.LVL186:
ARM GAS  /var/folders/4k/6h5l9jl178sb4hslwv3xp1mr0000gn/T//ccHJuePB.s 			page 31


 1699              		.loc 1 613 0
 1700 004a 2046     		mov	r0, r4
 1701 004c 0449     		ldr	r1, .L152+8
 1702              	.LBE45:
 1703              	.LBE44:
 1704              		.loc 1 620 0
 1705 004e BDE87040 		pop	{r4, r5, r6, lr}
 1706              	.LVL187:
 1707              	.LBB47:
 1708              	.LBB46:
 1709              		.loc 1 613 0
 1710 0052 FFF7FEBF 		b	chprintf
 1711              	.LVL188:
 1712              	.L153:
 1713 0056 00BF     		.align	2
 1714              	.L152:
 1715 0058 0C030000 		.word	.LC33
 1716 005c 54020000 		.word	.LC29
 1717 0060 CC020000 		.word	.LC32
 1718              	.LBE46:
 1719              	.LBE47:
 1720              		.cfi_endproc
 1721              	.LFE141:
 1722              		.size	cmd_get_question, .-cmd_get_question
 1723 0064 AFF30080 		.section	.text.cmd_cam_reg_read,"ax",%progbits
 1723      AFF30080 
 1723      AFF30080 
 1724              		.align	2
 1725              		.p2align 4,,15
 1726              		.thumb
 1727              		.thumb_func
 1728              		.type	cmd_cam_reg_read, %function
 1729              	cmd_cam_reg_read:
 1730              	.LFB138:
 1731              		.loc 1 535 0
 1732              		.cfi_startproc
 1733              		@ args = 0, pretend = 0, frame = 8
 1734              		@ frame_needed = 0, uses_anonymous_args = 0
 1735              	.LVL189:
 1736 0000 70B5     		push	{r4, r5, r6, lr}
 1737              		.cfi_def_cfa_offset 16
 1738              		.cfi_offset 4, -16
 1739              		.cfi_offset 5, -12
 1740              		.cfi_offset 6, -8
 1741              		.cfi_offset 14, -4
 1742              		.loc 1 543 0
 1743 0002 0129     		cmp	r1, #1
 1744              		.loc 1 535 0
 1745 0004 82B0     		sub	sp, sp, #8
 1746              		.cfi_def_cfa_offset 24
 1747              		.loc 1 535 0
 1748 0006 0446     		mov	r4, r0
 1749              		.loc 1 543 0
 1750 0008 08D0     		beq	.L155
 1751              		.loc 1 544 0
 1752 000a 1649     		ldr	r1, .L159
 1753              	.LVL190:
ARM GAS  /var/folders/4k/6h5l9jl178sb4hslwv3xp1mr0000gn/T//ccHJuePB.s 			page 32


 1754 000c FFF7FEFF 		bl	chprintf
 1755              	.LVL191:
 1756              		.loc 1 545 0
 1757 0010 2046     		mov	r0, r4
 1758 0012 1549     		ldr	r1, .L159+4
 1759 0014 FFF7FEFF 		bl	chprintf
 1760              	.LVL192:
 1761              		.loc 1 557 0
 1762 0018 02B0     		add	sp, sp, #8
 1763              		@ sp needed
 1764 001a 70BD     		pop	{r4, r5, r6, pc}
 1765              	.LVL193:
 1766              	.L155:
 1767              	.LBB50:
 1768              	.LBB51:
 1769              		.loc 1 550 0
 1770 001c 1668     		ldr	r6, [r2]
 1771 001e 3078     		ldrb	r0, [r6]	@ zero_extendqisi2
 1772              	.LVL194:
 1773 0020 FFF7FEFF 		bl	AsciiToHex
 1774              	.LVL195:
 1775 0024 0546     		mov	r5, r0
 1776 0026 7078     		ldrb	r0, [r6, #1]	@ zero_extendqisi2
 1777 0028 FFF7FEFF 		bl	AsciiToHex
 1778              	.LVL196:
 1779 002c 80EA0510 		eor	r0, r0, r5, lsl #4
 1780 0030 C5B2     		uxtb	r5, r0
 1781              	.LVL197:
 1782              		.loc 1 551 0
 1783 0032 0E49     		ldr	r1, .L159+8
 1784 0034 2046     		mov	r0, r4
 1785              	.LVL198:
 1786 0036 2A46     		mov	r2, r5
 1787 0038 FFF7FEFF 		bl	chprintf
 1788              	.LVL199:
 1789              		.loc 1 552 0
 1790 003c 2846     		mov	r0, r5
 1791 003e 0DF10701 		add	r1, sp, #7
 1792 0042 FFF7FEFF 		bl	cam_read_reg
 1793              	.LVL200:
 1794 0046 28B1     		cbz	r0, .L157
 1795              		.loc 1 553 0
 1796 0048 2046     		mov	r0, r4
 1797 004a 0949     		ldr	r1, .L159+12
 1798 004c FFF7FEFF 		bl	chprintf
 1799              	.LVL201:
 1800              	.LBE51:
 1801              	.LBE50:
 1802              		.loc 1 557 0
 1803 0050 02B0     		add	sp, sp, #8
 1804              		@ sp needed
 1805 0052 70BD     		pop	{r4, r5, r6, pc}
 1806              	.LVL202:
 1807              	.L157:
 1808              	.LBB53:
 1809              	.LBB52:
 1810              		.loc 1 555 0
ARM GAS  /var/folders/4k/6h5l9jl178sb4hslwv3xp1mr0000gn/T//ccHJuePB.s 			page 33


 1811 0054 2046     		mov	r0, r4
 1812 0056 0749     		ldr	r1, .L159+16
 1813 0058 9DF80720 		ldrb	r2, [sp, #7]	@ zero_extendqisi2
 1814 005c FFF7FEFF 		bl	chprintf
 1815              	.LVL203:
 1816              	.LBE52:
 1817              	.LBE53:
 1818              		.loc 1 557 0
 1819 0060 02B0     		add	sp, sp, #8
 1820              		@ sp needed
 1821 0062 70BD     		pop	{r4, r5, r6, pc}
 1822              	.LVL204:
 1823              	.L160:
 1824              		.align	2
 1825              	.L159:
 1826 0064 54020000 		.word	.LC29
 1827 0068 24030000 		.word	.LC34
 1828 006c 5C030000 		.word	.LC35
 1829 0070 80030000 		.word	.LC36
 1830 0074 A4030000 		.word	.LC37
 1831              		.cfi_endproc
 1832              	.LFE138:
 1833              		.size	cmd_cam_reg_read, .-cmd_cam_reg_read
 1834 0078 AFF30080 		.section	.text.cmd_cam_reg_write,"ax",%progbits
 1834      AFF30080 
 1835              		.align	2
 1836              		.p2align 4,,15
 1837              		.thumb
 1838              		.thumb_func
 1839              		.type	cmd_cam_reg_write, %function
 1840              	cmd_cam_reg_write:
 1841              	.LFB137:
 1842              		.loc 1 508 0
 1843              		.cfi_startproc
 1844              		@ args = 0, pretend = 0, frame = 0
 1845              		@ frame_needed = 0, uses_anonymous_args = 0
 1846              	.LVL205:
 1847              		.loc 1 516 0
 1848 0000 0229     		cmp	r1, #2
 1849              		.loc 1 508 0
 1850 0002 2DE9F041 		push	{r4, r5, r6, r7, r8, lr}
 1851              		.cfi_def_cfa_offset 24
 1852              		.cfi_offset 4, -24
 1853              		.cfi_offset 5, -20
 1854              		.cfi_offset 6, -16
 1855              		.cfi_offset 7, -12
 1856              		.cfi_offset 8, -8
 1857              		.cfi_offset 14, -4
 1858              		.loc 1 508 0
 1859 0006 1546     		mov	r5, r2
 1860 0008 0446     		mov	r4, r0
 1861              		.loc 1 516 0
 1862 000a 08D0     		beq	.L162
 1863              		.loc 1 517 0
 1864 000c 1A49     		ldr	r1, .L165
 1865              	.LVL206:
 1866 000e FFF7FEFF 		bl	chprintf
ARM GAS  /var/folders/4k/6h5l9jl178sb4hslwv3xp1mr0000gn/T//ccHJuePB.s 			page 34


 1867              	.LVL207:
 1868              		.loc 1 518 0
 1869 0012 2046     		mov	r0, r4
 1870 0014 1949     		ldr	r1, .L165+4
 1871              		.loc 1 533 0
 1872 0016 BDE8F041 		pop	{r4, r5, r6, r7, r8, lr}
 1873              	.LVL208:
 1874              		.loc 1 518 0
 1875 001a FFF7FEBF 		b	chprintf
 1876              	.LVL209:
 1877              	.L162:
 1878              	.LBB56:
 1879              	.LBB57:
 1880              		.loc 1 524 0
 1881 001e 1668     		ldr	r6, [r2]
 1882 0020 3078     		ldrb	r0, [r6]	@ zero_extendqisi2
 1883              	.LVL210:
 1884 0022 FFF7FEFF 		bl	AsciiToHex
 1885              	.LVL211:
 1886 0026 8046     		mov	r8, r0
 1887 0028 7078     		ldrb	r0, [r6, #1]	@ zero_extendqisi2
 1888 002a FFF7FEFF 		bl	AsciiToHex
 1889              	.LVL212:
 1890              		.loc 1 525 0
 1891 002e 6F68     		ldr	r7, [r5, #4]
 1892              		.loc 1 524 0
 1893 0030 80EA0815 		eor	r5, r0, r8, lsl #4
 1894              	.LVL213:
 1895              		.loc 1 525 0
 1896 0034 3878     		ldrb	r0, [r7]	@ zero_extendqisi2
 1897 0036 FFF7FEFF 		bl	AsciiToHex
 1898              	.LVL214:
 1899 003a 0646     		mov	r6, r0
 1900 003c 7878     		ldrb	r0, [r7, #1]	@ zero_extendqisi2
 1901 003e FFF7FEFF 		bl	AsciiToHex
 1902              	.LVL215:
 1903 0042 80EA0610 		eor	r0, r0, r6, lsl #4
 1904 0046 C6B2     		uxtb	r6, r0
 1905              		.loc 1 524 0
 1906 0048 EDB2     		uxtb	r5, r5
 1907              	.LVL216:
 1908              		.loc 1 526 0
 1909 004a 2046     		mov	r0, r4
 1910              	.LVL217:
 1911 004c 0C49     		ldr	r1, .L165+8
 1912 004e 2A46     		mov	r2, r5
 1913 0050 3346     		mov	r3, r6
 1914 0052 FFF7FEFF 		bl	chprintf
 1915              	.LVL218:
 1916              		.loc 1 528 0
 1917 0056 2846     		mov	r0, r5
 1918 0058 3146     		mov	r1, r6
 1919 005a FFF7FEFF 		bl	cam_write_reg
 1920              	.LVL219:
 1921 005e 28B9     		cbnz	r0, .L164
 1922              		.loc 1 532 0
 1923 0060 2046     		mov	r0, r4
ARM GAS  /var/folders/4k/6h5l9jl178sb4hslwv3xp1mr0000gn/T//ccHJuePB.s 			page 35


 1924 0062 0849     		ldr	r1, .L165+12
 1925              	.LBE57:
 1926              	.LBE56:
 1927              		.loc 1 533 0
 1928 0064 BDE8F041 		pop	{r4, r5, r6, r7, r8, lr}
 1929              	.LVL220:
 1930              	.LBB60:
 1931              	.LBB58:
 1932              		.loc 1 532 0
 1933 0068 FFF7FEBF 		b	chprintf
 1934              	.LVL221:
 1935              	.L164:
 1936              		.loc 1 529 0
 1937 006c 2046     		mov	r0, r4
 1938 006e 0649     		ldr	r1, .L165+16
 1939              	.LBE58:
 1940              	.LBE60:
 1941              		.loc 1 533 0
 1942 0070 BDE8F041 		pop	{r4, r5, r6, r7, r8, lr}
 1943              	.LVL222:
 1944              	.LBB61:
 1945              	.LBB59:
 1946              		.loc 1 529 0
 1947 0074 FFF7FEBF 		b	chprintf
 1948              	.LVL223:
 1949              	.L166:
 1950              		.align	2
 1951              	.L165:
 1952 0078 54020000 		.word	.LC29
 1953 007c C4030000 		.word	.LC38
 1954 0080 0C040000 		.word	.LC39
 1955 0084 68040000 		.word	.LC41
 1956 0088 40040000 		.word	.LC40
 1957              	.LBE59:
 1958              	.LBE61:
 1959              		.cfi_endproc
 1960              	.LFE137:
 1961              		.size	cmd_cam_reg_write, .-cmd_cam_reg_write
 1962 008c AFF30080 		.section	.text.cmd_cam_save,"ax",%progbits
 1963              		.align	2
 1964              		.p2align 4,,15
 1965              		.thumb
 1966              		.thumb_func
 1967              		.type	cmd_cam_save, %function
 1968              	cmd_cam_save:
 1969              	.LFB135:
 1970              		.loc 1 427 0
 1971              		.cfi_startproc
 1972              		@ args = 0, pretend = 0, frame = 16
 1973              		@ frame_needed = 0, uses_anonymous_args = 0
 1974              	.LVL224:
 1975 0000 30B5     		push	{r4, r5, lr}
 1976              		.cfi_def_cfa_offset 12
 1977              		.cfi_offset 4, -12
 1978              		.cfi_offset 5, -8
 1979              		.cfi_offset 14, -4
 1980              		.loc 1 448 0
ARM GAS  /var/folders/4k/6h5l9jl178sb4hslwv3xp1mr0000gn/T//ccHJuePB.s 			page 36


 1981 0002 0129     		cmp	r1, #1
 1982              		.loc 1 427 0
 1983 0004 85B0     		sub	sp, sp, #20
 1984              		.cfi_def_cfa_offset 32
 1985              		.loc 1 427 0
 1986 0006 0546     		mov	r5, r0
 1987              		.loc 1 448 0
 1988 0008 17D1     		bne	.L172
 1989 000a 1468     		ldr	r4, [r2]
 1990 000c 0023     		movs	r3, #0
 1991              	.LVL225:
 1992              	.L171:
 1993              		.loc 1 459 0
 1994 000e DAB2     		uxtb	r2, r3
 1995              		.loc 1 460 0
 1996 0010 04A9     		add	r1, sp, #16
 1997 0012 1144     		add	r1, r1, r2
 1998              		.loc 1 459 0
 1999 0014 A25C     		ldrb	r2, [r4, r2]	@ zero_extendqisi2
 2000              	.LVL226:
 2001              		.loc 1 460 0
 2002 0016 01F8102C 		strb	r2, [r1, #-16]
 2003              	.LVL227:
 2004 001a 0133     		adds	r3, r3, #1
 2005              	.LVL228:
 2006              		.loc 1 458 0
 2007 001c 002A     		cmp	r2, #0
 2008 001e F6D1     		bne	.L171
 2009              		.loc 1 464 0
 2010 0020 6946     		mov	r1, sp
 2011 0022 2846     		mov	r0, r5
 2012              	.LVL229:
 2013 0024 FFF7FEFF 		bl	chprintf
 2014              	.LVL230:
 2015              		.loc 1 465 0
 2016 0028 2846     		mov	r0, r5
 2017 002a 0849     		ldr	r1, .L173
 2018 002c FFF7FEFF 		bl	chprintf
 2019              	.LVL231:
 2020              		.loc 1 467 0
 2021 0030 6846     		mov	r0, sp
 2022 0032 FFF7FEFF 		bl	cam_save
 2023              	.LVL232:
 2024              		.loc 1 468 0
 2025 0036 05B0     		add	sp, sp, #20
 2026              		@ sp needed
 2027 0038 30BD     		pop	{r4, r5, pc}
 2028              	.LVL233:
 2029              	.L172:
 2030              	.LBB64:
 2031              	.LBB65:
 2032              		.loc 1 449 0
 2033 003a 0549     		ldr	r1, .L173+4
 2034              	.LVL234:
 2035 003c FFF7FEFF 		bl	chprintf
 2036              	.LVL235:
 2037              		.loc 1 450 0
ARM GAS  /var/folders/4k/6h5l9jl178sb4hslwv3xp1mr0000gn/T//ccHJuePB.s 			page 37


 2038 0040 2846     		mov	r0, r5
 2039 0042 0449     		ldr	r1, .L173+8
 2040 0044 FFF7FEFF 		bl	chprintf
 2041              	.LVL236:
 2042              	.LBE65:
 2043              	.LBE64:
 2044              		.loc 1 468 0
 2045 0048 05B0     		add	sp, sp, #20
 2046              		@ sp needed
 2047 004a 30BD     		pop	{r4, r5, pc}
 2048              	.LVL237:
 2049              	.L174:
 2050              		.align	2
 2051              	.L173:
 2052 004c A8040000 		.word	.LC43
 2053 0050 54020000 		.word	.LC29
 2054 0054 84040000 		.word	.LC42
 2055              		.cfi_endproc
 2056              	.LFE135:
 2057              		.size	cmd_cam_save, .-cmd_cam_save
 2058 0058 AFF30080 		.section	.text.cmd_threads,"ax",%progbits
 2058      AFF30080 
 2059              		.align	2
 2060              		.p2align 4,,15
 2061              		.thumb
 2062              		.thumb_func
 2063              		.type	cmd_threads, %function
 2064              	cmd_threads:
 2065              	.LFB128:
 2066              		.loc 1 309 0
 2067              		.cfi_startproc
 2068              		@ args = 0, pretend = 0, frame = 0
 2069              		@ frame_needed = 0, uses_anonymous_args = 0
 2070              	.LVL238:
 2071 0000 F0B5     		push	{r4, r5, r6, r7, lr}
 2072              		.cfi_def_cfa_offset 20
 2073              		.cfi_offset 4, -20
 2074              		.cfi_offset 5, -16
 2075              		.cfi_offset 6, -12
 2076              		.cfi_offset 7, -8
 2077              		.cfi_offset 14, -4
 2078              		.loc 1 314 0
 2079 0002 0029     		cmp	r1, #0
 2080              		.loc 1 309 0
 2081 0004 85B0     		sub	sp, sp, #20
 2082              		.cfi_def_cfa_offset 40
 2083              		.loc 1 309 0
 2084 0006 0646     		mov	r6, r0
 2085              		.loc 1 314 0
 2086 0008 05DD     		ble	.L176
 2087              		.loc 1 315 0
 2088 000a 1349     		ldr	r1, .L179
 2089              	.LVL239:
 2090              		.loc 1 327 0
 2091 000c 05B0     		add	sp, sp, #20
 2092              		@ sp needed
 2093 000e BDE8F040 		pop	{r4, r5, r6, r7, lr}
ARM GAS  /var/folders/4k/6h5l9jl178sb4hslwv3xp1mr0000gn/T//ccHJuePB.s 			page 38


 2094              		.loc 1 315 0
 2095 0012 FFF7FEBF 		b	chprintf
 2096              	.LVL240:
 2097              	.L176:
 2098              	.LBB68:
 2099              	.LBB69:
 2100              		.loc 1 318 0
 2101 0016 1149     		ldr	r1, .L179+4
 2102              	.LVL241:
 2103 0018 114F     		ldr	r7, .L179+8
 2104 001a FFF7FEFF 		bl	chprintf
 2105              	.LVL242:
 2106              		.loc 1 319 0
 2107 001e FFF7FEFF 		bl	chRegFirstThread
 2108              	.LVL243:
 2109 0022 0446     		mov	r4, r0
 2110              	.LVL244:
 2111              	.L178:
 2112              		.loc 1 321 0
 2113 0024 A268     		ldr	r2, [r4, #8]
 2114 0026 E368     		ldr	r3, [r4, #12]
 2115 0028 256A     		ldr	r5, [r4, #32]
 2116 002a 0092     		str	r2, [sp]
 2117              		.loc 1 323 0
 2118 002c A27F     		ldrb	r2, [r4, #30]	@ zero_extendqisi2
 2119              		.loc 1 321 0
 2120 002e 0D49     		ldr	r1, .L179+12
 2121              		.loc 1 323 0
 2122 0030 013A     		subs	r2, r2, #1
 2123              		.loc 1 321 0
 2124 0032 0192     		str	r2, [sp, #4]
 2125 0034 227F     		ldrb	r2, [r4, #28]	@ zero_extendqisi2
 2126 0036 0395     		str	r5, [sp, #12]
 2127 0038 57F82220 		ldr	r2, [r7, r2, lsl #2]
 2128 003c 0292     		str	r2, [sp, #8]
 2129 003e 3046     		mov	r0, r6
 2130              	.LVL245:
 2131 0040 2246     		mov	r2, r4
 2132 0042 FFF7FEFF 		bl	chprintf
 2133              	.LVL246:
 2134              		.loc 1 325 0
 2135 0046 2046     		mov	r0, r4
 2136 0048 FFF7FEFF 		bl	chRegNextThread
 2137              	.LVL247:
 2138              		.loc 1 326 0
 2139 004c 0446     		mov	r4, r0
 2140 004e 0028     		cmp	r0, #0
 2141 0050 E8D1     		bne	.L178
 2142              	.LBE69:
 2143              	.LBE68:
 2144              		.loc 1 327 0
 2145 0052 05B0     		add	sp, sp, #20
 2146              		@ sp needed
 2147 0054 F0BD     		pop	{r4, r5, r6, r7, pc}
 2148              	.LVL248:
 2149              	.L180:
 2150 0056 00BF     		.align	2
ARM GAS  /var/folders/4k/6h5l9jl178sb4hslwv3xp1mr0000gn/T//ccHJuePB.s 			page 39


 2151              	.L179:
 2152 0058 BC040000 		.word	.LC44
 2153 005c D0040000 		.word	.LC45
 2154 0060 00000000 		.word	.LANCHOR25
 2155 0064 00050000 		.word	.LC46
 2156              		.cfi_endproc
 2157              	.LFE128:
 2158              		.size	cmd_threads, .-cmd_threads
 2159 0068 AFF30080 		.section	.text.cmd_mem,"ax",%progbits
 2159      AFF30080 
 2160              		.align	2
 2161              		.p2align 4,,15
 2162              		.thumb
 2163              		.thumb_func
 2164              		.type	cmd_mem, %function
 2165              	cmd_mem:
 2166              	.LFB127:
 2167              		.loc 1 295 0
 2168              		.cfi_startproc
 2169              		@ args = 0, pretend = 0, frame = 8
 2170              		@ frame_needed = 0, uses_anonymous_args = 0
 2171              	.LVL249:
 2172 0000 30B5     		push	{r4, r5, lr}
 2173              		.cfi_def_cfa_offset 12
 2174              		.cfi_offset 4, -12
 2175              		.cfi_offset 5, -8
 2176              		.cfi_offset 14, -4
 2177              		.loc 1 299 0
 2178 0002 0029     		cmp	r1, #0
 2179              		.loc 1 295 0
 2180 0004 83B0     		sub	sp, sp, #12
 2181              		.cfi_def_cfa_offset 24
 2182              		.loc 1 295 0
 2183 0006 0446     		mov	r4, r0
 2184              		.loc 1 299 0
 2185 0008 04DD     		ble	.L182
 2186              		.loc 1 300 0
 2187 000a 0E49     		ldr	r1, .L184
 2188              	.LVL250:
 2189 000c FFF7FEFF 		bl	chprintf
 2190              	.LVL251:
 2191              		.loc 1 307 0
 2192 0010 03B0     		add	sp, sp, #12
 2193              		@ sp needed
 2194 0012 30BD     		pop	{r4, r5, pc}
 2195              	.LVL252:
 2196              	.L182:
 2197              	.LBB72:
 2198              	.LBB73:
 2199              		.loc 1 303 0
 2200 0014 01A9     		add	r1, sp, #4
 2201              	.LVL253:
 2202 0016 0020     		movs	r0, #0
 2203              	.LVL254:
 2204 0018 FFF7FEFF 		bl	chHeapStatus
 2205              	.LVL255:
 2206 001c 0546     		mov	r5, r0
ARM GAS  /var/folders/4k/6h5l9jl178sb4hslwv3xp1mr0000gn/T//ccHJuePB.s 			page 40


 2207              	.LVL256:
 2208              		.loc 1 304 0
 2209 001e FFF7FEFF 		bl	chCoreStatus
 2210              	.LVL257:
 2211 0022 0949     		ldr	r1, .L184+4
 2212 0024 0246     		mov	r2, r0
 2213 0026 2046     		mov	r0, r4
 2214 0028 FFF7FEFF 		bl	chprintf
 2215              	.LVL258:
 2216              		.loc 1 305 0
 2217 002c 2046     		mov	r0, r4
 2218 002e 2A46     		mov	r2, r5
 2219 0030 0649     		ldr	r1, .L184+8
 2220 0032 FFF7FEFF 		bl	chprintf
 2221              	.LVL259:
 2222              		.loc 1 306 0
 2223 0036 2046     		mov	r0, r4
 2224 0038 0549     		ldr	r1, .L184+12
 2225 003a 019A     		ldr	r2, [sp, #4]
 2226 003c FFF7FEFF 		bl	chprintf
 2227              	.LVL260:
 2228              	.LBE73:
 2229              	.LBE72:
 2230              		.loc 1 307 0
 2231 0040 03B0     		add	sp, sp, #12
 2232              		@ sp needed
 2233 0042 30BD     		pop	{r4, r5, pc}
 2234              	.LVL261:
 2235              	.L185:
 2236              		.align	2
 2237              	.L184:
 2238 0044 20050000 		.word	.LC47
 2239 0048 30050000 		.word	.LC48
 2240 004c 50050000 		.word	.LC49
 2241 0050 68050000 		.word	.LC50
 2242              		.cfi_endproc
 2243              	.LFE127:
 2244              		.size	cmd_mem, .-cmd_mem
 2245 0054 AFF30080 		.section	.text.InsertHandler,"ax",%progbits
 2245      AFF30080 
 2245      AFF30080 
 2246              		.align	2
 2247              		.p2align 4,,15
 2248              		.thumb
 2249              		.thumb_func
 2250              		.type	InsertHandler, %function
 2251              	InsertHandler:
 2252              	.LFB122:
 2253              		.loc 1 115 0
 2254              		.cfi_startproc
 2255              		@ args = 0, pretend = 0, frame = 0
 2256              		@ frame_needed = 0, uses_anonymous_args = 0
 2257              	.LVL262:
 2258 0000 08B5     		push	{r3, lr}
 2259              		.cfi_def_cfa_offset 8
 2260              		.cfi_offset 3, -8
 2261              		.cfi_offset 14, -4
ARM GAS  /var/folders/4k/6h5l9jl178sb4hslwv3xp1mr0000gn/T//ccHJuePB.s 			page 41


 2262              		.loc 1 122 0
 2263 0002 0948     		ldr	r0, .L191
 2264              	.LVL263:
 2265 0004 FFF7FEFF 		bl	mmcConnect
 2266              	.LVL264:
 2267 0008 00B1     		cbz	r0, .L189
 2268 000a 08BD     		pop	{r3, pc}
 2269              	.L189:
 2270              	.LVL265:
 2271              	.LBB76:
 2272              	.LBB77:
 2273              		.loc 1 125 0
 2274 000c 0749     		ldr	r1, .L191+4
 2275 000e FFF7FEFF 		bl	f_mount
 2276              	.LVL266:
 2277              		.loc 1 126 0
 2278 0012 18B9     		cbnz	r0, .L190
 2279              		.loc 1 130 0
 2280 0014 064B     		ldr	r3, .L191+8
 2281 0016 0122     		movs	r2, #1
 2282 0018 1A70     		strb	r2, [r3]
 2283 001a 08BD     		pop	{r3, pc}
 2284              	.L190:
 2285              		.loc 1 127 0
 2286 001c 0248     		ldr	r0, .L191
 2287              	.LVL267:
 2288              	.LBE77:
 2289              	.LBE76:
 2290              		.loc 1 131 0
 2291 001e BDE80840 		pop	{r3, lr}
 2292              	.LBB79:
 2293              	.LBB78:
 2294              		.loc 1 127 0
 2295 0022 FFF7FEBF 		b	mmcDisconnect
 2296              	.LVL268:
 2297              	.L192:
 2298 0026 00BF     		.align	2
 2299              	.L191:
 2300 0028 00000000 		.word	.LANCHOR24
 2301 002c 00000000 		.word	.LANCHOR26
 2302 0030 00000000 		.word	.LANCHOR9
 2303              	.LBE78:
 2304              	.LBE79:
 2305              		.cfi_endproc
 2306              	.LFE122:
 2307              		.size	InsertHandler, .-InsertHandler
 2308 0034 AFF30080 		.section	.text.startup.main,"ax",%progbits
 2308      AFF30080 
 2308      AFF30080 
 2309              		.align	2
 2310              		.p2align 4,,15
 2311              		.global	main
 2312              		.thumb
 2313              		.thumb_func
 2314              		.type	main, %function
 2315              	main:
 2316              	.LFB126:
ARM GAS  /var/folders/4k/6h5l9jl178sb4hslwv3xp1mr0000gn/T//ccHJuePB.s 			page 42


 2317              		.loc 1 233 0
 2318              		.cfi_startproc
 2319              		@ args = 0, pretend = 0, frame = 32
 2320              		@ frame_needed = 0, uses_anonymous_args = 0
 2321              	.LVL269:
 2322 0000 30B5     		push	{r4, r5, lr}
 2323              		.cfi_def_cfa_offset 12
 2324              		.cfi_offset 4, -12
 2325              		.cfi_offset 5, -8
 2326              		.cfi_offset 14, -4
 2327 0002 8BB0     		sub	sp, sp, #44
 2328              		.cfi_def_cfa_offset 56
 2329              		.loc 1 240 0
 2330 0004 FFF7FEFF 		bl	halInit
 2331              	.LVL270:
 2332              		.loc 1 241 0
 2333 0008 FFF7FEFF 		bl	chSysInit
 2334              	.LVL271:
 2335              		.loc 1 243 0
 2336 000c FFF7FEFF 		bl	hwInit
 2337              	.LVL272:
 2338              		.loc 1 245 0
 2339 0010 3D48     		ldr	r0, .L199
 2340              		.loc 1 253 0
 2341 0012 3E4C     		ldr	r4, .L199+4
 2342              		.loc 1 245 0
 2343 0014 0021     		movs	r1, #0
 2344 0016 FFF7FEFF 		bl	sdStart
 2345              	.LVL273:
 2346              		.loc 1 246 0
 2347 001a 3D48     		ldr	r0, .L199+8
 2348 001c 0421     		movs	r1, #4
 2349 001e 40F28232 		movw	r2, #898
 2350 0022 FFF7FEFF 		bl	_pal_lld_setgroupmode
 2351              	.LVL274:
 2352 0026 40F28232 		movw	r2, #898
 2353 002a 0821     		movs	r1, #8
 2354 002c 3848     		ldr	r0, .L199+8
 2355 002e FFF7FEFF 		bl	_pal_lld_setgroupmode
 2356              	.LVL275:
 2357              		.loc 1 249 0
 2358 0032 FFF7FEFF 		bl	shellInit
 2359              	.LVL276:
 2360              		.loc 1 251 0
 2361 0036 3748     		ldr	r0, .L199+12
 2362 0038 FFF7FEFF 		bl	mmcObjectInit
 2363              	.LVL277:
 2364              		.loc 1 252 0
 2365 003c 3548     		ldr	r0, .L199+12
 2366 003e 3649     		ldr	r1, .L199+16
 2367 0040 FFF7FEFF 		bl	mmcStart
 2368              	.LVL278:
 2369              		.loc 1 253 0
 2370 0044 4FF48051 		mov	r1, #4096
 2371 0048 2183     		strh	r1, [r4, #24]	@ movhi
 2372 004a 2046     		mov	r0, r4
 2373 004c 1922     		movs	r2, #25
ARM GAS  /var/folders/4k/6h5l9jl178sb4hslwv3xp1mr0000gn/T//ccHJuePB.s 			page 43


 2374 004e FFF7FEFF 		bl	_pal_lld_setgroupmode
 2375              	.LVL279:
 2376              		.loc 1 255 0
 2377 0052 2046     		mov	r0, r4
 2378 0054 4FF40051 		mov	r1, #8192
 2379 0058 40F29A22 		movw	r2, #666
 2380 005c FFF7FEFF 		bl	_pal_lld_setgroupmode
 2381              	.LVL280:
 2382              		.loc 1 257 0
 2383 0060 2046     		mov	r0, r4
 2384 0062 4FF48041 		mov	r1, #16384
 2385 0066 40F28222 		movw	r2, #642
 2386 006a FFF7FEFF 		bl	_pal_lld_setgroupmode
 2387              	.LVL281:
 2388              		.loc 1 258 0
 2389 006e 2046     		mov	r0, r4
 2390 0070 4FF40041 		mov	r1, #32768
 2391 0074 40F29A22 		movw	r2, #666
 2392 0078 FFF7FEFF 		bl	_pal_lld_setgroupmode
 2393              	.LVL282:
 2394              	.LBB84:
 2395              	.LBB85:
 2396              		.loc 1 67 0
 2397 007c 274A     		ldr	r2, .L199+20
 2398              		.loc 1 68 0
 2399 007e 284B     		ldr	r3, .L199+24
 2400              		.loc 1 67 0
 2401 0080 1260     		str	r2, [r2]
 2402              		.loc 1 68 0
 2403 0082 1B60     		str	r3, [r3]
 2404              	.LBB86:
 2405              		.loc 1 69 0
 2406 0084 2023     		movs	r3, #32
 2407              	@ 69 "main.c" 1
 2408 0086 83F31188 		msr     BASEPRI, r3
 2409              	@ 0 "" 2
 2410              		.thumb
 2411              	.LBE86:
 2412              		.loc 1 71 0
 2413 008a 0A24     		movs	r4, #10
 2414 008c 254D     		ldr	r5, .L199+28
 2415              		.loc 1 72 0
 2416 008e 2648     		ldr	r0, .L199+32
 2417 0090 264A     		ldr	r2, .L199+36
 2418 0092 204B     		ldr	r3, .L199+12
 2419              		.loc 1 71 0
 2420 0094 2C60     		str	r4, [r5]
 2421              		.loc 1 72 0
 2422 0096 2146     		mov	r1, r4
 2423 0098 FFF7FEFF 		bl	chVTSetI
 2424              	.LVL283:
 2425              	.LBB87:
 2426              		.loc 1 73 0
 2427 009c 0023     		movs	r3, #0
 2428              	@ 73 "main.c" 1
 2429 009e 83F31188 		msr     BASEPRI, r3
 2430              	@ 0 "" 2
ARM GAS  /var/folders/4k/6h5l9jl178sb4hslwv3xp1mr0000gn/T//ccHJuePB.s 			page 44


 2431              		.thumb
 2432              	.LBE87:
 2433              	.LBE85:
 2434              	.LBE84:
 2435              		.loc 1 268 0
 2436 00a2 0024     		movs	r4, #0
 2437 00a4 224B     		ldr	r3, .L199+40
 2438 00a6 0094     		str	r4, [sp]
 2439 00a8 4FF4A871 		mov	r1, #336
 2440 00ac 4022     		movs	r2, #64
 2441 00ae 2148     		ldr	r0, .L199+44
 2442 00b0 FFF7FEFF 		bl	chThdCreateStatic
 2443              	.LVL284:
 2444              		.loc 1 274 0
 2445 00b4 02A9     		add	r1, sp, #8
 2446 00b6 1948     		ldr	r0, .L199+20
 2447 00b8 0122     		movs	r2, #1
 2448 00ba FFF7FEFF 		bl	chEvtRegisterMask
 2449              	.LVL285:
 2450              		.loc 1 275 0
 2451 00be 06A9     		add	r1, sp, #24
 2452 00c0 1748     		ldr	r0, .L199+24
 2453 00c2 0222     		movs	r2, #2
 2454 00c4 FFF7FEFF 		bl	chEvtRegisterMask
 2455              	.LVL286:
 2456              		.loc 1 277 0
 2457 00c8 2246     		mov	r2, r4
 2458 00ca 1148     		ldr	r0, .L199+8
 2459 00cc 0121     		movs	r1, #1
 2460 00ce FFF7FEFF 		bl	_pal_lld_setgroupmode
 2461              	.LVL287:
 2462              		.loc 1 281 0
 2463 00d2 64B1     		cbz	r4, .L197
 2464              	.L194:
 2465              		.loc 1 283 0
 2466 00d4 237F     		ldrb	r3, [r4, #28]	@ zero_extendqisi2
 2467 00d6 0E2B     		cmp	r3, #14
 2468 00d8 11D0     		beq	.L198
 2469              	.LVL288:
 2470              	.L195:
 2471              		.loc 1 287 0
 2472 00da 4FF0FF30 		mov	r0, #-1
 2473 00de FFF7FEFF 		bl	chEvtWaitOne
 2474              	.LVL289:
 2475 00e2 0146     		mov	r1, r0
 2476 00e4 1448     		ldr	r0, .L199+48
 2477 00e6 FFF7FEFF 		bl	chEvtDispatch
 2478              	.LVL290:
 2479              		.loc 1 281 0
 2480 00ea 002C     		cmp	r4, #0
 2481 00ec F2D1     		bne	.L194
 2482              	.L197:
 2483              	.LVL291:
 2484              		.loc 1 282 0
 2485 00ee 1348     		ldr	r0, .L199+52
 2486 00f0 4FF40D61 		mov	r1, #2256
 2487 00f4 4022     		movs	r2, #64
ARM GAS  /var/folders/4k/6h5l9jl178sb4hslwv3xp1mr0000gn/T//ccHJuePB.s 			page 45


 2488 00f6 FFF7FEFF 		bl	shellCreate
 2489              	.LVL292:
 2490 00fa 0446     		mov	r4, r0
 2491              	.LVL293:
 2492 00fc EDE7     		b	.L195
 2493              	.LVL294:
 2494              	.L198:
 2495              		.loc 1 284 0
 2496 00fe 2046     		mov	r0, r4
 2497 0100 FFF7FEFF 		bl	chThdRelease
 2498              	.LVL295:
 2499              		.loc 1 285 0
 2500 0104 0024     		movs	r4, #0
 2501 0106 E8E7     		b	.L195
 2502              	.L200:
 2503              		.align	2
 2504              	.L199:
 2505 0108 00000000 		.word	SD2
 2506 010c 00040240 		.word	1073873920
 2507 0110 00000240 		.word	1073872896
 2508 0114 00000000 		.word	.LANCHOR24
 2509 0118 00000000 		.word	.LANCHOR27
 2510 011c 00000000 		.word	.LANCHOR21
 2511 0120 00000000 		.word	.LANCHOR22
 2512 0124 00000000 		.word	.LANCHOR20
 2513 0128 00000000 		.word	.LANCHOR23
 2514 012c 00000000 		.word	tmrfunc
 2515 0130 00000000 		.word	Thread1
 2516 0134 00000000 		.word	.LANCHOR28
 2517 0138 00000000 		.word	.LANCHOR30
 2518 013c 00000000 		.word	.LANCHOR29
 2519              		.cfi_endproc
 2520              	.LFE126:
 2521              		.size	main, .-main
 2522              		.global	ImageBuffer1
 2523              		.global	ImageBuffer0
 2524              		.global	ImageBuffer
 2525              		.global	DmaStreamType
 2526              		.global	DmaMode
 2527              		.global	error
 2528              		.global	captured
 2529              		.global	init
 2530              		.global	busy
 2531              		.global	power
 2532              		.global	FrameCount
 2533              		.global	numOfQuestions
 2534              		.global	questionPositions
 2535              		.global	MMCD1
 2536              		.global	MMC_FS
 2537              		.section	.bss.DmaMode,"aw",%nobits
 2538              		.align	2
 2539              		.type	DmaMode, %object
 2540              		.size	DmaMode, 4
 2541              	DmaMode:
 2542 0000 00000000 		.space	4
 2543              		.section	.bss.questionPositions,"aw",%nobits
 2544              		.align	2
ARM GAS  /var/folders/4k/6h5l9jl178sb4hslwv3xp1mr0000gn/T//ccHJuePB.s 			page 46


 2545              		.set	.LANCHOR7,. + 0
 2546              		.type	questionPositions, %object
 2547              		.size	questionPositions, 100
 2548              	questionPositions:
 2549 0000 00000000 		.space	100
 2549      00000000 
 2549      00000000 
 2549      00000000 
 2549      00000000 
 2550              		.section	.rodata.ov2640_reset_regs,"a",%progbits
 2551              		.align	2
 2552              		.set	.LANCHOR13,. + 0
 2553              		.type	ov2640_reset_regs, %object
 2554              		.size	ov2640_reset_regs, 6
 2555              	ov2640_reset_regs:
 2556 0000 FF       		.byte	-1
 2557 0001 01       		.byte	1
 2558 0002 12       		.byte	18
 2559 0003 80       		.byte	-128
 2560 0004 FF       		.byte	-1
 2561 0005 FF       		.byte	-1
 2562 0006 0000     		.section	.bss.MMC_FS,"aw",%nobits
 2563              		.align	2
 2564              		.set	.LANCHOR26,. + 0
 2565              		.type	MMC_FS, %object
 2566              		.size	MMC_FS, 564
 2567              	MMC_FS:
 2568 0000 00000000 		.space	564
 2568      00000000 
 2568      00000000 
 2568      00000000 
 2568      00000000 
 2569              		.section	.bss.busy,"aw",%nobits
 2570              		.set	.LANCHOR4,. + 0
 2571              		.type	busy, %object
 2572              		.size	busy, 1
 2573              	busy:
 2574 0000 00       		.space	1
 2575              		.section	.bss.FrameCount,"aw",%nobits
 2576              		.align	2
 2577              		.set	.LANCHOR0,. + 0
 2578              		.type	FrameCount, %object
 2579              		.size	FrameCount, 4
 2580              	FrameCount:
 2581 0000 00000000 		.space	4
 2582              		.section	.bss.init,"aw",%nobits
 2583              		.set	.LANCHOR2,. + 0
 2584              		.type	init, %object
 2585              		.size	init, 1
 2586              	init:
 2587 0000 00       		.space	1
 2588              		.section	.data.ImageBuffer1,"aw",%progbits
 2589              		.align	2
 2590              		.set	.LANCHOR12,. + 0
 2591              		.type	ImageBuffer1, %object
 2592              		.size	ImageBuffer1, 4
 2593              	ImageBuffer1:
ARM GAS  /var/folders/4k/6h5l9jl178sb4hslwv3xp1mr0000gn/T//ccHJuePB.s 			page 47


 2594 0000 50C30000 		.word	ImageBuffer+50000
 2595              		.section	.bss.inserted_event,"aw",%nobits
 2596              		.align	2
 2597              		.set	.LANCHOR21,. + 0
 2598              		.type	inserted_event, %object
 2599              		.size	inserted_event, 4
 2600              	inserted_event:
 2601 0000 00000000 		.space	4
 2602              		.section	.bss.removed_event,"aw",%nobits
 2603              		.align	2
 2604              		.set	.LANCHOR22,. + 0
 2605              		.type	removed_event, %object
 2606              		.size	removed_event, 4
 2607              	removed_event:
 2608 0000 00000000 		.space	4
 2609              		.section	.rodata.evhndl.7357,"a",%progbits
 2610              		.align	2
 2611              		.set	.LANCHOR30,. + 0
 2612              		.type	evhndl.7357, %object
 2613              		.size	evhndl.7357, 8
 2614              	evhndl.7357:
 2615 0000 00000000 		.word	InsertHandler
 2616 0004 00000000 		.word	RemoveHandler
 2617              		.section	.rodata.ov2640_jpeg_init_regs,"a",%progbits
 2618              		.align	2
 2619              		.set	.LANCHOR14,. + 0
 2620              		.type	ov2640_jpeg_init_regs, %object
 2621              		.size	ov2640_jpeg_init_regs, 382
 2622              	ov2640_jpeg_init_regs:
 2623 0000 FF       		.byte	-1
 2624 0001 00       		.byte	0
 2625 0002 2C       		.byte	44
 2626 0003 FF       		.byte	-1
 2627 0004 2E       		.byte	46
 2628 0005 DF       		.byte	-33
 2629 0006 FF       		.byte	-1
 2630 0007 01       		.byte	1
 2631 0008 3C       		.byte	60
 2632 0009 32       		.byte	50
 2633 000a 11       		.byte	17
 2634 000b 02       		.byte	2
 2635 000c 09       		.byte	9
 2636 000d 02       		.byte	2
 2637 000e 04       		.byte	4
 2638 000f 28       		.byte	40
 2639 0010 13       		.byte	19
 2640 0011 E5       		.byte	-27
 2641 0012 14       		.byte	20
 2642 0013 48       		.byte	72
 2643 0014 2C       		.byte	44
 2644 0015 0C       		.byte	12
 2645 0016 33       		.byte	51
 2646 0017 78       		.byte	120
 2647 0018 3A       		.byte	58
 2648 0019 33       		.byte	51
 2649 001a 3B       		.byte	59
 2650 001b FB       		.byte	-5
ARM GAS  /var/folders/4k/6h5l9jl178sb4hslwv3xp1mr0000gn/T//ccHJuePB.s 			page 48


 2651 001c 3E       		.byte	62
 2652 001d 00       		.byte	0
 2653 001e 43       		.byte	67
 2654 001f 11       		.byte	17
 2655 0020 16       		.byte	22
 2656 0021 10       		.byte	16
 2657 0022 39       		.byte	57
 2658 0023 92       		.byte	-110
 2659 0024 35       		.byte	53
 2660 0025 DA       		.byte	-38
 2661 0026 22       		.byte	34
 2662 0027 1A       		.byte	26
 2663 0028 37       		.byte	55
 2664 0029 C3       		.byte	-61
 2665 002a 23       		.byte	35
 2666 002b 00       		.byte	0
 2667 002c 34       		.byte	52
 2668 002d C0       		.byte	-64
 2669 002e 36       		.byte	54
 2670 002f 1A       		.byte	26
 2671 0030 06       		.byte	6
 2672 0031 88       		.byte	-120
 2673 0032 07       		.byte	7
 2674 0033 C0       		.byte	-64
 2675 0034 0D       		.byte	13
 2676 0035 87       		.byte	-121
 2677 0036 0E       		.byte	14
 2678 0037 41       		.byte	65
 2679 0038 4C       		.byte	76
 2680 0039 00       		.byte	0
 2681 003a 48       		.byte	72
 2682 003b 00       		.byte	0
 2683 003c 5B       		.byte	91
 2684 003d 00       		.byte	0
 2685 003e 42       		.byte	66
 2686 003f 03       		.byte	3
 2687 0040 4A       		.byte	74
 2688 0041 81       		.byte	-127
 2689 0042 21       		.byte	33
 2690 0043 99       		.byte	-103
 2691 0044 24       		.byte	36
 2692 0045 40       		.byte	64
 2693 0046 25       		.byte	37
 2694 0047 38       		.byte	56
 2695 0048 26       		.byte	38
 2696 0049 82       		.byte	-126
 2697 004a 5C       		.byte	92
 2698 004b 00       		.byte	0
 2699 004c 63       		.byte	99
 2700 004d 00       		.byte	0
 2701 004e 61       		.byte	97
 2702 004f 70       		.byte	112
 2703 0050 62       		.byte	98
 2704 0051 80       		.byte	-128
 2705 0052 7C       		.byte	124
 2706 0053 05       		.byte	5
 2707 0054 20       		.byte	32
ARM GAS  /var/folders/4k/6h5l9jl178sb4hslwv3xp1mr0000gn/T//ccHJuePB.s 			page 49


 2708 0055 80       		.byte	-128
 2709 0056 28       		.byte	40
 2710 0057 30       		.byte	48
 2711 0058 6C       		.byte	108
 2712 0059 00       		.byte	0
 2713 005a 6D       		.byte	109
 2714 005b 80       		.byte	-128
 2715 005c 6E       		.byte	110
 2716 005d 00       		.byte	0
 2717 005e 70       		.byte	112
 2718 005f 02       		.byte	2
 2719 0060 71       		.byte	113
 2720 0061 94       		.byte	-108
 2721 0062 73       		.byte	115
 2722 0063 C1       		.byte	-63
 2723 0064 12       		.byte	18
 2724 0065 40       		.byte	64
 2725 0066 17       		.byte	23
 2726 0067 11       		.byte	17
 2727 0068 18       		.byte	24
 2728 0069 43       		.byte	67
 2729 006a 19       		.byte	25
 2730 006b 00       		.byte	0
 2731 006c 1A       		.byte	26
 2732 006d 4B       		.byte	75
 2733 006e 32       		.byte	50
 2734 006f 09       		.byte	9
 2735 0070 37       		.byte	55
 2736 0071 C0       		.byte	-64
 2737 0072 4F       		.byte	79
 2738 0073 60       		.byte	96
 2739 0074 50       		.byte	80
 2740 0075 A8       		.byte	-88
 2741 0076 6D       		.byte	109
 2742 0077 00       		.byte	0
 2743 0078 3D       		.byte	61
 2744 0079 38       		.byte	56
 2745 007a 46       		.byte	70
 2746 007b 3F       		.byte	63
 2747 007c 4F       		.byte	79
 2748 007d 60       		.byte	96
 2749 007e 0C       		.byte	12
 2750 007f 3C       		.byte	60
 2751 0080 FF       		.byte	-1
 2752 0081 00       		.byte	0
 2753 0082 E5       		.byte	-27
 2754 0083 7F       		.byte	127
 2755 0084 F9       		.byte	-7
 2756 0085 C0       		.byte	-64
 2757 0086 41       		.byte	65
 2758 0087 24       		.byte	36
 2759 0088 E0       		.byte	-32
 2760 0089 14       		.byte	20
 2761 008a 76       		.byte	118
 2762 008b FF       		.byte	-1
 2763 008c 33       		.byte	51
 2764 008d A0       		.byte	-96
ARM GAS  /var/folders/4k/6h5l9jl178sb4hslwv3xp1mr0000gn/T//ccHJuePB.s 			page 50


 2765 008e 42       		.byte	66
 2766 008f 20       		.byte	32
 2767 0090 43       		.byte	67
 2768 0091 18       		.byte	24
 2769 0092 4C       		.byte	76
 2770 0093 00       		.byte	0
 2771 0094 87       		.byte	-121
 2772 0095 D5       		.byte	-43
 2773 0096 88       		.byte	-120
 2774 0097 3F       		.byte	63
 2775 0098 D7       		.byte	-41
 2776 0099 03       		.byte	3
 2777 009a D9       		.byte	-39
 2778 009b 10       		.byte	16
 2779 009c D3       		.byte	-45
 2780 009d 82       		.byte	-126
 2781 009e C8       		.byte	-56
 2782 009f 08       		.byte	8
 2783 00a0 C9       		.byte	-55
 2784 00a1 80       		.byte	-128
 2785 00a2 7C       		.byte	124
 2786 00a3 00       		.byte	0
 2787 00a4 7D       		.byte	125
 2788 00a5 00       		.byte	0
 2789 00a6 7C       		.byte	124
 2790 00a7 03       		.byte	3
 2791 00a8 7D       		.byte	125
 2792 00a9 48       		.byte	72
 2793 00aa 7D       		.byte	125
 2794 00ab 48       		.byte	72
 2795 00ac 7C       		.byte	124
 2796 00ad 08       		.byte	8
 2797 00ae 7D       		.byte	125
 2798 00af 20       		.byte	32
 2799 00b0 7D       		.byte	125
 2800 00b1 10       		.byte	16
 2801 00b2 7D       		.byte	125
 2802 00b3 0E       		.byte	14
 2803 00b4 90       		.byte	-112
 2804 00b5 00       		.byte	0
 2805 00b6 91       		.byte	-111
 2806 00b7 0E       		.byte	14
 2807 00b8 91       		.byte	-111
 2808 00b9 1A       		.byte	26
 2809 00ba 91       		.byte	-111
 2810 00bb 31       		.byte	49
 2811 00bc 91       		.byte	-111
 2812 00bd 5A       		.byte	90
 2813 00be 91       		.byte	-111
 2814 00bf 69       		.byte	105
 2815 00c0 91       		.byte	-111
 2816 00c1 75       		.byte	117
 2817 00c2 91       		.byte	-111
 2818 00c3 7E       		.byte	126
 2819 00c4 91       		.byte	-111
 2820 00c5 88       		.byte	-120
 2821 00c6 91       		.byte	-111
ARM GAS  /var/folders/4k/6h5l9jl178sb4hslwv3xp1mr0000gn/T//ccHJuePB.s 			page 51


 2822 00c7 8F       		.byte	-113
 2823 00c8 91       		.byte	-111
 2824 00c9 96       		.byte	-106
 2825 00ca 91       		.byte	-111
 2826 00cb A3       		.byte	-93
 2827 00cc 91       		.byte	-111
 2828 00cd AF       		.byte	-81
 2829 00ce 91       		.byte	-111
 2830 00cf C4       		.byte	-60
 2831 00d0 91       		.byte	-111
 2832 00d1 D7       		.byte	-41
 2833 00d2 91       		.byte	-111
 2834 00d3 E8       		.byte	-24
 2835 00d4 91       		.byte	-111
 2836 00d5 20       		.byte	32
 2837 00d6 92       		.byte	-110
 2838 00d7 00       		.byte	0
 2839 00d8 93       		.byte	-109
 2840 00d9 06       		.byte	6
 2841 00da 93       		.byte	-109
 2842 00db E3       		.byte	-29
 2843 00dc 93       		.byte	-109
 2844 00dd 05       		.byte	5
 2845 00de 93       		.byte	-109
 2846 00df 05       		.byte	5
 2847 00e0 93       		.byte	-109
 2848 00e1 00       		.byte	0
 2849 00e2 93       		.byte	-109
 2850 00e3 04       		.byte	4
 2851 00e4 93       		.byte	-109
 2852 00e5 00       		.byte	0
 2853 00e6 93       		.byte	-109
 2854 00e7 00       		.byte	0
 2855 00e8 93       		.byte	-109
 2856 00e9 00       		.byte	0
 2857 00ea 93       		.byte	-109
 2858 00eb 00       		.byte	0
 2859 00ec 93       		.byte	-109
 2860 00ed 00       		.byte	0
 2861 00ee 93       		.byte	-109
 2862 00ef 00       		.byte	0
 2863 00f0 93       		.byte	-109
 2864 00f1 00       		.byte	0
 2865 00f2 96       		.byte	-106
 2866 00f3 00       		.byte	0
 2867 00f4 97       		.byte	-105
 2868 00f5 08       		.byte	8
 2869 00f6 97       		.byte	-105
 2870 00f7 19       		.byte	25
 2871 00f8 97       		.byte	-105
 2872 00f9 02       		.byte	2
 2873 00fa 97       		.byte	-105
 2874 00fb 0C       		.byte	12
 2875 00fc 97       		.byte	-105
 2876 00fd 24       		.byte	36
 2877 00fe 97       		.byte	-105
 2878 00ff 30       		.byte	48
ARM GAS  /var/folders/4k/6h5l9jl178sb4hslwv3xp1mr0000gn/T//ccHJuePB.s 			page 52


 2879 0100 97       		.byte	-105
 2880 0101 28       		.byte	40
 2881 0102 97       		.byte	-105
 2882 0103 26       		.byte	38
 2883 0104 97       		.byte	-105
 2884 0105 02       		.byte	2
 2885 0106 97       		.byte	-105
 2886 0107 98       		.byte	-104
 2887 0108 97       		.byte	-105
 2888 0109 80       		.byte	-128
 2889 010a 97       		.byte	-105
 2890 010b 00       		.byte	0
 2891 010c 97       		.byte	-105
 2892 010d 00       		.byte	0
 2893 010e C3       		.byte	-61
 2894 010f ED       		.byte	-19
 2895 0110 A4       		.byte	-92
 2896 0111 00       		.byte	0
 2897 0112 A8       		.byte	-88
 2898 0113 00       		.byte	0
 2899 0114 C5       		.byte	-59
 2900 0115 11       		.byte	17
 2901 0116 C6       		.byte	-58
 2902 0117 51       		.byte	81
 2903 0118 BF       		.byte	-65
 2904 0119 80       		.byte	-128
 2905 011a C7       		.byte	-57
 2906 011b 10       		.byte	16
 2907 011c B6       		.byte	-74
 2908 011d 66       		.byte	102
 2909 011e B8       		.byte	-72
 2910 011f A5       		.byte	-91
 2911 0120 B7       		.byte	-73
 2912 0121 64       		.byte	100
 2913 0122 B9       		.byte	-71
 2914 0123 7C       		.byte	124
 2915 0124 B3       		.byte	-77
 2916 0125 AF       		.byte	-81
 2917 0126 B4       		.byte	-76
 2918 0127 97       		.byte	-105
 2919 0128 B5       		.byte	-75
 2920 0129 FF       		.byte	-1
 2921 012a B0       		.byte	-80
 2922 012b C5       		.byte	-59
 2923 012c B1       		.byte	-79
 2924 012d 94       		.byte	-108
 2925 012e B2       		.byte	-78
 2926 012f 0F       		.byte	15
 2927 0130 C4       		.byte	-60
 2928 0131 5C       		.byte	92
 2929 0132 C0       		.byte	-64
 2930 0133 64       		.byte	100
 2931 0134 C1       		.byte	-63
 2932 0135 4B       		.byte	75
 2933 0136 8C       		.byte	-116
 2934 0137 00       		.byte	0
 2935 0138 86       		.byte	-122
ARM GAS  /var/folders/4k/6h5l9jl178sb4hslwv3xp1mr0000gn/T//ccHJuePB.s 			page 53


 2936 0139 3D       		.byte	61
 2937 013a 50       		.byte	80
 2938 013b 00       		.byte	0
 2939 013c 51       		.byte	81
 2940 013d C8       		.byte	-56
 2941 013e 52       		.byte	82
 2942 013f 96       		.byte	-106
 2943 0140 53       		.byte	83
 2944 0141 00       		.byte	0
 2945 0142 54       		.byte	84
 2946 0143 00       		.byte	0
 2947 0144 55       		.byte	85
 2948 0145 00       		.byte	0
 2949 0146 5A       		.byte	90
 2950 0147 C8       		.byte	-56
 2951 0148 5B       		.byte	91
 2952 0149 96       		.byte	-106
 2953 014a 5C       		.byte	92
 2954 014b 00       		.byte	0
 2955 014c D3       		.byte	-45
 2956 014d 7F       		.byte	127
 2957 014e C3       		.byte	-61
 2958 014f ED       		.byte	-19
 2959 0150 7F       		.byte	127
 2960 0151 00       		.byte	0
 2961 0152 DA       		.byte	-38
 2962 0153 00       		.byte	0
 2963 0154 E5       		.byte	-27
 2964 0155 1F       		.byte	31
 2965 0156 E1       		.byte	-31
 2966 0157 67       		.byte	103
 2967 0158 E0       		.byte	-32
 2968 0159 00       		.byte	0
 2969 015a DD       		.byte	-35
 2970 015b 7F       		.byte	127
 2971 015c 05       		.byte	5
 2972 015d 00       		.byte	0
 2973 015e 12       		.byte	18
 2974 015f 40       		.byte	64
 2975 0160 D3       		.byte	-45
 2976 0161 7F       		.byte	127
 2977 0162 C0       		.byte	-64
 2978 0163 16       		.byte	22
 2979 0164 C1       		.byte	-63
 2980 0165 12       		.byte	18
 2981 0166 8C       		.byte	-116
 2982 0167 00       		.byte	0
 2983 0168 86       		.byte	-122
 2984 0169 3D       		.byte	61
 2985 016a 50       		.byte	80
 2986 016b 00       		.byte	0
 2987 016c 51       		.byte	81
 2988 016d 2C       		.byte	44
 2989 016e 52       		.byte	82
 2990 016f 24       		.byte	36
 2991 0170 53       		.byte	83
 2992 0171 00       		.byte	0
ARM GAS  /var/folders/4k/6h5l9jl178sb4hslwv3xp1mr0000gn/T//ccHJuePB.s 			page 54


 2993 0172 54       		.byte	84
 2994 0173 00       		.byte	0
 2995 0174 55       		.byte	85
 2996 0175 00       		.byte	0
 2997 0176 5A       		.byte	90
 2998 0177 2C       		.byte	44
 2999 0178 5B       		.byte	91
 3000 0179 24       		.byte	36
 3001 017a 5C       		.byte	92
 3002 017b 00       		.byte	0
 3003 017c FF       		.byte	-1
 3004 017d FF       		.byte	-1
 3005 017e 0000     		.section	.data.ImageBuffer0,"aw",%progbits
 3006              		.align	2
 3007              		.set	.LANCHOR11,. + 0
 3008              		.type	ImageBuffer0, %object
 3009              		.size	ImageBuffer0, 4
 3010              	ImageBuffer0:
 3011 0000 00000000 		.word	ImageBuffer
 3012              		.section	.rodata.dcmicfg,"a",%progbits
 3013              		.align	2
 3014              		.set	.LANCHOR10,. + 0
 3015              		.type	dcmicfg, %object
 3016              		.size	dcmicfg, 12
 3017              	dcmicfg:
 3018 0000 00000000 		.word	frameEndCb
 3019 0004 00000000 		.word	dmaTxferEndCb
 3020 0008 28000000 		.word	40
 3021              		.section	.bss.ImageBuffer,"aw",%nobits
 3022              		.align	2
 3023              		.set	.LANCHOR8,. + 0
 3024              		.type	ImageBuffer, %object
 3025              		.size	ImageBuffer, 100000
 3026              	ImageBuffer:
 3027 0000 00000000 		.space	100000
 3027      00000000 
 3027      00000000 
 3027      00000000 
 3027      00000000 
 3028              		.section	.bss.error,"aw",%nobits
 3029              		.set	.LANCHOR5,. + 0
 3030              		.type	error, %object
 3031              		.size	error, 1
 3032              	error:
 3033 0000 00       		.space	1
 3034              		.section	.rodata.ov2640_jpeg_regs,"a",%progbits
 3035              		.align	2
 3036              		.set	.LANCHOR16,. + 0
 3037              		.type	ov2640_jpeg_regs, %object
 3038              		.size	ov2640_jpeg_regs, 18
 3039              	ov2640_jpeg_regs:
 3040 0000 E0       		.byte	-32
 3041 0001 14       		.byte	20
 3042 0002 E1       		.byte	-31
 3043 0003 77       		.byte	119
 3044 0004 E5       		.byte	-27
 3045 0005 1F       		.byte	31
ARM GAS  /var/folders/4k/6h5l9jl178sb4hslwv3xp1mr0000gn/T//ccHJuePB.s 			page 55


 3046 0006 D7       		.byte	-41
 3047 0007 03       		.byte	3
 3048 0008 DA       		.byte	-38
 3049 0009 10       		.byte	16
 3050 000a E0       		.byte	-32
 3051 000b 00       		.byte	0
 3052 000c FF       		.byte	-1
 3053 000d 01       		.byte	1
 3054 000e 04       		.byte	4
 3055 000f 08       		.byte	8
 3056 0010 FF       		.byte	-1
 3057 0011 FF       		.byte	-1
 3058 0012 0000     		.section	.rodata.states.7374,"a",%progbits
 3059              		.align	2
 3060              		.set	.LANCHOR25,. + 0
 3061              		.type	states.7374, %object
 3062              		.size	states.7374, 60
 3063              	states.7374:
 3064 0000 88050000 		.word	.LC51
 3065 0004 90050000 		.word	.LC52
 3066 0008 98050000 		.word	.LC53
 3067 000c A4050000 		.word	.LC54
 3068 0010 AC050000 		.word	.LC55
 3069 0014 B4050000 		.word	.LC56
 3070 0018 BC050000 		.word	.LC57
 3071 001c C8050000 		.word	.LC58
 3072 0020 D0050000 		.word	.LC59
 3073 0024 D8050000 		.word	.LC60
 3074 0028 E4050000 		.word	.LC61
 3075 002c EC050000 		.word	.LC62
 3076 0030 F4050000 		.word	.LC63
 3077 0034 FC050000 		.word	.LC64
 3078 0038 04060000 		.word	.LC65
 3079              		.section	.bss.MMCD1,"aw",%nobits
 3080              		.align	2
 3081              		.set	.LANCHOR24,. + 0
 3082              		.type	MMCD1, %object
 3083              		.size	MMCD1, 52
 3084              	MMCD1:
 3085 0000 00000000 		.space	52
 3085      00000000 
 3085      00000000 
 3085      00000000 
 3085      00000000 
 3086              		.section	.rodata.str1.4,"aMS",%progbits,1
 3087              		.align	2
 3088              	.LC0:
 3089 0000 546F7461 		.ascii	"Total num of questions\015\012\000"
 3089      6C206E75 
 3089      6D206F66 
 3089      20717565 
 3089      7374696F 
 3090 0019 000000   		.space	3
 3091              	.LC1:
 3092 001c 43414D45 		.ascii	"CAMERA STATUS\015\012\000"
 3092      52412053 
 3092      54415455 
ARM GAS  /var/folders/4k/6h5l9jl178sb4hslwv3xp1mr0000gn/T//ccHJuePB.s 			page 56


 3092      530D0A00 
 3093              	.LC2:
 3094 002c 506F7765 		.ascii	"Power:\011\011\011ON\015\012\000"
 3094      723A0909 
 3094      094F4E0D 
 3094      0A00
 3095 003a 0000     		.space	2
 3096              	.LC3:
 3097 003c 506F7765 		.ascii	"Power:\011\011\011OFF\015\012\000"
 3097      723A0909 
 3097      094F4646 
 3097      0D0A00
 3098 004b 00       		.space	1
 3099              	.LC4:
 3100 004c 496E6974 		.ascii	"Initialized:\011\011YES\015\012\000"
 3100      69616C69 
 3100      7A65643A 
 3100      09095945 
 3100      530D0A00 
 3101              	.LC5:
 3102 0060 496E6974 		.ascii	"Initialized:\011\011NO\015\012\000"
 3102      69616C69 
 3102      7A65643A 
 3102      09094E4F 
 3102      0D0A00
 3103 0073 00       		.space	1
 3104              	.LC6:
 3105 0074 496D6167 		.ascii	"Image Buffered:\011YES\015\012\000"
 3105      65204275 
 3105      66666572 
 3105      65643A09 
 3105      5945530D 
 3106 008a 0000     		.space	2
 3107              	.LC7:
 3108 008c 496D6167 		.ascii	"Image Buffered:\011NO\015\012\000"
 3108      65204275 
 3108      66666572 
 3108      65643A09 
 3108      4E4F0D0A 
 3109 00a1 000000   		.space	3
 3110              	.LC8:
 3111 00a4 42757379 		.ascii	"Busy:\011\011\011YES\015\012\000"
 3111      3A090909 
 3111      5945530D 
 3111      0A00
 3112 00b2 0000     		.space	2
 3113              	.LC9:
 3114 00b4 42757379 		.ascii	"Busy:\011\011\011NO\015\012\000"
 3114      3A090909 
 3114      4E4F0D0A 
 3114      00
 3115 00c1 000000   		.space	3
 3116              	.LC10:
 3117 00c4 4572726F 		.ascii	"Error Register:\0110x%02x\015\012\000"
 3117      72205265 
 3117      67697374 
 3117      65723A09 
ARM GAS  /var/folders/4k/6h5l9jl178sb4hslwv3xp1mr0000gn/T//ccHJuePB.s 			page 57


 3117      30782530 
 3118 00dd 000000   		.space	3
 3119              	.LC11:
 3120 00e0 496E6465 		.ascii	"Index questions\015\012\000"
 3120      78207175 
 3120      65737469 
 3120      6F6E730D 
 3120      0A00
 3121 00f2 0000     		.space	2
 3122              	.LC12:
 3123 00f4 712E7478 		.ascii	"q.txt\000"
 3123      7400
 3124 00fa 0000     		.space	2
 3125              	.LC13:
 3126 00fc 4661696C 		.ascii	"Failed to open q.txt.\015\012\000"
 3126      65642074 
 3126      6F206F70 
 3126      656E2071 
 3126      2E747874 
 3127              	.LC14:
 3128 0114 712E7478 		.ascii	"q.txt opened.\015\012\000"
 3128      74206F70 
 3128      656E6564 
 3128      2E0D0A00 
 3129              	.LC15:
 3130 0124 25642062 		.ascii	"%d bytes in file.\015\012\000"
 3130      79746573 
 3130      20696E20 
 3130      66696C65 
 3130      2E0D0A00 
 3131              	.LC16:
 3132 0138 25642071 		.ascii	"%d questions found.\015\012\000"
 3132      75657374 
 3132      696F6E73 
 3132      20666F75 
 3132      6E642E0D 
 3133 014e 0000     		.space	2
 3134              	.LC17:
 3135 0150 52656164 		.ascii	"Reading Cam ID Registers\015\012\000"
 3135      696E6720 
 3135      43616D20 
 3135      49442052 
 3135      65676973 
 3136 016b 00       		.space	1
 3137              	.LC18:
 3138 016c 4572726F 		.ascii	"Error setting page\015\012\000"
 3138      72207365 
 3138      7474696E 
 3138      67207061 
 3138      67650D0A 
 3139 0181 000000   		.space	3
 3140              	.LC19:
 3141 0184 4572726F 		.ascii	"Error Reading High Byte\015\012\000"
 3141      72205265 
 3141      6164696E 
 3141      67204869 
 3141      67682042 
ARM GAS  /var/folders/4k/6h5l9jl178sb4hslwv3xp1mr0000gn/T//ccHJuePB.s 			page 58


 3142 019e 0000     		.space	2
 3143              	.LC20:
 3144 01a0 43616D20 		.ascii	"Cam ID high is: %x\015\012\000"
 3144      49442068 
 3144      69676820 
 3144      69733A20 
 3144      25780D0A 
 3145 01b5 000000   		.space	3
 3146              	.LC21:
 3147 01b8 4572726F 		.ascii	"Error Reading Low Byte\015\012\000"
 3147      72205265 
 3147      6164696E 
 3147      67204C6F 
 3147      77204279 
 3148 01d1 000000   		.space	3
 3149              	.LC22:
 3150 01d4 43616D20 		.ascii	"Cam ID low is: %x\015\012\000"
 3150      4944206C 
 3150      6F772069 
 3150      733A2025 
 3150      780D0A00 
 3151              	.LC23:
 3152 01e8 52657365 		.ascii	"Resetting CAM\015\012\000"
 3152      7474696E 
 3152      67204341 
 3152      4D0D0A00 
 3153              	.LC24:
 3154 01f8 5475726E 		.ascii	"Turning CAM OFF\015\012\000"
 3154      696E6720 
 3154      43414D20 
 3154      4F46460D 
 3154      0A00
 3155 020a 0000     		.space	2
 3156              	.LC25:
 3157 020c 43616D65 		.ascii	"Camera is OFF\015\012\000"
 3157      72612069 
 3157      73204F46 
 3157      460D0A00 
 3158              	.LC26:
 3159 021c 626C696E 		.ascii	"blinker\000"
 3159      6B657200 
 3160              	.LC27:
 3161 0224 496D6167 		.ascii	"Image capture complete.\015\012\000"
 3161      65206361 
 3161      70747572 
 3161      6520636F 
 3161      6D706C65 
 3162 023e 0000     		.space	2
 3163              	.LC28:
 3164 0240 53657474 		.ascii	"Setting CAM ON\015\012\000"
 3164      696E6720 
 3164      43414D20 
 3164      4F4E0D0A 
 3164      00
 3165 0251 000000   		.space	3
 3166              	.LC29:
 3167 0254 57726F6E 		.ascii	"Wrong number of arguments!\015\012\000"
ARM GAS  /var/folders/4k/6h5l9jl178sb4hslwv3xp1mr0000gn/T//ccHJuePB.s 			page 59


 3167      67206E75 
 3167      6D626572 
 3167      206F6620 
 3167      61726775 
 3168 0271 000000   		.space	3
 3169              	.LC30:
 3170 0274 456E7465 		.ascii	"Enter: mark_question n, where n is an integer from "
 3170      723A206D 
 3170      61726B5F 
 3170      71756573 
 3170      74696F6E 
 3171 02a7 3120746F 		.ascii	"1 to 99\015\012\000"
 3171      2039390D 
 3171      0A00
 3172 02b1 000000   		.space	3
 3173              	.LC31:
 3174 02b4 4D61726B 		.ascii	"Marking question %d\015\012\000"
 3174      696E6720 
 3174      71756573 
 3174      74696F6E 
 3174      2025640D 
 3175 02ca 0000     		.space	2
 3176              	.LC32:
 3177 02cc 456E7465 		.ascii	"Enter: get_question AA, where AA is an integer from"
 3177      723A2067 
 3177      65745F71 
 3177      75657374 
 3177      696F6E20 
 3178 02ff 20312074 		.ascii	" 1 to 99\015\012\000"
 3178      6F203939 
 3178      0D0A00
 3179 030a 0000     		.space	2
 3180              	.LC33:
 3181 030c 47657474 		.ascii	"Getting question %d\015\012\000"
 3181      696E6720 
 3181      71756573 
 3181      74696F6E 
 3181      2025640D 
 3182 0322 0000     		.space	2
 3183              	.LC34:
 3184 0324 456E7465 		.ascii	"Enter: cam_reg_read AA, where AA is register locati"
 3184      723A2063 
 3184      616D5F72 
 3184      65675F72 
 3184      65616420 
 3185 0357 6F6E0D0A 		.ascii	"on\015\012\000"
 3185      00
 3186              	.LC35:
 3187 035c 52656164 		.ascii	"Reading Register Location 0x%x\015\012\000"
 3187      696E6720 
 3187      52656769 
 3187      73746572 
 3187      204C6F63 
 3188 037d 000000   		.space	3
 3189              	.LC36:
 3190 0380 4572726F 		.ascii	"Error reading specified register.\015\012\000"
 3190      72207265 
ARM GAS  /var/folders/4k/6h5l9jl178sb4hslwv3xp1mr0000gn/T//ccHJuePB.s 			page 60


 3190      6164696E 
 3190      67207370 
 3190      65636966 
 3191              	.LC37:
 3192 03a4 52656164 		.ascii	"Read Value in HEX is: 0x%x\015\012\000"
 3192      2056616C 
 3192      75652069 
 3192      6E204845 
 3192      58206973 
 3193 03c1 000000   		.space	3
 3194              	.LC38:
 3195 03c4 456E7465 		.ascii	"Enter: cam_reg_write AA BB, where AA is register an"
 3195      723A2063 
 3195      616D5F72 
 3195      65675F77 
 3195      72697465 
 3196 03f7 64204242 		.ascii	"d BB is the value.\015\012\000"
 3196      20697320 
 3196      74686520 
 3196      76616C75 
 3196      652E0D0A 
 3197              	.LC39:
 3198 040c 57726974 		.ascii	"Writing Register Location 0x%x with Value 0x%x\015\012"
 3198      696E6720 
 3198      52656769 
 3198      73746572 
 3198      204C6F63 
 3199 043c 00       		.ascii	"\000"
 3200 043d 000000   		.space	3
 3201              	.LC40:
 3202 0440 4572726F 		.ascii	"Error writing to camera registers.\015\012\000"
 3202      72207772 
 3202      6974696E 
 3202      6720746F 
 3202      2063616D 
 3203 0465 000000   		.space	3
 3204              	.LC41:
 3205 0468 52656769 		.ascii	"Register write complete\015\012\000"
 3205      73746572 
 3205      20777269 
 3205      74652063 
 3205      6F6D706C 
 3206 0482 0000     		.space	2
 3207              	.LC42:
 3208 0484 456E7465 		.ascii	"Enter: cmd_cam_save FILENAME.jpg\015\012\000"
 3208      723A2063 
 3208      6D645F63 
 3208      616D5F73 
 3208      61766520 
 3209 04a7 00       		.space	1
 3210              	.LC43:
 3211 04a8 20626569 		.ascii	" being saved...\015\012\000"
 3211      6E672073 
 3211      61766564 
 3211      2E2E2E0D 
 3211      0A00
 3212 04ba 0000     		.space	2
ARM GAS  /var/folders/4k/6h5l9jl178sb4hslwv3xp1mr0000gn/T//ccHJuePB.s 			page 61


 3213              	.LC44:
 3214 04bc 55736167 		.ascii	"Usage: threads\015\012\000"
 3214      653A2074 
 3214      68726561 
 3214      64730D0A 
 3214      00
 3215 04cd 000000   		.space	3
 3216              	.LC45:
 3217 04d0 20202020 		.ascii	"    addr    stack prio refs     state time\015\012\000"
 3217      61646472 
 3217      20202020 
 3217      73746163 
 3217      6B207072 
 3218 04fd 000000   		.space	3
 3219              	.LC46:
 3220 0500 252E386C 		.ascii	"%.8lx %.8lx %4lu %4lu %9s %lu\015\012\000"
 3220      7820252E 
 3220      386C7820 
 3220      25346C75 
 3220      2025346C 
 3221              	.LC47:
 3222 0520 55736167 		.ascii	"Usage: mem\015\012\000"
 3222      653A206D 
 3222      656D0D0A 
 3222      00
 3223 052d 000000   		.space	3
 3224              	.LC48:
 3225 0530 636F7265 		.ascii	"core free memory : %u bytes\015\012\000"
 3225      20667265 
 3225      65206D65 
 3225      6D6F7279 
 3225      203A2025 
 3226 054e 0000     		.space	2
 3227              	.LC49:
 3228 0550 68656170 		.ascii	"heap fragments   : %u\015\012\000"
 3228      20667261 
 3228      676D656E 
 3228      74732020 
 3228      203A2025 
 3229              	.LC50:
 3230 0568 68656170 		.ascii	"heap free total  : %u bytes\015\012\000"
 3230      20667265 
 3230      6520746F 
 3230      74616C20 
 3230      203A2025 
 3231 0586 0000     		.space	2
 3232              	.LC51:
 3233 0588 52454144 		.ascii	"READY\000"
 3233      5900
 3234 058e 0000     		.space	2
 3235              	.LC52:
 3236 0590 43555252 		.ascii	"CURRENT\000"
 3236      454E5400 
 3237              	.LC53:
 3238 0598 53555350 		.ascii	"SUSPENDED\000"
 3238      454E4445 
 3238      4400
ARM GAS  /var/folders/4k/6h5l9jl178sb4hslwv3xp1mr0000gn/T//ccHJuePB.s 			page 62


 3239 05a2 0000     		.space	2
 3240              	.LC54:
 3241 05a4 57545345 		.ascii	"WTSEM\000"
 3241      4D00
 3242 05aa 0000     		.space	2
 3243              	.LC55:
 3244 05ac 57544D54 		.ascii	"WTMTX\000"
 3244      5800
 3245 05b2 0000     		.space	2
 3246              	.LC56:
 3247 05b4 5754434F 		.ascii	"WTCOND\000"
 3247      4E4400
 3248 05bb 00       		.space	1
 3249              	.LC57:
 3250 05bc 534C4545 		.ascii	"SLEEPING\000"
 3250      50494E47 
 3250      00
 3251 05c5 000000   		.space	3
 3252              	.LC58:
 3253 05c8 57544558 		.ascii	"WTEXIT\000"
 3253      495400
 3254 05cf 00       		.space	1
 3255              	.LC59:
 3256 05d0 57544F52 		.ascii	"WTOREVT\000"
 3256      45565400 
 3257              	.LC60:
 3258 05d8 5754414E 		.ascii	"WTANDEVT\000"
 3258      44455654 
 3258      00
 3259 05e1 000000   		.space	3
 3260              	.LC61:
 3261 05e4 534E444D 		.ascii	"SNDMSGQ\000"
 3261      53475100 
 3262              	.LC62:
 3263 05ec 534E444D 		.ascii	"SNDMSG\000"
 3263      534700
 3264 05f3 00       		.space	1
 3265              	.LC63:
 3266 05f4 57544D53 		.ascii	"WTMSG\000"
 3266      4700
 3267 05fa 0000     		.space	2
 3268              	.LC64:
 3269 05fc 57545155 		.ascii	"WTQUEUE\000"
 3269      45554500 
 3270              	.LC65:
 3271 0604 46494E41 		.ascii	"FINAL\000"
 3271      4C00
 3272 060a 0000     		.space	2
 3273              	.LC66:
 3274 060c 6D656D00 		.ascii	"mem\000"
 3275              	.LC67:
 3276 0610 74687265 		.ascii	"threads\000"
 3276      61647300 
 3277              	.LC68:
 3278 0618 63616D5F 		.ascii	"cam_id\000"
 3278      696400
 3279 061f 00       		.space	1
ARM GAS  /var/folders/4k/6h5l9jl178sb4hslwv3xp1mr0000gn/T//ccHJuePB.s 			page 63


 3280              	.LC69:
 3281 0620 63616D5F 		.ascii	"cam_init\000"
 3281      696E6974 
 3281      00
 3282 0629 000000   		.space	3
 3283              	.LC70:
 3284 062c 63616D5F 		.ascii	"cam_on\000"
 3284      6F6E00
 3285 0633 00       		.space	1
 3286              	.LC71:
 3287 0634 63616D5F 		.ascii	"cam_off\000"
 3287      6F666600 
 3288              	.LC72:
 3289 063c 63616D5F 		.ascii	"cam_reset\000"
 3289      72657365 
 3289      7400
 3290 0646 0000     		.space	2
 3291              	.LC73:
 3292 0648 63616D5F 		.ascii	"cam_capture\000"
 3292      63617074 
 3292      75726500 
 3293              	.LC74:
 3294 0654 63616D5F 		.ascii	"cam_save\000"
 3294      73617665 
 3294      00
 3295 065d 000000   		.space	3
 3296              	.LC75:
 3297 0660 63616D5F 		.ascii	"cam_status\000"
 3297      73746174 
 3297      757300
 3298 066b 00       		.space	1
 3299              	.LC76:
 3300 066c 63616D5F 		.ascii	"cam_reg_write\000"
 3300      7265675F 
 3300      77726974 
 3300      6500
 3301 067a 0000     		.space	2
 3302              	.LC77:
 3303 067c 63616D5F 		.ascii	"cam_reg_read\000"
 3303      7265675F 
 3303      72656164 
 3303      00
 3304 0689 000000   		.space	3
 3305              	.LC78:
 3306 068c 696E6465 		.ascii	"index_qs\000"
 3306      785F7173 
 3306      00
 3307 0695 000000   		.space	3
 3308              	.LC79:
 3309 0698 6765745F 		.ascii	"get_total_qs\000"
 3309      746F7461 
 3309      6C5F7173 
 3309      00
 3310 06a5 000000   		.space	3
 3311              	.LC80:
 3312 06a8 6765745F 		.ascii	"get_question\000"
 3312      71756573 
ARM GAS  /var/folders/4k/6h5l9jl178sb4hslwv3xp1mr0000gn/T//ccHJuePB.s 			page 64


 3312      74696F6E 
 3312      00
 3313 06b5 000000   		.space	3
 3314              	.LC81:
 3315 06b8 6D61726B 		.ascii	"mark_question\000"
 3315      5F717565 
 3315      7374696F 
 3315      6E00
 3316 06c6 0000     		.section	.rodata.ov2640_autolight,"a",%progbits
 3317              		.align	2
 3318              		.set	.LANCHOR19,. + 0
 3319              		.type	ov2640_autolight, %object
 3320              		.size	ov2640_autolight, 6
 3321              	ov2640_autolight:
 3322 0000 FF       		.byte	-1
 3323 0001 00       		.byte	0
 3324 0002 C7       		.byte	-57
 3325 0003 00       		.byte	0
 3326 0004 FF       		.byte	-1
 3327 0005 FF       		.byte	-1
 3328 0006 0000     		.section	.bss.power,"aw",%nobits
 3329              		.set	.LANCHOR1,. + 0
 3330              		.type	power, %object
 3331              		.size	power, 1
 3332              	power:
 3333 0000 00       		.space	1
 3334              		.section	.rodata.ov2640_yuv422_regs,"a",%progbits
 3335              		.align	2
 3336              		.set	.LANCHOR15,. + 0
 3337              		.type	ov2640_yuv422_regs, %object
 3338              		.size	ov2640_yuv422_regs, 20
 3339              	ov2640_yuv422_regs:
 3340 0000 FF       		.byte	-1
 3341 0001 00       		.byte	0
 3342 0002 05       		.byte	5
 3343 0003 00       		.byte	0
 3344 0004 DA       		.byte	-38
 3345 0005 10       		.byte	16
 3346 0006 D7       		.byte	-41
 3347 0007 03       		.byte	3
 3348 0008 DF       		.byte	-33
 3349 0009 00       		.byte	0
 3350 000a 33       		.byte	51
 3351 000b 80       		.byte	-128
 3352 000c 3C       		.byte	60
 3353 000d 40       		.byte	64
 3354 000e E1       		.byte	-31
 3355 000f 77       		.byte	119
 3356 0010 00       		.byte	0
 3357 0011 00       		.byte	0
 3358 0012 FF       		.byte	-1
 3359 0013 FF       		.byte	-1
 3360              		.section	.rodata.ov2640_1024x768_regs,"a",%progbits
 3361              		.align	2
 3362              		.set	.LANCHOR17,. + 0
 3363              		.type	ov2640_1024x768_regs, %object
 3364              		.size	ov2640_1024x768_regs, 78
ARM GAS  /var/folders/4k/6h5l9jl178sb4hslwv3xp1mr0000gn/T//ccHJuePB.s 			page 65


 3365              	ov2640_1024x768_regs:
 3366 0000 FF       		.byte	-1
 3367 0001 01       		.byte	1
 3368 0002 11       		.byte	17
 3369 0003 00       		.byte	0
 3370 0004 12       		.byte	18
 3371 0005 00       		.byte	0
 3372 0006 17       		.byte	23
 3373 0007 11       		.byte	17
 3374 0008 18       		.byte	24
 3375 0009 75       		.byte	117
 3376 000a 32       		.byte	50
 3377 000b 36       		.byte	54
 3378 000c 19       		.byte	25
 3379 000d 01       		.byte	1
 3380 000e 1A       		.byte	26
 3381 000f 97       		.byte	-105
 3382 0010 03       		.byte	3
 3383 0011 0F       		.byte	15
 3384 0012 37       		.byte	55
 3385 0013 40       		.byte	64
 3386 0014 4F       		.byte	79
 3387 0015 BB       		.byte	-69
 3388 0016 50       		.byte	80
 3389 0017 9C       		.byte	-100
 3390 0018 5A       		.byte	90
 3391 0019 57       		.byte	87
 3392 001a 6D       		.byte	109
 3393 001b 80       		.byte	-128
 3394 001c 3D       		.byte	61
 3395 001d 34       		.byte	52
 3396 001e 39       		.byte	57
 3397 001f 02       		.byte	2
 3398 0020 35       		.byte	53
 3399 0021 88       		.byte	-120
 3400 0022 22       		.byte	34
 3401 0023 0A       		.byte	10
 3402 0024 37       		.byte	55
 3403 0025 40       		.byte	64
 3404 0026 34       		.byte	52
 3405 0027 A0       		.byte	-96
 3406 0028 06       		.byte	6
 3407 0029 02       		.byte	2
 3408 002a 0D       		.byte	13
 3409 002b B7       		.byte	-73
 3410 002c 0E       		.byte	14
 3411 002d 01       		.byte	1
 3412 002e FF       		.byte	-1
 3413 002f 00       		.byte	0
 3414 0030 C0       		.byte	-64
 3415 0031 C8       		.byte	-56
 3416 0032 C1       		.byte	-63
 3417 0033 96       		.byte	-106
 3418 0034 8C       		.byte	-116
 3419 0035 00       		.byte	0
 3420 0036 86       		.byte	-122
 3421 0037 3D       		.byte	61
ARM GAS  /var/folders/4k/6h5l9jl178sb4hslwv3xp1mr0000gn/T//ccHJuePB.s 			page 66


 3422 0038 50       		.byte	80
 3423 0039 00       		.byte	0
 3424 003a 51       		.byte	81
 3425 003b 90       		.byte	-112
 3426 003c 52       		.byte	82
 3427 003d 2C       		.byte	44
 3428 003e 53       		.byte	83
 3429 003f 00       		.byte	0
 3430 0040 54       		.byte	84
 3431 0041 00       		.byte	0
 3432 0042 55       		.byte	85
 3433 0043 88       		.byte	-120
 3434 0044 5A       		.byte	90
 3435 0045 00       		.byte	0
 3436 0046 5B       		.byte	91
 3437 0047 C0       		.byte	-64
 3438 0048 5C       		.byte	92
 3439 0049 01       		.byte	1
 3440 004a D3       		.byte	-45
 3441 004b 02       		.byte	2
 3442 004c FF       		.byte	-1
 3443 004d FF       		.byte	-1
 3444 004e 0000     		.section	.bss.fs_ready,"aw",%nobits
 3445              		.set	.LANCHOR9,. + 0
 3446              		.type	fs_ready, %object
 3447              		.size	fs_ready, 1
 3448              	fs_ready:
 3449 0000 00       		.space	1
 3450              		.section	.data.hs_spicfg,"aw",%progbits
 3451              		.align	2
 3452              		.type	hs_spicfg, %object
 3453              		.size	hs_spicfg, 12
 3454              	hs_spicfg:
 3455 0000 00000000 		.word	0
 3456 0004 00040240 		.word	1073873920
 3457 0008 0C00     		.short	12
 3458 000a 0000     		.short	0
 3459              		.section	.bss.tmr,"aw",%nobits
 3460              		.align	2
 3461              		.set	.LANCHOR23,. + 0
 3462              		.type	tmr, %object
 3463              		.size	tmr, 20
 3464              	tmr:
 3465 0000 00000000 		.space	20
 3465      00000000 
 3465      00000000 
 3465      00000000 
 3465      00000000 
 3466              		.section	.rodata.commands,"a",%progbits
 3467              		.align	2
 3468              		.type	commands, %object
 3469              		.size	commands, 136
 3470              	commands:
 3471 0000 0C060000 		.word	.LC66
 3472 0004 00000000 		.word	cmd_mem
 3473 0008 10060000 		.word	.LC67
 3474 000c 00000000 		.word	cmd_threads
ARM GAS  /var/folders/4k/6h5l9jl178sb4hslwv3xp1mr0000gn/T//ccHJuePB.s 			page 67


 3475 0010 18060000 		.word	.LC68
 3476 0014 00000000 		.word	cmd_cam_id
 3477 0018 20060000 		.word	.LC69
 3478 001c 00000000 		.word	cmd_cam_init
 3479 0020 2C060000 		.word	.LC70
 3480 0024 00000000 		.word	cmd_cam_on
 3481 0028 34060000 		.word	.LC71
 3482 002c 00000000 		.word	cmd_cam_off
 3483 0030 3C060000 		.word	.LC72
 3484 0034 00000000 		.word	cmd_cam_reset
 3485 0038 48060000 		.word	.LC73
 3486 003c 00000000 		.word	cmd_cam_capture
 3487 0040 54060000 		.word	.LC74
 3488 0044 00000000 		.word	cmd_cam_save
 3489 0048 60060000 		.word	.LC75
 3490 004c 00000000 		.word	cmd_cam_status
 3491 0050 6C060000 		.word	.LC76
 3492 0054 00000000 		.word	cmd_cam_reg_write
 3493 0058 7C060000 		.word	.LC77
 3494 005c 00000000 		.word	cmd_cam_reg_read
 3495 0060 8C060000 		.word	.LC78
 3496 0064 00000000 		.word	cmd_index_questions
 3497 0068 98060000 		.word	.LC79
 3498 006c 00000000 		.word	cmd_get_total_questions
 3499 0070 A8060000 		.word	.LC80
 3500 0074 00000000 		.word	cmd_get_question
 3501 0078 B8060000 		.word	.LC81
 3502 007c 00000000 		.word	cmd_mark_question
 3503 0080 00000000 		.word	0
 3504 0084 00000000 		.word	0
 3505              		.section	.bss.captured,"aw",%nobits
 3506              		.set	.LANCHOR3,. + 0
 3507              		.type	captured, %object
 3508              		.size	captured, 1
 3509              	captured:
 3510 0000 00       		.space	1
 3511              		.section	.bss.cnt,"aw",%nobits
 3512              		.align	2
 3513              		.set	.LANCHOR20,. + 0
 3514              		.type	cnt, %object
 3515              		.size	cnt, 4
 3516              	cnt:
 3517 0000 00000000 		.space	4
 3518              		.section	.bss.DmaStreamType,"aw",%nobits
 3519              		.align	2
 3520              		.type	DmaStreamType, %object
 3521              		.size	DmaStreamType, 4
 3522              	DmaStreamType:
 3523 0000 00000000 		.space	4
 3524              		.section	.rodata.shell_cfg1,"a",%progbits
 3525              		.align	2
 3526              		.set	.LANCHOR29,. + 0
 3527              		.type	shell_cfg1, %object
 3528              		.size	shell_cfg1, 8
 3529              	shell_cfg1:
 3530 0000 00000000 		.word	SD2
 3531 0004 00000000 		.word	commands
ARM GAS  /var/folders/4k/6h5l9jl178sb4hslwv3xp1mr0000gn/T//ccHJuePB.s 			page 68


 3532              		.section	.rodata.ov2640_normal,"a",%progbits
 3533              		.align	2
 3534              		.set	.LANCHOR18,. + 0
 3535              		.type	ov2640_normal, %object
 3536              		.size	ov2640_normal, 14
 3537              	ov2640_normal:
 3538 0000 FF       		.byte	-1
 3539 0001 00       		.byte	0
 3540 0002 7C       		.byte	124
 3541 0003 00       		.byte	0
 3542 0004 7D       		.byte	125
 3543 0005 00       		.byte	0
 3544 0006 7C       		.byte	124
 3545 0007 05       		.byte	5
 3546 0008 7D       		.byte	125
 3547 0009 80       		.byte	-128
 3548 000a 7D       		.byte	125
 3549 000b 80       		.byte	-128
 3550 000c FF       		.byte	-1
 3551 000d FF       		.byte	-1
 3552 000e 0000     		.section	.data.mmccfg,"aw",%progbits
 3553              		.align	2
 3554              		.set	.LANCHOR27,. + 0
 3555              		.type	mmccfg, %object
 3556              		.size	mmccfg, 12
 3557              	mmccfg:
 3558 0000 00000000 		.word	SPID2
 3559 0004 00000000 		.word	ls_spicfg
 3560 0008 00000000 		.word	hs_spicfg
 3561              		.section	.bss.waThread1,"aw",%nobits
 3562              		.align	3
 3563              		.set	.LANCHOR28,. + 0
 3564              		.type	waThread1, %object
 3565              		.size	waThread1, 336
 3566              	waThread1:
 3567 0000 00000000 		.space	336
 3567      00000000 
 3567      00000000 
 3567      00000000 
 3567      00000000 
 3568              		.section	.data.ls_spicfg,"aw",%progbits
 3569              		.align	2
 3570              		.type	ls_spicfg, %object
 3571              		.size	ls_spicfg, 12
 3572              	ls_spicfg:
 3573 0000 00000000 		.word	0
 3574 0004 00040240 		.word	1073873920
 3575 0008 0C00     		.short	12
 3576 000a 3000     		.short	48
 3577              		.section	.bss.numOfQuestions,"aw",%nobits
 3578              		.set	.LANCHOR6,. + 0
 3579              		.type	numOfQuestions, %object
 3580              		.size	numOfQuestions, 1
 3581              	numOfQuestions:
 3582 0000 00       		.space	1
 3583              		.text
 3584              	.Letext0:
ARM GAS  /var/folders/4k/6h5l9jl178sb4hslwv3xp1mr0000gn/T//ccHJuePB.s 			page 69


 3585              		.file 3 "/Users/mikevanis/Documents/workspace/gcc-arm-none-eabi-4_8-2014q1/lib/gcc/arm-none-eabi/4
 3586              		.file 4 "/Users/mikevanis/Documents/workspace/gcc-arm-none-eabi-4_8-2014q1/arm-none-eabi/include/m
 3587              		.file 5 "/Users/mikevanis/Documents/workspace/gcc-arm-none-eabi-4_8-2014q1/arm-none-eabi/include/s
 3588              		.file 6 "../ChibiStudio/ChibiOS/os/ports/GCC/ARMCMx/chtypes.h"
 3589              		.file 7 "../ChibiStudio/ChibiOS/os/kernel/include/chlists.h"
 3590              		.file 8 "../ChibiStudio/ChibiOS/os/kernel/include/chthreads.h"
 3591              		.file 9 "../ChibiStudio/ChibiOS/os/ports/GCC/ARMCMx/chcore_v7m.h"
 3592              		.file 10 "../ChibiStudio/ChibiOS/os/kernel/include/chvt.h"
 3593              		.file 11 "../ChibiStudio/ChibiOS/os/kernel/include/chschd.h"
 3594              		.file 12 "../ChibiStudio/ChibiOS/os/kernel/include/chsem.h"
 3595              		.file 13 "../ChibiStudio/ChibiOS/os/kernel/include/chmtx.h"
 3596              		.file 14 "../ChibiStudio/ChibiOS/os/kernel/include/chevents.h"
 3597              		.file 15 "../ChibiStudio/ChibiOS/os/kernel/include/chmemcore.h"
 3598              		.file 16 "../ChibiStudio/ChibiOS/os/kernel/include/chheap.h"
 3599              		.file 17 "../ChibiStudio/ChibiOS/os/kernel/include/chqueues.h"
 3600              		.file 18 "../ChibiStudio/ChibiOS/os/kernel/include/chstreams.h"
 3601              		.file 19 "../ChibiStudio/ChibiOS/os/hal/platforms/STM32F4xx/stm32f4xx.h"
 3602              		.file 20 "../ChibiStudio/ChibiOS/os/hal/platforms/STM32F4xx/stm32_dma.h"
 3603              		.file 21 "../ChibiStudio/ChibiOS/os/hal/include/io_block.h"
 3604              		.file 22 "../ChibiStudio/ChibiOS/os/hal/platforms/STM32/GPIOv2/pal_lld.h"
 3605              		.file 23 "../ChibiStudio/ChibiOS/os/hal/include/dcmi.h"
 3606              		.file 24 "../ChibiStudio/ChibiOS/os/hal/platforms/STM32F4xx/dcmi_lld.h"
 3607              		.file 25 "../ChibiStudio/ChibiOS/os/hal/include/pwm.h"
 3608              		.file 26 "../ChibiStudio/ChibiOS/os/hal/platforms/STM32/TIMv1/pwm_lld.h"
 3609              		.file 27 "../ChibiStudio/ChibiOS/os/hal/platforms/STM32/TIMv1/stm32_tim.h"
 3610              		.file 28 "../ChibiStudio/ChibiOS/os/hal/include/serial.h"
 3611              		.file 29 "../ChibiStudio/ChibiOS/os/hal/platforms/STM32/USARTv1/serial_lld.h"
 3612              		.file 30 "../ChibiStudio/ChibiOS/os/hal/include/spi.h"
 3613              		.file 31 "../ChibiStudio/ChibiOS/os/hal/platforms/STM32/SPIv1/spi_lld.h"
 3614              		.file 32 "../ChibiStudio/ChibiOS/os/hal/include/mmc_spi.h"
 3615              		.file 33 "/Users/mikevanis/Documents/workspace/gcc-arm-none-eabi-4_8-2014q1/lib/gcc/arm-none-eabi/
 3616              		.file 34 "<built-in>"
 3617              		.file 35 "../ChibiStudio/ChibiOS/os/various/shell.h"
 3618              		.file 36 "OV2640.h"
 3619              		.file 37 "../ChibiStudio/ChibiOS/ext/fatfs/src/integer.h"
 3620              		.file 38 "../ChibiStudio/ChibiOS/ext/fatfs/src/ff.h"
 3621              		.file 39 "hwinit.h"
 3622              		.file 40 "../ChibiStudio/ChibiOS/os/ports/common/ARMCMx/CMSIS/include/core_cm4.h"
 3623              		.file 41 "../ChibiStudio/ChibiOS/os/kernel/include/chregistry.h"
 3624              		.file 42 "../ChibiStudio/ChibiOS/os/hal/include/hal.h"
 3625              		.file 43 "../ChibiStudio/ChibiOS/os/kernel/include/chsys.h"
 3626              		.file 44 "../ChibiStudio/ChibiOS/os/kernel/include/chdynamic.h"