ARM GAS  /var/folders/4k/6h5l9jl178sb4hslwv3xp1mr0000gn/T//ccNKqrmb.s 			page 1


   1              		.syntax unified
   2              		.cpu cortex-m4
   3              		.fpu softvfp
   4              		.eabi_attribute 20, 1
   5              		.eabi_attribute 21, 1
   6              		.eabi_attribute 23, 3
   7              		.eabi_attribute 24, 1
   8              		.eabi_attribute 25, 1
   9              		.eabi_attribute 26, 1
  10              		.eabi_attribute 30, 2
  11              		.eabi_attribute 34, 1
  12              		.eabi_attribute 18, 4
  13              		.thumb
  14              		.file	"mmc_spi.c"
  15              		.text
  16              	.Ltext0:
  17              		.cfi_sections	.debug_frame
  18              		.section	.text.mmcGetInfo,"ax",%progbits
  19              		.align	2
  20              		.p2align 4,,15
  21              		.global	mmcGetInfo
  22              		.thumb
  23              		.thumb_func
  24              		.type	mmcGetInfo, %function
  25              	mmcGetInfo:
  26              	.LFB142:
  27              		.file 1 "../ChibiStudio/ChibiOS/os/hal/src/mmc_spi.c"
  28              		.loc 1 826 0
  29              		.cfi_startproc
  30              		@ args = 0, pretend = 0, frame = 0
  31              		@ frame_needed = 0, uses_anonymous_args = 0
  32              		@ link register save eliminated.
  33              	.LVL0:
  34              		.loc 1 830 0
  35 0000 0379     		ldrb	r3, [r0, #4]	@ zero_extendqisi2
  36 0002 052B     		cmp	r3, #5
  37 0004 01D0     		beq	.L5
  38              		.loc 1 831 0
  39 0006 0120     		movs	r0, #1
  40              	.LVL1:
  41              		.loc 1 837 0
  42 0008 7047     		bx	lr
  43              	.LVL2:
  44              	.L5:
  45              		.loc 1 833 0
  46 000a 836A     		ldr	r3, [r0, #40]
  47 000c 4B60     		str	r3, [r1, #4]
  48              		.loc 1 834 0
  49 000e 4FF40073 		mov	r3, #512
  50 0012 0B60     		str	r3, [r1]
  51              		.loc 1 836 0
  52 0014 0020     		movs	r0, #0
  53              	.LVL3:
  54 0016 7047     		bx	lr
  55              		.cfi_endproc
  56              	.LFE142:
  57              		.size	mmcGetInfo, .-mmcGetInfo
ARM GAS  /var/folders/4k/6h5l9jl178sb4hslwv3xp1mr0000gn/T//ccNKqrmb.s 			page 2


  58 0018 AFF30080 		.section	.text.wait.isra.0,"ax",%progbits
  58      AFF30080 
  59              		.align	2
  60              		.p2align 4,,15
  61              		.thumb
  62              		.thumb_func
  63              		.type	wait.isra.0, %function
  64              	wait.isra.0:
  65              	.LFB144:
  66              		.loc 1 164 0
  67              		.cfi_startproc
  68              		@ args = 0, pretend = 0, frame = 8
  69              		@ frame_needed = 0, uses_anonymous_args = 0
  70              	.LVL4:
  71 0000 30B5     		push	{r4, r5, lr}
  72              		.cfi_def_cfa_offset 12
  73              		.cfi_offset 4, -12
  74              		.cfi_offset 5, -8
  75              		.cfi_offset 14, -4
  76 0002 0546     		mov	r5, r0
  77 0004 83B0     		sub	sp, sp, #12
  78              		.cfi_def_cfa_offset 24
  79              		.loc 1 164 0
  80 0006 1024     		movs	r4, #16
  81              	.LVL5:
  82              	.L9:
  83              		.loc 1 169 0
  84 0008 2B68     		ldr	r3, [r5]
  85 000a 0121     		movs	r1, #1
  86 000c 1868     		ldr	r0, [r3]
  87 000e 01AA     		add	r2, sp, #4
  88 0010 FFF7FEFF 		bl	spiReceive
  89              	.LVL6:
  90              		.loc 1 170 0
  91 0014 9DF80430 		ldrb	r3, [sp, #4]	@ zero_extendqisi2
  92 0018 FF2B     		cmp	r3, #255
  93 001a 0FD0     		beq	.L6
  94              		.loc 1 168 0
  95 001c 013C     		subs	r4, r4, #1
  96              	.LVL7:
  97 001e F3D1     		bne	.L9
  98 0020 02E0     		b	.L11
  99              	.L19:
 100              		.loc 1 180 0
 101 0022 0120     		movs	r0, #1
 102 0024 FFF7FEFF 		bl	chThdSleep
 103              	.LVL8:
 104              	.L11:
 105              		.loc 1 175 0
 106 0028 2B68     		ldr	r3, [r5]
 107 002a 0121     		movs	r1, #1
 108 002c 1868     		ldr	r0, [r3]
 109 002e 01AA     		add	r2, sp, #4
 110 0030 FFF7FEFF 		bl	spiReceive
 111              	.LVL9:
 112              		.loc 1 176 0
 113 0034 9DF80430 		ldrb	r3, [sp, #4]	@ zero_extendqisi2
ARM GAS  /var/folders/4k/6h5l9jl178sb4hslwv3xp1mr0000gn/T//ccNKqrmb.s 			page 3


 114 0038 FF2B     		cmp	r3, #255
 115 003a F2D1     		bne	.L19
 116              	.LVL10:
 117              	.L6:
 118              		.loc 1 183 0
 119 003c 03B0     		add	sp, sp, #12
 120              		@ sp needed
 121 003e 30BD     		pop	{r4, r5, pc}
 122              		.cfi_endproc
 123              	.LFE144:
 124              		.size	wait.isra.0, .-wait.isra.0
 125              		.section	.text.send_hdr,"ax",%progbits
 126              		.align	2
 127              		.p2align 4,,15
 128              		.thumb
 129              		.thumb_func
 130              		.type	send_hdr, %function
 131              	send_hdr:
 132              	.LFB122:
 133              		.loc 1 194 0
 134              		.cfi_startproc
 135              		@ args = 0, pretend = 0, frame = 8
 136              		@ frame_needed = 0, uses_anonymous_args = 0
 137              	.LVL11:
 138 0000 70B5     		push	{r4, r5, r6, lr}
 139              		.cfi_def_cfa_offset 16
 140              		.cfi_offset 4, -16
 141              		.cfi_offset 5, -12
 142              		.cfi_offset 6, -8
 143              		.cfi_offset 14, -4
 144 0002 1446     		mov	r4, r2
 145 0004 82B0     		sub	sp, sp, #8
 146              		.cfi_def_cfa_offset 24
 147              		.loc 1 194 0
 148 0006 0D46     		mov	r5, r1
 149 0008 0646     		mov	r6, r0
 150              		.loc 1 198 0
 151 000a 2C30     		adds	r0, r0, #44
 152              	.LVL12:
 153 000c FFF7FEFF 		bl	wait.isra.0
 154              	.LVL13:
 155              		.loc 1 202 0
 156 0010 220C     		lsrs	r2, r4, #16
 157              		.loc 1 203 0
 158 0012 230A     		lsrs	r3, r4, #8
 159              		.loc 1 200 0
 160 0014 45F04001 		orr	r1, r5, #64
 161              		.loc 1 201 0
 162 0018 200E     		lsrs	r0, r4, #24
 163              		.loc 1 204 0
 164 001a 8DF80440 		strb	r4, [sp, #4]
 165              	.LVL14:
 166              		.loc 1 202 0
 167 001e 8DF80220 		strb	r2, [sp, #2]
 168              		.loc 1 203 0
 169 0022 8DF80330 		strb	r3, [sp, #3]
 170 0026 0E4D     		ldr	r5, .L25
ARM GAS  /var/folders/4k/6h5l9jl178sb4hslwv3xp1mr0000gn/T//ccNKqrmb.s 			page 4


 171              		.loc 1 200 0
 172 0028 8DF80010 		strb	r1, [sp]
 173              		.loc 1 201 0
 174 002c 8DF80100 		strb	r0, [sp, #1]
 175 0030 6B46     		mov	r3, sp
 176 0032 01AC     		add	r4, sp, #4
 177              	.LVL15:
 178              		.loc 1 204 0
 179 0034 0022     		movs	r2, #0
 180 0036 01E0     		b	.L22
 181              	.LVL16:
 182              	.L24:
 183 0038 13F8011F 		ldrb	r1, [r3, #1]!	@ zero_extendqisi2
 184              	.LVL17:
 185              	.L22:
 186              	.LBB7:
 187              	.LBB8:
 188              		.loc 1 153 0
 189 003c 81EA4202 		eor	r2, r1, r2, lsl #1
 190              	.LVL18:
 191              		.loc 1 152 0
 192 0040 A342     		cmp	r3, r4
 193              		.loc 1 153 0
 194 0042 AA5C     		ldrb	r2, [r5, r2]	@ zero_extendqisi2
 195              	.LVL19:
 196              		.loc 1 152 0
 197 0044 F8D1     		bne	.L24
 198              	.LBE8:
 199              	.LBE7:
 200              		.loc 1 206 0
 201 0046 5200     		lsls	r2, r2, #1
 202              	.LVL20:
 203              		.loc 1 208 0
 204 0048 F36A     		ldr	r3, [r6, #44]
 205              	.LVL21:
 206              		.loc 1 206 0
 207 004a 42F00102 		orr	r2, r2, #1
 208 004e 8DF80520 		strb	r2, [sp, #5]
 209              		.loc 1 208 0
 210 0052 1868     		ldr	r0, [r3]
 211 0054 6A46     		mov	r2, sp
 212 0056 0621     		movs	r1, #6
 213 0058 FFF7FEFF 		bl	spiSend
 214              	.LVL22:
 215              		.loc 1 209 0
 216 005c 02B0     		add	sp, sp, #8
 217              		@ sp needed
 218 005e 70BD     		pop	{r4, r5, r6, pc}
 219              	.LVL23:
 220              	.L26:
 221              		.align	2
 222              	.L25:
 223 0060 00000000 		.word	.LANCHOR0
 224              		.cfi_endproc
 225              	.LFE122:
 226              		.size	send_hdr, .-send_hdr
 227 0064 AFF30080 		.section	.text.recvr1.isra.1,"ax",%progbits
ARM GAS  /var/folders/4k/6h5l9jl178sb4hslwv3xp1mr0000gn/T//ccNKqrmb.s 			page 5


 227      AFF30080 
 227      AFF30080 
 228              		.align	2
 229              		.p2align 4,,15
 230              		.thumb
 231              		.thumb_func
 232              		.type	recvr1.isra.1, %function
 233              	recvr1.isra.1:
 234              	.LFB145:
 235              		.loc 1 220 0
 236              		.cfi_startproc
 237              		@ args = 0, pretend = 0, frame = 8
 238              		@ frame_needed = 0, uses_anonymous_args = 0
 239              	.LVL24:
 240 0000 30B5     		push	{r4, r5, lr}
 241              		.cfi_def_cfa_offset 12
 242              		.cfi_offset 4, -12
 243              		.cfi_offset 5, -8
 244              		.cfi_offset 14, -4
 245 0002 0546     		mov	r5, r0
 246 0004 83B0     		sub	sp, sp, #12
 247              		.cfi_def_cfa_offset 24
 248              		.loc 1 220 0
 249 0006 0924     		movs	r4, #9
 250              	.LVL25:
 251              	.L29:
 252              		.loc 1 225 0
 253 0008 2B68     		ldr	r3, [r5]
 254 000a 0121     		movs	r1, #1
 255 000c 1868     		ldr	r0, [r3]
 256 000e 01AA     		add	r2, sp, #4
 257 0010 FFF7FEFF 		bl	spiReceive
 258              	.LVL26:
 259              		.loc 1 226 0
 260 0014 9DF80400 		ldrb	r0, [sp, #4]	@ zero_extendqisi2
 261 0018 FF28     		cmp	r0, #255
 262 001a 01D1     		bne	.L28
 263              		.loc 1 224 0
 264 001c 013C     		subs	r4, r4, #1
 265              	.LVL27:
 266 001e F3D1     		bne	.L29
 267              	.LVL28:
 268              	.L28:
 269              		.loc 1 230 0
 270 0020 03B0     		add	sp, sp, #12
 271              		@ sp needed
 272 0022 30BD     		pop	{r4, r5, pc}
 273              		.cfi_endproc
 274              	.LFE145:
 275              		.size	recvr1.isra.1, .-recvr1.isra.1
 276 0024 AFF30080 		.section	.text.send_command_R3,"ax",%progbits
 276      AFF30080 
 276      AFF30080 
 277              		.align	2
 278              		.p2align 4,,15
 279              		.thumb
 280              		.thumb_func
ARM GAS  /var/folders/4k/6h5l9jl178sb4hslwv3xp1mr0000gn/T//ccNKqrmb.s 			page 6


 281              		.type	send_command_R3, %function
 282              	send_command_R3:
 283              	.LFB126:
 284              		.loc 1 286 0
 285              		.cfi_startproc
 286              		@ args = 0, pretend = 0, frame = 0
 287              		@ frame_needed = 0, uses_anonymous_args = 0
 288              	.LVL29:
 289 0000 F8B5     		push	{r3, r4, r5, r6, r7, lr}
 290              		.cfi_def_cfa_offset 24
 291              		.cfi_offset 3, -24
 292              		.cfi_offset 4, -20
 293              		.cfi_offset 5, -16
 294              		.cfi_offset 6, -12
 295              		.cfi_offset 7, -8
 296              		.cfi_offset 14, -4
 297              		.loc 1 286 0
 298 0002 0446     		mov	r4, r0
 299              		.loc 1 289 0
 300 0004 C06A     		ldr	r0, [r0, #44]
 301              	.LVL30:
 302              		.loc 1 286 0
 303 0006 0F46     		mov	r7, r1
 304 0008 1546     		mov	r5, r2
 305              		.loc 1 289 0
 306 000a 0068     		ldr	r0, [r0]
 307              		.loc 1 286 0
 308 000c 1E46     		mov	r6, r3
 309              		.loc 1 289 0
 310 000e FFF7FEFF 		bl	spiSelect
 311              	.LVL31:
 312              		.loc 1 290 0
 313 0012 3946     		mov	r1, r7
 314 0014 2A46     		mov	r2, r5
 315 0016 2046     		mov	r0, r4
 316 0018 FFF7FEFF 		bl	send_hdr
 317              	.LVL32:
 318              	.LBB11:
 319              	.LBB12:
 320              		.loc 1 245 0
 321 001c 04F12C00 		add	r0, r4, #44
 322 0020 FFF7FEFF 		bl	recvr1.isra.1
 323              	.LVL33:
 324              		.loc 1 246 0
 325 0024 E16A     		ldr	r1, [r4, #44]
 326              		.loc 1 245 0
 327 0026 0546     		mov	r5, r0
 328              	.LVL34:
 329              		.loc 1 246 0
 330 0028 3246     		mov	r2, r6
 331 002a 0868     		ldr	r0, [r1]
 332              	.LVL35:
 333 002c 0421     		movs	r1, #4
 334 002e FFF7FEFF 		bl	spiReceive
 335              	.LVL36:
 336              	.LBE12:
 337              	.LBE11:
ARM GAS  /var/folders/4k/6h5l9jl178sb4hslwv3xp1mr0000gn/T//ccNKqrmb.s 			page 7


 338              		.loc 1 292 0
 339 0032 E36A     		ldr	r3, [r4, #44]
 340 0034 1868     		ldr	r0, [r3]
 341 0036 FFF7FEFF 		bl	spiUnselect
 342              	.LVL37:
 343              		.loc 1 294 0
 344 003a 2846     		mov	r0, r5
 345 003c F8BD     		pop	{r3, r4, r5, r6, r7, pc}
 346              		.cfi_endproc
 347              	.LFE126:
 348              		.size	send_command_R3, .-send_command_R3
 349 003e 00BF     		.section	.text.send_command_R1,"ax",%progbits
 350              		.align	2
 351              		.p2align 4,,15
 352              		.thumb
 353              		.thumb_func
 354              		.type	send_command_R1, %function
 355              	send_command_R1:
 356              	.LFB125:
 357              		.loc 1 262 0
 358              		.cfi_startproc
 359              		@ args = 0, pretend = 0, frame = 0
 360              		@ frame_needed = 0, uses_anonymous_args = 0
 361              	.LVL38:
 362              		.loc 1 265 0
 363 0000 C36A     		ldr	r3, [r0, #44]
 364              		.loc 1 262 0
 365 0002 70B5     		push	{r4, r5, r6, lr}
 366              		.cfi_def_cfa_offset 16
 367              		.cfi_offset 4, -16
 368              		.cfi_offset 5, -12
 369              		.cfi_offset 6, -8
 370              		.cfi_offset 14, -4
 371              		.loc 1 262 0
 372 0004 0446     		mov	r4, r0
 373 0006 0E46     		mov	r6, r1
 374              		.loc 1 265 0
 375 0008 1868     		ldr	r0, [r3]
 376              	.LVL39:
 377              		.loc 1 262 0
 378 000a 1546     		mov	r5, r2
 379              		.loc 1 265 0
 380 000c FFF7FEFF 		bl	spiSelect
 381              	.LVL40:
 382              		.loc 1 266 0
 383 0010 2A46     		mov	r2, r5
 384 0012 3146     		mov	r1, r6
 385 0014 2046     		mov	r0, r4
 386 0016 FFF7FEFF 		bl	send_hdr
 387              	.LVL41:
 388              		.loc 1 267 0
 389 001a 04F12C00 		add	r0, r4, #44
 390 001e FFF7FEFF 		bl	recvr1.isra.1
 391              	.LVL42:
 392              		.loc 1 268 0
 393 0022 E36A     		ldr	r3, [r4, #44]
 394              		.loc 1 267 0
ARM GAS  /var/folders/4k/6h5l9jl178sb4hslwv3xp1mr0000gn/T//ccNKqrmb.s 			page 8


 395 0024 0546     		mov	r5, r0
 396              	.LVL43:
 397              		.loc 1 268 0
 398 0026 1868     		ldr	r0, [r3]
 399              	.LVL44:
 400 0028 FFF7FEFF 		bl	spiUnselect
 401              	.LVL45:
 402              		.loc 1 270 0
 403 002c 2846     		mov	r0, r5
 404 002e 70BD     		pop	{r4, r5, r6, pc}
 405              		.cfi_endproc
 406              	.LFE125:
 407              		.size	send_command_R1, .-send_command_R1
 408              		.section	.text.read_CxD,"ax",%progbits
 409              		.align	2
 410              		.p2align 4,,15
 411              		.thumb
 412              		.thumb_func
 413              		.type	read_CxD, %function
 414              	read_CxD:
 415              	.LFB127:
 416              		.loc 1 308 0
 417              		.cfi_startproc
 418              		@ args = 0, pretend = 0, frame = 16
 419              		@ frame_needed = 0, uses_anonymous_args = 0
 420              	.LVL46:
 421 0000 F0B5     		push	{r4, r5, r6, r7, lr}
 422              		.cfi_def_cfa_offset 20
 423              		.cfi_offset 4, -20
 424              		.cfi_offset 5, -16
 425              		.cfi_offset 6, -12
 426              		.cfi_offset 7, -8
 427              		.cfi_offset 14, -4
 428              		.loc 1 312 0
 429 0002 C36A     		ldr	r3, [r0, #44]
 430              		.loc 1 308 0
 431 0004 85B0     		sub	sp, sp, #20
 432              		.cfi_def_cfa_offset 40
 433              		.loc 1 308 0
 434 0006 0546     		mov	r5, r0
 435 0008 0C46     		mov	r4, r1
 436              		.loc 1 312 0
 437 000a 1868     		ldr	r0, [r3]
 438              	.LVL47:
 439              		.loc 1 308 0
 440 000c 1646     		mov	r6, r2
 441              		.loc 1 312 0
 442 000e FFF7FEFF 		bl	spiSelect
 443              	.LVL48:
 444              		.loc 1 313 0
 445 0012 2846     		mov	r0, r5
 446 0014 2146     		mov	r1, r4
 447 0016 0022     		movs	r2, #0
 448 0018 FFF7FEFF 		bl	send_hdr
 449              	.LVL49:
 450              		.loc 1 314 0
 451 001c 05F12C00 		add	r0, r5, #44
ARM GAS  /var/folders/4k/6h5l9jl178sb4hslwv3xp1mr0000gn/T//ccNKqrmb.s 			page 9


 452 0020 FFF7FEFF 		bl	recvr1.isra.1
 453              	.LVL50:
 454 0024 0028     		cmp	r0, #0
 455 0026 34D1     		bne	.L44
 456 0028 42F21074 		movw	r4, #10000
 457 002c 01E0     		b	.L41
 458              	.LVL51:
 459              	.L38:
 460              		.loc 1 320 0
 461 002e 013C     		subs	r4, r4, #1
 462              	.LVL52:
 463 0030 36D0     		beq	.L45
 464              	.LVL53:
 465              	.L41:
 466              		.loc 1 321 0
 467 0032 EB6A     		ldr	r3, [r5, #44]
 468 0034 0121     		movs	r1, #1
 469 0036 1868     		ldr	r0, [r3]
 470 0038 6A46     		mov	r2, sp
 471 003a FFF7FEFF 		bl	spiReceive
 472              	.LVL54:
 473              		.loc 1 322 0
 474 003e 9DF80030 		ldrb	r3, [sp]	@ zero_extendqisi2
 475 0042 FE2B     		cmp	r3, #254
 476 0044 F3D1     		bne	.L38
 477              	.LBB13:
 478              		.loc 1 325 0
 479 0046 EB6A     		ldr	r3, [r5, #44]
 480 0048 1021     		movs	r1, #16
 481 004a 1868     		ldr	r0, [r3]
 482 004c 6A46     		mov	r2, sp
 483 004e FFF7FEFF 		bl	spiReceive
 484              	.LVL55:
 485              		.loc 1 326 0
 486 0052 6B46     		mov	r3, sp
 487              		.loc 1 327 0
 488 0054 06F10C01 		add	r1, r6, #12
 489              	.LVL56:
 490 0058 321F     		subs	r2, r6, #4
 491              	.LVL57:
 492              	.L40:
 493              		.loc 1 328 0 discriminator 2
 494 005a 5878     		ldrb	r0, [r3, #1]	@ zero_extendqisi2
 495 005c 1F78     		ldrb	r7, [r3]	@ zero_extendqisi2
 496              		.loc 1 329 0 discriminator 2
 497 005e DE78     		ldrb	r6, [r3, #3]	@ zero_extendqisi2
 498 0060 9C78     		ldrb	r4, [r3, #2]	@ zero_extendqisi2
 499              		.loc 1 328 0 discriminator 2
 500 0062 0004     		lsls	r0, r0, #16
 501 0064 40EA0760 		orr	r0, r0, r7, lsl #24
 502 0068 3043     		orrs	r0, r0, r6
 503              		.loc 1 329 0 discriminator 2
 504 006a 40EA0420 		orr	r0, r0, r4, lsl #8
 505              		.loc 1 328 0 discriminator 2
 506 006e 41F80409 		str	r0, [r1], #-4
 507              	.LVL58:
 508              		.loc 1 327 0 discriminator 2
ARM GAS  /var/folders/4k/6h5l9jl178sb4hslwv3xp1mr0000gn/T//ccNKqrmb.s 			page 10


 509 0072 9142     		cmp	r1, r2
 510              		.loc 1 330 0 discriminator 2
 511 0074 03F10403 		add	r3, r3, #4
 512              	.LVL59:
 513              		.loc 1 327 0 discriminator 2
 514 0078 EFD1     		bne	.L40
 515              		.loc 1 334 0
 516 007a EB6A     		ldr	r3, [r5, #44]
 517              	.LVL60:
 518 007c 0221     		movs	r1, #2
 519              	.LVL61:
 520 007e 1868     		ldr	r0, [r3]
 521 0080 FFF7FEFF 		bl	spiIgnore
 522              	.LVL62:
 523              		.loc 1 335 0
 524 0084 EB6A     		ldr	r3, [r5, #44]
 525 0086 1868     		ldr	r0, [r3]
 526 0088 FFF7FEFF 		bl	spiUnselect
 527              	.LVL63:
 528              		.loc 1 337 0
 529 008c 0020     		movs	r0, #0
 530              	.LBE13:
 531              		.loc 1 341 0
 532 008e 05B0     		add	sp, sp, #20
 533              		@ sp needed
 534 0090 F0BD     		pop	{r4, r5, r6, r7, pc}
 535              	.LVL64:
 536              	.L44:
 537              		.loc 1 315 0
 538 0092 EB6A     		ldr	r3, [r5, #44]
 539 0094 1868     		ldr	r0, [r3]
 540 0096 FFF7FEFF 		bl	spiUnselect
 541              	.LVL65:
 542              		.loc 1 316 0
 543 009a 0120     		movs	r0, #1
 544              		.loc 1 341 0
 545 009c 05B0     		add	sp, sp, #20
 546              		@ sp needed
 547 009e F0BD     		pop	{r4, r5, r6, r7, pc}
 548              	.LVL66:
 549              	.L45:
 550              		.loc 1 340 0
 551 00a0 0120     		movs	r0, #1
 552              		.loc 1 341 0
 553 00a2 05B0     		add	sp, sp, #20
 554              		@ sp needed
 555 00a4 F0BD     		pop	{r4, r5, r6, r7, pc}
 556              		.cfi_endproc
 557              	.LFE127:
 558              		.size	read_CxD, .-read_CxD
 559 00a6 00BFAFF3 		.section	.text.mmcConnect,"ax",%progbits
 559      0080AFF3 
 559      0080
 560              		.align	2
 561              		.p2align 4,,15
 562              		.global	mmcConnect
 563              		.thumb
ARM GAS  /var/folders/4k/6h5l9jl178sb4hslwv3xp1mr0000gn/T//ccNKqrmb.s 			page 11


 564              		.thumb_func
 565              		.type	mmcConnect, %function
 566              	mmcConnect:
 567              	.LFB133:
 568              		.loc 1 447 0
 569              		.cfi_startproc
 570              		@ args = 0, pretend = 0, frame = 8
 571              		@ frame_needed = 0, uses_anonymous_args = 0
 572              	.LVL67:
 573 0000 70B5     		push	{r4, r5, r6, lr}
 574              		.cfi_def_cfa_offset 16
 575              		.cfi_offset 4, -16
 576              		.cfi_offset 5, -12
 577              		.cfi_offset 6, -8
 578              		.cfi_offset 14, -4
 579              		.loc 1 461 0
 580 0002 C36A     		ldr	r3, [r0, #44]
 581              		.loc 1 457 0
 582 0004 0322     		movs	r2, #3
 583 0006 0271     		strb	r2, [r0, #4]
 584              		.loc 1 447 0
 585 0008 0546     		mov	r5, r0
 586              		.loc 1 458 0
 587 000a 0022     		movs	r2, #0
 588 000c 80F83020 		strb	r2, [r0, #48]
 589              		.loc 1 447 0
 590 0010 82B0     		sub	sp, sp, #8
 591              		.cfi_def_cfa_offset 24
 592              		.loc 1 461 0
 593 0012 93E80300 		ldmia	r3, {r0, r1}
 594              	.LVL68:
 595 0016 FFF7FEFF 		bl	spiStart
 596              	.LVL69:
 597              		.loc 1 462 0
 598 001a EB6A     		ldr	r3, [r5, #44]
 599 001c 1021     		movs	r1, #16
 600 001e 1868     		ldr	r0, [r3]
 601 0020 FFF7FEFF 		bl	spiIgnore
 602              	.LVL70:
 603 0024 0A24     		movs	r4, #10
 604 0026 02E0     		b	.L49
 605              	.LVL71:
 606              	.L77:
 607              		.loc 1 471 0
 608 0028 0A20     		movs	r0, #10
 609 002a FFF7FEFF 		bl	chThdSleep
 610              	.LVL72:
 611              	.L49:
 612              		.loc 1 467 0
 613 002e 0021     		movs	r1, #0
 614 0030 0A46     		mov	r2, r1
 615 0032 2846     		mov	r0, r5
 616 0034 FFF7FEFF 		bl	send_command_R1
 617              	.LVL73:
 618 0038 0128     		cmp	r0, #1
 619 003a 0AD0     		beq	.L47
 620              		.loc 1 469 0
ARM GAS  /var/folders/4k/6h5l9jl178sb4hslwv3xp1mr0000gn/T//ccNKqrmb.s 			page 12


 621 003c 013C     		subs	r4, r4, #1
 622              	.LVL74:
 623 003e F3D1     		bne	.L77
 624              	.LVL75:
 625              	.L48:
 626              	.LDL1:
 627              		.loc 1 538 0
 628 0040 EB6A     		ldr	r3, [r5, #44]
 629 0042 1868     		ldr	r0, [r3]
 630 0044 FFF7FEFF 		bl	spiStop
 631              	.LVL76:
 632              		.loc 1 539 0
 633 0048 0223     		movs	r3, #2
 634 004a 2B71     		strb	r3, [r5, #4]
 635              		.loc 1 540 0
 636 004c 0120     		movs	r0, #1
 637              	.L60:
 638              		.loc 1 541 0
 639 004e 02B0     		add	sp, sp, #8
 640              		@ sp needed
 641 0050 70BD     		pop	{r4, r5, r6, pc}
 642              	.LVL77:
 643              	.L47:
 644              		.loc 1 478 0
 645 0052 01AB     		add	r3, sp, #4
 646 0054 2846     		mov	r0, r5
 647 0056 0821     		movs	r1, #8
 648 0058 4FF4D572 		mov	r2, #426
 649 005c FFF7FEFF 		bl	send_command_R3
 650              	.LVL78:
 651 0060 0528     		cmp	r0, #5
 652 0062 22D0     		beq	.L51
 653 0064 6424     		movs	r4, #100
 654              	.LVL79:
 655 0066 04E0     		b	.L56
 656              	.LVL80:
 657              	.L55:
 658              		.loc 1 489 0
 659 0068 013C     		subs	r4, r4, #1
 660              	.LVL81:
 661 006a E9D0     		beq	.L48
 662              		.loc 1 491 0
 663 006c 0A20     		movs	r0, #10
 664 006e FFF7FEFF 		bl	chThdSleep
 665              	.LVL82:
 666              	.L56:
 667              		.loc 1 484 0
 668 0072 2846     		mov	r0, r5
 669 0074 3721     		movs	r1, #55
 670 0076 0022     		movs	r2, #0
 671 0078 FFF7FEFF 		bl	send_command_R1
 672              	.LVL83:
 673 007c 0128     		cmp	r0, #1
 674 007e 0646     		mov	r6, r0
 675 0080 F2D1     		bne	.L55
 676              		.loc 1 485 0 discriminator 1
 677 0082 2846     		mov	r0, r5
ARM GAS  /var/folders/4k/6h5l9jl178sb4hslwv3xp1mr0000gn/T//ccNKqrmb.s 			page 13


 678 0084 2921     		movs	r1, #41
 679 0086 254A     		ldr	r2, .L79
 680 0088 01AB     		add	r3, sp, #4
 681 008a FFF7FEFF 		bl	send_command_R3
 682              	.LVL84:
 683              		.loc 1 484 0 discriminator 1
 684 008e 0028     		cmp	r0, #0
 685 0090 EAD1     		bne	.L55
 686              		.loc 1 495 0
 687 0092 0246     		mov	r2, r0
 688 0094 01AB     		add	r3, sp, #4
 689 0096 2846     		mov	r0, r5
 690 0098 3A21     		movs	r1, #58
 691 009a FFF7FEFF 		bl	send_command_R3
 692              	.LVL85:
 693              		.loc 1 498 0
 694 009e 9DF80430 		ldrb	r3, [sp, #4]	@ zero_extendqisi2
 695 00a2 5B06     		lsls	r3, r3, #25
 696              		.loc 1 499 0
 697 00a4 48BF     		it	mi
 698 00a6 85F83060 		strbmi	r6, [r5, #48]
 699              	.LVL86:
 700              	.L51:
 701              		.loc 1 478 0
 702 00aa 6424     		movs	r4, #100
 703 00ac 05E0     		b	.L59
 704              	.LVL87:
 705              	.L78:
 706              	.LBB14:
 707              		.loc 1 508 0
 708 00ae 012B     		cmp	r3, #1
 709 00b0 C6D1     		bne	.L48
 710              		.loc 1 510 0
 711 00b2 013C     		subs	r4, r4, #1
 712              	.LVL88:
 713 00b4 C4D0     		beq	.L48
 714              		.loc 1 512 0
 715 00b6 FFF7FEFF 		bl	chThdSleep
 716              	.LVL89:
 717              	.L59:
 718              		.loc 1 505 0
 719 00ba 2846     		mov	r0, r5
 720 00bc 0121     		movs	r1, #1
 721 00be 0022     		movs	r2, #0
 722 00c0 FFF7FEFF 		bl	send_command_R1
 723              	.LVL90:
 724              		.loc 1 506 0
 725 00c4 0346     		mov	r3, r0
 726              		.loc 1 512 0
 727 00c6 0A20     		movs	r0, #10
 728              	.LVL91:
 729              		.loc 1 506 0
 730 00c8 002B     		cmp	r3, #0
 731 00ca F0D1     		bne	.L78
 732              	.LBE14:
 733              		.loc 1 516 0
 734 00cc EB6A     		ldr	r3, [r5, #44]
ARM GAS  /var/folders/4k/6h5l9jl178sb4hslwv3xp1mr0000gn/T//ccNKqrmb.s 			page 14


 735 00ce 1868     		ldr	r0, [r3]
 736 00d0 9968     		ldr	r1, [r3, #8]
 737 00d2 FFF7FEFF 		bl	spiStart
 738              	.LVL92:
 739              		.loc 1 519 0
 740 00d6 2846     		mov	r0, r5
 741 00d8 1021     		movs	r1, #16
 742 00da 4FF40072 		mov	r2, #512
 743 00de FFF7FEFF 		bl	send_command_R1
 744              	.LVL93:
 745 00e2 0028     		cmp	r0, #0
 746 00e4 ACD1     		bne	.L48
 747              		.loc 1 524 0
 748 00e6 05F11804 		add	r4, r5, #24
 749              	.LVL94:
 750 00ea 2246     		mov	r2, r4
 751 00ec 2846     		mov	r0, r5
 752 00ee 0921     		movs	r1, #9
 753 00f0 FFF7FEFF 		bl	read_CxD
 754              	.LVL95:
 755 00f4 0028     		cmp	r0, #0
 756 00f6 A3D1     		bne	.L48
 757              		.loc 1 526 0
 758 00f8 2046     		mov	r0, r4
 759 00fa FFF7FEFF 		bl	mmcsdGetCapacity
 760              	.LVL96:
 761 00fe A862     		str	r0, [r5, #40]
 762              		.loc 1 527 0
 763 0100 0028     		cmp	r0, #0
 764 0102 9DD0     		beq	.L48
 765              		.loc 1 530 0
 766 0104 2846     		mov	r0, r5
 767 0106 0A21     		movs	r1, #10
 768 0108 05F10802 		add	r2, r5, #8
 769 010c FFF7FEFF 		bl	read_CxD
 770              	.LVL97:
 771 0110 0028     		cmp	r0, #0
 772 0112 95D1     		bne	.L48
 773              		.loc 1 533 0
 774 0114 0523     		movs	r3, #5
 775 0116 2B71     		strb	r3, [r5, #4]
 776              		.loc 1 534 0
 777 0118 99E7     		b	.L60
 778              	.L80:
 779 011a 00BF     		.align	2
 780              	.L79:
 781 011c AA010040 		.word	1073742250
 782              		.cfi_endproc
 783              	.LFE133:
 784              		.size	mmcConnect, .-mmcConnect
 785              		.section	.text.sync.isra.2,"ax",%progbits
 786              		.align	2
 787              		.p2align 4,,15
 788              		.thumb
 789              		.thumb_func
 790              		.type	sync.isra.2, %function
 791              	sync.isra.2:
ARM GAS  /var/folders/4k/6h5l9jl178sb4hslwv3xp1mr0000gn/T//ccNKqrmb.s 			page 15


 792              	.LFB146:
 793              		.loc 1 350 0
 794              		.cfi_startproc
 795              		@ args = 0, pretend = 0, frame = 8
 796              		@ frame_needed = 0, uses_anonymous_args = 0
 797              	.LVL98:
 798 0000 10B5     		push	{r4, lr}
 799              		.cfi_def_cfa_offset 8
 800              		.cfi_offset 4, -8
 801              		.cfi_offset 14, -4
 802              		.loc 1 353 0
 803 0002 0368     		ldr	r3, [r0]
 804              		.loc 1 350 0
 805 0004 0446     		mov	r4, r0
 806 0006 82B0     		sub	sp, sp, #8
 807              		.cfi_def_cfa_offset 16
 808              		.loc 1 353 0
 809 0008 1868     		ldr	r0, [r3]
 810 000a FFF7FEFF 		bl	spiSelect
 811              	.LVL99:
 812 000e 02E0     		b	.L83
 813              	.L84:
 814              		.loc 1 359 0
 815 0010 0120     		movs	r0, #1
 816 0012 FFF7FEFF 		bl	chThdSleep
 817              	.LVL100:
 818              	.L83:
 819              		.loc 1 355 0
 820 0016 2368     		ldr	r3, [r4]
 821 0018 0121     		movs	r1, #1
 822 001a 1868     		ldr	r0, [r3]
 823 001c 01AA     		add	r2, sp, #4
 824 001e FFF7FEFF 		bl	spiReceive
 825              	.LVL101:
 826              		.loc 1 356 0
 827 0022 9DF80430 		ldrb	r3, [sp, #4]	@ zero_extendqisi2
 828 0026 FF2B     		cmp	r3, #255
 829 0028 F2D1     		bne	.L84
 830              		.loc 1 362 0
 831 002a 2368     		ldr	r3, [r4]
 832 002c 1868     		ldr	r0, [r3]
 833 002e FFF7FEFF 		bl	spiUnselect
 834              	.LVL102:
 835              		.loc 1 363 0
 836 0032 02B0     		add	sp, sp, #8
 837              		@ sp needed
 838 0034 10BD     		pop	{r4, pc}
 839              		.cfi_endproc
 840              	.LFE146:
 841              		.size	sync.isra.2, .-sync.isra.2
 842 0036 00BFAFF3 		.section	.text.mmcDisconnect,"ax",%progbits
 842      0080AFF3 
 842      0080
 843              		.align	2
 844              		.p2align 4,,15
 845              		.global	mmcDisconnect
 846              		.thumb
ARM GAS  /var/folders/4k/6h5l9jl178sb4hslwv3xp1mr0000gn/T//ccNKqrmb.s 			page 16


 847              		.thumb_func
 848              		.type	mmcDisconnect, %function
 849              	mmcDisconnect:
 850              	.LFB134:
 851              		.loc 1 555 0
 852              		.cfi_startproc
 853              		@ args = 0, pretend = 0, frame = 0
 854              		@ frame_needed = 0, uses_anonymous_args = 0
 855              	.LVL103:
 856 0000 38B5     		push	{r3, r4, r5, lr}
 857              		.cfi_def_cfa_offset 16
 858              		.cfi_offset 3, -16
 859              		.cfi_offset 4, -12
 860              		.cfi_offset 5, -8
 861              		.cfi_offset 14, -4
 862              		.loc 1 555 0
 863 0002 0446     		mov	r4, r0
 864              	.LBB22:
 865              		.loc 1 559 0
 866 0004 2023     		movs	r3, #32
 867              	@ 559 "../ChibiStudio/ChibiOS/os/hal/src/mmc_spi.c" 1
 868 0006 83F31188 		msr     BASEPRI, r3
 869              	@ 0 "" 2
 870              		.thumb
 871              	.LBE22:
 872              		.loc 1 562 0
 873 000a 0379     		ldrb	r3, [r0, #4]	@ zero_extendqisi2
 874 000c 022B     		cmp	r3, #2
 875 000e 16D0     		beq	.L88
 876              	.LVL104:
 877              	.LBB23:
 878              	.LBB24:
 879              		.loc 1 566 0
 880 0010 0423     		movs	r3, #4
 881 0012 0371     		strb	r3, [r0, #4]
 882              	.LBB25:
 883              		.loc 1 567 0
 884 0014 0023     		movs	r3, #0
 885              	@ 567 "../ChibiStudio/ChibiOS/os/hal/src/mmc_spi.c" 1
 886 0016 83F31188 		msr     BASEPRI, r3
 887              	@ 0 "" 2
 888              		.thumb
 889              	.LBE25:
 890              		.loc 1 570 0
 891 001a 0546     		mov	r5, r0
 892 001c 55F82C3F 		ldr	r3, [r5, #44]!
 893 0020 9968     		ldr	r1, [r3, #8]
 894 0022 1868     		ldr	r0, [r3]
 895              	.LVL105:
 896 0024 FFF7FEFF 		bl	spiStart
 897              	.LVL106:
 898              		.loc 1 571 0
 899 0028 2846     		mov	r0, r5
 900 002a FFF7FEFF 		bl	sync.isra.2
 901              	.LVL107:
 902              		.loc 1 573 0
 903 002e E36A     		ldr	r3, [r4, #44]
ARM GAS  /var/folders/4k/6h5l9jl178sb4hslwv3xp1mr0000gn/T//ccNKqrmb.s 			page 17


 904 0030 1868     		ldr	r0, [r3]
 905 0032 FFF7FEFF 		bl	spiStop
 906              	.LVL108:
 907              		.loc 1 574 0
 908 0036 0223     		movs	r3, #2
 909 0038 2371     		strb	r3, [r4, #4]
 910              	.LBE24:
 911              	.LBE23:
 912              		.loc 1 576 0
 913 003a 0020     		movs	r0, #0
 914 003c 38BD     		pop	{r3, r4, r5, pc}
 915              	.LVL109:
 916              	.L88:
 917              	.LBB26:
 918              		.loc 1 563 0
 919 003e 0023     		movs	r3, #0
 920              	@ 563 "../ChibiStudio/ChibiOS/os/hal/src/mmc_spi.c" 1
 921 0040 83F31188 		msr     BASEPRI, r3
 922              	@ 0 "" 2
 923              		.thumb
 924              	.LBE26:
 925              		.loc 1 576 0
 926 0044 0020     		movs	r0, #0
 927              	.LVL110:
 928 0046 38BD     		pop	{r3, r4, r5, pc}
 929              		.cfi_endproc
 930              	.LFE134:
 931              		.size	mmcDisconnect, .-mmcDisconnect
 932 0048 AFF30080 		.section	.text.mmcSync,"ax",%progbits
 932      AFF30080 
 933              		.align	2
 934              		.p2align 4,,15
 935              		.global	mmcSync
 936              		.thumb
 937              		.thumb_func
 938              		.type	mmcSync, %function
 939              	mmcSync:
 940              	.LFB141:
 941              		.loc 1 796 0
 942              		.cfi_startproc
 943              		@ args = 0, pretend = 0, frame = 0
 944              		@ frame_needed = 0, uses_anonymous_args = 0
 945              	.LVL111:
 946 0000 70B5     		push	{r4, r5, r6, lr}
 947              		.cfi_def_cfa_offset 16
 948              		.cfi_offset 4, -16
 949              		.cfi_offset 5, -12
 950              		.cfi_offset 6, -8
 951              		.cfi_offset 14, -4
 952              		.loc 1 800 0
 953 0002 0579     		ldrb	r5, [r0, #4]	@ zero_extendqisi2
 954 0004 052D     		cmp	r5, #5
 955              		.loc 1 796 0
 956 0006 0446     		mov	r4, r0
 957              		.loc 1 800 0
 958 0008 01D0     		beq	.L92
 959              		.loc 1 801 0
ARM GAS  /var/folders/4k/6h5l9jl178sb4hslwv3xp1mr0000gn/T//ccNKqrmb.s 			page 18


 960 000a 0120     		movs	r0, #1
 961              	.LVL112:
 962              		.loc 1 812 0
 963 000c 70BD     		pop	{r4, r5, r6, pc}
 964              	.LVL113:
 965              	.L92:
 966              	.LBB29:
 967              	.LBB30:
 968              		.loc 1 806 0
 969 000e 0646     		mov	r6, r0
 970              		.loc 1 804 0
 971 0010 0822     		movs	r2, #8
 972              		.loc 1 806 0
 973 0012 56F82C3F 		ldr	r3, [r6, #44]!
 974              		.loc 1 804 0
 975 0016 0271     		strb	r2, [r0, #4]
 976              		.loc 1 806 0
 977 0018 9968     		ldr	r1, [r3, #8]
 978 001a 1868     		ldr	r0, [r3]
 979              	.LVL114:
 980 001c FFF7FEFF 		bl	spiStart
 981              	.LVL115:
 982              		.loc 1 807 0
 983 0020 3046     		mov	r0, r6
 984 0022 FFF7FEFF 		bl	sync.isra.2
 985              	.LVL116:
 986              		.loc 1 810 0
 987 0026 2571     		strb	r5, [r4, #4]
 988 0028 0020     		movs	r0, #0
 989 002a 70BD     		pop	{r4, r5, r6, pc}
 990              	.LBE30:
 991              	.LBE29:
 992              		.cfi_endproc
 993              	.LFE141:
 994              		.size	mmcSync, .-mmcSync
 995 002c AFF30080 		.section	.text.mmcInit,"ax",%progbits
 996              		.align	2
 997              		.p2align 4,,15
 998              		.global	mmcInit
 999              		.thumb
 1000              		.thumb_func
 1001              		.type	mmcInit, %function
 1002              	mmcInit:
 1003              	.LFB129:
 1004              		.loc 1 376 0
 1005              		.cfi_startproc
 1006              		@ args = 0, pretend = 0, frame = 0
 1007              		@ frame_needed = 0, uses_anonymous_args = 0
 1008              		@ link register save eliminated.
 1009 0000 7047     		bx	lr
 1010              		.cfi_endproc
 1011              	.LFE129:
 1012              		.size	mmcInit, .-mmcInit
 1013 0002 00BFAFF3 		.section	.text.mmcObjectInit,"ax",%progbits
 1013      0080AFF3 
 1013      0080AFF3 
 1013      0080
ARM GAS  /var/folders/4k/6h5l9jl178sb4hslwv3xp1mr0000gn/T//ccNKqrmb.s 			page 19


 1014              		.align	2
 1015              		.p2align 4,,15
 1016              		.global	mmcObjectInit
 1017              		.thumb
 1018              		.thumb_func
 1019              		.type	mmcObjectInit, %function
 1020              	mmcObjectInit:
 1021              	.LFB130:
 1022              		.loc 1 387 0
 1023              		.cfi_startproc
 1024              		@ args = 0, pretend = 0, frame = 0
 1025              		@ frame_needed = 0, uses_anonymous_args = 0
 1026              		@ link register save eliminated.
 1027              	.LVL117:
 1028              		.loc 1 389 0
 1029 0000 044B     		ldr	r3, .L95
 1030 0002 0360     		str	r3, [r0]
 1031              		.loc 1 390 0
 1032 0004 0122     		movs	r2, #1
 1033              		.loc 1 391 0
 1034 0006 0023     		movs	r3, #0
 1035              		.loc 1 390 0
 1036 0008 0271     		strb	r2, [r0, #4]
 1037              		.loc 1 391 0
 1038 000a C362     		str	r3, [r0, #44]
 1039              		.loc 1 392 0
 1040 000c 80F83030 		strb	r3, [r0, #48]
 1041 0010 7047     		bx	lr
 1042              	.L96:
 1043 0012 00BF     		.align	2
 1044              	.L95:
 1045 0014 00000000 		.word	.LANCHOR1
 1046              		.cfi_endproc
 1047              	.LFE130:
 1048              		.size	mmcObjectInit, .-mmcObjectInit
 1049 0018 AFF30080 		.section	.text.mmcStart,"ax",%progbits
 1049      AFF30080 
 1050              		.align	2
 1051              		.p2align 4,,15
 1052              		.global	mmcStart
 1053              		.thumb
 1054              		.thumb_func
 1055              		.type	mmcStart, %function
 1056              	mmcStart:
 1057              	.LFB131:
 1058              		.loc 1 403 0
 1059              		.cfi_startproc
 1060              		@ args = 0, pretend = 0, frame = 0
 1061              		@ frame_needed = 0, uses_anonymous_args = 0
 1062              		@ link register save eliminated.
 1063              	.LVL118:
 1064              		.loc 1 410 0
 1065 0000 0223     		movs	r3, #2
 1066              		.loc 1 409 0
 1067 0002 C162     		str	r1, [r0, #44]
 1068              		.loc 1 410 0
 1069 0004 0371     		strb	r3, [r0, #4]
ARM GAS  /var/folders/4k/6h5l9jl178sb4hslwv3xp1mr0000gn/T//ccNKqrmb.s 			page 20


 1070 0006 7047     		bx	lr
 1071              		.cfi_endproc
 1072              	.LFE131:
 1073              		.size	mmcStart, .-mmcStart
 1074 0008 AFF30080 		.section	.text.mmcStop,"ax",%progbits
 1074      AFF30080 
 1075              		.align	2
 1076              		.p2align 4,,15
 1077              		.global	mmcStop
 1078              		.thumb
 1079              		.thumb_func
 1080              		.type	mmcStop, %function
 1081              	mmcStop:
 1082              	.LFB132:
 1083              		.loc 1 420 0
 1084              		.cfi_startproc
 1085              		@ args = 0, pretend = 0, frame = 0
 1086              		@ frame_needed = 0, uses_anonymous_args = 0
 1087              	.LVL119:
 1088 0000 10B5     		push	{r4, lr}
 1089              		.cfi_def_cfa_offset 8
 1090              		.cfi_offset 4, -8
 1091              		.cfi_offset 14, -4
 1092              		.loc 1 426 0
 1093 0002 C36A     		ldr	r3, [r0, #44]
 1094              		.loc 1 420 0
 1095 0004 0446     		mov	r4, r0
 1096              		.loc 1 426 0
 1097 0006 1868     		ldr	r0, [r3]
 1098              	.LVL120:
 1099 0008 FFF7FEFF 		bl	spiStop
 1100              	.LVL121:
 1101              		.loc 1 427 0
 1102 000c 0123     		movs	r3, #1
 1103 000e 2371     		strb	r3, [r4, #4]
 1104 0010 10BD     		pop	{r4, pc}
 1105              		.cfi_endproc
 1106              	.LFE132:
 1107              		.size	mmcStop, .-mmcStop
 1108 0012 00BFAFF3 		.section	.text.mmcStartSequentialRead,"ax",%progbits
 1108      0080AFF3 
 1108      0080AFF3 
 1108      0080
 1109              		.align	2
 1110              		.p2align 4,,15
 1111              		.global	mmcStartSequentialRead
 1112              		.thumb
 1113              		.thumb_func
 1114              		.type	mmcStartSequentialRead, %function
 1115              	mmcStartSequentialRead:
 1116              	.LFB135:
 1117              		.loc 1 590 0
 1118              		.cfi_startproc
 1119              		@ args = 0, pretend = 0, frame = 0
 1120              		@ frame_needed = 0, uses_anonymous_args = 0
 1121              	.LVL122:
 1122 0000 38B5     		push	{r3, r4, r5, lr}
ARM GAS  /var/folders/4k/6h5l9jl178sb4hslwv3xp1mr0000gn/T//ccNKqrmb.s 			page 21


 1123              		.cfi_def_cfa_offset 16
 1124              		.cfi_offset 3, -16
 1125              		.cfi_offset 4, -12
 1126              		.cfi_offset 5, -8
 1127              		.cfi_offset 14, -4
 1128              		.loc 1 601 0
 1129 0002 C36A     		ldr	r3, [r0, #44]
 1130              		.loc 1 590 0
 1131 0004 0446     		mov	r4, r0
 1132              		.loc 1 597 0
 1133 0006 0622     		movs	r2, #6
 1134 0008 0271     		strb	r2, [r0, #4]
 1135              		.loc 1 590 0
 1136 000a 0D46     		mov	r5, r1
 1137              		.loc 1 601 0
 1138 000c 1868     		ldr	r0, [r3]
 1139              	.LVL123:
 1140 000e 9968     		ldr	r1, [r3, #8]
 1141              	.LVL124:
 1142 0010 FFF7FEFF 		bl	spiStart
 1143              	.LVL125:
 1144              		.loc 1 602 0
 1145 0014 E36A     		ldr	r3, [r4, #44]
 1146 0016 1868     		ldr	r0, [r3]
 1147 0018 FFF7FEFF 		bl	spiSelect
 1148              	.LVL126:
 1149              		.loc 1 604 0
 1150 001c 94F83030 		ldrb	r3, [r4, #48]	@ zero_extendqisi2
 1151 0020 8BB1     		cbz	r3, .L100
 1152              		.loc 1 605 0
 1153 0022 2A46     		mov	r2, r5
 1154 0024 2046     		mov	r0, r4
 1155 0026 1221     		movs	r1, #18
 1156 0028 FFF7FEFF 		bl	send_hdr
 1157              	.LVL127:
 1158              	.L101:
 1159              		.loc 1 609 0
 1160 002c 04F12C00 		add	r0, r4, #44
 1161 0030 FFF7FEFF 		bl	recvr1.isra.1
 1162              	.LVL128:
 1163 0034 30B1     		cbz	r0, .L102
 1164              		.loc 1 610 0
 1165 0036 E36A     		ldr	r3, [r4, #44]
 1166 0038 1868     		ldr	r0, [r3]
 1167 003a FFF7FEFF 		bl	spiStop
 1168              	.LVL129:
 1169              		.loc 1 611 0
 1170 003e 0523     		movs	r3, #5
 1171 0040 2371     		strb	r3, [r4, #4]
 1172              		.loc 1 612 0
 1173 0042 0120     		movs	r0, #1
 1174              	.L102:
 1175              		.loc 1 615 0
 1176 0044 38BD     		pop	{r3, r4, r5, pc}
 1177              	.LVL130:
 1178              	.L100:
 1179              		.loc 1 607 0
ARM GAS  /var/folders/4k/6h5l9jl178sb4hslwv3xp1mr0000gn/T//ccNKqrmb.s 			page 22


 1180 0046 6A02     		lsls	r2, r5, #9
 1181 0048 2046     		mov	r0, r4
 1182 004a 1221     		movs	r1, #18
 1183 004c FFF7FEFF 		bl	send_hdr
 1184              	.LVL131:
 1185 0050 ECE7     		b	.L101
 1186              		.cfi_endproc
 1187              	.LFE135:
 1188              		.size	mmcStartSequentialRead, .-mmcStartSequentialRead
 1189 0052 00BFAFF3 		.section	.text.mmcSequentialRead,"ax",%progbits
 1189      0080AFF3 
 1189      0080AFF3 
 1189      0080
 1190              		.align	2
 1191              		.p2align 4,,15
 1192              		.global	mmcSequentialRead
 1193              		.thumb
 1194              		.thumb_func
 1195              		.type	mmcSequentialRead, %function
 1196              	mmcSequentialRead:
 1197              	.LFB136:
 1198              		.loc 1 629 0
 1199              		.cfi_startproc
 1200              		@ args = 0, pretend = 0, frame = 0
 1201              		@ frame_needed = 0, uses_anonymous_args = 0
 1202              	.LVL132:
 1203              		.loc 1 634 0
 1204 0000 0379     		ldrb	r3, [r0, #4]	@ zero_extendqisi2
 1205 0002 062B     		cmp	r3, #6
 1206              		.loc 1 629 0
 1207 0004 70B5     		push	{r4, r5, r6, lr}
 1208              		.cfi_def_cfa_offset 16
 1209              		.cfi_offset 4, -16
 1210              		.cfi_offset 5, -12
 1211              		.cfi_offset 6, -8
 1212              		.cfi_offset 14, -4
 1213              		.loc 1 629 0
 1214 0006 0646     		mov	r6, r0
 1215 0008 0D46     		mov	r5, r1
 1216              		.loc 1 634 0
 1217 000a 01D0     		beq	.L110
 1218              		.loc 1 635 0
 1219 000c 0120     		movs	r0, #1
 1220              	.LVL133:
 1221              		.loc 1 651 0
 1222 000e 70BD     		pop	{r4, r5, r6, pc}
 1223              	.LVL134:
 1224              	.L110:
 1225              		.loc 1 634 0
 1226 0010 42F21074 		movw	r4, #10000
 1227 0014 01E0     		b	.L108
 1228              	.LVL135:
 1229              	.L106:
 1230              		.loc 1 637 0
 1231 0016 013C     		subs	r4, r4, #1
 1232              	.LVL136:
 1233 0018 16D0     		beq	.L111
ARM GAS  /var/folders/4k/6h5l9jl178sb4hslwv3xp1mr0000gn/T//ccNKqrmb.s 			page 23


 1234              	.LVL137:
 1235              	.L108:
 1236              		.loc 1 638 0
 1237 001a F36A     		ldr	r3, [r6, #44]
 1238 001c 0121     		movs	r1, #1
 1239 001e 1868     		ldr	r0, [r3]
 1240 0020 2A46     		mov	r2, r5
 1241 0022 FFF7FEFF 		bl	spiReceive
 1242              	.LVL138:
 1243              		.loc 1 639 0
 1244 0026 2B78     		ldrb	r3, [r5]	@ zero_extendqisi2
 1245 0028 FE2B     		cmp	r3, #254
 1246 002a F4D1     		bne	.L106
 1247              		.loc 1 640 0
 1248 002c F36A     		ldr	r3, [r6, #44]
 1249 002e 2A46     		mov	r2, r5
 1250 0030 1868     		ldr	r0, [r3]
 1251 0032 4FF40071 		mov	r1, #512
 1252 0036 FFF7FEFF 		bl	spiReceive
 1253              	.LVL139:
 1254              		.loc 1 642 0
 1255 003a F36A     		ldr	r3, [r6, #44]
 1256 003c 0221     		movs	r1, #2
 1257 003e 1868     		ldr	r0, [r3]
 1258 0040 FFF7FEFF 		bl	spiIgnore
 1259              	.LVL140:
 1260              		.loc 1 643 0
 1261 0044 0020     		movs	r0, #0
 1262 0046 70BD     		pop	{r4, r5, r6, pc}
 1263              	.LVL141:
 1264              	.L111:
 1265              		.loc 1 647 0
 1266 0048 F36A     		ldr	r3, [r6, #44]
 1267 004a 1868     		ldr	r0, [r3]
 1268 004c FFF7FEFF 		bl	spiUnselect
 1269              	.LVL142:
 1270              		.loc 1 648 0
 1271 0050 F36A     		ldr	r3, [r6, #44]
 1272 0052 1868     		ldr	r0, [r3]
 1273 0054 FFF7FEFF 		bl	spiStop
 1274              	.LVL143:
 1275              		.loc 1 649 0
 1276 0058 0523     		movs	r3, #5
 1277 005a 3371     		strb	r3, [r6, #4]
 1278              		.loc 1 650 0
 1279 005c 0120     		movs	r0, #1
 1280 005e 70BD     		pop	{r4, r5, r6, pc}
 1281              		.cfi_endproc
 1282              	.LFE136:
 1283              		.size	mmcSequentialRead, .-mmcSequentialRead
 1284              		.section	.text.mmcStopSequentialRead,"ax",%progbits
 1285              		.align	2
 1286              		.p2align 4,,15
 1287              		.global	mmcStopSequentialRead
 1288              		.thumb
 1289              		.thumb_func
 1290              		.type	mmcStopSequentialRead, %function
ARM GAS  /var/folders/4k/6h5l9jl178sb4hslwv3xp1mr0000gn/T//ccNKqrmb.s 			page 24


 1291              	mmcStopSequentialRead:
 1292              	.LFB137:
 1293              		.loc 1 664 0
 1294              		.cfi_startproc
 1295              		@ args = 0, pretend = 0, frame = 0
 1296              		@ frame_needed = 0, uses_anonymous_args = 0
 1297              	.LVL144:
 1298 0000 38B5     		push	{r3, r4, r5, lr}
 1299              		.cfi_def_cfa_offset 16
 1300              		.cfi_offset 3, -16
 1301              		.cfi_offset 4, -12
 1302              		.cfi_offset 5, -8
 1303              		.cfi_offset 14, -4
 1304              		.loc 1 670 0
 1305 0002 0379     		ldrb	r3, [r0, #4]	@ zero_extendqisi2
 1306 0004 062B     		cmp	r3, #6
 1307              		.loc 1 664 0
 1308 0006 0446     		mov	r4, r0
 1309              		.loc 1 670 0
 1310 0008 01D0     		beq	.L115
 1311              		.loc 1 671 0
 1312 000a 0120     		movs	r0, #1
 1313              	.LVL145:
 1314              		.loc 1 682 0
 1315 000c 38BD     		pop	{r3, r4, r5, pc}
 1316              	.LVL146:
 1317              	.L115:
 1318              		.loc 1 673 0
 1319 000e 0546     		mov	r5, r0
 1320 0010 0721     		movs	r1, #7
 1321 0012 55F82C3F 		ldr	r3, [r5, #44]!
 1322 0016 074A     		ldr	r2, .L116
 1323 0018 1868     		ldr	r0, [r3]
 1324              	.LVL147:
 1325 001a FFF7FEFF 		bl	spiSend
 1326              	.LVL148:
 1327              		.loc 1 676 0
 1328 001e 2846     		mov	r0, r5
 1329 0020 FFF7FEFF 		bl	recvr1.isra.1
 1330              	.LVL149:
 1331              		.loc 1 679 0
 1332 0024 E36A     		ldr	r3, [r4, #44]
 1333 0026 1868     		ldr	r0, [r3]
 1334 0028 FFF7FEFF 		bl	spiUnselect
 1335              	.LVL150:
 1336              		.loc 1 680 0
 1337 002c 0523     		movs	r3, #5
 1338 002e 2371     		strb	r3, [r4, #4]
 1339              		.loc 1 681 0
 1340 0030 0020     		movs	r0, #0
 1341 0032 38BD     		pop	{r3, r4, r5, pc}
 1342              	.LVL151:
 1343              	.L117:
 1344              		.align	2
 1345              	.L116:
 1346 0034 00000000 		.word	.LANCHOR2
 1347              		.cfi_endproc
ARM GAS  /var/folders/4k/6h5l9jl178sb4hslwv3xp1mr0000gn/T//ccNKqrmb.s 			page 25


 1348              	.LFE137:
 1349              		.size	mmcStopSequentialRead, .-mmcStopSequentialRead
 1350 0038 AFF30080 		.section	.text.mmc_read,"ax",%progbits
 1350      AFF30080 
 1351              		.align	2
 1352              		.p2align 4,,15
 1353              		.thumb
 1354              		.thumb_func
 1355              		.type	mmc_read, %function
 1356              	mmc_read:
 1357              	.LFB118:
 1358              		.loc 1 111 0
 1359              		.cfi_startproc
 1360              		@ args = 0, pretend = 0, frame = 0
 1361              		@ frame_needed = 0, uses_anonymous_args = 0
 1362              	.LVL152:
 1363 0000 70B5     		push	{r4, r5, r6, lr}
 1364              		.cfi_def_cfa_offset 16
 1365              		.cfi_offset 4, -16
 1366              		.cfi_offset 5, -12
 1367              		.cfi_offset 6, -8
 1368              		.cfi_offset 14, -4
 1369              		.loc 1 111 0
 1370 0002 1446     		mov	r4, r2
 1371 0004 1D46     		mov	r5, r3
 1372 0006 0646     		mov	r6, r0
 1373              		.loc 1 113 0
 1374 0008 FFF7FEFF 		bl	mmcStartSequentialRead
 1375              	.LVL153:
 1376 000c 58B9     		cbnz	r0, .L120
 1377              		.loc 1 115 0 discriminator 1
 1378 000e 15B9     		cbnz	r5, .L124
 1379 0010 0BE0     		b	.L123
 1380              	.LVL154:
 1381              	.L128:
 1382              		.loc 1 115 0 is_stmt 0
 1383 0012 013D     		subs	r5, r5, #1
 1384              	.LVL155:
 1385 0014 09D0     		beq	.L123
 1386              	.LVL156:
 1387              	.L124:
 1388              		.loc 1 116 0 is_stmt 1
 1389 0016 2146     		mov	r1, r4
 1390 0018 3046     		mov	r0, r6
 1391 001a FFF7FEFF 		bl	mmcSequentialRead
 1392              	.LVL157:
 1393              		.loc 1 118 0
 1394 001e 04F50074 		add	r4, r4, #512
 1395              	.LVL158:
 1396              		.loc 1 116 0
 1397 0022 0028     		cmp	r0, #0
 1398 0024 F5D0     		beq	.L128
 1399              	.LVL159:
 1400              	.L120:
 1401              		.loc 1 124 0
 1402 0026 0120     		movs	r0, #1
 1403 0028 70BD     		pop	{r4, r5, r6, pc}
ARM GAS  /var/folders/4k/6h5l9jl178sb4hslwv3xp1mr0000gn/T//ccNKqrmb.s 			page 26


 1404              	.LVL160:
 1405              	.L123:
 1406              	.LBB33:
 1407              	.LBB34:
 1408              		.loc 1 121 0
 1409 002a 3046     		mov	r0, r6
 1410              	.LBE34:
 1411              	.LBE33:
 1412              		.loc 1 124 0
 1413 002c BDE87040 		pop	{r4, r5, r6, lr}
 1414              	.LVL161:
 1415              	.LBB36:
 1416              	.LBB35:
 1417              		.loc 1 121 0
 1418 0030 FFF7FEBF 		b	mmcStopSequentialRead
 1419              	.LVL162:
 1420              	.LBE35:
 1421              	.LBE36:
 1422              		.cfi_endproc
 1423              	.LFE118:
 1424              		.size	mmc_read, .-mmc_read
 1425 0034 AFF30080 		.section	.text.mmcStartSequentialWrite,"ax",%progbits
 1425      AFF30080 
 1425      AFF30080 
 1426              		.align	2
 1427              		.p2align 4,,15
 1428              		.global	mmcStartSequentialWrite
 1429              		.thumb
 1430              		.thumb_func
 1431              		.type	mmcStartSequentialWrite, %function
 1432              	mmcStartSequentialWrite:
 1433              	.LFB138:
 1434              		.loc 1 696 0
 1435              		.cfi_startproc
 1436              		@ args = 0, pretend = 0, frame = 0
 1437              		@ frame_needed = 0, uses_anonymous_args = 0
 1438              	.LVL163:
 1439 0000 38B5     		push	{r3, r4, r5, lr}
 1440              		.cfi_def_cfa_offset 16
 1441              		.cfi_offset 3, -16
 1442              		.cfi_offset 4, -12
 1443              		.cfi_offset 5, -8
 1444              		.cfi_offset 14, -4
 1445              		.loc 1 705 0
 1446 0002 C36A     		ldr	r3, [r0, #44]
 1447              		.loc 1 696 0
 1448 0004 0446     		mov	r4, r0
 1449              		.loc 1 703 0
 1450 0006 0722     		movs	r2, #7
 1451 0008 0271     		strb	r2, [r0, #4]
 1452              		.loc 1 696 0
 1453 000a 0D46     		mov	r5, r1
 1454              		.loc 1 705 0
 1455 000c 1868     		ldr	r0, [r3]
 1456              	.LVL164:
 1457 000e 9968     		ldr	r1, [r3, #8]
 1458              	.LVL165:
ARM GAS  /var/folders/4k/6h5l9jl178sb4hslwv3xp1mr0000gn/T//ccNKqrmb.s 			page 27


 1459 0010 FFF7FEFF 		bl	spiStart
 1460              	.LVL166:
 1461              		.loc 1 706 0
 1462 0014 E36A     		ldr	r3, [r4, #44]
 1463 0016 1868     		ldr	r0, [r3]
 1464 0018 FFF7FEFF 		bl	spiSelect
 1465              	.LVL167:
 1466              		.loc 1 707 0
 1467 001c 94F83030 		ldrb	r3, [r4, #48]	@ zero_extendqisi2
 1468 0020 8BB1     		cbz	r3, .L130
 1469              		.loc 1 708 0
 1470 0022 2A46     		mov	r2, r5
 1471 0024 2046     		mov	r0, r4
 1472 0026 1921     		movs	r1, #25
 1473 0028 FFF7FEFF 		bl	send_hdr
 1474              	.LVL168:
 1475              	.L131:
 1476              		.loc 1 713 0
 1477 002c 04F12C00 		add	r0, r4, #44
 1478 0030 FFF7FEFF 		bl	recvr1.isra.1
 1479              	.LVL169:
 1480 0034 30B1     		cbz	r0, .L132
 1481              		.loc 1 714 0
 1482 0036 E36A     		ldr	r3, [r4, #44]
 1483 0038 1868     		ldr	r0, [r3]
 1484 003a FFF7FEFF 		bl	spiStop
 1485              	.LVL170:
 1486              		.loc 1 715 0
 1487 003e 0523     		movs	r3, #5
 1488 0040 2371     		strb	r3, [r4, #4]
 1489              		.loc 1 716 0
 1490 0042 0120     		movs	r0, #1
 1491              	.L132:
 1492              		.loc 1 719 0
 1493 0044 38BD     		pop	{r3, r4, r5, pc}
 1494              	.LVL171:
 1495              	.L130:
 1496              		.loc 1 710 0
 1497 0046 6A02     		lsls	r2, r5, #9
 1498 0048 2046     		mov	r0, r4
 1499 004a 1921     		movs	r1, #25
 1500 004c FFF7FEFF 		bl	send_hdr
 1501              	.LVL172:
 1502 0050 ECE7     		b	.L131
 1503              		.cfi_endproc
 1504              	.LFE138:
 1505              		.size	mmcStartSequentialWrite, .-mmcStartSequentialWrite
 1506 0052 00BFAFF3 		.section	.text.mmcSequentialWrite,"ax",%progbits
 1506      0080AFF3 
 1506      0080AFF3 
 1506      0080
 1507              		.align	2
 1508              		.p2align 4,,15
 1509              		.global	mmcSequentialWrite
 1510              		.thumb
 1511              		.thumb_func
 1512              		.type	mmcSequentialWrite, %function
ARM GAS  /var/folders/4k/6h5l9jl178sb4hslwv3xp1mr0000gn/T//ccNKqrmb.s 			page 28


 1513              	mmcSequentialWrite:
 1514              	.LFB139:
 1515              		.loc 1 733 0
 1516              		.cfi_startproc
 1517              		@ args = 0, pretend = 0, frame = 8
 1518              		@ frame_needed = 0, uses_anonymous_args = 0
 1519              	.LVL173:
 1520 0000 30B5     		push	{r4, r5, lr}
 1521              		.cfi_def_cfa_offset 12
 1522              		.cfi_offset 4, -12
 1523              		.cfi_offset 5, -8
 1524              		.cfi_offset 14, -4
 1525              		.loc 1 739 0
 1526 0002 0379     		ldrb	r3, [r0, #4]	@ zero_extendqisi2
 1527 0004 072B     		cmp	r3, #7
 1528              		.loc 1 733 0
 1529 0006 83B0     		sub	sp, sp, #12
 1530              		.cfi_def_cfa_offset 24
 1531              		.loc 1 733 0
 1532 0008 0446     		mov	r4, r0
 1533 000a 0D46     		mov	r5, r1
 1534              		.loc 1 739 0
 1535 000c 02D0     		beq	.L138
 1536              		.loc 1 740 0
 1537 000e 0120     		movs	r0, #1
 1538              	.LVL174:
 1539              	.L135:
 1540              		.loc 1 756 0
 1541 0010 03B0     		add	sp, sp, #12
 1542              		@ sp needed
 1543 0012 30BD     		pop	{r4, r5, pc}
 1544              	.LVL175:
 1545              	.L138:
 1546              		.loc 1 742 0
 1547 0014 C36A     		ldr	r3, [r0, #44]
 1548 0016 184A     		ldr	r2, .L140
 1549 0018 1868     		ldr	r0, [r3]
 1550              	.LVL176:
 1551 001a 0221     		movs	r1, #2
 1552              	.LVL177:
 1553 001c FFF7FEFF 		bl	spiSend
 1554              	.LVL178:
 1555              		.loc 1 743 0
 1556 0020 E36A     		ldr	r3, [r4, #44]
 1557 0022 2A46     		mov	r2, r5
 1558 0024 1868     		ldr	r0, [r3]
 1559 0026 4FF40071 		mov	r1, #512
 1560 002a FFF7FEFF 		bl	spiSend
 1561              	.LVL179:
 1562              		.loc 1 744 0
 1563 002e E36A     		ldr	r3, [r4, #44]
 1564 0030 0221     		movs	r1, #2
 1565 0032 1868     		ldr	r0, [r3]
 1566 0034 FFF7FEFF 		bl	spiIgnore
 1567              	.LVL180:
 1568              		.loc 1 745 0
 1569 0038 E36A     		ldr	r3, [r4, #44]
ARM GAS  /var/folders/4k/6h5l9jl178sb4hslwv3xp1mr0000gn/T//ccNKqrmb.s 			page 29


 1570 003a 0121     		movs	r1, #1
 1571 003c 1868     		ldr	r0, [r3]
 1572 003e 01AA     		add	r2, sp, #4
 1573 0040 FFF7FEFF 		bl	spiReceive
 1574              	.LVL181:
 1575              		.loc 1 746 0
 1576 0044 9DF80430 		ldrb	r3, [sp, #4]	@ zero_extendqisi2
 1577 0048 03F01F03 		and	r3, r3, #31
 1578 004c 052B     		cmp	r3, #5
 1579 004e 0CD0     		beq	.L139
 1580              		.loc 1 752 0
 1581 0050 E36A     		ldr	r3, [r4, #44]
 1582 0052 1868     		ldr	r0, [r3]
 1583 0054 FFF7FEFF 		bl	spiUnselect
 1584              	.LVL182:
 1585              		.loc 1 753 0
 1586 0058 E36A     		ldr	r3, [r4, #44]
 1587 005a 1868     		ldr	r0, [r3]
 1588 005c FFF7FEFF 		bl	spiStop
 1589              	.LVL183:
 1590              		.loc 1 754 0
 1591 0060 0523     		movs	r3, #5
 1592              		.loc 1 755 0
 1593 0062 0120     		movs	r0, #1
 1594              		.loc 1 754 0
 1595 0064 2371     		strb	r3, [r4, #4]
 1596              		.loc 1 756 0
 1597 0066 03B0     		add	sp, sp, #12
 1598              		@ sp needed
 1599 0068 30BD     		pop	{r4, r5, pc}
 1600              	.LVL184:
 1601              	.L139:
 1602              		.loc 1 747 0
 1603 006a 04F12C00 		add	r0, r4, #44
 1604 006e FFF7FEFF 		bl	wait.isra.0
 1605              	.LVL185:
 1606              		.loc 1 748 0
 1607 0072 0020     		movs	r0, #0
 1608 0074 CCE7     		b	.L135
 1609              	.L141:
 1610 0076 00BF     		.align	2
 1611              	.L140:
 1612 0078 00000000 		.word	.LANCHOR3
 1613              		.cfi_endproc
 1614              	.LFE139:
 1615              		.size	mmcSequentialWrite, .-mmcSequentialWrite
 1616 007c AFF30080 		.section	.text.mmcStopSequentialWrite,"ax",%progbits
 1617              		.align	2
 1618              		.p2align 4,,15
 1619              		.global	mmcStopSequentialWrite
 1620              		.thumb
 1621              		.thumb_func
 1622              		.type	mmcStopSequentialWrite, %function
 1623              	mmcStopSequentialWrite:
 1624              	.LFB140:
 1625              		.loc 1 769 0
 1626              		.cfi_startproc
ARM GAS  /var/folders/4k/6h5l9jl178sb4hslwv3xp1mr0000gn/T//ccNKqrmb.s 			page 30


 1627              		@ args = 0, pretend = 0, frame = 0
 1628              		@ frame_needed = 0, uses_anonymous_args = 0
 1629              	.LVL186:
 1630              		.loc 1 774 0
 1631 0000 0379     		ldrb	r3, [r0, #4]	@ zero_extendqisi2
 1632 0002 072B     		cmp	r3, #7
 1633              		.loc 1 769 0
 1634 0004 10B5     		push	{r4, lr}
 1635              		.cfi_def_cfa_offset 8
 1636              		.cfi_offset 4, -8
 1637              		.cfi_offset 14, -4
 1638              		.loc 1 769 0
 1639 0006 0446     		mov	r4, r0
 1640              		.loc 1 774 0
 1641 0008 01D0     		beq	.L145
 1642              		.loc 1 775 0
 1643 000a 0120     		movs	r0, #1
 1644              	.LVL187:
 1645              		.loc 1 783 0
 1646 000c 10BD     		pop	{r4, pc}
 1647              	.LVL188:
 1648              	.L145:
 1649              		.loc 1 777 0
 1650 000e C36A     		ldr	r3, [r0, #44]
 1651 0010 064A     		ldr	r2, .L146
 1652 0012 1868     		ldr	r0, [r3]
 1653              	.LVL189:
 1654 0014 0221     		movs	r1, #2
 1655 0016 FFF7FEFF 		bl	spiSend
 1656              	.LVL190:
 1657              		.loc 1 778 0
 1658 001a E36A     		ldr	r3, [r4, #44]
 1659 001c 1868     		ldr	r0, [r3]
 1660 001e FFF7FEFF 		bl	spiUnselect
 1661              	.LVL191:
 1662              		.loc 1 781 0
 1663 0022 0523     		movs	r3, #5
 1664 0024 2371     		strb	r3, [r4, #4]
 1665              		.loc 1 782 0
 1666 0026 0020     		movs	r0, #0
 1667 0028 10BD     		pop	{r4, pc}
 1668              	.LVL192:
 1669              	.L147:
 1670 002a 00BF     		.align	2
 1671              	.L146:
 1672 002c 00000000 		.word	.LANCHOR4
 1673              		.cfi_endproc
 1674              	.LFE140:
 1675              		.size	mmcStopSequentialWrite, .-mmcStopSequentialWrite
 1676              		.section	.text.mmc_write,"ax",%progbits
 1677              		.align	2
 1678              		.p2align 4,,15
 1679              		.thumb
 1680              		.thumb_func
 1681              		.type	mmc_write, %function
 1682              	mmc_write:
 1683              	.LFB119:
ARM GAS  /var/folders/4k/6h5l9jl178sb4hslwv3xp1mr0000gn/T//ccNKqrmb.s 			page 31


 1684              		.loc 1 127 0
 1685              		.cfi_startproc
 1686              		@ args = 0, pretend = 0, frame = 0
 1687              		@ frame_needed = 0, uses_anonymous_args = 0
 1688              	.LVL193:
 1689 0000 70B5     		push	{r4, r5, r6, lr}
 1690              		.cfi_def_cfa_offset 16
 1691              		.cfi_offset 4, -16
 1692              		.cfi_offset 5, -12
 1693              		.cfi_offset 6, -8
 1694              		.cfi_offset 14, -4
 1695              		.loc 1 127 0
 1696 0002 1446     		mov	r4, r2
 1697 0004 1D46     		mov	r5, r3
 1698 0006 0646     		mov	r6, r0
 1699              		.loc 1 129 0
 1700 0008 FFF7FEFF 		bl	mmcStartSequentialWrite
 1701              	.LVL194:
 1702 000c 58B9     		cbnz	r0, .L150
 1703              		.loc 1 131 0 discriminator 1
 1704 000e 15B9     		cbnz	r5, .L154
 1705 0010 0BE0     		b	.L153
 1706              	.LVL195:
 1707              	.L158:
 1708              		.loc 1 131 0 is_stmt 0
 1709 0012 013D     		subs	r5, r5, #1
 1710              	.LVL196:
 1711 0014 09D0     		beq	.L153
 1712              	.LVL197:
 1713              	.L154:
 1714              		.loc 1 132 0 is_stmt 1
 1715 0016 2146     		mov	r1, r4
 1716 0018 3046     		mov	r0, r6
 1717 001a FFF7FEFF 		bl	mmcSequentialWrite
 1718              	.LVL198:
 1719              		.loc 1 134 0
 1720 001e 04F50074 		add	r4, r4, #512
 1721              	.LVL199:
 1722              		.loc 1 132 0
 1723 0022 0028     		cmp	r0, #0
 1724 0024 F5D0     		beq	.L158
 1725              	.LVL200:
 1726              	.L150:
 1727              		.loc 1 140 0
 1728 0026 0120     		movs	r0, #1
 1729 0028 70BD     		pop	{r4, r5, r6, pc}
 1730              	.LVL201:
 1731              	.L153:
 1732              	.LBB39:
 1733              	.LBB40:
 1734              		.loc 1 137 0
 1735 002a 3046     		mov	r0, r6
 1736              	.LBE40:
 1737              	.LBE39:
 1738              		.loc 1 140 0
 1739 002c BDE87040 		pop	{r4, r5, r6, lr}
 1740              	.LVL202:
ARM GAS  /var/folders/4k/6h5l9jl178sb4hslwv3xp1mr0000gn/T//ccNKqrmb.s 			page 32


 1741              	.LBB42:
 1742              	.LBB41:
 1743              		.loc 1 137 0
 1744 0030 FFF7FEBF 		b	mmcStopSequentialWrite
 1745              	.LVL203:
 1746              	.LBE41:
 1747              	.LBE42:
 1748              		.cfi_endproc
 1749              	.LFE119:
 1750              		.size	mmc_write, .-mmc_write
 1751 0034 AFF30080 		.section	.text.mmcErase,"ax",%progbits
 1751      AFF30080 
 1751      AFF30080 
 1752              		.align	2
 1753              		.p2align 4,,15
 1754              		.global	mmcErase
 1755              		.thumb
 1756              		.thumb_func
 1757              		.type	mmcErase, %function
 1758              	mmcErase:
 1759              	.LFB143:
 1760              		.loc 1 852 0
 1761              		.cfi_startproc
 1762              		@ args = 0, pretend = 0, frame = 0
 1763              		@ frame_needed = 0, uses_anonymous_args = 0
 1764              	.LVL204:
 1765 0000 38B5     		push	{r3, r4, r5, lr}
 1766              		.cfi_def_cfa_offset 16
 1767              		.cfi_offset 3, -16
 1768              		.cfi_offset 4, -12
 1769              		.cfi_offset 5, -8
 1770              		.cfi_offset 14, -4
 1771              		.loc 1 852 0
 1772 0002 0446     		mov	r4, r0
 1773              		.loc 1 857 0
 1774 0004 0720     		movs	r0, #7
 1775              	.LVL205:
 1776              		.loc 1 860 0
 1777 0006 94F83030 		ldrb	r3, [r4, #48]	@ zero_extendqisi2
 1778              		.loc 1 857 0
 1779 000a 2071     		strb	r0, [r4, #4]
 1780              		.loc 1 852 0
 1781 000c 1546     		mov	r5, r2
 1782              		.loc 1 860 0
 1783 000e 0BB9     		cbnz	r3, .L160
 1784              		.loc 1 861 0
 1785 0010 4902     		lsls	r1, r1, #9
 1786              	.LVL206:
 1787              		.loc 1 862 0
 1788 0012 5502     		lsls	r5, r2, #9
 1789              	.LVL207:
 1790              	.L160:
 1791              		.loc 1 865 0
 1792 0014 0A46     		mov	r2, r1
 1793 0016 2046     		mov	r0, r4
 1794 0018 2021     		movs	r1, #32
 1795              	.LVL208:
ARM GAS  /var/folders/4k/6h5l9jl178sb4hslwv3xp1mr0000gn/T//ccNKqrmb.s 			page 33


 1796 001a FFF7FEFF 		bl	send_command_R1
 1797              	.LVL209:
 1798 001e 28B9     		cbnz	r0, .L161
 1799              		.loc 1 868 0
 1800 0020 2A46     		mov	r2, r5
 1801 0022 2046     		mov	r0, r4
 1802 0024 2121     		movs	r1, #33
 1803 0026 FFF7FEFF 		bl	send_command_R1
 1804              	.LVL210:
 1805 002a 38B1     		cbz	r0, .L163
 1806              	.L161:
 1807              	.LDL2:
 1808              		.loc 1 879 0
 1809 002c E36A     		ldr	r3, [r4, #44]
 1810 002e 1868     		ldr	r0, [r3]
 1811 0030 FFF7FEFF 		bl	spiStop
 1812              	.LVL211:
 1813              		.loc 1 880 0
 1814 0034 0523     		movs	r3, #5
 1815 0036 2371     		strb	r3, [r4, #4]
 1816              		.loc 1 881 0
 1817 0038 0120     		movs	r0, #1
 1818              		.loc 1 882 0
 1819 003a 38BD     		pop	{r3, r4, r5, pc}
 1820              	.LVL212:
 1821              	.L163:
 1822              		.loc 1 871 0
 1823 003c 0246     		mov	r2, r0
 1824 003e 2621     		movs	r1, #38
 1825 0040 2046     		mov	r0, r4
 1826 0042 FFF7FEFF 		bl	send_command_R1
 1827              	.LVL213:
 1828 0046 0028     		cmp	r0, #0
 1829 0048 F0D1     		bne	.L161
 1830              		.loc 1 874 0
 1831 004a 0523     		movs	r3, #5
 1832 004c 2371     		strb	r3, [r4, #4]
 1833              		.loc 1 875 0
 1834 004e 38BD     		pop	{r3, r4, r5, pc}
 1835              		.cfi_endproc
 1836              	.LFE143:
 1837              		.size	mmcErase, .-mmcErase
 1838              		.section	.rodata.stopcmd.7416,"a",%progbits
 1839              		.align	2
 1840              		.set	.LANCHOR2,. + 0
 1841              		.type	stopcmd.7416, %object
 1842              		.size	stopcmd.7416, 7
 1843              	stopcmd.7416:
 1844 0000 4C       		.byte	76
 1845 0001 00       		.byte	0
 1846 0002 00       		.byte	0
 1847 0003 00       		.byte	0
 1848 0004 00       		.byte	0
 1849 0005 01       		.byte	1
 1850 0006 FF       		.byte	-1
 1851 0007 00       		.section	.rodata.stop.7430,"a",%progbits
 1852              		.align	2
ARM GAS  /var/folders/4k/6h5l9jl178sb4hslwv3xp1mr0000gn/T//ccNKqrmb.s 			page 34


 1853              		.set	.LANCHOR4,. + 0
 1854              		.type	stop.7430, %object
 1855              		.size	stop.7430, 2
 1856              	stop.7430:
 1857 0000 FD       		.byte	-3
 1858 0001 FF       		.byte	-1
 1859 0002 0000     		.section	.rodata.crc7_lookup_table,"a",%progbits
 1860              		.align	2
 1861              		.set	.LANCHOR0,. + 0
 1862              		.type	crc7_lookup_table, %object
 1863              		.size	crc7_lookup_table, 256
 1864              	crc7_lookup_table:
 1865 0000 00       		.byte	0
 1866 0001 09       		.byte	9
 1867 0002 12       		.byte	18
 1868 0003 1B       		.byte	27
 1869 0004 24       		.byte	36
 1870 0005 2D       		.byte	45
 1871 0006 36       		.byte	54
 1872 0007 3F       		.byte	63
 1873 0008 48       		.byte	72
 1874 0009 41       		.byte	65
 1875 000a 5A       		.byte	90
 1876 000b 53       		.byte	83
 1877 000c 6C       		.byte	108
 1878 000d 65       		.byte	101
 1879 000e 7E       		.byte	126
 1880 000f 77       		.byte	119
 1881 0010 19       		.byte	25
 1882 0011 10       		.byte	16
 1883 0012 0B       		.byte	11
 1884 0013 02       		.byte	2
 1885 0014 3D       		.byte	61
 1886 0015 34       		.byte	52
 1887 0016 2F       		.byte	47
 1888 0017 26       		.byte	38
 1889 0018 51       		.byte	81
 1890 0019 58       		.byte	88
 1891 001a 43       		.byte	67
 1892 001b 4A       		.byte	74
 1893 001c 75       		.byte	117
 1894 001d 7C       		.byte	124
 1895 001e 67       		.byte	103
 1896 001f 6E       		.byte	110
 1897 0020 32       		.byte	50
 1898 0021 3B       		.byte	59
 1899 0022 20       		.byte	32
 1900 0023 29       		.byte	41
 1901 0024 16       		.byte	22
 1902 0025 1F       		.byte	31
 1903 0026 04       		.byte	4
 1904 0027 0D       		.byte	13
 1905 0028 7A       		.byte	122
 1906 0029 73       		.byte	115
 1907 002a 68       		.byte	104
 1908 002b 61       		.byte	97
 1909 002c 5E       		.byte	94
ARM GAS  /var/folders/4k/6h5l9jl178sb4hslwv3xp1mr0000gn/T//ccNKqrmb.s 			page 35


 1910 002d 57       		.byte	87
 1911 002e 4C       		.byte	76
 1912 002f 45       		.byte	69
 1913 0030 2B       		.byte	43
 1914 0031 22       		.byte	34
 1915 0032 39       		.byte	57
 1916 0033 30       		.byte	48
 1917 0034 0F       		.byte	15
 1918 0035 06       		.byte	6
 1919 0036 1D       		.byte	29
 1920 0037 14       		.byte	20
 1921 0038 63       		.byte	99
 1922 0039 6A       		.byte	106
 1923 003a 71       		.byte	113
 1924 003b 78       		.byte	120
 1925 003c 47       		.byte	71
 1926 003d 4E       		.byte	78
 1927 003e 55       		.byte	85
 1928 003f 5C       		.byte	92
 1929 0040 64       		.byte	100
 1930 0041 6D       		.byte	109
 1931 0042 76       		.byte	118
 1932 0043 7F       		.byte	127
 1933 0044 40       		.byte	64
 1934 0045 49       		.byte	73
 1935 0046 52       		.byte	82
 1936 0047 5B       		.byte	91
 1937 0048 2C       		.byte	44
 1938 0049 25       		.byte	37
 1939 004a 3E       		.byte	62
 1940 004b 37       		.byte	55
 1941 004c 08       		.byte	8
 1942 004d 01       		.byte	1
 1943 004e 1A       		.byte	26
 1944 004f 13       		.byte	19
 1945 0050 7D       		.byte	125
 1946 0051 74       		.byte	116
 1947 0052 6F       		.byte	111
 1948 0053 66       		.byte	102
 1949 0054 59       		.byte	89
 1950 0055 50       		.byte	80
 1951 0056 4B       		.byte	75
 1952 0057 42       		.byte	66
 1953 0058 35       		.byte	53
 1954 0059 3C       		.byte	60
 1955 005a 27       		.byte	39
 1956 005b 2E       		.byte	46
 1957 005c 11       		.byte	17
 1958 005d 18       		.byte	24
 1959 005e 03       		.byte	3
 1960 005f 0A       		.byte	10
 1961 0060 56       		.byte	86
 1962 0061 5F       		.byte	95
 1963 0062 44       		.byte	68
 1964 0063 4D       		.byte	77
 1965 0064 72       		.byte	114
 1966 0065 7B       		.byte	123
ARM GAS  /var/folders/4k/6h5l9jl178sb4hslwv3xp1mr0000gn/T//ccNKqrmb.s 			page 36


 1967 0066 60       		.byte	96
 1968 0067 69       		.byte	105
 1969 0068 1E       		.byte	30
 1970 0069 17       		.byte	23
 1971 006a 0C       		.byte	12
 1972 006b 05       		.byte	5
 1973 006c 3A       		.byte	58
 1974 006d 33       		.byte	51
 1975 006e 28       		.byte	40
 1976 006f 21       		.byte	33
 1977 0070 4F       		.byte	79
 1978 0071 46       		.byte	70
 1979 0072 5D       		.byte	93
 1980 0073 54       		.byte	84
 1981 0074 6B       		.byte	107
 1982 0075 62       		.byte	98
 1983 0076 79       		.byte	121
 1984 0077 70       		.byte	112
 1985 0078 07       		.byte	7
 1986 0079 0E       		.byte	14
 1987 007a 15       		.byte	21
 1988 007b 1C       		.byte	28
 1989 007c 23       		.byte	35
 1990 007d 2A       		.byte	42
 1991 007e 31       		.byte	49
 1992 007f 38       		.byte	56
 1993 0080 41       		.byte	65
 1994 0081 48       		.byte	72
 1995 0082 53       		.byte	83
 1996 0083 5A       		.byte	90
 1997 0084 65       		.byte	101
 1998 0085 6C       		.byte	108
 1999 0086 77       		.byte	119
 2000 0087 7E       		.byte	126
 2001 0088 09       		.byte	9
 2002 0089 00       		.byte	0
 2003 008a 1B       		.byte	27
 2004 008b 12       		.byte	18
 2005 008c 2D       		.byte	45
 2006 008d 24       		.byte	36
 2007 008e 3F       		.byte	63
 2008 008f 36       		.byte	54
 2009 0090 58       		.byte	88
 2010 0091 51       		.byte	81
 2011 0092 4A       		.byte	74
 2012 0093 43       		.byte	67
 2013 0094 7C       		.byte	124
 2014 0095 75       		.byte	117
 2015 0096 6E       		.byte	110
 2016 0097 67       		.byte	103
 2017 0098 10       		.byte	16
 2018 0099 19       		.byte	25
 2019 009a 02       		.byte	2
 2020 009b 0B       		.byte	11
 2021 009c 34       		.byte	52
 2022 009d 3D       		.byte	61
 2023 009e 26       		.byte	38
ARM GAS  /var/folders/4k/6h5l9jl178sb4hslwv3xp1mr0000gn/T//ccNKqrmb.s 			page 37


 2024 009f 2F       		.byte	47
 2025 00a0 73       		.byte	115
 2026 00a1 7A       		.byte	122
 2027 00a2 61       		.byte	97
 2028 00a3 68       		.byte	104
 2029 00a4 57       		.byte	87
 2030 00a5 5E       		.byte	94
 2031 00a6 45       		.byte	69
 2032 00a7 4C       		.byte	76
 2033 00a8 3B       		.byte	59
 2034 00a9 32       		.byte	50
 2035 00aa 29       		.byte	41
 2036 00ab 20       		.byte	32
 2037 00ac 1F       		.byte	31
 2038 00ad 16       		.byte	22
 2039 00ae 0D       		.byte	13
 2040 00af 04       		.byte	4
 2041 00b0 6A       		.byte	106
 2042 00b1 63       		.byte	99
 2043 00b2 78       		.byte	120
 2044 00b3 71       		.byte	113
 2045 00b4 4E       		.byte	78
 2046 00b5 47       		.byte	71
 2047 00b6 5C       		.byte	92
 2048 00b7 55       		.byte	85
 2049 00b8 22       		.byte	34
 2050 00b9 2B       		.byte	43
 2051 00ba 30       		.byte	48
 2052 00bb 39       		.byte	57
 2053 00bc 06       		.byte	6
 2054 00bd 0F       		.byte	15
 2055 00be 14       		.byte	20
 2056 00bf 1D       		.byte	29
 2057 00c0 25       		.byte	37
 2058 00c1 2C       		.byte	44
 2059 00c2 37       		.byte	55
 2060 00c3 3E       		.byte	62
 2061 00c4 01       		.byte	1
 2062 00c5 08       		.byte	8
 2063 00c6 13       		.byte	19
 2064 00c7 1A       		.byte	26
 2065 00c8 6D       		.byte	109
 2066 00c9 64       		.byte	100
 2067 00ca 7F       		.byte	127
 2068 00cb 76       		.byte	118
 2069 00cc 49       		.byte	73
 2070 00cd 40       		.byte	64
 2071 00ce 5B       		.byte	91
 2072 00cf 52       		.byte	82
 2073 00d0 3C       		.byte	60
 2074 00d1 35       		.byte	53
 2075 00d2 2E       		.byte	46
 2076 00d3 27       		.byte	39
 2077 00d4 18       		.byte	24
 2078 00d5 11       		.byte	17
 2079 00d6 0A       		.byte	10
 2080 00d7 03       		.byte	3
ARM GAS  /var/folders/4k/6h5l9jl178sb4hslwv3xp1mr0000gn/T//ccNKqrmb.s 			page 38


 2081 00d8 74       		.byte	116
 2082 00d9 7D       		.byte	125
 2083 00da 66       		.byte	102
 2084 00db 6F       		.byte	111
 2085 00dc 50       		.byte	80
 2086 00dd 59       		.byte	89
 2087 00de 42       		.byte	66
 2088 00df 4B       		.byte	75
 2089 00e0 17       		.byte	23
 2090 00e1 1E       		.byte	30
 2091 00e2 05       		.byte	5
 2092 00e3 0C       		.byte	12
 2093 00e4 33       		.byte	51
 2094 00e5 3A       		.byte	58
 2095 00e6 21       		.byte	33
 2096 00e7 28       		.byte	40
 2097 00e8 5F       		.byte	95
 2098 00e9 56       		.byte	86
 2099 00ea 4D       		.byte	77
 2100 00eb 44       		.byte	68
 2101 00ec 7B       		.byte	123
 2102 00ed 72       		.byte	114
 2103 00ee 69       		.byte	105
 2104 00ef 60       		.byte	96
 2105 00f0 0E       		.byte	14
 2106 00f1 07       		.byte	7
 2107 00f2 1C       		.byte	28
 2108 00f3 15       		.byte	21
 2109 00f4 2A       		.byte	42
 2110 00f5 23       		.byte	35
 2111 00f6 38       		.byte	56
 2112 00f7 31       		.byte	49
 2113 00f8 46       		.byte	70
 2114 00f9 4F       		.byte	79
 2115 00fa 54       		.byte	84
 2116 00fb 5D       		.byte	93
 2117 00fc 62       		.byte	98
 2118 00fd 6B       		.byte	107
 2119 00fe 70       		.byte	112
 2120 00ff 79       		.byte	121
 2121              		.section	.rodata.mmc_vmt,"a",%progbits
 2122              		.align	2
 2123              		.set	.LANCHOR1,. + 0
 2124              		.type	mmc_vmt, %object
 2125              		.size	mmc_vmt, 32
 2126              	mmc_vmt:
 2127 0000 00000000 		.word	mmc_lld_is_card_inserted
 2128 0004 00000000 		.word	mmc_lld_is_write_protected
 2129 0008 00000000 		.word	mmcConnect
 2130 000c 00000000 		.word	mmcDisconnect
 2131 0010 00000000 		.word	mmc_read
 2132 0014 00000000 		.word	mmc_write
 2133 0018 00000000 		.word	mmcSync
 2134 001c 00000000 		.word	mmcGetInfo
 2135              		.section	.rodata.start.7425,"a",%progbits
 2136              		.align	2
 2137              		.set	.LANCHOR3,. + 0
ARM GAS  /var/folders/4k/6h5l9jl178sb4hslwv3xp1mr0000gn/T//ccNKqrmb.s 			page 39


 2138              		.type	start.7425, %object
 2139              		.size	start.7425, 2
 2140              	start.7425:
 2141 0000 FF       		.byte	-1
 2142 0001 FC       		.byte	-4
 2143 0002 0000     		.text
 2144              	.Letext0:
 2145              		.file 2 "/Users/mikevanis/Documents/workspace/gcc-arm-none-eabi-4_8-2014q1/lib/gcc/arm-none-eabi/4
 2146              		.file 3 "/Users/mikevanis/Documents/workspace/gcc-arm-none-eabi-4_8-2014q1/arm-none-eabi/include/m
 2147              		.file 4 "/Users/mikevanis/Documents/workspace/gcc-arm-none-eabi-4_8-2014q1/arm-none-eabi/include/s
 2148              		.file 5 "../ChibiStudio/ChibiOS/os/ports/GCC/ARMCMx/chtypes.h"
 2149              		.file 6 "../ChibiStudio/ChibiOS/os/kernel/include/chlists.h"
 2150              		.file 7 "../ChibiStudio/ChibiOS/os/kernel/include/chthreads.h"
 2151              		.file 8 "../ChibiStudio/ChibiOS/os/ports/GCC/ARMCMx/chcore_v7m.h"
 2152              		.file 9 "../ChibiStudio/ChibiOS/os/kernel/include/chmtx.h"
 2153              		.file 10 "../ChibiStudio/ChibiOS/os/hal/platforms/STM32F4xx/stm32f4xx.h"
 2154              		.file 11 "../ChibiStudio/ChibiOS/os/hal/platforms/STM32F4xx/stm32_dma.h"
 2155              		.file 12 "../ChibiStudio/ChibiOS/os/hal/include/io_block.h"
 2156              		.file 13 "../ChibiStudio/ChibiOS/os/hal/platforms/STM32/GPIOv2/pal_lld.h"
 2157              		.file 14 "../ChibiStudio/ChibiOS/os/hal/include/spi.h"
 2158              		.file 15 "../ChibiStudio/ChibiOS/os/hal/platforms/STM32/SPIv1/spi_lld.h"
 2159              		.file 16 "../ChibiStudio/ChibiOS/os/hal/include/mmc_spi.h"
 2160              		.file 17 "../ChibiStudio/ChibiOS/os/hal/include/mmcsd.h"
 2161              		.file 18 "../ChibiStudio/ChibiOS/os/ports/common/ARMCMx/CMSIS/include/core_cm4.h"