ARM GAS  /var/folders/4k/6h5l9jl178sb4hslwv3xp1mr0000gn/T//ccnnteXy.s 			page 1


   1              		.syntax unified
   2              		.cpu cortex-m4
   3              		.fpu softvfp
   4              		.eabi_attribute 20, 1
   5              		.eabi_attribute 21, 1
   6              		.eabi_attribute 23, 3
   7              		.eabi_attribute 24, 1
   8              		.eabi_attribute 25, 1
   9              		.eabi_attribute 26, 1
  10              		.eabi_attribute 30, 2
  11              		.eabi_attribute 34, 1
  12              		.eabi_attribute 18, 4
  13              		.thumb
  14              		.file	"OV2640.c"
  15              		.text
  16              	.Ltext0:
  17              		.cfi_sections	.debug_frame
  18              		.section	.text.cam_write_reg,"ax",%progbits
  19              		.align	2
  20              		.p2align 4,,15
  21              		.global	cam_write_reg
  22              		.thumb
  23              		.thumb_func
  24              		.type	cam_write_reg, %function
  25              	cam_write_reg:
  26              	.LFB118:
  27              		.file 1 "OV2640.c"
  28              		.loc 1 6 0
  29              		.cfi_startproc
  30              		@ args = 0, pretend = 0, frame = 0
  31              		@ frame_needed = 0, uses_anonymous_args = 0
  32              	.LVL0:
  33 0000 0A46     		mov	r2, r1
  34 0002 08B5     		push	{r3, lr}
  35              		.cfi_def_cfa_offset 8
  36              		.cfi_offset 3, -8
  37              		.cfi_offset 14, -4
  38              		.loc 1 7 0
  39 0004 0146     		mov	r1, r0
  40              	.LVL1:
  41 0006 3020     		movs	r0, #48
  42              	.LVL2:
  43 0008 FFF7FEFF 		bl	SCCB_Write
  44              	.LVL3:
  45              		.loc 1 12 0
  46 000c 0030     		adds	r0, r0, #0
  47 000e 18BF     		it	ne
  48 0010 0120     		movne	r0, #1
  49 0012 08BD     		pop	{r3, pc}
  50              		.cfi_endproc
  51              	.LFE118:
  52              		.size	cam_write_reg, .-cam_write_reg
  53 0014 AFF30080 		.section	.text.cam_read_reg,"ax",%progbits
  53      AFF30080 
  53      AFF30080 
  54              		.align	2
  55              		.p2align 4,,15
ARM GAS  /var/folders/4k/6h5l9jl178sb4hslwv3xp1mr0000gn/T//ccnnteXy.s 			page 2


  56              		.global	cam_read_reg
  57              		.thumb
  58              		.thumb_func
  59              		.type	cam_read_reg, %function
  60              	cam_read_reg:
  61              	.LFB119:
  62              		.loc 1 14 0
  63              		.cfi_startproc
  64              		@ args = 0, pretend = 0, frame = 0
  65              		@ frame_needed = 0, uses_anonymous_args = 0
  66              	.LVL4:
  67 0000 0A46     		mov	r2, r1
  68 0002 08B5     		push	{r3, lr}
  69              		.cfi_def_cfa_offset 8
  70              		.cfi_offset 3, -8
  71              		.cfi_offset 14, -4
  72              		.loc 1 15 0
  73 0004 0146     		mov	r1, r0
  74              	.LVL5:
  75 0006 3020     		movs	r0, #48
  76              	.LVL6:
  77 0008 FFF7FEFF 		bl	SCCB_Read
  78              	.LVL7:
  79              		.loc 1 20 0
  80 000c 0030     		adds	r0, r0, #0
  81 000e 18BF     		it	ne
  82 0010 0120     		movne	r0, #1
  83 0012 08BD     		pop	{r3, pc}
  84              		.cfi_endproc
  85              	.LFE119:
  86              		.size	cam_read_reg, .-cam_read_reg
  87 0014 AFF30080 		.section	.text.cam_write_array,"ax",%progbits
  87      AFF30080 
  87      AFF30080 
  88              		.align	2
  89              		.p2align 4,,15
  90              		.global	cam_write_array
  91              		.thumb
  92              		.thumb_func
  93              		.type	cam_write_array, %function
  94              	cam_write_array:
  95              	.LFB120:
  96              		.loc 1 22 0
  97              		.cfi_startproc
  98              		@ args = 0, pretend = 0, frame = 0
  99              		@ frame_needed = 0, uses_anonymous_args = 0
 100              	.LVL8:
 101 0000 10B5     		push	{r4, lr}
 102              		.cfi_def_cfa_offset 8
 103              		.cfi_offset 4, -8
 104              		.cfi_offset 14, -4
 105 0002 841C     		adds	r4, r0, #2
 106              	.LVL9:
 107              	.L4:
 108              		.loc 1 23 0 discriminator 1
 109 0004 14F8021C 		ldrb	r1, [r4, #-2]	@ zero_extendqisi2
 110 0008 14F8012C 		ldrb	r2, [r4, #-1]	@ zero_extendqisi2
ARM GAS  /var/folders/4k/6h5l9jl178sb4hslwv3xp1mr0000gn/T//ccnnteXy.s 			page 3


 111 000c FF29     		cmp	r1, #255
 112 000e 01D1     		bne	.L7
 113              		.loc 1 23 0 is_stmt 0 discriminator 2
 114 0010 FF2A     		cmp	r2, #255
 115 0012 07D0     		beq	.L11
 116              	.L7:
 117              		.loc 1 24 0 is_stmt 1
 118 0014 3020     		movs	r0, #48
 119 0016 FFF7FEFF 		bl	SCCB_Write
 120              	.LVL10:
 121 001a 0234     		adds	r4, r4, #2
 122              	.LVL11:
 123 001c 0028     		cmp	r0, #0
 124 001e F1D0     		beq	.L4
 125              		.loc 1 25 0
 126 0020 0120     		movs	r0, #1
 127              		.loc 1 30 0
 128 0022 10BD     		pop	{r4, pc}
 129              	.LVL12:
 130              	.L11:
 131              		.loc 1 29 0
 132 0024 0020     		movs	r0, #0
 133 0026 10BD     		pop	{r4, pc}
 134              		.cfi_endproc
 135              	.LFE120:
 136              		.size	cam_write_array, .-cam_write_array
 137 0028 AFF30080 		.text
 137      AFF30080 
 138              	.Letext0:
 139              		.file 2 "/Users/mikevanis/Documents/workspace/gcc-arm-none-eabi-4_8-2014q1/arm-none-eabi/include/m
 140              		.file 3 "/Users/mikevanis/Documents/workspace/gcc-arm-none-eabi-4_8-2014q1/arm-none-eabi/include/s
 141              		.file 4 "../ChibiStudio/ChibiOS/os/ports/GCC/ARMCMx/chtypes.h"
 142              		.file 5 "OV2640.h"
 143              		.file 6 "../ChibiStudio/ChibiOS/os/ports/common/ARMCMx/CMSIS/include/core_cm4.h"
 144              		.file 7 "SCCB.h"