ARM GAS  /var/folders/4k/6h5l9jl178sb4hslwv3xp1mr0000gn/T//ccstyvy1.s 			page 1


   1              		.syntax unified
   2              		.cpu cortex-m4
   3              		.fpu softvfp
   4              		.eabi_attribute 20, 1
   5              		.eabi_attribute 21, 1
   6              		.eabi_attribute 23, 3
   7              		.eabi_attribute 24, 1
   8              		.eabi_attribute 25, 1
   9              		.eabi_attribute 26, 1
  10              		.eabi_attribute 30, 2
  11              		.eabi_attribute 34, 1
  12              		.eabi_attribute 18, 4
  13              		.thumb
  14              		.file	"SCCB.c"
  15              		.text
  16              	.Ltext0:
  17              		.cfi_sections	.debug_frame
  18              		.section	.text.SCCB_Write,"ax",%progbits
  19              		.align	2
  20              		.p2align 4,,15
  21              		.global	SCCB_Write
  22              		.thumb
  23              		.thumb_func
  24              		.type	SCCB_Write, %function
  25              	SCCB_Write:
  26              	.LFB118:
  27              		.file 1 "SCCB.c"
  28              		.loc 1 4 0
  29              		.cfi_startproc
  30              		@ args = 0, pretend = 0, frame = 8
  31              		@ frame_needed = 0, uses_anonymous_args = 0
  32              	.LVL0:
  33 0000 70B5     		push	{r4, r5, r6, lr}
  34              		.cfi_def_cfa_offset 16
  35              		.cfi_offset 4, -16
  36              		.cfi_offset 5, -12
  37              		.cfi_offset 6, -8
  38              		.cfi_offset 14, -4
  39              		.loc 1 9 0
  40 0002 104C     		ldr	r4, .L2
  41              		.loc 1 4 0
  42 0004 86B0     		sub	sp, sp, #24
  43              		.cfi_def_cfa_offset 40
  44              		.loc 1 4 0
  45 0006 0646     		mov	r6, r0
  46              		.loc 1 7 0
  47 0008 0025     		movs	r5, #0
  48              		.loc 1 9 0
  49 000a 2046     		mov	r0, r4
  50              	.LVL1:
  51              		.loc 1 6 0
  52 000c 8DF81410 		strb	r1, [sp, #20]
  53 0010 8DF81520 		strb	r2, [sp, #21]
  54              		.loc 1 7 0
  55 0014 8DF81350 		strb	r5, [sp, #19]
  56              		.loc 1 9 0
  57 0018 FFF7FEFF 		bl	i2cAcquireBus
ARM GAS  /var/folders/4k/6h5l9jl178sb4hslwv3xp1mr0000gn/T//ccstyvy1.s 			page 2


  58              	.LVL2:
  59              		.loc 1 10 0
  60 001c 0DF11302 		add	r2, sp, #19
  61 0020 0523     		movs	r3, #5
  62 0022 0195     		str	r5, [sp, #4]
  63 0024 3146     		mov	r1, r6
  64 0026 0092     		str	r2, [sp]
  65 0028 0293     		str	r3, [sp, #8]
  66 002a 05AA     		add	r2, sp, #20
  67 002c 0223     		movs	r3, #2
  68 002e 2046     		mov	r0, r4
  69 0030 FFF7FEFF 		bl	i2cMasterTransmitTimeout
  70              	.LVL3:
  71 0034 0546     		mov	r5, r0
  72              	.LVL4:
  73              		.loc 1 11 0
  74 0036 2046     		mov	r0, r4
  75              	.LVL5:
  76 0038 FFF7FEFF 		bl	i2cReleaseBus
  77              	.LVL6:
  78              		.loc 1 14 0
  79 003c 2846     		mov	r0, r5
  80 003e 06B0     		add	sp, sp, #24
  81              		@ sp needed
  82 0040 70BD     		pop	{r4, r5, r6, pc}
  83              	.LVL7:
  84              	.L3:
  85 0042 00BF     		.align	2
  86              	.L2:
  87 0044 00000000 		.word	I2CD1
  88              		.cfi_endproc
  89              	.LFE118:
  90              		.size	SCCB_Write, .-SCCB_Write
  91 0048 AFF30080 		.section	.text.SCCB_Read,"ax",%progbits
  91      AFF30080 
  92              		.align	2
  93              		.p2align 4,,15
  94              		.global	SCCB_Read
  95              		.thumb
  96              		.thumb_func
  97              		.type	SCCB_Read, %function
  98              	SCCB_Read:
  99              	.LFB119:
 100              		.loc 1 16 0
 101              		.cfi_startproc
 102              		@ args = 0, pretend = 0, frame = 8
 103              		@ frame_needed = 0, uses_anonymous_args = 0
 104              	.LVL8:
 105 0000 F0B5     		push	{r4, r5, r6, r7, lr}
 106              		.cfi_def_cfa_offset 20
 107              		.cfi_offset 4, -20
 108              		.cfi_offset 5, -16
 109              		.cfi_offset 6, -12
 110              		.cfi_offset 7, -8
 111              		.cfi_offset 14, -4
 112 0002 87B0     		sub	sp, sp, #28
 113              		.cfi_def_cfa_offset 48
ARM GAS  /var/folders/4k/6h5l9jl178sb4hslwv3xp1mr0000gn/T//ccstyvy1.s 			page 3


 114              		.loc 1 19 0
 115 0004 06AC     		add	r4, sp, #24
 116              		.loc 1 16 0
 117 0006 0546     		mov	r5, r0
 118              		.loc 1 19 0
 119 0008 04F8041D 		strb	r1, [r4, #-4]!
 120              		.loc 1 21 0
 121 000c 0C48     		ldr	r0, .L7
 122              	.LVL9:
 123              		.loc 1 16 0
 124 000e 1746     		mov	r7, r2
 125              		.loc 1 22 0
 126 0010 04AE     		add	r6, sp, #16
 127              		.loc 1 21 0
 128 0012 FFF7FEFF 		bl	i2cAcquireBus
 129              	.LVL10:
 130              		.loc 1 22 0
 131 0016 0123     		movs	r3, #1
 132 0018 0520     		movs	r0, #5
 133 001a 2246     		mov	r2, r4
 134 001c 0290     		str	r0, [sp, #8]
 135 001e 2946     		mov	r1, r5
 136 0020 0096     		str	r6, [sp]
 137 0022 0193     		str	r3, [sp, #4]
 138 0024 0648     		ldr	r0, .L7
 139 0026 FFF7FEFF 		bl	i2cMasterTransmitTimeout
 140              	.LVL11:
 141 002a 0446     		mov	r4, r0
 142              	.LVL12:
 143              		.loc 1 23 0
 144 002c 0448     		ldr	r0, .L7
 145              	.LVL13:
 146 002e FFF7FEFF 		bl	i2cReleaseBus
 147              	.LVL14:
 148              		.loc 1 24 0
 149 0032 14B9     		cbnz	r4, .L5
 150              		.loc 1 27 0
 151 0034 9DF81030 		ldrb	r3, [sp, #16]	@ zero_extendqisi2
 152 0038 3B70     		strb	r3, [r7]
 153              	.L5:
 154              		.loc 1 30 0
 155 003a 2046     		mov	r0, r4
 156 003c 07B0     		add	sp, sp, #28
 157              		@ sp needed
 158 003e F0BD     		pop	{r4, r5, r6, r7, pc}
 159              	.LVL15:
 160              	.L8:
 161              		.align	2
 162              	.L7:
 163 0040 00000000 		.word	I2CD1
 164              		.cfi_endproc
 165              	.LFE119:
 166              		.size	SCCB_Read, .-SCCB_Read
 167 0044 AFF30080 		.text
 167      AFF30080 
 167      AFF30080 
 168              	.Letext0:
ARM GAS  /var/folders/4k/6h5l9jl178sb4hslwv3xp1mr0000gn/T//ccstyvy1.s 			page 4


 169              		.file 2 "/Users/mikevanis/Documents/workspace/gcc-arm-none-eabi-4_8-2014q1/lib/gcc/arm-none-eabi/4
 170              		.file 3 "/Users/mikevanis/Documents/workspace/gcc-arm-none-eabi-4_8-2014q1/arm-none-eabi/include/m
 171              		.file 4 "/Users/mikevanis/Documents/workspace/gcc-arm-none-eabi-4_8-2014q1/arm-none-eabi/include/s
 172              		.file 5 "../ChibiStudio/ChibiOS/os/ports/GCC/ARMCMx/chtypes.h"
 173              		.file 6 "../ChibiStudio/ChibiOS/os/kernel/include/chlists.h"
 174              		.file 7 "../ChibiStudio/ChibiOS/os/kernel/include/chthreads.h"
 175              		.file 8 "../ChibiStudio/ChibiOS/os/ports/GCC/ARMCMx/chcore_v7m.h"
 176              		.file 9 "../ChibiStudio/ChibiOS/os/kernel/include/chmtx.h"
 177              		.file 10 "../ChibiStudio/ChibiOS/os/hal/platforms/STM32F4xx/stm32f4xx.h"
 178              		.file 11 "../ChibiStudio/ChibiOS/os/hal/platforms/STM32F4xx/stm32_dma.h"
 179              		.file 12 "../ChibiStudio/ChibiOS/os/hal/include/i2c.h"
 180              		.file 13 "../ChibiStudio/ChibiOS/os/hal/platforms/STM32/I2Cv1/i2c_lld.h"
 181              		.file 14 "../ChibiStudio/ChibiOS/os/ports/common/ARMCMx/CMSIS/include/core_cm4.h"