ARM GAS  /var/folders/4k/6h5l9jl178sb4hslwv3xp1mr0000gn/T//ccstyvy1.s 			page 1


   1              		.syntax unified
   2              		.cpu cortex-m4
   3              		.fpu softvfp
   4              		.eabi_attribute 20, 1
   5              		.eabi_attribute 21, 1
   6              		.eabi_attribute 23, 3
   7              		.eabi_attribute 24, 1
   8              		.eabi_attribute 25, 1
   9              		.eabi_attribute 26, 1
  10              		.eabi_attribute 30, 2
  11              		.eabi_attribute 34, 1
  12              		.eabi_attribute 18, 4
  13              		.thumb
  14              		.file	"SCCB.c"
  15              		.text
  16              	.Ltext0:
  17              		.cfi_sections	.debug_frame
  18              		.section	.text.SCCB_Write,"ax",%progbits
  19              		.align	2
  20              		.p2align 4,,15
  21              		.global	SCCB_Write
  22              		.thumb
  23              		.thumb_func
  24              		.type	SCCB_Write, %function
  25              	SCCB_Write:
  26              	.LFB118:
  27              		.file 1 "SCCB.c"
  28              		.loc 1 4 0
  29              		.cfi_startproc
  30              		@ args = 0, pretend = 0, frame = 8
  31              		@ frame_needed = 0, uses_anonymous_args = 0
  32              	.LVL0:
  33 0000 70B5     		push	{r4, r5, r6, lr}
  34              		.cfi_def_cfa_offset 16
  35              		.cfi_offset 4, -16
  36              		.cfi_offset 5, -12
  37              		.cfi_offset 6, -8
  38              		.cfi_offset 14, -4
  39              		.loc 1 9 0
  40 0002 104C     		ldr	r4, .L2
  41              		.loc 1 4 0
  42 0004 86B0     		sub	sp, sp, #24
  43              		.cfi_def_cfa_offset 40
  44              		.loc 1 4 0
  45 0006 0646     		mov	r6, r0
  46              		.loc 1 7 0
  47 0008 0025     		movs	r5, #0
  48              		.loc 1 9 0
  49 000a 2046     		mov	r0, r4
  50              	.LVL1:
  51              		.loc 1 6 0
  52 000c 8DF81410 		strb	r1, [sp, #20]
  53 0010 8DF81520 		strb	r2, [sp, #21]
  54              		.loc 1 7 0
  55 0014 8DF81350 		strb	r5, [sp, #19]
  56              		.loc 1 9 0
  57 0018 FFF7FEFF 		bl	i2cAcquireBus
ARM GAS  /var/folders/4k/6h5l9jl178sb4hslwv3xp1mr0000gn/T//ccstyvy1.s 			page 2


  58              	.LVL2:
  59              		.loc 1 10 0
  60 001c 0DF11302 		add	r2, sp, #19
  61 0020 0523     		movs	r3, #5
  62 0022 0195     		str	r5, [sp, #4]
  63 0024 3146     		mov	r1, r6
  64 0026 0092     		str	r2, [sp]
  65 0028 0293     		str	r3, [sp, #8]
  66 002a 05AA     		add	r2, sp, #20
  67 002c 0223     		movs	r3, #2
  68 002e 2046     		mov	r0, r4
  69 0030 FFF7FEFF 		bl	i2cMasterTransmitTimeout
  70              	.LVL3:
  71 0034 0546     		mov	r5, r0
  72              	.LVL4:
  73              		.loc 1 11 0
  74 0036 2046     		mov	r0, r4
  75              	.LVL5:
  76 0038 FFF7FEFF 		bl	i2cReleaseBus
  77              	.LVL6:
  78              		.loc 1 14 0
  79 003c 2846     		mov	r0, r5
  80 003e 06B0     		add	sp, sp, #24
  81              		@ sp needed
  82 0040 70BD     		pop	{r4, r5, r6, pc}
  83              	.LVL7:
  84              	.L3:
  85 0042 00BF     		.align	2
  86              	.L2:
  87 0044 00000000 		.word	I2CD1
  88              		.cfi_endproc
  89              	.LFE118:
  90              		.size	SCCB_Write, .-SCCB_Write
  91 0048 AFF30080 		.section	.text.SCCB_Read,"ax",%progbits
  91      AFF30080 
  92              		.align	2
  93              		.p2align 4,,15
  94              		.global	SCCB_Read
  95              		.thumb
  96              		.thumb_func
  97              		.type	SCCB_Read, %function
  98              	SCCB_Read:
  99              	.LFB119:
 100              		.loc 1 16 0
 101              		.cfi_startproc
 102              		@ args = 0, pretend = 0, frame = 8
 103              		@ frame_needed = 0, uses_anonymous_args = 0
 104              	.LVL8:
 105 0000 F0B5     		push	{r4, r5, r6, r7, lr}
 106              		.cfi_def_cfa_offset 20
 107              		.cfi_offset 4, -20
 108              		.cfi_offset 5, -16
 109              		.cfi_offset 6, -12
 110              		.cfi_offset 7, -8
 111              		.cfi_offset 14, -4
 112 0002 87B0     		sub	sp, sp, #28
 113              		.cfi_def_cfa_offset 48
ARM GAS  /var/folders/4k/6h5l9jl178sb4hslwv3xp1mr0000gn/T//ccstyvy1.s 			page 3


 114              		.loc 1 19 0
 115 0004 06AC     		add	r4, sp, #24
 116              		.loc 1 16 0
 117 0006 0546     		mov	r5, r0
 118              		.loc 1 19 0
 119 0008 04F8041D 		strb	r1, [r4, #-4]!
 120              		.loc 1 21 0
 121 000c 0C48     		ldr	r0, .L7
 122              	.LVL9:
 123              		.loc 1 16 0
 124 000e 1746     		mov	r7, r2
 125              		.loc 1 22 0
 126 0010 04AE     		add	r6, sp, #16
 127              		.loc 1 21 0
 128 0012 FFF7FEFF 		bl	i2cAcquireBus
 129              	.LVL10:
 130              		.loc 1 22 0
 131 0016 0123     		movs	r3, #1
 132 0018 0520     		movs	r0, #5
 133 001a 2246     		mov	r2, r4
 134 001c 0290     		str	r0, [sp, #8]
 135 001e 2946     		mov	r1, r5
 136 0020 0096     		str	r6, [sp]
 137 0022 0193     		str	r3, [sp, #4]
 138 0024 0648     		ldr	r0, .L7
 139 0026 FFF7FEFF 		bl	i2cMasterTransmitTimeout
 140              	.LVL11:
 141 002a 0446     		mov	r4, r0
 142              	.LVL12:
 143              		.loc 1 23 0
 144 002c 0448     		ldr	r0, .L7
 145              	.LVL13:
 146 002e FFF7FEFF 		bl	i2cReleaseBus
 147              	.LVL14:
 148              		.loc 1 24 0
 149 0032 14B9     		cbnz	r4, .L5
 150              		.loc 1 27 0
 151 0034 9DF81030 		ldrb	r3, [sp, #16]	@ zero_extendqisi2
 152 0038 3B70     		strb	r3, [r7]
 153              	.L5:
 154              		.loc 1 30 0
 155 003a 2046     		mov	r0, r4
 156 003c 07B0     		add	sp, sp, #28
 157              		@ sp needed
 158 003e F0BD     		pop	{r4, r5, r6, r7, pc}
 159              	.LVL15:
 160              	.L8:
 161              		.align	2
 162              	.L7:
 163 0040 00000000 		.word	I2CD1
 164              		.cfi_endproc
 165              	.LFE119:
 166              		.size	SCCB_Read, .-SCCB_Read
 167 0044 AFF30080 		.text
 167      AFF30080 
 167      AFF30080 
 168              	.Letext0:
ARM GAS  /var/folders/4k/6h5l9jl178sb4hslwv3xp1mr0000gn/T//ccstyvy1.s 			page 4


 169              		.file 2 "/Users/mikevanis/Documents/workspace/gcc-arm-none-eabi-4_8-2014q1/lib/gcc/arm-none-eabi/4
 170              		.file 3 "/Users/mikevanis/Documents/workspace/gcc-arm-none-eabi-4_8-2014q1/arm-none-eabi/include/m
 171              		.file 4 "/Users/mikevanis/Documents/workspace/gcc-arm-none-eabi-4_8-2014q1/arm-none-eabi/include/s
 172              		.file 5 "../ChibiStudio/ChibiOS/os/ports/GCC/ARMCMx/chtypes.h"
 173              		.file 6 "../ChibiStudio/ChibiOS/os/kernel/include/chlists.h"
 174              		.file 7 "../ChibiStudio/ChibiOS/os/kernel/include/chthreads.h"
 175              		.file 8 "../ChibiStudio/ChibiOS/os/ports/GCC/ARMCMx/chcore_v7m.h"
 176              		.file 9 "../ChibiStudio/ChibiOS/os/kernel/include/chmtx.h"
 177              		.file 10 "../ChibiStudio/ChibiOS/os/hal/platforms/STM32F4xx/stm32f4xx.h"
 178              		.file 11 "../ChibiStudio/ChibiOS/os/hal/platforms/STM32F4xx/stm32_dma.h"
 179              		.file 12 "../ChibiStudio/ChibiOS/os/hal/include/i2c.h"
 180              		.file 13 "../ChibiStudio/ChibiOS/os/hal/platforms/STM32/I2Cv1/i2c_lld.h"
 181              		.file 14 "../ChibiStudio/ChibiOS/os/ports/common/ARMCMx/CMSIS/include/core_cm4.h"
 182              		.section	.debug_info,"",%progbits
 183              	.Ldebug_info0:
 184 0000 77090000 		.4byte	0x977
 185 0004 0400     		.2byte	0x4
 186 0006 00000000 		.4byte	.Ldebug_abbrev0
 187 000a 04       		.byte	0x4
 188 000b 01       		.uleb128 0x1
 189 000c 4F030000 		.4byte	.LASF127
 190 0010 01       		.byte	0x1
 191 0011 93000000 		.4byte	.LASF128
 192 0015 8A040000 		.4byte	.LASF129
 193 0019 00000000 		.4byte	.Ldebug_ranges0+0
 194 001d 00000000 		.4byte	0
 195 0021 00000000 		.4byte	.Ldebug_line0
 196 0025 02       		.uleb128 0x2
 197 0026 04       		.byte	0x4
 198 0027 05       		.byte	0x5
 199 0028 696E7400 		.ascii	"int\000"
 200 002c 03       		.uleb128 0x3
 201 002d 34000000 		.4byte	.LASF2
 202 0031 02       		.byte	0x2
 203 0032 D4       		.byte	0xd4
 204 0033 37000000 		.4byte	0x37
 205 0037 04       		.uleb128 0x4
 206 0038 04       		.byte	0x4
 207 0039 07       		.byte	0x7
 208 003a A2010000 		.4byte	.LASF0
 209 003e 04       		.uleb128 0x4
 210 003f 01       		.byte	0x1
 211 0040 06       		.byte	0x6
 212 0041 DB000000 		.4byte	.LASF1
 213 0045 03       		.uleb128 0x3
 214 0046 42000000 		.4byte	.LASF3
 215 004a 03       		.byte	0x3
 216 004b 1C       		.byte	0x1c
 217 004c 50000000 		.4byte	0x50
 218 0050 04       		.uleb128 0x4
 219 0051 01       		.byte	0x1
 220 0052 08       		.byte	0x8
 221 0053 2E030000 		.4byte	.LASF4
 222 0057 04       		.uleb128 0x4
 223 0058 02       		.byte	0x2
 224 0059 05       		.byte	0x5
 225 005a 2E020000 		.4byte	.LASF5
ARM GAS  /var/folders/4k/6h5l9jl178sb4hslwv3xp1mr0000gn/T//ccstyvy1.s 			page 5


 226 005e 03       		.uleb128 0x3
 227 005f 33050000 		.4byte	.LASF6
 228 0063 03       		.byte	0x3
 229 0064 26       		.byte	0x26
 230 0065 69000000 		.4byte	0x69
 231 0069 04       		.uleb128 0x4
 232 006a 02       		.byte	0x2
 233 006b 07       		.byte	0x7
 234 006c E2010000 		.4byte	.LASF7
 235 0070 03       		.uleb128 0x3
 236 0071 5A050000 		.4byte	.LASF8
 237 0075 03       		.byte	0x3
 238 0076 37       		.byte	0x37
 239 0077 7B000000 		.4byte	0x7b
 240 007b 04       		.uleb128 0x4
 241 007c 04       		.byte	0x4
 242 007d 05       		.byte	0x5
 243 007e 1D010000 		.4byte	.LASF9
 244 0082 03       		.uleb128 0x3
 245 0083 76010000 		.4byte	.LASF10
 246 0087 03       		.byte	0x3
 247 0088 38       		.byte	0x38
 248 0089 8D000000 		.4byte	0x8d
 249 008d 04       		.uleb128 0x4
 250 008e 04       		.byte	0x4
 251 008f 07       		.byte	0x7
 252 0090 03050000 		.4byte	.LASF11
 253 0094 04       		.uleb128 0x4
 254 0095 08       		.byte	0x8
 255 0096 05       		.byte	0x5
 256 0097 CD000000 		.4byte	.LASF12
 257 009b 04       		.uleb128 0x4
 258 009c 08       		.byte	0x8
 259 009d 07       		.byte	0x7
 260 009e 59000000 		.4byte	.LASF13
 261 00a2 03       		.uleb128 0x3
 262 00a3 AF050000 		.4byte	.LASF14
 263 00a7 04       		.byte	0x4
 264 00a8 2A       		.byte	0x2a
 265 00a9 45000000 		.4byte	0x45
 266 00ad 03       		.uleb128 0x3
 267 00ae 0D020000 		.4byte	.LASF15
 268 00b2 04       		.byte	0x4
 269 00b3 36       		.byte	0x36
 270 00b4 5E000000 		.4byte	0x5e
 271 00b8 03       		.uleb128 0x3
 272 00b9 26030000 		.4byte	.LASF16
 273 00bd 04       		.byte	0x4
 274 00be 41       		.byte	0x41
 275 00bf 70000000 		.4byte	0x70
 276 00c3 03       		.uleb128 0x3
 277 00c4 DC040000 		.4byte	.LASF17
 278 00c8 04       		.byte	0x4
 279 00c9 42       		.byte	0x42
 280 00ca 82000000 		.4byte	0x82
 281 00ce 04       		.uleb128 0x4
 282 00cf 01       		.byte	0x1
ARM GAS  /var/folders/4k/6h5l9jl178sb4hslwv3xp1mr0000gn/T//ccstyvy1.s 			page 6


 283 00d0 02       		.byte	0x2
 284 00d1 20030000 		.4byte	.LASF18
 285 00d5 03       		.uleb128 0x3
 286 00d6 05020000 		.4byte	.LASF19
 287 00da 05       		.byte	0x5
 288 00db 2C       		.byte	0x2c
 289 00dc A2000000 		.4byte	0xa2
 290 00e0 03       		.uleb128 0x3
 291 00e1 26010000 		.4byte	.LASF20
 292 00e5 05       		.byte	0x5
 293 00e6 2D       		.byte	0x2d
 294 00e7 A2000000 		.4byte	0xa2
 295 00eb 03       		.uleb128 0x3
 296 00ec 9A020000 		.4byte	.LASF21
 297 00f0 05       		.byte	0x5
 298 00f1 2E       		.byte	0x2e
 299 00f2 A2000000 		.4byte	0xa2
 300 00f6 03       		.uleb128 0x3
 301 00f7 03010000 		.4byte	.LASF22
 302 00fb 05       		.byte	0x5
 303 00fc 2F       		.byte	0x2f
 304 00fd A2000000 		.4byte	0xa2
 305 0101 03       		.uleb128 0x3
 306 0102 F9020000 		.4byte	.LASF23
 307 0106 05       		.byte	0x5
 308 0107 30       		.byte	0x30
 309 0108 C3000000 		.4byte	0xc3
 310 010c 03       		.uleb128 0x3
 311 010d FF010000 		.4byte	.LASF24
 312 0111 05       		.byte	0x5
 313 0112 31       		.byte	0x31
 314 0113 B8000000 		.4byte	0xb8
 315 0117 03       		.uleb128 0x3
 316 0118 22020000 		.4byte	.LASF25
 317 011c 05       		.byte	0x5
 318 011d 33       		.byte	0x33
 319 011e C3000000 		.4byte	0xc3
 320 0122 03       		.uleb128 0x3
 321 0123 45050000 		.4byte	.LASF26
 322 0127 05       		.byte	0x5
 323 0128 35       		.byte	0x35
 324 0129 C3000000 		.4byte	0xc3
 325 012d 03       		.uleb128 0x3
 326 012e 78040000 		.4byte	.LASF27
 327 0132 06       		.byte	0x6
 328 0133 2A       		.byte	0x2a
 329 0134 38010000 		.4byte	0x138
 330 0138 05       		.uleb128 0x5
 331 0139 78040000 		.4byte	.LASF27
 332 013d 48       		.byte	0x48
 333 013e 07       		.byte	0x7
 334 013f 5E       		.byte	0x5e
 335 0140 35020000 		.4byte	0x235
 336 0144 06       		.uleb128 0x6
 337 0145 57040000 		.4byte	.LASF28
 338 0149 07       		.byte	0x7
 339 014a 5F       		.byte	0x5f
ARM GAS  /var/folders/4k/6h5l9jl178sb4hslwv3xp1mr0000gn/T//ccstyvy1.s 			page 7


 340 014b 56020000 		.4byte	0x256
 341 014f 00       		.byte	0
 342 0150 06       		.uleb128 0x6
 343 0151 D4020000 		.4byte	.LASF29
 344 0155 07       		.byte	0x7
 345 0156 61       		.byte	0x61
 346 0157 56020000 		.4byte	0x256
 347 015b 04       		.byte	0x4
 348 015c 06       		.uleb128 0x6
 349 015d AD000000 		.4byte	.LASF30
 350 0161 07       		.byte	0x7
 351 0162 63       		.byte	0x63
 352 0163 01010000 		.4byte	0x101
 353 0167 08       		.byte	0x8
 354 0168 06       		.uleb128 0x6
 355 0169 FF050000 		.4byte	.LASF31
 356 016d 07       		.byte	0x7
 357 016e 64       		.byte	0x64
 358 016f 10030000 		.4byte	0x310
 359 0173 0C       		.byte	0xc
 360 0174 06       		.uleb128 0x6
 361 0175 53010000 		.4byte	.LASF32
 362 0179 07       		.byte	0x7
 363 017a 66       		.byte	0x66
 364 017b 56020000 		.4byte	0x256
 365 017f 10       		.byte	0x10
 366 0180 06       		.uleb128 0x6
 367 0181 5B020000 		.4byte	.LASF33
 368 0185 07       		.byte	0x7
 369 0186 67       		.byte	0x67
 370 0187 56020000 		.4byte	0x256
 371 018b 14       		.byte	0x14
 372 018c 06       		.uleb128 0x6
 373 018d D2050000 		.4byte	.LASF34
 374 0191 07       		.byte	0x7
 375 0192 6E       		.byte	0x6e
 376 0193 B9030000 		.4byte	0x3b9
 377 0197 18       		.byte	0x18
 378 0198 06       		.uleb128 0x6
 379 0199 3E040000 		.4byte	.LASF35
 380 019d 07       		.byte	0x7
 381 019e 79       		.byte	0x79
 382 019f E0000000 		.4byte	0xe0
 383 01a3 1C       		.byte	0x1c
 384 01a4 06       		.uleb128 0x6
 385 01a5 5E040000 		.4byte	.LASF36
 386 01a9 07       		.byte	0x7
 387 01aa 7D       		.byte	0x7d
 388 01ab D5000000 		.4byte	0xd5
 389 01af 1D       		.byte	0x1d
 390 01b0 06       		.uleb128 0x6
 391 01b1 36010000 		.4byte	.LASF37
 392 01b5 07       		.byte	0x7
 393 01b6 82       		.byte	0x82
 394 01b7 EB000000 		.4byte	0xeb
 395 01bb 1E       		.byte	0x1e
 396 01bc 06       		.uleb128 0x6
ARM GAS  /var/folders/4k/6h5l9jl178sb4hslwv3xp1mr0000gn/T//ccstyvy1.s 			page 8


 397 01bd 46040000 		.4byte	.LASF38
 398 01c1 07       		.byte	0x7
 399 01c2 88       		.byte	0x88
 400 01c3 F6000000 		.4byte	0xf6
 401 01c7 1F       		.byte	0x1f
 402 01c8 06       		.uleb128 0x6
 403 01c9 47010000 		.4byte	.LASF39
 404 01cd 07       		.byte	0x7
 405 01ce 8F       		.byte	0x8f
 406 01cf 3D030000 		.4byte	0x33d
 407 01d3 20       		.byte	0x20
 408 01d4 07       		.uleb128 0x7
 409 01d5 705F7500 		.ascii	"p_u\000"
 410 01d9 07       		.byte	0x7
 411 01da B4       		.byte	0xb4
 412 01db 84030000 		.4byte	0x384
 413 01df 24       		.byte	0x24
 414 01e0 06       		.uleb128 0x6
 415 01e1 05060000 		.4byte	.LASF40
 416 01e5 07       		.byte	0x7
 417 01e6 B9       		.byte	0xb9
 418 01e7 7C020000 		.4byte	0x27c
 419 01eb 28       		.byte	0x28
 420 01ec 06       		.uleb128 0x6
 421 01ed BC010000 		.4byte	.LASF41
 422 01f1 07       		.byte	0x7
 423 01f2 BF       		.byte	0xbf
 424 01f3 5C020000 		.4byte	0x25c
 425 01f7 2C       		.byte	0x2c
 426 01f8 06       		.uleb128 0x6
 427 01f9 D9050000 		.4byte	.LASF42
 428 01fd 07       		.byte	0x7
 429 01fe C3       		.byte	0xc3
 430 01ff 0C010000 		.4byte	0x10c
 431 0203 34       		.byte	0x34
 432 0204 06       		.uleb128 0x6
 433 0205 C2040000 		.4byte	.LASF43
 434 0209 07       		.byte	0x7
 435 020a C9       		.byte	0xc9
 436 020b 17010000 		.4byte	0x117
 437 020f 38       		.byte	0x38
 438 0210 06       		.uleb128 0x6
 439 0211 29040000 		.4byte	.LASF44
 440 0215 07       		.byte	0x7
 441 0216 D0       		.byte	0xd0
 442 0217 CB030000 		.4byte	0x3cb
 443 021b 3C       		.byte	0x3c
 444 021c 06       		.uleb128 0x6
 445 021d 4F050000 		.4byte	.LASF45
 446 0221 07       		.byte	0x7
 447 0222 D4       		.byte	0xd4
 448 0223 01010000 		.4byte	0x101
 449 0227 40       		.byte	0x40
 450 0228 06       		.uleb128 0x6
 451 0229 F3000000 		.4byte	.LASF46
 452 022d 07       		.byte	0x7
 453 022e DA       		.byte	0xda
ARM GAS  /var/folders/4k/6h5l9jl178sb4hslwv3xp1mr0000gn/T//ccstyvy1.s 			page 9


 454 022f 92020000 		.4byte	0x292
 455 0233 44       		.byte	0x44
 456 0234 00       		.byte	0
 457 0235 08       		.uleb128 0x8
 458 0236 08       		.byte	0x8
 459 0237 06       		.byte	0x6
 460 0238 61       		.byte	0x61
 461 0239 56020000 		.4byte	0x256
 462 023d 06       		.uleb128 0x6
 463 023e 57040000 		.4byte	.LASF28
 464 0242 06       		.byte	0x6
 465 0243 62       		.byte	0x62
 466 0244 56020000 		.4byte	0x256
 467 0248 00       		.byte	0
 468 0249 06       		.uleb128 0x6
 469 024a D4020000 		.4byte	.LASF29
 470 024e 06       		.byte	0x6
 471 024f 64       		.byte	0x64
 472 0250 56020000 		.4byte	0x256
 473 0254 04       		.byte	0x4
 474 0255 00       		.byte	0
 475 0256 09       		.uleb128 0x9
 476 0257 04       		.byte	0x4
 477 0258 2D010000 		.4byte	0x12d
 478 025c 03       		.uleb128 0x3
 479 025d 63020000 		.4byte	.LASF47
 480 0261 06       		.byte	0x6
 481 0262 66       		.byte	0x66
 482 0263 35020000 		.4byte	0x235
 483 0267 08       		.uleb128 0x8
 484 0268 04       		.byte	0x4
 485 0269 06       		.byte	0x6
 486 026a 6B       		.byte	0x6b
 487 026b 7C020000 		.4byte	0x27c
 488 026f 06       		.uleb128 0x6
 489 0270 57040000 		.4byte	.LASF28
 490 0274 06       		.byte	0x6
 491 0275 6D       		.byte	0x6d
 492 0276 56020000 		.4byte	0x256
 493 027a 00       		.byte	0
 494 027b 00       		.byte	0
 495 027c 03       		.uleb128 0x3
 496 027d 16020000 		.4byte	.LASF48
 497 0281 06       		.byte	0x6
 498 0282 70       		.byte	0x70
 499 0283 67020000 		.4byte	0x267
 500 0287 03       		.uleb128 0x3
 501 0288 81010000 		.4byte	.LASF49
 502 028c 08       		.byte	0x8
 503 028d E5       		.byte	0xe5
 504 028e 92020000 		.4byte	0x292
 505 0292 0A       		.uleb128 0xa
 506 0293 04       		.byte	0x4
 507 0294 0B       		.uleb128 0xb
 508 0295 8E050000 		.4byte	.LASF50
 509 0299 24       		.byte	0x24
 510 029a 08       		.byte	0x8
ARM GAS  /var/folders/4k/6h5l9jl178sb4hslwv3xp1mr0000gn/T//ccstyvy1.s 			page 10


 511 029b 0C01     		.2byte	0x10c
 512 029d 10030000 		.4byte	0x310
 513 02a1 0C       		.uleb128 0xc
 514 02a2 723400   		.ascii	"r4\000"
 515 02a5 08       		.byte	0x8
 516 02a6 1F01     		.2byte	0x11f
 517 02a8 87020000 		.4byte	0x287
 518 02ac 00       		.byte	0
 519 02ad 0C       		.uleb128 0xc
 520 02ae 723500   		.ascii	"r5\000"
 521 02b1 08       		.byte	0x8
 522 02b2 2001     		.2byte	0x120
 523 02b4 87020000 		.4byte	0x287
 524 02b8 04       		.byte	0x4
 525 02b9 0C       		.uleb128 0xc
 526 02ba 723600   		.ascii	"r6\000"
 527 02bd 08       		.byte	0x8
 528 02be 2101     		.2byte	0x121
 529 02c0 87020000 		.4byte	0x287
 530 02c4 08       		.byte	0x8
 531 02c5 0C       		.uleb128 0xc
 532 02c6 723700   		.ascii	"r7\000"
 533 02c9 08       		.byte	0x8
 534 02ca 2201     		.2byte	0x122
 535 02cc 87020000 		.4byte	0x287
 536 02d0 0C       		.byte	0xc
 537 02d1 0C       		.uleb128 0xc
 538 02d2 723800   		.ascii	"r8\000"
 539 02d5 08       		.byte	0x8
 540 02d6 2301     		.2byte	0x123
 541 02d8 87020000 		.4byte	0x287
 542 02dc 10       		.byte	0x10
 543 02dd 0C       		.uleb128 0xc
 544 02de 723900   		.ascii	"r9\000"
 545 02e1 08       		.byte	0x8
 546 02e2 2401     		.2byte	0x124
 547 02e4 87020000 		.4byte	0x287
 548 02e8 14       		.byte	0x14
 549 02e9 0C       		.uleb128 0xc
 550 02ea 72313000 		.ascii	"r10\000"
 551 02ee 08       		.byte	0x8
 552 02ef 2501     		.2byte	0x125
 553 02f1 87020000 		.4byte	0x287
 554 02f5 18       		.byte	0x18
 555 02f6 0C       		.uleb128 0xc
 556 02f7 72313100 		.ascii	"r11\000"
 557 02fb 08       		.byte	0x8
 558 02fc 2601     		.2byte	0x126
 559 02fe 87020000 		.4byte	0x287
 560 0302 1C       		.byte	0x1c
 561 0303 0C       		.uleb128 0xc
 562 0304 6C7200   		.ascii	"lr\000"
 563 0307 08       		.byte	0x8
 564 0308 2701     		.2byte	0x127
 565 030a 87020000 		.4byte	0x287
 566 030e 20       		.byte	0x20
 567 030f 00       		.byte	0
ARM GAS  /var/folders/4k/6h5l9jl178sb4hslwv3xp1mr0000gn/T//ccstyvy1.s 			page 11


 568 0310 0B       		.uleb128 0xb
 569 0311 86050000 		.4byte	.LASF51
 570 0315 04       		.byte	0x4
 571 0316 08       		.byte	0x8
 572 0317 3101     		.2byte	0x131
 573 0319 2B030000 		.4byte	0x32b
 574 031d 0C       		.uleb128 0xc
 575 031e 72313300 		.ascii	"r13\000"
 576 0322 08       		.byte	0x8
 577 0323 3201     		.2byte	0x132
 578 0325 2B030000 		.4byte	0x32b
 579 0329 00       		.byte	0
 580 032a 00       		.byte	0
 581 032b 09       		.uleb128 0x9
 582 032c 04       		.byte	0x4
 583 032d 94020000 		.4byte	0x294
 584 0331 0D       		.uleb128 0xd
 585 0332 C3000000 		.4byte	0xc3
 586 0336 04       		.uleb128 0x4
 587 0337 04       		.byte	0x4
 588 0338 07       		.byte	0x7
 589 0339 41020000 		.4byte	.LASF52
 590 033d 0D       		.uleb128 0xd
 591 033e 22010000 		.4byte	0x122
 592 0342 05       		.uleb128 0x5
 593 0343 4A020000 		.4byte	.LASF53
 594 0347 10       		.byte	0x10
 595 0348 09       		.byte	0x9
 596 0349 2C       		.byte	0x2c
 597 034a 73030000 		.4byte	0x373
 598 034e 06       		.uleb128 0x6
 599 034f FB000000 		.4byte	.LASF54
 600 0353 09       		.byte	0x9
 601 0354 2D       		.byte	0x2d
 602 0355 5C020000 		.4byte	0x25c
 603 0359 00       		.byte	0
 604 035a 06       		.uleb128 0x6
 605 035b F7050000 		.4byte	.LASF55
 606 035f 09       		.byte	0x9
 607 0360 2F       		.byte	0x2f
 608 0361 56020000 		.4byte	0x256
 609 0365 08       		.byte	0x8
 610 0366 06       		.uleb128 0x6
 611 0367 3E050000 		.4byte	.LASF56
 612 036b 09       		.byte	0x9
 613 036c 31       		.byte	0x31
 614 036d 73030000 		.4byte	0x373
 615 0371 0C       		.byte	0xc
 616 0372 00       		.byte	0
 617 0373 09       		.uleb128 0x9
 618 0374 04       		.byte	0x4
 619 0375 42030000 		.4byte	0x342
 620 0379 03       		.uleb128 0x3
 621 037a 4A020000 		.4byte	.LASF53
 622 037e 09       		.byte	0x9
 623 037f 33       		.byte	0x33
 624 0380 42030000 		.4byte	0x342
ARM GAS  /var/folders/4k/6h5l9jl178sb4hslwv3xp1mr0000gn/T//ccstyvy1.s 			page 12


 625 0384 0E       		.uleb128 0xe
 626 0385 04       		.byte	0x4
 627 0386 07       		.byte	0x7
 628 0387 96       		.byte	0x96
 629 0388 B9030000 		.4byte	0x3b9
 630 038c 0F       		.uleb128 0xf
 631 038d 3B000000 		.4byte	.LASF57
 632 0391 07       		.byte	0x7
 633 0392 9D       		.byte	0x9d
 634 0393 0C010000 		.4byte	0x10c
 635 0397 0F       		.uleb128 0xf
 636 0398 75000000 		.4byte	.LASF58
 637 039c 07       		.byte	0x7
 638 039d A4       		.byte	0xa4
 639 039e 0C010000 		.4byte	0x10c
 640 03a2 0F       		.uleb128 0xf
 641 03a3 CB050000 		.4byte	.LASF59
 642 03a7 07       		.byte	0x7
 643 03a8 AB       		.byte	0xab
 644 03a9 92020000 		.4byte	0x292
 645 03ad 0F       		.uleb128 0xf
 646 03ae 50040000 		.4byte	.LASF60
 647 03b2 07       		.byte	0x7
 648 03b3 B2       		.byte	0xb2
 649 03b4 17010000 		.4byte	0x117
 650 03b8 00       		.byte	0
 651 03b9 09       		.uleb128 0x9
 652 03ba 04       		.byte	0x4
 653 03bb BF030000 		.4byte	0x3bf
 654 03bf 10       		.uleb128 0x10
 655 03c0 C4030000 		.4byte	0x3c4
 656 03c4 04       		.uleb128 0x4
 657 03c5 01       		.byte	0x1
 658 03c6 08       		.byte	0x8
 659 03c7 15050000 		.4byte	.LASF61
 660 03cb 09       		.uleb128 0x9
 661 03cc 04       		.byte	0x4
 662 03cd 79030000 		.4byte	0x379
 663 03d1 09       		.uleb128 0x9
 664 03d2 04       		.byte	0x4
 665 03d3 A2000000 		.4byte	0xa2
 666 03d7 09       		.uleb128 0x9
 667 03d8 04       		.byte	0x4
 668 03d9 DD030000 		.4byte	0x3dd
 669 03dd 10       		.uleb128 0x10
 670 03de A2000000 		.4byte	0xa2
 671 03e2 0D       		.uleb128 0xd
 672 03e3 AD000000 		.4byte	0xad
 673 03e7 0D       		.uleb128 0xd
 674 03e8 B8000000 		.4byte	0xb8
 675 03ec 11       		.uleb128 0x11
 676 03ed 18       		.byte	0x18
 677 03ee 0A       		.byte	0xa
 678 03ef B102     		.2byte	0x2b1
 679 03f1 43040000 		.4byte	0x443
 680 03f5 0C       		.uleb128 0xc
 681 03f6 435200   		.ascii	"CR\000"
ARM GAS  /var/folders/4k/6h5l9jl178sb4hslwv3xp1mr0000gn/T//ccstyvy1.s 			page 13


 682 03f9 0A       		.byte	0xa
 683 03fa B302     		.2byte	0x2b3
 684 03fc 31030000 		.4byte	0x331
 685 0400 00       		.byte	0
 686 0401 12       		.uleb128 0x12
 687 0402 64050000 		.4byte	.LASF62
 688 0406 0A       		.byte	0xa
 689 0407 B402     		.2byte	0x2b4
 690 0409 31030000 		.4byte	0x331
 691 040d 04       		.byte	0x4
 692 040e 0C       		.uleb128 0xc
 693 040f 50415200 		.ascii	"PAR\000"
 694 0413 0A       		.byte	0xa
 695 0414 B502     		.2byte	0x2b5
 696 0416 31030000 		.4byte	0x331
 697 041a 08       		.byte	0x8
 698 041b 12       		.uleb128 0x12
 699 041c 2F000000 		.4byte	.LASF63
 700 0420 0A       		.byte	0xa
 701 0421 B602     		.2byte	0x2b6
 702 0423 31030000 		.4byte	0x331
 703 0427 0C       		.byte	0xc
 704 0428 12       		.uleb128 0x12
 705 0429 95050000 		.4byte	.LASF64
 706 042d 0A       		.byte	0xa
 707 042e B702     		.2byte	0x2b7
 708 0430 31030000 		.4byte	0x331
 709 0434 10       		.byte	0x10
 710 0435 0C       		.uleb128 0xc
 711 0436 46435200 		.ascii	"FCR\000"
 712 043a 0A       		.byte	0xa
 713 043b B802     		.2byte	0x2b8
 714 043d 31030000 		.4byte	0x331
 715 0441 14       		.byte	0x14
 716 0442 00       		.byte	0
 717 0443 13       		.uleb128 0x13
 718 0444 73050000 		.4byte	.LASF65
 719 0448 0A       		.byte	0xa
 720 0449 B902     		.2byte	0x2b9
 721 044b EC030000 		.4byte	0x3ec
 722 044f 11       		.uleb128 0x11
 723 0450 28       		.byte	0x28
 724 0451 0A       		.byte	0xa
 725 0452 F603     		.2byte	0x3f6
 726 0454 5C050000 		.4byte	0x55c
 727 0458 0C       		.uleb128 0xc
 728 0459 43523100 		.ascii	"CR1\000"
 729 045d 0A       		.byte	0xa
 730 045e F803     		.2byte	0x3f8
 731 0460 E2030000 		.4byte	0x3e2
 732 0464 00       		.byte	0
 733 0465 12       		.uleb128 0x12
 734 0466 A2020000 		.4byte	.LASF66
 735 046a 0A       		.byte	0xa
 736 046b F903     		.2byte	0x3f9
 737 046d AD000000 		.4byte	0xad
 738 0471 02       		.byte	0x2
ARM GAS  /var/folders/4k/6h5l9jl178sb4hslwv3xp1mr0000gn/T//ccstyvy1.s 			page 14


 739 0472 0C       		.uleb128 0xc
 740 0473 43523200 		.ascii	"CR2\000"
 741 0477 0A       		.byte	0xa
 742 0478 FA03     		.2byte	0x3fa
 743 047a E2030000 		.4byte	0x3e2
 744 047e 04       		.byte	0x4
 745 047f 12       		.uleb128 0x12
 746 0480 AC020000 		.4byte	.LASF67
 747 0484 0A       		.byte	0xa
 748 0485 FB03     		.2byte	0x3fb
 749 0487 AD000000 		.4byte	0xad
 750 048b 06       		.byte	0x6
 751 048c 12       		.uleb128 0x12
 752 048d C1050000 		.4byte	.LASF68
 753 0491 0A       		.byte	0xa
 754 0492 FC03     		.2byte	0x3fc
 755 0494 E2030000 		.4byte	0x3e2
 756 0498 08       		.byte	0x8
 757 0499 12       		.uleb128 0x12
 758 049a B6020000 		.4byte	.LASF69
 759 049e 0A       		.byte	0xa
 760 049f FD03     		.2byte	0x3fd
 761 04a1 AD000000 		.4byte	0xad
 762 04a5 0A       		.byte	0xa
 763 04a6 12       		.uleb128 0x12
 764 04a7 C6050000 		.4byte	.LASF70
 765 04ab 0A       		.byte	0xa
 766 04ac FE03     		.2byte	0x3fe
 767 04ae E2030000 		.4byte	0x3e2
 768 04b2 0C       		.byte	0xc
 769 04b3 12       		.uleb128 0x12
 770 04b4 C0020000 		.4byte	.LASF71
 771 04b8 0A       		.byte	0xa
 772 04b9 FF03     		.2byte	0x3ff
 773 04bb AD000000 		.4byte	0xad
 774 04bf 0E       		.byte	0xe
 775 04c0 0C       		.uleb128 0xc
 776 04c1 445200   		.ascii	"DR\000"
 777 04c4 0A       		.byte	0xa
 778 04c5 0004     		.2byte	0x400
 779 04c7 E2030000 		.4byte	0x3e2
 780 04cb 10       		.byte	0x10
 781 04cc 12       		.uleb128 0x12
 782 04cd CA020000 		.4byte	.LASF72
 783 04d1 0A       		.byte	0xa
 784 04d2 0104     		.2byte	0x401
 785 04d4 AD000000 		.4byte	0xad
 786 04d8 12       		.byte	0x12
 787 04d9 0C       		.uleb128 0xc
 788 04da 53523100 		.ascii	"SR1\000"
 789 04de 0A       		.byte	0xa
 790 04df 0204     		.2byte	0x402
 791 04e1 E2030000 		.4byte	0x3e2
 792 04e5 14       		.byte	0x14
 793 04e6 12       		.uleb128 0x12
 794 04e7 D2040000 		.4byte	.LASF73
 795 04eb 0A       		.byte	0xa
ARM GAS  /var/folders/4k/6h5l9jl178sb4hslwv3xp1mr0000gn/T//ccstyvy1.s 			page 15


 796 04ec 0304     		.2byte	0x403
 797 04ee AD000000 		.4byte	0xad
 798 04f2 16       		.byte	0x16
 799 04f3 0C       		.uleb128 0xc
 800 04f4 53523200 		.ascii	"SR2\000"
 801 04f8 0A       		.byte	0xa
 802 04f9 0404     		.2byte	0x404
 803 04fb E2030000 		.4byte	0x3e2
 804 04ff 18       		.byte	0x18
 805 0500 12       		.uleb128 0x12
 806 0501 DB020000 		.4byte	.LASF74
 807 0505 0A       		.byte	0xa
 808 0506 0504     		.2byte	0x405
 809 0508 AD000000 		.4byte	0xad
 810 050c 1A       		.byte	0x1a
 811 050d 0C       		.uleb128 0xc
 812 050e 43435200 		.ascii	"CCR\000"
 813 0512 0A       		.byte	0xa
 814 0513 0604     		.2byte	0x406
 815 0515 E2030000 		.4byte	0x3e2
 816 0519 1C       		.byte	0x1c
 817 051a 12       		.uleb128 0x12
 818 051b E5020000 		.4byte	.LASF75
 819 051f 0A       		.byte	0xa
 820 0520 0704     		.2byte	0x407
 821 0522 AD000000 		.4byte	0xad
 822 0526 1E       		.byte	0x1e
 823 0527 12       		.uleb128 0x12
 824 0528 4C000000 		.4byte	.LASF76
 825 052c 0A       		.byte	0xa
 826 052d 0804     		.2byte	0x408
 827 052f E2030000 		.4byte	0x3e2
 828 0533 20       		.byte	0x20
 829 0534 12       		.uleb128 0x12
 830 0535 EF020000 		.4byte	.LASF77
 831 0539 0A       		.byte	0xa
 832 053a 0904     		.2byte	0x409
 833 053c AD000000 		.4byte	0xad
 834 0540 22       		.byte	0x22
 835 0541 12       		.uleb128 0x12
 836 0542 4E010000 		.4byte	.LASF78
 837 0546 0A       		.byte	0xa
 838 0547 0A04     		.2byte	0x40a
 839 0549 E2030000 		.4byte	0x3e2
 840 054d 24       		.byte	0x24
 841 054e 12       		.uleb128 0x12
 842 054f E5040000 		.4byte	.LASF79
 843 0553 0A       		.byte	0xa
 844 0554 0B04     		.2byte	0x40b
 845 0556 AD000000 		.4byte	0xad
 846 055a 26       		.byte	0x26
 847 055b 00       		.byte	0
 848 055c 13       		.uleb128 0x13
 849 055d DF050000 		.4byte	.LASF80
 850 0561 0A       		.byte	0xa
 851 0562 0C04     		.2byte	0x40c
 852 0564 4F040000 		.4byte	0x44f
ARM GAS  /var/folders/4k/6h5l9jl178sb4hslwv3xp1mr0000gn/T//ccstyvy1.s 			page 16


 853 0568 08       		.uleb128 0x8
 854 0569 0C       		.byte	0xc
 855 056a 0B       		.byte	0xb
 856 056b DA       		.byte	0xda
 857 056c AD050000 		.4byte	0x5ad
 858 0570 06       		.uleb128 0x6
 859 0571 52000000 		.4byte	.LASF81
 860 0575 0B       		.byte	0xb
 861 0576 DB       		.byte	0xdb
 862 0577 AD050000 		.4byte	0x5ad
 863 057b 00       		.byte	0
 864 057c 06       		.uleb128 0x6
 865 057d CD040000 		.4byte	.LASF82
 866 0581 0B       		.byte	0xb
 867 0582 DC       		.byte	0xdc
 868 0583 B3050000 		.4byte	0x5b3
 869 0587 04       		.byte	0x4
 870 0588 06       		.uleb128 0x6
 871 0589 C7010000 		.4byte	.LASF83
 872 058d 0B       		.byte	0xb
 873 058e DD       		.byte	0xdd
 874 058f A2000000 		.4byte	0xa2
 875 0593 08       		.byte	0x8
 876 0594 06       		.uleb128 0x6
 877 0595 8A010000 		.4byte	.LASF84
 878 0599 0B       		.byte	0xb
 879 059a DF       		.byte	0xdf
 880 059b A2000000 		.4byte	0xa2
 881 059f 09       		.byte	0x9
 882 05a0 06       		.uleb128 0x6
 883 05a1 7E000000 		.4byte	.LASF85
 884 05a5 0B       		.byte	0xb
 885 05a6 E0       		.byte	0xe0
 886 05a7 A2000000 		.4byte	0xa2
 887 05ab 0A       		.byte	0xa
 888 05ac 00       		.byte	0
 889 05ad 09       		.uleb128 0x9
 890 05ae 04       		.byte	0x4
 891 05af 43040000 		.4byte	0x443
 892 05b3 09       		.uleb128 0x9
 893 05b4 04       		.byte	0x4
 894 05b5 31030000 		.4byte	0x331
 895 05b9 03       		.uleb128 0x3
 896 05ba 3C030000 		.4byte	.LASF86
 897 05be 0B       		.byte	0xb
 898 05bf E1       		.byte	0xe1
 899 05c0 68050000 		.4byte	0x568
 900 05c4 09       		.uleb128 0x9
 901 05c5 04       		.byte	0x4
 902 05c6 CA050000 		.4byte	0x5ca
 903 05ca 10       		.uleb128 0x10
 904 05cb B9050000 		.4byte	0x5b9
 905 05cf 14       		.uleb128 0x14
 906 05d0 01       		.byte	0x1
 907 05d1 0C       		.byte	0xc
 908 05d2 5A       		.byte	0x5a
 909 05d3 FC050000 		.4byte	0x5fc
ARM GAS  /var/folders/4k/6h5l9jl178sb4hslwv3xp1mr0000gn/T//ccstyvy1.s 			page 17


 910 05d7 15       		.uleb128 0x15
 911 05d8 33040000 		.4byte	.LASF87
 912 05dc 00       		.sleb128 0
 913 05dd 15       		.uleb128 0x15
 914 05de 38020000 		.4byte	.LASF88
 915 05e2 01       		.sleb128 1
 916 05e3 15       		.uleb128 0x15
 917 05e4 69050000 		.4byte	.LASF89
 918 05e8 02       		.sleb128 2
 919 05e9 15       		.uleb128 0x15
 920 05ea 01030000 		.4byte	.LASF90
 921 05ee 03       		.sleb128 3
 922 05ef 15       		.uleb128 0x15
 923 05f0 F5040000 		.4byte	.LASF91
 924 05f4 04       		.sleb128 4
 925 05f5 15       		.uleb128 0x15
 926 05f6 7F040000 		.4byte	.LASF92
 927 05fa 05       		.sleb128 5
 928 05fb 00       		.byte	0
 929 05fc 03       		.uleb128 0x3
 930 05fd 24000000 		.4byte	.LASF93
 931 0601 0C       		.byte	0xc
 932 0602 61       		.byte	0x61
 933 0603 CF050000 		.4byte	0x5cf
 934 0607 13       		.uleb128 0x13
 935 0608 0D010000 		.4byte	.LASF94
 936 060c 0D       		.byte	0xd
 937 060d 3501     		.2byte	0x135
 938 060f AD000000 		.4byte	0xad
 939 0613 13       		.uleb128 0x13
 940 0614 0F030000 		.4byte	.LASF95
 941 0618 0D       		.byte	0xd
 942 0619 3A01     		.2byte	0x13a
 943 061b C3000000 		.4byte	0xc3
 944 061f 16       		.uleb128 0x16
 945 0620 01       		.byte	0x1
 946 0621 0D       		.byte	0xd
 947 0622 3F01     		.2byte	0x13f
 948 0624 3B060000 		.4byte	0x63b
 949 0628 15       		.uleb128 0x15
 950 0629 7A020000 		.4byte	.LASF96
 951 062d 01       		.sleb128 1
 952 062e 15       		.uleb128 0x15
 953 062f CE010000 		.4byte	.LASF97
 954 0633 02       		.sleb128 2
 955 0634 15       		.uleb128 0x15
 956 0635 1A050000 		.4byte	.LASF98
 957 0639 03       		.sleb128 3
 958 063a 00       		.byte	0
 959 063b 13       		.uleb128 0x13
 960 063c EB050000 		.4byte	.LASF99
 961 0640 0D       		.byte	0xd
 962 0641 4301     		.2byte	0x143
 963 0643 1F060000 		.4byte	0x61f
 964 0647 16       		.uleb128 0x16
 965 0648 01       		.byte	0x1
 966 0649 0D       		.byte	0xd
ARM GAS  /var/folders/4k/6h5l9jl178sb4hslwv3xp1mr0000gn/T//ccstyvy1.s 			page 18


 967 064a 4801     		.2byte	0x148
 968 064c 63060000 		.4byte	0x663
 969 0650 15       		.uleb128 0x15
 970 0651 00000000 		.4byte	.LASF100
 971 0655 01       		.sleb128 1
 972 0656 15       		.uleb128 0x15
 973 0657 66040000 		.4byte	.LASF101
 974 065b 02       		.sleb128 2
 975 065c 15       		.uleb128 0x15
 976 065d 85020000 		.4byte	.LASF102
 977 0661 03       		.sleb128 3
 978 0662 00       		.byte	0
 979 0663 13       		.uleb128 0x13
 980 0664 15000000 		.4byte	.LASF103
 981 0668 0D       		.byte	0xd
 982 0669 4C01     		.2byte	0x14c
 983 066b 47060000 		.4byte	0x647
 984 066f 11       		.uleb128 0x11
 985 0670 0C       		.byte	0xc
 986 0671 0D       		.byte	0xd
 987 0672 5101     		.2byte	0x151
 988 0674 A0060000 		.4byte	0x6a0
 989 0678 12       		.uleb128 0x12
 990 0679 94010000 		.4byte	.LASF104
 991 067d 0D       		.byte	0xd
 992 067e 5201     		.2byte	0x152
 993 0680 3B060000 		.4byte	0x63b
 994 0684 00       		.byte	0
 995 0685 12       		.uleb128 0x12
 996 0686 E7000000 		.4byte	.LASF105
 997 068a 0D       		.byte	0xd
 998 068b 5301     		.2byte	0x153
 999 068d C3000000 		.4byte	0xc3
 1000 0691 04       		.byte	0x4
 1001 0692 12       		.uleb128 0x12
 1002 0693 50020000 		.4byte	.LASF106
 1003 0697 0D       		.byte	0xd
 1004 0698 5601     		.2byte	0x156
 1005 069a 63060000 		.4byte	0x663
 1006 069e 08       		.byte	0x8
 1007 069f 00       		.byte	0
 1008 06a0 13       		.uleb128 0x13
 1009 06a1 3D010000 		.4byte	.LASF107
 1010 06a5 0D       		.byte	0xd
 1011 06a6 5801     		.2byte	0x158
 1012 06a8 6F060000 		.4byte	0x66f
 1013 06ac 13       		.uleb128 0x13
 1014 06ad F5010000 		.4byte	.LASF108
 1015 06b1 0D       		.byte	0xd
 1016 06b2 5D01     		.2byte	0x15d
 1017 06b4 B8060000 		.4byte	0x6b8
 1018 06b8 0B       		.uleb128 0xb
 1019 06b9 F5010000 		.4byte	.LASF108
 1020 06bd 38       		.byte	0x38
 1021 06be 0D       		.byte	0xd
 1022 06bf 6201     		.2byte	0x162
 1023 06c1 55070000 		.4byte	0x755
ARM GAS  /var/folders/4k/6h5l9jl178sb4hslwv3xp1mr0000gn/T//ccstyvy1.s 			page 19


 1024 06c5 12       		.uleb128 0x12
 1025 06c6 17010000 		.4byte	.LASF109
 1026 06ca 0D       		.byte	0xd
 1027 06cb 6601     		.2byte	0x166
 1028 06cd FC050000 		.4byte	0x5fc
 1029 06d1 00       		.byte	0
 1030 06d2 12       		.uleb128 0x12
 1031 06d3 2C050000 		.4byte	.LASF110
 1032 06d7 0D       		.byte	0xd
 1033 06d8 6A01     		.2byte	0x16a
 1034 06da 55070000 		.4byte	0x755
 1035 06de 04       		.byte	0x4
 1036 06df 12       		.uleb128 0x12
 1037 06e0 B5010000 		.4byte	.LASF111
 1038 06e4 0D       		.byte	0xd
 1039 06e5 6E01     		.2byte	0x16e
 1040 06e7 13060000 		.4byte	0x613
 1041 06eb 08       		.byte	0x8
 1042 06ec 12       		.uleb128 0x12
 1043 06ed 1A030000 		.4byte	.LASF112
 1044 06f1 0D       		.byte	0xd
 1045 06f2 7401     		.2byte	0x174
 1046 06f4 79030000 		.4byte	0x379
 1047 06f8 0C       		.byte	0xc
 1048 06f9 12       		.uleb128 0x12
 1049 06fa 2F010000 		.4byte	.LASF113
 1050 06fe 0D       		.byte	0xd
 1051 06ff 8001     		.2byte	0x180
 1052 0701 56020000 		.4byte	0x256
 1053 0705 1C       		.byte	0x1c
 1054 0706 12       		.uleb128 0x12
 1055 0707 70000000 		.4byte	.LASF114
 1056 070b 0D       		.byte	0xd
 1057 070c 8401     		.2byte	0x184
 1058 070e 07060000 		.4byte	0x607
 1059 0712 20       		.byte	0x20
 1060 0713 12       		.uleb128 0x12
 1061 0714 5B010000 		.4byte	.LASF115
 1062 0718 0D       		.byte	0xd
 1063 0719 8801     		.2byte	0x188
 1064 071b C3000000 		.4byte	0xc3
 1065 071f 24       		.byte	0x24
 1066 0720 12       		.uleb128 0x12
 1067 0721 70020000 		.4byte	.LASF116
 1068 0725 0D       		.byte	0xd
 1069 0726 8C01     		.2byte	0x18c
 1070 0728 C3000000 		.4byte	0xc3
 1071 072c 28       		.byte	0x28
 1072 072d 12       		.uleb128 0x12
 1073 072e 0F000000 		.4byte	.LASF117
 1074 0732 0D       		.byte	0xd
 1075 0733 9001     		.2byte	0x190
 1076 0735 C4050000 		.4byte	0x5c4
 1077 0739 2C       		.byte	0x2c
 1078 073a 12       		.uleb128 0x12
 1079 073b 65010000 		.4byte	.LASF118
 1080 073f 0D       		.byte	0xd
ARM GAS  /var/folders/4k/6h5l9jl178sb4hslwv3xp1mr0000gn/T//ccstyvy1.s 			page 20


 1081 0740 9401     		.2byte	0x194
 1082 0742 C4050000 		.4byte	0x5c4
 1083 0746 30       		.byte	0x30
 1084 0747 0C       		.uleb128 0xc
 1085 0748 69326300 		.ascii	"i2c\000"
 1086 074c 0D       		.byte	0xd
 1087 074d 9801     		.2byte	0x198
 1088 074f 60070000 		.4byte	0x760
 1089 0753 34       		.byte	0x34
 1090 0754 00       		.byte	0
 1091 0755 09       		.uleb128 0x9
 1092 0756 04       		.byte	0x4
 1093 0757 5B070000 		.4byte	0x75b
 1094 075b 10       		.uleb128 0x10
 1095 075c A0060000 		.4byte	0x6a0
 1096 0760 09       		.uleb128 0x9
 1097 0761 04       		.byte	0x4
 1098 0762 5C050000 		.4byte	0x55c
 1099 0766 17       		.uleb128 0x17
 1100 0767 6B010000 		.4byte	.LASF123
 1101 076b 01       		.byte	0x1
 1102 076c 04       		.byte	0x4
 1103 076d 0C010000 		.4byte	0x10c
 1104 0771 00000000 		.4byte	.LFB118
 1105 0775 48000000 		.4byte	.LFE118-.LFB118
 1106 0779 01       		.uleb128 0x1
 1107 077a 9C       		.byte	0x9c
 1108 077b 35080000 		.4byte	0x835
 1109 077f 18       		.uleb128 0x18
 1110 0780 70000000 		.4byte	.LASF114
 1111 0784 01       		.byte	0x1
 1112 0785 04       		.byte	0x4
 1113 0786 DD030000 		.4byte	0x3dd
 1114 078a 00000000 		.4byte	.LLST0
 1115 078e 19       		.uleb128 0x19
 1116 078f 72656700 		.ascii	"reg\000"
 1117 0793 01       		.byte	0x1
 1118 0794 04       		.byte	0x4
 1119 0795 DD030000 		.4byte	0x3dd
 1120 0799 21000000 		.4byte	.LLST1
 1121 079d 18       		.uleb128 0x18
 1122 079e 9C010000 		.4byte	.LASF119
 1123 07a2 01       		.byte	0x1
 1124 07a3 04       		.byte	0x4
 1125 07a4 DD030000 		.4byte	0x3dd
 1126 07a8 42000000 		.4byte	.LLST2
 1127 07ac 1A       		.uleb128 0x1a
 1128 07ad A8050000 		.4byte	.LASF120
 1129 07b1 01       		.byte	0x1
 1130 07b2 05       		.byte	0x5
 1131 07b3 0C010000 		.4byte	0x10c
 1132 07b7 63000000 		.4byte	.LLST3
 1133 07bb 1B       		.uleb128 0x1b
 1134 07bc AF010000 		.4byte	.LASF121
 1135 07c0 01       		.byte	0x1
 1136 07c1 06       		.byte	0x6
 1137 07c2 35080000 		.4byte	0x835
ARM GAS  /var/folders/4k/6h5l9jl178sb4hslwv3xp1mr0000gn/T//ccstyvy1.s 			page 21


 1138 07c6 02       		.uleb128 0x2
 1139 07c7 91       		.byte	0x91
 1140 07c8 6C       		.sleb128 -20
 1141 07c9 1B       		.uleb128 0x1b
 1142 07ca A7000000 		.4byte	.LASF122
 1143 07ce 01       		.byte	0x1
 1144 07cf 07       		.byte	0x7
 1145 07d0 A2000000 		.4byte	0xa2
 1146 07d4 02       		.uleb128 0x2
 1147 07d5 91       		.byte	0x91
 1148 07d6 6B       		.sleb128 -21
 1149 07d7 1C       		.uleb128 0x1c
 1150 07d8 1C000000 		.4byte	.LVL2
 1151 07dc 23090000 		.4byte	0x923
 1152 07e0 EB070000 		.4byte	0x7eb
 1153 07e4 1D       		.uleb128 0x1d
 1154 07e5 01       		.uleb128 0x1
 1155 07e6 50       		.byte	0x50
 1156 07e7 02       		.uleb128 0x2
 1157 07e8 74       		.byte	0x74
 1158 07e9 00       		.sleb128 0
 1159 07ea 00       		.byte	0
 1160 07eb 1C       		.uleb128 0x1c
 1161 07ec 34000000 		.4byte	.LVL3
 1162 07f0 3A090000 		.4byte	0x93a
 1163 07f4 24080000 		.4byte	0x824
 1164 07f8 1D       		.uleb128 0x1d
 1165 07f9 01       		.uleb128 0x1
 1166 07fa 53       		.byte	0x53
 1167 07fb 01       		.uleb128 0x1
 1168 07fc 32       		.byte	0x32
 1169 07fd 1D       		.uleb128 0x1d
 1170 07fe 01       		.uleb128 0x1
 1171 07ff 52       		.byte	0x52
 1172 0800 02       		.uleb128 0x2
 1173 0801 91       		.byte	0x91
 1174 0802 6C       		.sleb128 -20
 1175 0803 1D       		.uleb128 0x1d
 1176 0804 01       		.uleb128 0x1
 1177 0805 51       		.byte	0x51
 1178 0806 02       		.uleb128 0x2
 1179 0807 76       		.byte	0x76
 1180 0808 00       		.sleb128 0
 1181 0809 1D       		.uleb128 0x1d
 1182 080a 01       		.uleb128 0x1
 1183 080b 50       		.byte	0x50
 1184 080c 02       		.uleb128 0x2
 1185 080d 74       		.byte	0x74
 1186 080e 00       		.sleb128 0
 1187 080f 1D       		.uleb128 0x1d
 1188 0810 02       		.uleb128 0x2
 1189 0811 7D       		.byte	0x7d
 1190 0812 08       		.sleb128 8
 1191 0813 01       		.uleb128 0x1
 1192 0814 35       		.byte	0x35
 1193 0815 1D       		.uleb128 0x1d
 1194 0816 02       		.uleb128 0x2
ARM GAS  /var/folders/4k/6h5l9jl178sb4hslwv3xp1mr0000gn/T//ccstyvy1.s 			page 22


 1195 0817 7D       		.byte	0x7d
 1196 0818 04       		.sleb128 4
 1197 0819 02       		.uleb128 0x2
 1198 081a 75       		.byte	0x75
 1199 081b 00       		.sleb128 0
 1200 081c 1D       		.uleb128 0x1d
 1201 081d 02       		.uleb128 0x2
 1202 081e 7D       		.byte	0x7d
 1203 081f 00       		.sleb128 0
 1204 0820 02       		.uleb128 0x2
 1205 0821 91       		.byte	0x91
 1206 0822 6B       		.sleb128 -21
 1207 0823 00       		.byte	0
 1208 0824 1E       		.uleb128 0x1e
 1209 0825 3C000000 		.4byte	.LVL6
 1210 0829 6D090000 		.4byte	0x96d
 1211 082d 1D       		.uleb128 0x1d
 1212 082e 01       		.uleb128 0x1
 1213 082f 50       		.byte	0x50
 1214 0830 02       		.uleb128 0x2
 1215 0831 74       		.byte	0x74
 1216 0832 00       		.sleb128 0
 1217 0833 00       		.byte	0
 1218 0834 00       		.byte	0
 1219 0835 1F       		.uleb128 0x1f
 1220 0836 A2000000 		.4byte	0xa2
 1221 083a 45080000 		.4byte	0x845
 1222 083e 20       		.uleb128 0x20
 1223 083f 36030000 		.4byte	0x336
 1224 0843 01       		.byte	0x1
 1225 0844 00       		.byte	0
 1226 0845 17       		.uleb128 0x17
 1227 0846 B7050000 		.4byte	.LASF124
 1228 084a 01       		.byte	0x1
 1229 084b 10       		.byte	0x10
 1230 084c 0C010000 		.4byte	0x10c
 1231 0850 00000000 		.4byte	.LFB119
 1232 0854 44000000 		.4byte	.LFE119-.LFB119
 1233 0858 01       		.uleb128 0x1
 1234 0859 9C       		.byte	0x9c
 1235 085a FB080000 		.4byte	0x8fb
 1236 085e 18       		.uleb128 0x18
 1237 085f 70000000 		.4byte	.LASF114
 1238 0863 01       		.byte	0x1
 1239 0864 10       		.byte	0x10
 1240 0865 DD030000 		.4byte	0x3dd
 1241 0869 8C000000 		.4byte	.LLST4
 1242 086d 19       		.uleb128 0x19
 1243 086e 72656700 		.ascii	"reg\000"
 1244 0872 01       		.byte	0x1
 1245 0873 10       		.byte	0x10
 1246 0874 DD030000 		.4byte	0x3dd
 1247 0878 AD000000 		.4byte	.LLST5
 1248 087c 18       		.uleb128 0x18
 1249 087d 9C010000 		.4byte	.LASF119
 1250 0881 01       		.byte	0x1
 1251 0882 10       		.byte	0x10
ARM GAS  /var/folders/4k/6h5l9jl178sb4hslwv3xp1mr0000gn/T//ccstyvy1.s 			page 23


 1252 0883 D1030000 		.4byte	0x3d1
 1253 0887 CE000000 		.4byte	.LLST6
 1254 088b 1A       		.uleb128 0x1a
 1255 088c A8050000 		.4byte	.LASF120
 1256 0890 01       		.byte	0x1
 1257 0891 11       		.byte	0x11
 1258 0892 0C010000 		.4byte	0x10c
 1259 0896 FA000000 		.4byte	.LLST7
 1260 089a 1B       		.uleb128 0x1b
 1261 089b A7000000 		.4byte	.LASF122
 1262 089f 01       		.byte	0x1
 1263 08a0 12       		.byte	0x12
 1264 08a1 FB080000 		.4byte	0x8fb
 1265 08a5 02       		.uleb128 0x2
 1266 08a6 91       		.byte	0x91
 1267 08a7 60       		.sleb128 -32
 1268 08a8 1B       		.uleb128 0x1b
 1269 08a9 AF010000 		.4byte	.LASF121
 1270 08ad 01       		.byte	0x1
 1271 08ae 13       		.byte	0x13
 1272 08af FB080000 		.4byte	0x8fb
 1273 08b3 02       		.uleb128 0x2
 1274 08b4 91       		.byte	0x91
 1275 08b5 64       		.sleb128 -28
 1276 08b6 21       		.uleb128 0x21
 1277 08b7 16000000 		.4byte	.LVL10
 1278 08bb 23090000 		.4byte	0x923
 1279 08bf 1C       		.uleb128 0x1c
 1280 08c0 2A000000 		.4byte	.LVL11
 1281 08c4 3A090000 		.4byte	0x93a
 1282 08c8 F1080000 		.4byte	0x8f1
 1283 08cc 1D       		.uleb128 0x1d
 1284 08cd 01       		.uleb128 0x1
 1285 08ce 53       		.byte	0x53
 1286 08cf 01       		.uleb128 0x1
 1287 08d0 31       		.byte	0x31
 1288 08d1 1D       		.uleb128 0x1d
 1289 08d2 01       		.uleb128 0x1
 1290 08d3 52       		.byte	0x52
 1291 08d4 02       		.uleb128 0x2
 1292 08d5 74       		.byte	0x74
 1293 08d6 00       		.sleb128 0
 1294 08d7 1D       		.uleb128 0x1d
 1295 08d8 01       		.uleb128 0x1
 1296 08d9 51       		.byte	0x51
 1297 08da 02       		.uleb128 0x2
 1298 08db 75       		.byte	0x75
 1299 08dc 00       		.sleb128 0
 1300 08dd 1D       		.uleb128 0x1d
 1301 08de 02       		.uleb128 0x2
 1302 08df 7D       		.byte	0x7d
 1303 08e0 08       		.sleb128 8
 1304 08e1 01       		.uleb128 0x1
 1305 08e2 35       		.byte	0x35
 1306 08e3 1D       		.uleb128 0x1d
 1307 08e4 02       		.uleb128 0x2
 1308 08e5 7D       		.byte	0x7d
ARM GAS  /var/folders/4k/6h5l9jl178sb4hslwv3xp1mr0000gn/T//ccstyvy1.s 			page 24


 1309 08e6 04       		.sleb128 4
 1310 08e7 01       		.uleb128 0x1
 1311 08e8 31       		.byte	0x31
 1312 08e9 1D       		.uleb128 0x1d
 1313 08ea 02       		.uleb128 0x2
 1314 08eb 7D       		.byte	0x7d
 1315 08ec 00       		.sleb128 0
 1316 08ed 02       		.uleb128 0x2
 1317 08ee 76       		.byte	0x76
 1318 08ef 00       		.sleb128 0
 1319 08f0 00       		.byte	0
 1320 08f1 21       		.uleb128 0x21
 1321 08f2 32000000 		.4byte	.LVL14
 1322 08f6 6D090000 		.4byte	0x96d
 1323 08fa 00       		.byte	0
 1324 08fb 1F       		.uleb128 0x1f
 1325 08fc A2000000 		.4byte	0xa2
 1326 0900 0B090000 		.4byte	0x90b
 1327 0904 20       		.uleb128 0x20
 1328 0905 36030000 		.4byte	0x336
 1329 0909 00       		.byte	0
 1330 090a 00       		.byte	0
 1331 090b 22       		.uleb128 0x22
 1332 090c 9A000000 		.4byte	.LASF125
 1333 0910 0E       		.byte	0xe
 1334 0911 9806     		.2byte	0x698
 1335 0913 E7030000 		.4byte	0x3e7
 1336 0917 22       		.uleb128 0x22
 1337 0918 EF040000 		.4byte	.LASF126
 1338 091c 0D       		.byte	0xd
 1339 091d AE01     		.2byte	0x1ae
 1340 091f AC060000 		.4byte	0x6ac
 1341 0923 23       		.uleb128 0x23
 1342 0924 9A050000 		.4byte	.LASF130
 1343 0928 0C       		.byte	0xc
 1344 0929 8E       		.byte	0x8e
 1345 092a 34090000 		.4byte	0x934
 1346 092e 24       		.uleb128 0x24
 1347 092f 34090000 		.4byte	0x934
 1348 0933 00       		.byte	0
 1349 0934 09       		.uleb128 0x9
 1350 0935 04       		.byte	0x4
 1351 0936 AC060000 		.4byte	0x6ac
 1352 093a 25       		.uleb128 0x25
 1353 093b B4000000 		.4byte	.LASF131
 1354 093f 0C       		.byte	0xc
 1355 0940 84       		.byte	0x84
 1356 0941 0C010000 		.4byte	0x10c
 1357 0945 6D090000 		.4byte	0x96d
 1358 0949 24       		.uleb128 0x24
 1359 094a 34090000 		.4byte	0x934
 1360 094e 24       		.uleb128 0x24
 1361 094f 07060000 		.4byte	0x607
 1362 0953 24       		.uleb128 0x24
 1363 0954 D7030000 		.4byte	0x3d7
 1364 0958 24       		.uleb128 0x24
 1365 0959 2C000000 		.4byte	0x2c
ARM GAS  /var/folders/4k/6h5l9jl178sb4hslwv3xp1mr0000gn/T//ccstyvy1.s 			page 25


 1366 095d 24       		.uleb128 0x24
 1367 095e D1030000 		.4byte	0x3d1
 1368 0962 24       		.uleb128 0x24
 1369 0963 2C000000 		.4byte	0x2c
 1370 0967 24       		.uleb128 0x24
 1371 0968 22010000 		.4byte	0x122
 1372 096c 00       		.byte	0
 1373 096d 26       		.uleb128 0x26
 1374 096e 85000000 		.4byte	.LASF132
 1375 0972 0C       		.byte	0xc
 1376 0973 8F       		.byte	0x8f
 1377 0974 24       		.uleb128 0x24
 1378 0975 34090000 		.4byte	0x934
 1379 0979 00       		.byte	0
 1380 097a 00       		.byte	0
 1381              		.section	.debug_abbrev,"",%progbits
 1382              	.Ldebug_abbrev0:
 1383 0000 01       		.uleb128 0x1
 1384 0001 11       		.uleb128 0x11
 1385 0002 01       		.byte	0x1
 1386 0003 25       		.uleb128 0x25
 1387 0004 0E       		.uleb128 0xe
 1388 0005 13       		.uleb128 0x13
 1389 0006 0B       		.uleb128 0xb
 1390 0007 03       		.uleb128 0x3
 1391 0008 0E       		.uleb128 0xe
 1392 0009 1B       		.uleb128 0x1b
 1393 000a 0E       		.uleb128 0xe
 1394 000b 55       		.uleb128 0x55
 1395 000c 17       		.uleb128 0x17
 1396 000d 11       		.uleb128 0x11
 1397 000e 01       		.uleb128 0x1
 1398 000f 10       		.uleb128 0x10
 1399 0010 17       		.uleb128 0x17
 1400 0011 00       		.byte	0
 1401 0012 00       		.byte	0
 1402 0013 02       		.uleb128 0x2
 1403 0014 24       		.uleb128 0x24
 1404 0015 00       		.byte	0
 1405 0016 0B       		.uleb128 0xb
 1406 0017 0B       		.uleb128 0xb
 1407 0018 3E       		.uleb128 0x3e
 1408 0019 0B       		.uleb128 0xb
 1409 001a 03       		.uleb128 0x3
 1410 001b 08       		.uleb128 0x8
 1411 001c 00       		.byte	0
 1412 001d 00       		.byte	0
 1413 001e 03       		.uleb128 0x3
 1414 001f 16       		.uleb128 0x16
 1415 0020 00       		.byte	0
 1416 0021 03       		.uleb128 0x3
 1417 0022 0E       		.uleb128 0xe
 1418 0023 3A       		.uleb128 0x3a
 1419 0024 0B       		.uleb128 0xb
 1420 0025 3B       		.uleb128 0x3b
 1421 0026 0B       		.uleb128 0xb
 1422 0027 49       		.uleb128 0x49
ARM GAS  /var/folders/4k/6h5l9jl178sb4hslwv3xp1mr0000gn/T//ccstyvy1.s 			page 26


 1423 0028 13       		.uleb128 0x13
 1424 0029 00       		.byte	0
 1425 002a 00       		.byte	0
 1426 002b 04       		.uleb128 0x4
 1427 002c 24       		.uleb128 0x24
 1428 002d 00       		.byte	0
 1429 002e 0B       		.uleb128 0xb
 1430 002f 0B       		.uleb128 0xb
 1431 0030 3E       		.uleb128 0x3e
 1432 0031 0B       		.uleb128 0xb
 1433 0032 03       		.uleb128 0x3
 1434 0033 0E       		.uleb128 0xe
 1435 0034 00       		.byte	0
 1436 0035 00       		.byte	0
 1437 0036 05       		.uleb128 0x5
 1438 0037 13       		.uleb128 0x13
 1439 0038 01       		.byte	0x1
 1440 0039 03       		.uleb128 0x3
 1441 003a 0E       		.uleb128 0xe
 1442 003b 0B       		.uleb128 0xb
 1443 003c 0B       		.uleb128 0xb
 1444 003d 3A       		.uleb128 0x3a
 1445 003e 0B       		.uleb128 0xb
 1446 003f 3B       		.uleb128 0x3b
 1447 0040 0B       		.uleb128 0xb
 1448 0041 01       		.uleb128 0x1
 1449 0042 13       		.uleb128 0x13
 1450 0043 00       		.byte	0
 1451 0044 00       		.byte	0
 1452 0045 06       		.uleb128 0x6
 1453 0046 0D       		.uleb128 0xd
 1454 0047 00       		.byte	0
 1455 0048 03       		.uleb128 0x3
 1456 0049 0E       		.uleb128 0xe
 1457 004a 3A       		.uleb128 0x3a
 1458 004b 0B       		.uleb128 0xb
 1459 004c 3B       		.uleb128 0x3b
 1460 004d 0B       		.uleb128 0xb
 1461 004e 49       		.uleb128 0x49
 1462 004f 13       		.uleb128 0x13
 1463 0050 38       		.uleb128 0x38
 1464 0051 0B       		.uleb128 0xb
 1465 0052 00       		.byte	0
 1466 0053 00       		.byte	0
 1467 0054 07       		.uleb128 0x7
 1468 0055 0D       		.uleb128 0xd
 1469 0056 00       		.byte	0
 1470 0057 03       		.uleb128 0x3
 1471 0058 08       		.uleb128 0x8
 1472 0059 3A       		.uleb128 0x3a
 1473 005a 0B       		.uleb128 0xb
 1474 005b 3B       		.uleb128 0x3b
 1475 005c 0B       		.uleb128 0xb
 1476 005d 49       		.uleb128 0x49
 1477 005e 13       		.uleb128 0x13
 1478 005f 38       		.uleb128 0x38
 1479 0060 0B       		.uleb128 0xb
ARM GAS  /var/folders/4k/6h5l9jl178sb4hslwv3xp1mr0000gn/T//ccstyvy1.s 			page 27


 1480 0061 00       		.byte	0
 1481 0062 00       		.byte	0
 1482 0063 08       		.uleb128 0x8
 1483 0064 13       		.uleb128 0x13
 1484 0065 01       		.byte	0x1
 1485 0066 0B       		.uleb128 0xb
 1486 0067 0B       		.uleb128 0xb
 1487 0068 3A       		.uleb128 0x3a
 1488 0069 0B       		.uleb128 0xb
 1489 006a 3B       		.uleb128 0x3b
 1490 006b 0B       		.uleb128 0xb
 1491 006c 01       		.uleb128 0x1
 1492 006d 13       		.uleb128 0x13
 1493 006e 00       		.byte	0
 1494 006f 00       		.byte	0
 1495 0070 09       		.uleb128 0x9
 1496 0071 0F       		.uleb128 0xf
 1497 0072 00       		.byte	0
 1498 0073 0B       		.uleb128 0xb
 1499 0074 0B       		.uleb128 0xb
 1500 0075 49       		.uleb128 0x49
 1501 0076 13       		.uleb128 0x13
 1502 0077 00       		.byte	0
 1503 0078 00       		.byte	0
 1504 0079 0A       		.uleb128 0xa
 1505 007a 0F       		.uleb128 0xf
 1506 007b 00       		.byte	0
 1507 007c 0B       		.uleb128 0xb
 1508 007d 0B       		.uleb128 0xb
 1509 007e 00       		.byte	0
 1510 007f 00       		.byte	0
 1511 0080 0B       		.uleb128 0xb
 1512 0081 13       		.uleb128 0x13
 1513 0082 01       		.byte	0x1
 1514 0083 03       		.uleb128 0x3
 1515 0084 0E       		.uleb128 0xe
 1516 0085 0B       		.uleb128 0xb
 1517 0086 0B       		.uleb128 0xb
 1518 0087 3A       		.uleb128 0x3a
 1519 0088 0B       		.uleb128 0xb
 1520 0089 3B       		.uleb128 0x3b
 1521 008a 05       		.uleb128 0x5
 1522 008b 01       		.uleb128 0x1
 1523 008c 13       		.uleb128 0x13
 1524 008d 00       		.byte	0
 1525 008e 00       		.byte	0
 1526 008f 0C       		.uleb128 0xc
 1527 0090 0D       		.uleb128 0xd
 1528 0091 00       		.byte	0
 1529 0092 03       		.uleb128 0x3
 1530 0093 08       		.uleb128 0x8
 1531 0094 3A       		.uleb128 0x3a
 1532 0095 0B       		.uleb128 0xb
 1533 0096 3B       		.uleb128 0x3b
 1534 0097 05       		.uleb128 0x5
 1535 0098 49       		.uleb128 0x49
 1536 0099 13       		.uleb128 0x13
ARM GAS  /var/folders/4k/6h5l9jl178sb4hslwv3xp1mr0000gn/T//ccstyvy1.s 			page 28


 1537 009a 38       		.uleb128 0x38
 1538 009b 0B       		.uleb128 0xb
 1539 009c 00       		.byte	0
 1540 009d 00       		.byte	0
 1541 009e 0D       		.uleb128 0xd
 1542 009f 35       		.uleb128 0x35
 1543 00a0 00       		.byte	0
 1544 00a1 49       		.uleb128 0x49
 1545 00a2 13       		.uleb128 0x13
 1546 00a3 00       		.byte	0
 1547 00a4 00       		.byte	0
 1548 00a5 0E       		.uleb128 0xe
 1549 00a6 17       		.uleb128 0x17
 1550 00a7 01       		.byte	0x1
 1551 00a8 0B       		.uleb128 0xb
 1552 00a9 0B       		.uleb128 0xb
 1553 00aa 3A       		.uleb128 0x3a
 1554 00ab 0B       		.uleb128 0xb
 1555 00ac 3B       		.uleb128 0x3b
 1556 00ad 0B       		.uleb128 0xb
 1557 00ae 01       		.uleb128 0x1
 1558 00af 13       		.uleb128 0x13
 1559 00b0 00       		.byte	0
 1560 00b1 00       		.byte	0
 1561 00b2 0F       		.uleb128 0xf
 1562 00b3 0D       		.uleb128 0xd
 1563 00b4 00       		.byte	0
 1564 00b5 03       		.uleb128 0x3
 1565 00b6 0E       		.uleb128 0xe
 1566 00b7 3A       		.uleb128 0x3a
 1567 00b8 0B       		.uleb128 0xb
 1568 00b9 3B       		.uleb128 0x3b
 1569 00ba 0B       		.uleb128 0xb
 1570 00bb 49       		.uleb128 0x49
 1571 00bc 13       		.uleb128 0x13
 1572 00bd 00       		.byte	0
 1573 00be 00       		.byte	0
 1574 00bf 10       		.uleb128 0x10
 1575 00c0 26       		.uleb128 0x26
 1576 00c1 00       		.byte	0
 1577 00c2 49       		.uleb128 0x49
 1578 00c3 13       		.uleb128 0x13
 1579 00c4 00       		.byte	0
 1580 00c5 00       		.byte	0
 1581 00c6 11       		.uleb128 0x11
 1582 00c7 13       		.uleb128 0x13
 1583 00c8 01       		.byte	0x1
 1584 00c9 0B       		.uleb128 0xb
 1585 00ca 0B       		.uleb128 0xb
 1586 00cb 3A       		.uleb128 0x3a
 1587 00cc 0B       		.uleb128 0xb
 1588 00cd 3B       		.uleb128 0x3b
 1589 00ce 05       		.uleb128 0x5
 1590 00cf 01       		.uleb128 0x1
 1591 00d0 13       		.uleb128 0x13
 1592 00d1 00       		.byte	0
 1593 00d2 00       		.byte	0
ARM GAS  /var/folders/4k/6h5l9jl178sb4hslwv3xp1mr0000gn/T//ccstyvy1.s 			page 29


 1594 00d3 12       		.uleb128 0x12
 1595 00d4 0D       		.uleb128 0xd
 1596 00d5 00       		.byte	0
 1597 00d6 03       		.uleb128 0x3
 1598 00d7 0E       		.uleb128 0xe
 1599 00d8 3A       		.uleb128 0x3a
 1600 00d9 0B       		.uleb128 0xb
 1601 00da 3B       		.uleb128 0x3b
 1602 00db 05       		.uleb128 0x5
 1603 00dc 49       		.uleb128 0x49
 1604 00dd 13       		.uleb128 0x13
 1605 00de 38       		.uleb128 0x38
 1606 00df 0B       		.uleb128 0xb
 1607 00e0 00       		.byte	0
 1608 00e1 00       		.byte	0
 1609 00e2 13       		.uleb128 0x13
 1610 00e3 16       		.uleb128 0x16
 1611 00e4 00       		.byte	0
 1612 00e5 03       		.uleb128 0x3
 1613 00e6 0E       		.uleb128 0xe
 1614 00e7 3A       		.uleb128 0x3a
 1615 00e8 0B       		.uleb128 0xb
 1616 00e9 3B       		.uleb128 0x3b
 1617 00ea 05       		.uleb128 0x5
 1618 00eb 49       		.uleb128 0x49
 1619 00ec 13       		.uleb128 0x13
 1620 00ed 00       		.byte	0
 1621 00ee 00       		.byte	0
 1622 00ef 14       		.uleb128 0x14
 1623 00f0 04       		.uleb128 0x4
 1624 00f1 01       		.byte	0x1
 1625 00f2 0B       		.uleb128 0xb
 1626 00f3 0B       		.uleb128 0xb
 1627 00f4 3A       		.uleb128 0x3a
 1628 00f5 0B       		.uleb128 0xb
 1629 00f6 3B       		.uleb128 0x3b
 1630 00f7 0B       		.uleb128 0xb
 1631 00f8 01       		.uleb128 0x1
 1632 00f9 13       		.uleb128 0x13
 1633 00fa 00       		.byte	0
 1634 00fb 00       		.byte	0
 1635 00fc 15       		.uleb128 0x15
 1636 00fd 28       		.uleb128 0x28
 1637 00fe 00       		.byte	0
 1638 00ff 03       		.uleb128 0x3
 1639 0100 0E       		.uleb128 0xe
 1640 0101 1C       		.uleb128 0x1c
 1641 0102 0D       		.uleb128 0xd
 1642 0103 00       		.byte	0
 1643 0104 00       		.byte	0
 1644 0105 16       		.uleb128 0x16
 1645 0106 04       		.uleb128 0x4
 1646 0107 01       		.byte	0x1
 1647 0108 0B       		.uleb128 0xb
 1648 0109 0B       		.uleb128 0xb
 1649 010a 3A       		.uleb128 0x3a
 1650 010b 0B       		.uleb128 0xb
ARM GAS  /var/folders/4k/6h5l9jl178sb4hslwv3xp1mr0000gn/T//ccstyvy1.s 			page 30


 1651 010c 3B       		.uleb128 0x3b
 1652 010d 05       		.uleb128 0x5
 1653 010e 01       		.uleb128 0x1
 1654 010f 13       		.uleb128 0x13
 1655 0110 00       		.byte	0
 1656 0111 00       		.byte	0
 1657 0112 17       		.uleb128 0x17
 1658 0113 2E       		.uleb128 0x2e
 1659 0114 01       		.byte	0x1
 1660 0115 3F       		.uleb128 0x3f
 1661 0116 19       		.uleb128 0x19
 1662 0117 03       		.uleb128 0x3
 1663 0118 0E       		.uleb128 0xe
 1664 0119 3A       		.uleb128 0x3a
 1665 011a 0B       		.uleb128 0xb
 1666 011b 3B       		.uleb128 0x3b
 1667 011c 0B       		.uleb128 0xb
 1668 011d 27       		.uleb128 0x27
 1669 011e 19       		.uleb128 0x19
 1670 011f 49       		.uleb128 0x49
 1671 0120 13       		.uleb128 0x13
 1672 0121 11       		.uleb128 0x11
 1673 0122 01       		.uleb128 0x1
 1674 0123 12       		.uleb128 0x12
 1675 0124 06       		.uleb128 0x6
 1676 0125 40       		.uleb128 0x40
 1677 0126 18       		.uleb128 0x18
 1678 0127 9742     		.uleb128 0x2117
 1679 0129 19       		.uleb128 0x19
 1680 012a 01       		.uleb128 0x1
 1681 012b 13       		.uleb128 0x13
 1682 012c 00       		.byte	0
 1683 012d 00       		.byte	0
 1684 012e 18       		.uleb128 0x18
 1685 012f 05       		.uleb128 0x5
 1686 0130 00       		.byte	0
 1687 0131 03       		.uleb128 0x3
 1688 0132 0E       		.uleb128 0xe
 1689 0133 3A       		.uleb128 0x3a
 1690 0134 0B       		.uleb128 0xb
 1691 0135 3B       		.uleb128 0x3b
 1692 0136 0B       		.uleb128 0xb
 1693 0137 49       		.uleb128 0x49
 1694 0138 13       		.uleb128 0x13
 1695 0139 02       		.uleb128 0x2
 1696 013a 17       		.uleb128 0x17
 1697 013b 00       		.byte	0
 1698 013c 00       		.byte	0
 1699 013d 19       		.uleb128 0x19
 1700 013e 05       		.uleb128 0x5
 1701 013f 00       		.byte	0
 1702 0140 03       		.uleb128 0x3
 1703 0141 08       		.uleb128 0x8
 1704 0142 3A       		.uleb128 0x3a
 1705 0143 0B       		.uleb128 0xb
 1706 0144 3B       		.uleb128 0x3b
 1707 0145 0B       		.uleb128 0xb
ARM GAS  /var/folders/4k/6h5l9jl178sb4hslwv3xp1mr0000gn/T//ccstyvy1.s 			page 31


 1708 0146 49       		.uleb128 0x49
 1709 0147 13       		.uleb128 0x13
 1710 0148 02       		.uleb128 0x2
 1711 0149 17       		.uleb128 0x17
 1712 014a 00       		.byte	0
 1713 014b 00       		.byte	0
 1714 014c 1A       		.uleb128 0x1a
 1715 014d 34       		.uleb128 0x34
 1716 014e 00       		.byte	0
 1717 014f 03       		.uleb128 0x3
 1718 0150 0E       		.uleb128 0xe
 1719 0151 3A       		.uleb128 0x3a
 1720 0152 0B       		.uleb128 0xb
 1721 0153 3B       		.uleb128 0x3b
 1722 0154 0B       		.uleb128 0xb
 1723 0155 49       		.uleb128 0x49
 1724 0156 13       		.uleb128 0x13
 1725 0157 02       		.uleb128 0x2
 1726 0158 17       		.uleb128 0x17
 1727 0159 00       		.byte	0
 1728 015a 00       		.byte	0
 1729 015b 1B       		.uleb128 0x1b
 1730 015c 34       		.uleb128 0x34
 1731 015d 00       		.byte	0
 1732 015e 03       		.uleb128 0x3
 1733 015f 0E       		.uleb128 0xe
 1734 0160 3A       		.uleb128 0x3a
 1735 0161 0B       		.uleb128 0xb
 1736 0162 3B       		.uleb128 0x3b
 1737 0163 0B       		.uleb128 0xb
 1738 0164 49       		.uleb128 0x49
 1739 0165 13       		.uleb128 0x13
 1740 0166 02       		.uleb128 0x2
 1741 0167 18       		.uleb128 0x18
 1742 0168 00       		.byte	0
 1743 0169 00       		.byte	0
 1744 016a 1C       		.uleb128 0x1c
 1745 016b 898201   		.uleb128 0x4109
 1746 016e 01       		.byte	0x1
 1747 016f 11       		.uleb128 0x11
 1748 0170 01       		.uleb128 0x1
 1749 0171 31       		.uleb128 0x31
 1750 0172 13       		.uleb128 0x13
 1751 0173 01       		.uleb128 0x1
 1752 0174 13       		.uleb128 0x13
 1753 0175 00       		.byte	0
 1754 0176 00       		.byte	0
 1755 0177 1D       		.uleb128 0x1d
 1756 0178 8A8201   		.uleb128 0x410a
 1757 017b 00       		.byte	0
 1758 017c 02       		.uleb128 0x2
 1759 017d 18       		.uleb128 0x18
 1760 017e 9142     		.uleb128 0x2111
 1761 0180 18       		.uleb128 0x18
 1762 0181 00       		.byte	0
 1763 0182 00       		.byte	0
 1764 0183 1E       		.uleb128 0x1e
ARM GAS  /var/folders/4k/6h5l9jl178sb4hslwv3xp1mr0000gn/T//ccstyvy1.s 			page 32


 1765 0184 898201   		.uleb128 0x4109
 1766 0187 01       		.byte	0x1
 1767 0188 11       		.uleb128 0x11
 1768 0189 01       		.uleb128 0x1
 1769 018a 31       		.uleb128 0x31
 1770 018b 13       		.uleb128 0x13
 1771 018c 00       		.byte	0
 1772 018d 00       		.byte	0
 1773 018e 1F       		.uleb128 0x1f
 1774 018f 01       		.uleb128 0x1
 1775 0190 01       		.byte	0x1
 1776 0191 49       		.uleb128 0x49
 1777 0192 13       		.uleb128 0x13
 1778 0193 01       		.uleb128 0x1
 1779 0194 13       		.uleb128 0x13
 1780 0195 00       		.byte	0
 1781 0196 00       		.byte	0
 1782 0197 20       		.uleb128 0x20
 1783 0198 21       		.uleb128 0x21
 1784 0199 00       		.byte	0
 1785 019a 49       		.uleb128 0x49
 1786 019b 13       		.uleb128 0x13
 1787 019c 2F       		.uleb128 0x2f
 1788 019d 0B       		.uleb128 0xb
 1789 019e 00       		.byte	0
 1790 019f 00       		.byte	0
 1791 01a0 21       		.uleb128 0x21
 1792 01a1 898201   		.uleb128 0x4109
 1793 01a4 00       		.byte	0
 1794 01a5 11       		.uleb128 0x11
 1795 01a6 01       		.uleb128 0x1
 1796 01a7 31       		.uleb128 0x31
 1797 01a8 13       		.uleb128 0x13
 1798 01a9 00       		.byte	0
 1799 01aa 00       		.byte	0
 1800 01ab 22       		.uleb128 0x22
 1801 01ac 34       		.uleb128 0x34
 1802 01ad 00       		.byte	0
 1803 01ae 03       		.uleb128 0x3
 1804 01af 0E       		.uleb128 0xe
 1805 01b0 3A       		.uleb128 0x3a
 1806 01b1 0B       		.uleb128 0xb
 1807 01b2 3B       		.uleb128 0x3b
 1808 01b3 05       		.uleb128 0x5
 1809 01b4 49       		.uleb128 0x49
 1810 01b5 13       		.uleb128 0x13
 1811 01b6 3F       		.uleb128 0x3f
 1812 01b7 19       		.uleb128 0x19
 1813 01b8 3C       		.uleb128 0x3c
 1814 01b9 19       		.uleb128 0x19
 1815 01ba 00       		.byte	0
 1816 01bb 00       		.byte	0
 1817 01bc 23       		.uleb128 0x23
 1818 01bd 2E       		.uleb128 0x2e
 1819 01be 01       		.byte	0x1
 1820 01bf 3F       		.uleb128 0x3f
 1821 01c0 19       		.uleb128 0x19
ARM GAS  /var/folders/4k/6h5l9jl178sb4hslwv3xp1mr0000gn/T//ccstyvy1.s 			page 33


 1822 01c1 03       		.uleb128 0x3
 1823 01c2 0E       		.uleb128 0xe
 1824 01c3 3A       		.uleb128 0x3a
 1825 01c4 0B       		.uleb128 0xb
 1826 01c5 3B       		.uleb128 0x3b
 1827 01c6 0B       		.uleb128 0xb
 1828 01c7 27       		.uleb128 0x27
 1829 01c8 19       		.uleb128 0x19
 1830 01c9 3C       		.uleb128 0x3c
 1831 01ca 19       		.uleb128 0x19
 1832 01cb 01       		.uleb128 0x1
 1833 01cc 13       		.uleb128 0x13
 1834 01cd 00       		.byte	0
 1835 01ce 00       		.byte	0
 1836 01cf 24       		.uleb128 0x24
 1837 01d0 05       		.uleb128 0x5
 1838 01d1 00       		.byte	0
 1839 01d2 49       		.uleb128 0x49
 1840 01d3 13       		.uleb128 0x13
 1841 01d4 00       		.byte	0
 1842 01d5 00       		.byte	0
 1843 01d6 25       		.uleb128 0x25
 1844 01d7 2E       		.uleb128 0x2e
 1845 01d8 01       		.byte	0x1
 1846 01d9 3F       		.uleb128 0x3f
 1847 01da 19       		.uleb128 0x19
 1848 01db 03       		.uleb128 0x3
 1849 01dc 0E       		.uleb128 0xe
 1850 01dd 3A       		.uleb128 0x3a
 1851 01de 0B       		.uleb128 0xb
 1852 01df 3B       		.uleb128 0x3b
 1853 01e0 0B       		.uleb128 0xb
 1854 01e1 27       		.uleb128 0x27
 1855 01e2 19       		.uleb128 0x19
 1856 01e3 49       		.uleb128 0x49
 1857 01e4 13       		.uleb128 0x13
 1858 01e5 3C       		.uleb128 0x3c
 1859 01e6 19       		.uleb128 0x19
 1860 01e7 01       		.uleb128 0x1
 1861 01e8 13       		.uleb128 0x13
 1862 01e9 00       		.byte	0
 1863 01ea 00       		.byte	0
 1864 01eb 26       		.uleb128 0x26
 1865 01ec 2E       		.uleb128 0x2e
 1866 01ed 01       		.byte	0x1
 1867 01ee 3F       		.uleb128 0x3f
 1868 01ef 19       		.uleb128 0x19
 1869 01f0 03       		.uleb128 0x3
 1870 01f1 0E       		.uleb128 0xe
 1871 01f2 3A       		.uleb128 0x3a
 1872 01f3 0B       		.uleb128 0xb
 1873 01f4 3B       		.uleb128 0x3b
 1874 01f5 0B       		.uleb128 0xb
 1875 01f6 27       		.uleb128 0x27
 1876 01f7 19       		.uleb128 0x19
 1877 01f8 3C       		.uleb128 0x3c
 1878 01f9 19       		.uleb128 0x19
ARM GAS  /var/folders/4k/6h5l9jl178sb4hslwv3xp1mr0000gn/T//ccstyvy1.s 			page 34


 1879 01fa 00       		.byte	0
 1880 01fb 00       		.byte	0
 1881 01fc 00       		.byte	0
 1882              		.section	.debug_loc,"",%progbits
 1883              	.Ldebug_loc0:
 1884              	.LLST0:
 1885 0000 00000000 		.4byte	.LVL0
 1886 0004 0C000000 		.4byte	.LVL1
 1887 0008 0100     		.2byte	0x1
 1888 000a 50       		.byte	0x50
 1889 000b 0C000000 		.4byte	.LVL1
 1890 000f 48000000 		.4byte	.LFE118
 1891 0013 0400     		.2byte	0x4
 1892 0015 F3       		.byte	0xf3
 1893 0016 01       		.uleb128 0x1
 1894 0017 50       		.byte	0x50
 1895 0018 9F       		.byte	0x9f
 1896 0019 00000000 		.4byte	0
 1897 001d 00000000 		.4byte	0
 1898              	.LLST1:
 1899 0021 00000000 		.4byte	.LVL0
 1900 0025 1B000000 		.4byte	.LVL2-1
 1901 0029 0100     		.2byte	0x1
 1902 002b 51       		.byte	0x51
 1903 002c 1B000000 		.4byte	.LVL2-1
 1904 0030 48000000 		.4byte	.LFE118
 1905 0034 0400     		.2byte	0x4
 1906 0036 F3       		.byte	0xf3
 1907 0037 01       		.uleb128 0x1
 1908 0038 51       		.byte	0x51
 1909 0039 9F       		.byte	0x9f
 1910 003a 00000000 		.4byte	0
 1911 003e 00000000 		.4byte	0
 1912              	.LLST2:
 1913 0042 00000000 		.4byte	.LVL0
 1914 0046 1B000000 		.4byte	.LVL2-1
 1915 004a 0100     		.2byte	0x1
 1916 004c 52       		.byte	0x52
 1917 004d 1B000000 		.4byte	.LVL2-1
 1918 0051 48000000 		.4byte	.LFE118
 1919 0055 0400     		.2byte	0x4
 1920 0057 F3       		.byte	0xf3
 1921 0058 01       		.uleb128 0x1
 1922 0059 52       		.byte	0x52
 1923 005a 9F       		.byte	0x9f
 1924 005b 00000000 		.4byte	0
 1925 005f 00000000 		.4byte	0
 1926              	.LLST3:
 1927 0063 36000000 		.4byte	.LVL4
 1928 0067 38000000 		.4byte	.LVL5
 1929 006b 0100     		.2byte	0x1
 1930 006d 50       		.byte	0x50
 1931 006e 38000000 		.4byte	.LVL5
 1932 0072 42000000 		.4byte	.LVL7
 1933 0076 0100     		.2byte	0x1
 1934 0078 55       		.byte	0x55
 1935 0079 42000000 		.4byte	.LVL7
ARM GAS  /var/folders/4k/6h5l9jl178sb4hslwv3xp1mr0000gn/T//ccstyvy1.s 			page 35


 1936 007d 48000000 		.4byte	.LFE118
 1937 0081 0100     		.2byte	0x1
 1938 0083 50       		.byte	0x50
 1939 0084 00000000 		.4byte	0
 1940 0088 00000000 		.4byte	0
 1941              	.LLST4:
 1942 008c 00000000 		.4byte	.LVL8
 1943 0090 0E000000 		.4byte	.LVL9
 1944 0094 0100     		.2byte	0x1
 1945 0096 50       		.byte	0x50
 1946 0097 0E000000 		.4byte	.LVL9
 1947 009b 44000000 		.4byte	.LFE119
 1948 009f 0400     		.2byte	0x4
 1949 00a1 F3       		.byte	0xf3
 1950 00a2 01       		.uleb128 0x1
 1951 00a3 50       		.byte	0x50
 1952 00a4 9F       		.byte	0x9f
 1953 00a5 00000000 		.4byte	0
 1954 00a9 00000000 		.4byte	0
 1955              	.LLST5:
 1956 00ad 00000000 		.4byte	.LVL8
 1957 00b1 15000000 		.4byte	.LVL10-1
 1958 00b5 0100     		.2byte	0x1
 1959 00b7 51       		.byte	0x51
 1960 00b8 15000000 		.4byte	.LVL10-1
 1961 00bc 44000000 		.4byte	.LFE119
 1962 00c0 0400     		.2byte	0x4
 1963 00c2 F3       		.byte	0xf3
 1964 00c3 01       		.uleb128 0x1
 1965 00c4 51       		.byte	0x51
 1966 00c5 9F       		.byte	0x9f
 1967 00c6 00000000 		.4byte	0
 1968 00ca 00000000 		.4byte	0
 1969              	.LLST6:
 1970 00ce 00000000 		.4byte	.LVL8
 1971 00d2 15000000 		.4byte	.LVL10-1
 1972 00d6 0100     		.2byte	0x1
 1973 00d8 52       		.byte	0x52
 1974 00d9 15000000 		.4byte	.LVL10-1
 1975 00dd 40000000 		.4byte	.LVL15
 1976 00e1 0100     		.2byte	0x1
 1977 00e3 57       		.byte	0x57
 1978 00e4 40000000 		.4byte	.LVL15
 1979 00e8 44000000 		.4byte	.LFE119
 1980 00ec 0400     		.2byte	0x4
 1981 00ee F3       		.byte	0xf3
 1982 00ef 01       		.uleb128 0x1
 1983 00f0 52       		.byte	0x52
 1984 00f1 9F       		.byte	0x9f
 1985 00f2 00000000 		.4byte	0
 1986 00f6 00000000 		.4byte	0
 1987              	.LLST7:
 1988 00fa 2C000000 		.4byte	.LVL12
 1989 00fe 2E000000 		.4byte	.LVL13
 1990 0102 0100     		.2byte	0x1
 1991 0104 50       		.byte	0x50
 1992 0105 2E000000 		.4byte	.LVL13
ARM GAS  /var/folders/4k/6h5l9jl178sb4hslwv3xp1mr0000gn/T//ccstyvy1.s 			page 36


 1993 0109 40000000 		.4byte	.LVL15
 1994 010d 0100     		.2byte	0x1
 1995 010f 54       		.byte	0x54
 1996 0110 40000000 		.4byte	.LVL15
 1997 0114 44000000 		.4byte	.LFE119
 1998 0118 0100     		.2byte	0x1
 1999 011a 50       		.byte	0x50
 2000 011b 00000000 		.4byte	0
 2001 011f 00000000 		.4byte	0
 2002              		.section	.debug_aranges,"",%progbits
 2003 0000 24000000 		.4byte	0x24
 2004 0004 0200     		.2byte	0x2
 2005 0006 00000000 		.4byte	.Ldebug_info0
 2006 000a 04       		.byte	0x4
 2007 000b 00       		.byte	0
 2008 000c 0000     		.2byte	0
 2009 000e 0000     		.2byte	0
 2010 0010 00000000 		.4byte	.LFB118
 2011 0014 48000000 		.4byte	.LFE118-.LFB118
 2012 0018 00000000 		.4byte	.LFB119
 2013 001c 44000000 		.4byte	.LFE119-.LFB119
 2014 0020 00000000 		.4byte	0
 2015 0024 00000000 		.4byte	0
 2016              		.section	.debug_ranges,"",%progbits
 2017              	.Ldebug_ranges0:
 2018 0000 00000000 		.4byte	.LFB118
 2019 0004 48000000 		.4byte	.LFE118
 2020 0008 00000000 		.4byte	.LFB119
 2021 000c 44000000 		.4byte	.LFE119
 2022 0010 00000000 		.4byte	0
 2023 0014 00000000 		.4byte	0
 2024              		.section	.debug_line,"",%progbits
 2025              	.Ldebug_line0:
 2026 0000 42030000 		.section	.debug_str,"MS",%progbits,1
 2026      02000903 
 2026      00000201 
 2026      FB0E0D00 
 2026      01010101 
 2027              	.LASF100:
 2028 0000 5354445F 		.ascii	"STD_DUTY_CYCLE\000"
 2028      44555459 
 2028      5F435943 
 2028      4C4500
 2029              	.LASF117:
 2030 000f 646D6172 		.ascii	"dmarx\000"
 2030      7800
 2031              	.LASF103:
 2032 0015 69326364 		.ascii	"i2cdutycycle_t\000"
 2032      75747963 
 2032      79636C65 
 2032      5F7400
 2033              	.LASF93:
 2034 0024 69326373 		.ascii	"i2cstate_t\000"
 2034      74617465 
 2034      5F7400
 2035              	.LASF63:
 2036 002f 4D304152 		.ascii	"M0AR\000"
ARM GAS  /var/folders/4k/6h5l9jl178sb4hslwv3xp1mr0000gn/T//ccstyvy1.s 			page 37


 2036      00
 2037              	.LASF2:
 2038 0034 73697A65 		.ascii	"size_t\000"
 2038      5F7400
 2039              	.LASF57:
 2040 003b 7264796D 		.ascii	"rdymsg\000"
 2040      736700
 2041              	.LASF3:
 2042 0042 5F5F7569 		.ascii	"__uint8_t\000"
 2042      6E74385F 
 2042      7400
 2043              	.LASF76:
 2044 004c 54524953 		.ascii	"TRISE\000"
 2044      4500
 2045              	.LASF81:
 2046 0052 73747265 		.ascii	"stream\000"
 2046      616D00
 2047              	.LASF13:
 2048 0059 6C6F6E67 		.ascii	"long long unsigned int\000"
 2048      206C6F6E 
 2048      6720756E 
 2048      7369676E 
 2048      65642069 
 2049              	.LASF114:
 2050 0070 61646472 		.ascii	"addr\000"
 2050      00
 2051              	.LASF58:
 2052 0075 65786974 		.ascii	"exitcode\000"
 2052      636F6465 
 2052      00
 2053              	.LASF85:
 2054 007e 76656374 		.ascii	"vector\000"
 2054      6F7200
 2055              	.LASF132:
 2056 0085 69326352 		.ascii	"i2cReleaseBus\000"
 2056      656C6561 
 2056      73654275 
 2056      7300
 2057              	.LASF128:
 2058 0093 53434342 		.ascii	"SCCB.c\000"
 2058      2E6300
 2059              	.LASF125:
 2060 009a 49544D5F 		.ascii	"ITM_RxBuffer\000"
 2060      52784275 
 2060      66666572 
 2060      00
 2061              	.LASF122:
 2062 00a7 72786275 		.ascii	"rxbuf\000"
 2062      6600
 2063              	.LASF30:
 2064 00ad 705F7072 		.ascii	"p_prio\000"
 2064      696F00
 2065              	.LASF131:
 2066 00b4 6932634D 		.ascii	"i2cMasterTransmitTimeout\000"
 2066      61737465 
 2066      72547261 
 2066      6E736D69 
ARM GAS  /var/folders/4k/6h5l9jl178sb4hslwv3xp1mr0000gn/T//ccstyvy1.s 			page 38


 2066      7454696D 
 2067              	.LASF12:
 2068 00cd 6C6F6E67 		.ascii	"long long int\000"
 2068      206C6F6E 
 2068      6720696E 
 2068      7400
 2069              	.LASF1:
 2070 00db 7369676E 		.ascii	"signed char\000"
 2070      65642063 
 2070      68617200 
 2071              	.LASF105:
 2072 00e7 636C6F63 		.ascii	"clock_speed\000"
 2072      6B5F7370 
 2072      65656400 
 2073              	.LASF46:
 2074 00f3 705F6D70 		.ascii	"p_mpool\000"
 2074      6F6F6C00 
 2075              	.LASF54:
 2076 00fb 6D5F7175 		.ascii	"m_queue\000"
 2076      65756500 
 2077              	.LASF22:
 2078 0103 74736C69 		.ascii	"tslices_t\000"
 2078      6365735F 
 2078      7400
 2079              	.LASF94:
 2080 010d 69326361 		.ascii	"i2caddr_t\000"
 2080      6464725F 
 2080      7400
 2081              	.LASF109:
 2082 0117 73746174 		.ascii	"state\000"
 2082      6500
 2083              	.LASF9:
 2084 011d 6C6F6E67 		.ascii	"long int\000"
 2084      20696E74 
 2084      00
 2085              	.LASF20:
 2086 0126 74737461 		.ascii	"tstate_t\000"
 2086      74655F74 
 2086      00
 2087              	.LASF113:
 2088 012f 74687265 		.ascii	"thread\000"
 2088      616400
 2089              	.LASF37:
 2090 0136 705F7265 		.ascii	"p_refs\000"
 2090      667300
 2091              	.LASF107:
 2092 013d 49324343 		.ascii	"I2CConfig\000"
 2092      6F6E6669 
 2092      6700
 2093              	.LASF39:
 2094 0147 705F7469 		.ascii	"p_time\000"
 2094      6D6500
 2095              	.LASF78:
 2096 014e 464C5452 		.ascii	"FLTR\000"
 2096      00
 2097              	.LASF32:
 2098 0153 705F6E65 		.ascii	"p_newer\000"
ARM GAS  /var/folders/4k/6h5l9jl178sb4hslwv3xp1mr0000gn/T//ccstyvy1.s 			page 39


 2098      77657200 
 2099              	.LASF115:
 2100 015b 7278646D 		.ascii	"rxdmamode\000"
 2100      616D6F64 
 2100      6500
 2101              	.LASF118:
 2102 0165 646D6174 		.ascii	"dmatx\000"
 2102      7800
 2103              	.LASF123:
 2104 016b 53434342 		.ascii	"SCCB_Write\000"
 2104      5F577269 
 2104      746500
 2105              	.LASF10:
 2106 0176 5F5F7569 		.ascii	"__uint32_t\000"
 2106      6E743332 
 2106      5F7400
 2107              	.LASF49:
 2108 0181 72656761 		.ascii	"regarm_t\000"
 2108      726D5F74 
 2108      00
 2109              	.LASF84:
 2110 018a 73656C66 		.ascii	"selfindex\000"
 2110      696E6465 
 2110      7800
 2111              	.LASF104:
 2112 0194 6F705F6D 		.ascii	"op_mode\000"
 2112      6F646500 
 2113              	.LASF119:
 2114 019c 76616C75 		.ascii	"value\000"
 2114      6500
 2115              	.LASF0:
 2116 01a2 756E7369 		.ascii	"unsigned int\000"
 2116      676E6564 
 2116      20696E74 
 2116      00
 2117              	.LASF121:
 2118 01af 74786275 		.ascii	"txbuf\000"
 2118      6600
 2119              	.LASF111:
 2120 01b5 6572726F 		.ascii	"errors\000"
 2120      727300
 2121              	.LASF41:
 2122 01bc 705F6D73 		.ascii	"p_msgqueue\000"
 2122      67717565 
 2122      756500
 2123              	.LASF83:
 2124 01c7 69736869 		.ascii	"ishift\000"
 2124      667400
 2125              	.LASF97:
 2126 01ce 4F504D4F 		.ascii	"OPMODE_SMBUS_DEVICE\000"
 2126      44455F53 
 2126      4D425553 
 2126      5F444556 
 2126      49434500 
 2127              	.LASF7:
 2128 01e2 73686F72 		.ascii	"short unsigned int\000"
 2128      7420756E 
ARM GAS  /var/folders/4k/6h5l9jl178sb4hslwv3xp1mr0000gn/T//ccstyvy1.s 			page 40


 2128      7369676E 
 2128      65642069 
 2128      6E7400
 2129              	.LASF108:
 2130 01f5 49324344 		.ascii	"I2CDriver\000"
 2130      72697665 
 2130      7200
 2131              	.LASF24:
 2132 01ff 6D73675F 		.ascii	"msg_t\000"
 2132      7400
 2133              	.LASF19:
 2134 0205 746D6F64 		.ascii	"tmode_t\000"
 2134      655F7400 
 2135              	.LASF15:
 2136 020d 75696E74 		.ascii	"uint16_t\000"
 2136      31365F74 
 2136      00
 2137              	.LASF48:
 2138 0216 54687265 		.ascii	"ThreadsList\000"
 2138      6164734C 
 2138      69737400 
 2139              	.LASF25:
 2140 0222 6576656E 		.ascii	"eventmask_t\000"
 2140      746D6173 
 2140      6B5F7400 
 2141              	.LASF5:
 2142 022e 73686F72 		.ascii	"short int\000"
 2142      7420696E 
 2142      7400
 2143              	.LASF88:
 2144 0238 4932435F 		.ascii	"I2C_STOP\000"
 2144      53544F50 
 2144      00
 2145              	.LASF52:
 2146 0241 73697A65 		.ascii	"sizetype\000"
 2146      74797065 
 2146      00
 2147              	.LASF53:
 2148 024a 4D757465 		.ascii	"Mutex\000"
 2148      7800
 2149              	.LASF106:
 2150 0250 64757479 		.ascii	"duty_cycle\000"
 2150      5F637963 
 2150      6C6500
 2151              	.LASF33:
 2152 025b 705F6F6C 		.ascii	"p_older\000"
 2152      64657200 
 2153              	.LASF47:
 2154 0263 54687265 		.ascii	"ThreadsQueue\000"
 2154      61647351 
 2154      75657565 
 2154      00
 2155              	.LASF116:
 2156 0270 7478646D 		.ascii	"txdmamode\000"
 2156      616D6F64 
 2156      6500
 2157              	.LASF96:
ARM GAS  /var/folders/4k/6h5l9jl178sb4hslwv3xp1mr0000gn/T//ccstyvy1.s 			page 41


 2158 027a 4F504D4F 		.ascii	"OPMODE_I2C\000"
 2158      44455F49 
 2158      324300
 2159              	.LASF102:
 2160 0285 46415354 		.ascii	"FAST_DUTY_CYCLE_16_9\000"
 2160      5F445554 
 2160      595F4359 
 2160      434C455F 
 2160      31365F39 
 2161              	.LASF21:
 2162 029a 74726566 		.ascii	"trefs_t\000"
 2162      735F7400 
 2163              	.LASF66:
 2164 02a2 52455345 		.ascii	"RESERVED0\000"
 2164      52564544 
 2164      3000
 2165              	.LASF67:
 2166 02ac 52455345 		.ascii	"RESERVED1\000"
 2166      52564544 
 2166      3100
 2167              	.LASF69:
 2168 02b6 52455345 		.ascii	"RESERVED2\000"
 2168      52564544 
 2168      3200
 2169              	.LASF71:
 2170 02c0 52455345 		.ascii	"RESERVED3\000"
 2170      52564544 
 2170      3300
 2171              	.LASF72:
 2172 02ca 52455345 		.ascii	"RESERVED4\000"
 2172      52564544 
 2172      3400
 2173              	.LASF29:
 2174 02d4 705F7072 		.ascii	"p_prev\000"
 2174      657600
 2175              	.LASF74:
 2176 02db 52455345 		.ascii	"RESERVED6\000"
 2176      52564544 
 2176      3600
 2177              	.LASF75:
 2178 02e5 52455345 		.ascii	"RESERVED7\000"
 2178      52564544 
 2178      3700
 2179              	.LASF77:
 2180 02ef 52455345 		.ascii	"RESERVED8\000"
 2180      52564544 
 2180      3800
 2181              	.LASF23:
 2182 02f9 74707269 		.ascii	"tprio_t\000"
 2182      6F5F7400 
 2183              	.LASF90:
 2184 0301 4932435F 		.ascii	"I2C_ACTIVE_TX\000"
 2184      41435449 
 2184      56455F54 
 2184      5800
 2185              	.LASF95:
 2186 030f 69326366 		.ascii	"i2cflags_t\000"
ARM GAS  /var/folders/4k/6h5l9jl178sb4hslwv3xp1mr0000gn/T//ccstyvy1.s 			page 42


 2186      6C616773 
 2186      5F7400
 2187              	.LASF112:
 2188 031a 6D757465 		.ascii	"mutex\000"
 2188      7800
 2189              	.LASF18:
 2190 0320 5F426F6F 		.ascii	"_Bool\000"
 2190      6C00
 2191              	.LASF16:
 2192 0326 696E7433 		.ascii	"int32_t\000"
 2192      325F7400 
 2193              	.LASF4:
 2194 032e 756E7369 		.ascii	"unsigned char\000"
 2194      676E6564 
 2194      20636861 
 2194      7200
 2195              	.LASF86:
 2196 033c 73746D33 		.ascii	"stm32_dma_stream_t\000"
 2196      325F646D 
 2196      615F7374 
 2196      7265616D 
 2196      5F7400
 2197              	.LASF127:
 2198 034f 474E5520 		.ascii	"GNU C 4.8.3 20140228 (release) [ARM/embedded-4_8-br"
 2198      4320342E 
 2198      382E3320 
 2198      32303134 
 2198      30323238 
 2199 0382 616E6368 		.ascii	"anch revision 208322] -mcpu=cortex-m4 -mno-thumb-in"
 2199      20726576 
 2199      6973696F 
 2199      6E203230 
 2199      38333232 
 2200 03b5 74657277 		.ascii	"terwork -mthumb -ggdb -O2 -fomit-frame-pointer -fal"
 2200      6F726B20 
 2200      2D6D7468 
 2200      756D6220 
 2200      2D676764 
 2201 03e8 69676E2D 		.ascii	"ign-functions=16 -ffunction-sections -fdata-section"
 2201      66756E63 
 2201      74696F6E 
 2201      733D3136 
 2201      202D6666 
 2202 041b 73202D66 		.ascii	"s -fno-common\000"
 2202      6E6F2D63 
 2202      6F6D6D6F 
 2202      6E00
 2203              	.LASF44:
 2204 0429 705F6D74 		.ascii	"p_mtxlist\000"
 2204      786C6973 
 2204      7400
 2205              	.LASF87:
 2206 0433 4932435F 		.ascii	"I2C_UNINIT\000"
 2206      554E494E 
 2206      495400
 2207              	.LASF35:
 2208 043e 705F7374 		.ascii	"p_state\000"
ARM GAS  /var/folders/4k/6h5l9jl178sb4hslwv3xp1mr0000gn/T//ccstyvy1.s 			page 43


 2208      61746500 
 2209              	.LASF38:
 2210 0446 705F7072 		.ascii	"p_preempt\000"
 2210      65656D70 
 2210      7400
 2211              	.LASF60:
 2212 0450 65776D61 		.ascii	"ewmask\000"
 2212      736B00
 2213              	.LASF28:
 2214 0457 705F6E65 		.ascii	"p_next\000"
 2214      787400
 2215              	.LASF36:
 2216 045e 705F666C 		.ascii	"p_flags\000"
 2216      61677300 
 2217              	.LASF101:
 2218 0466 46415354 		.ascii	"FAST_DUTY_CYCLE_2\000"
 2218      5F445554 
 2218      595F4359 
 2218      434C455F 
 2218      3200
 2219              	.LASF27:
 2220 0478 54687265 		.ascii	"Thread\000"
 2220      616400
 2221              	.LASF92:
 2222 047f 4932435F 		.ascii	"I2C_LOCKED\000"
 2222      4C4F434B 
 2222      454400
 2223              	.LASF129:
 2224 048a 2F557365 		.ascii	"/Users/mikevanis/Documents/workspace/STM32_DCMI_CAM"
 2224      72732F6D 
 2224      696B6576 
 2224      616E6973 
 2224      2F446F63 
 2225 04bd 4552412F 		.ascii	"ERA/\000"
 2225      00
 2226              	.LASF43:
 2227 04c2 705F6570 		.ascii	"p_epending\000"
 2227      656E6469 
 2227      6E6700
 2228              	.LASF82:
 2229 04cd 69666372 		.ascii	"ifcr\000"
 2229      00
 2230              	.LASF73:
 2231 04d2 52455345 		.ascii	"RESERVED5\000"
 2231      52564544 
 2231      3500
 2232              	.LASF17:
 2233 04dc 75696E74 		.ascii	"uint32_t\000"
 2233      33325F74 
 2233      00
 2234              	.LASF79:
 2235 04e5 52455345 		.ascii	"RESERVED9\000"
 2235      52564544 
 2235      3900
 2236              	.LASF126:
 2237 04ef 49324344 		.ascii	"I2CD1\000"
 2237      3100
ARM GAS  /var/folders/4k/6h5l9jl178sb4hslwv3xp1mr0000gn/T//ccstyvy1.s 			page 44


 2238              	.LASF91:
 2239 04f5 4932435F 		.ascii	"I2C_ACTIVE_RX\000"
 2239      41435449 
 2239      56455F52 
 2239      5800
 2240              	.LASF11:
 2241 0503 6C6F6E67 		.ascii	"long unsigned int\000"
 2241      20756E73 
 2241      69676E65 
 2241      6420696E 
 2241      7400
 2242              	.LASF61:
 2243 0515 63686172 		.ascii	"char\000"
 2243      00
 2244              	.LASF98:
 2245 051a 4F504D4F 		.ascii	"OPMODE_SMBUS_HOST\000"
 2245      44455F53 
 2245      4D425553 
 2245      5F484F53 
 2245      5400
 2246              	.LASF110:
 2247 052c 636F6E66 		.ascii	"config\000"
 2247      696700
 2248              	.LASF6:
 2249 0533 5F5F7569 		.ascii	"__uint16_t\000"
 2249      6E743136 
 2249      5F7400
 2250              	.LASF56:
 2251 053e 6D5F6E65 		.ascii	"m_next\000"
 2251      787400
 2252              	.LASF26:
 2253 0545 73797374 		.ascii	"systime_t\000"
 2253      696D655F 
 2253      7400
 2254              	.LASF45:
 2255 054f 705F7265 		.ascii	"p_realprio\000"
 2255      616C7072 
 2255      696F00
 2256              	.LASF8:
 2257 055a 5F5F696E 		.ascii	"__int32_t\000"
 2257      7433325F 
 2257      7400
 2258              	.LASF62:
 2259 0564 4E445452 		.ascii	"NDTR\000"
 2259      00
 2260              	.LASF89:
 2261 0569 4932435F 		.ascii	"I2C_READY\000"
 2261      52454144 
 2261      5900
 2262              	.LASF65:
 2263 0573 444D415F 		.ascii	"DMA_Stream_TypeDef\000"
 2263      53747265 
 2263      616D5F54 
 2263      79706544 
 2263      656600
 2264              	.LASF51:
 2265 0586 636F6E74 		.ascii	"context\000"
ARM GAS  /var/folders/4k/6h5l9jl178sb4hslwv3xp1mr0000gn/T//ccstyvy1.s 			page 45


 2265      65787400 
 2266              	.LASF50:
 2267 058e 696E7463 		.ascii	"intctx\000"
 2267      747800
 2268              	.LASF64:
 2269 0595 4D314152 		.ascii	"M1AR\000"
 2269      00
 2270              	.LASF130:
 2271 059a 69326341 		.ascii	"i2cAcquireBus\000"
 2271      63717569 
 2271      72654275 
 2271      7300
 2272              	.LASF120:
 2273 05a8 73746174 		.ascii	"status\000"
 2273      757300
 2274              	.LASF14:
 2275 05af 75696E74 		.ascii	"uint8_t\000"
 2275      385F7400 
 2276              	.LASF124:
 2277 05b7 53434342 		.ascii	"SCCB_Read\000"
 2277      5F526561 
 2277      6400
 2278              	.LASF68:
 2279 05c1 4F415231 		.ascii	"OAR1\000"
 2279      00
 2280              	.LASF70:
 2281 05c6 4F415232 		.ascii	"OAR2\000"
 2281      00
 2282              	.LASF59:
 2283 05cb 77746F62 		.ascii	"wtobjp\000"
 2283      6A7000
 2284              	.LASF34:
 2285 05d2 705F6E61 		.ascii	"p_name\000"
 2285      6D6500
 2286              	.LASF42:
 2287 05d9 705F6D73 		.ascii	"p_msg\000"
 2287      6700
 2288              	.LASF80:
 2289 05df 4932435F 		.ascii	"I2C_TypeDef\000"
 2289      54797065 
 2289      44656600 
 2290              	.LASF99:
 2291 05eb 6932636F 		.ascii	"i2copmode_t\000"
 2291      706D6F64 
 2291      655F7400 
 2292              	.LASF55:
 2293 05f7 6D5F6F77 		.ascii	"m_owner\000"
 2293      6E657200 
 2294              	.LASF31:
 2295 05ff 705F6374 		.ascii	"p_ctx\000"
 2295      7800
 2296              	.LASF40:
 2297 0605 705F7761 		.ascii	"p_waiting\000"
 2297      6974696E 
 2297      6700
 2298              		.ident	"GCC: (GNU Tools for ARM Embedded Processors) 4.8.3 20140228 (release) [ARM/embedded-4_8-br
ARM GAS  /var/folders/4k/6h5l9jl178sb4hslwv3xp1mr0000gn/T//ccstyvy1.s 			page 46


DEFINED SYMBOLS
                            *ABS*:0000000000000000 SCCB.c
/var/folders/4k/6h5l9jl178sb4hslwv3xp1mr0000gn/T//ccstyvy1.s:19     .text.SCCB_Write:0000000000000000 $t
/var/folders/4k/6h5l9jl178sb4hslwv3xp1mr0000gn/T//ccstyvy1.s:25     .text.SCCB_Write:0000000000000000 SCCB_Write
/var/folders/4k/6h5l9jl178sb4hslwv3xp1mr0000gn/T//ccstyvy1.s:87     .text.SCCB_Write:0000000000000044 $d
/var/folders/4k/6h5l9jl178sb4hslwv3xp1mr0000gn/T//ccstyvy1.s:92     .text.SCCB_Read:0000000000000000 $t
/var/folders/4k/6h5l9jl178sb4hslwv3xp1mr0000gn/T//ccstyvy1.s:98     .text.SCCB_Read:0000000000000000 SCCB_Read
/var/folders/4k/6h5l9jl178sb4hslwv3xp1mr0000gn/T//ccstyvy1.s:163    .text.SCCB_Read:0000000000000040 $d
                     .debug_frame:0000000000000010 $d
/var/folders/4k/6h5l9jl178sb4hslwv3xp1mr0000gn/T//ccstyvy1.s:91     .text.SCCB_Write:0000000000000048 $t
/var/folders/4k/6h5l9jl178sb4hslwv3xp1mr0000gn/T//ccstyvy1.s:167    .text.SCCB_Read:0000000000000044 $t

UNDEFINED SYMBOLS
i2cAcquireBus
i2cMasterTransmitTimeout
i2cReleaseBus
I2CD1
