ARM GAS  /var/folders/f2/xhg999f973v6h87pc1fwp6lm0000gn/T//ccl0aI3R.s 			page 1


   1              		.syntax unified
   2              		.cpu cortex-m4
   3              		.fpu softvfp
   4              		.eabi_attribute 20, 1
   5              		.eabi_attribute 21, 1
   6              		.eabi_attribute 23, 3
   7              		.eabi_attribute 24, 1
   8              		.eabi_attribute 25, 1
   9              		.eabi_attribute 26, 1
  10              		.eabi_attribute 30, 2
  11              		.eabi_attribute 34, 1
  12              		.eabi_attribute 18, 4
  13              		.thumb
  14              		.file	"serial_lld.c"
  15              		.text
  16              	.Ltext0:
  17              		.cfi_sections	.debug_frame
  18              		.section	.text.notify2,"ax",%progbits
  19              		.align	2
  20              		.p2align 4,,15
  21              		.thumb
  22              		.thumb_func
  23              		.type	notify2, %function
  24              	notify2:
  25              	.LFB122:
  26              		.file 1 "../../os/hal/platforms/STM32/USARTv1/serial_lld.c"
  27              		.loc 1 212 0
  28              		.cfi_startproc
  29              		@ args = 0, pretend = 0, frame = 0
  30              		@ frame_needed = 0, uses_anonymous_args = 0
  31              		@ link register save eliminated.
  32              	.LVL0:
  33              		.loc 1 215 0
  34 0000 034B     		ldr	r3, .L2
  35 0002 9A89     		ldrh	r2, [r3, #12]
  36 0004 92B2     		uxth	r2, r2
  37 0006 42F08002 		orr	r2, r2, #128
  38 000a 9A81     		strh	r2, [r3, #12]	@ movhi
  39 000c 7047     		bx	lr
  40              	.L3:
  41 000e 00BF     		.align	2
  42              	.L2:
  43 0010 00440040 		.word	1073759232
  44              		.cfi_endproc
  45              	.LFE122:
  46              		.size	notify2, .-notify2
  47 0014 AFF30080 		.section	.text.VectorD8,"ax",%progbits
  47      AFF30080 
  47      AFF30080 
  48              		.align	2
  49              		.p2align 4,,15
  50              		.global	VectorD8
  51              		.thumb
  52              		.thumb_func
  53              		.type	VectorD8, %function
  54              	VectorD8:
  55              	.LFB123:
ARM GAS  /var/folders/f2/xhg999f973v6h87pc1fwp6lm0000gn/T//ccl0aI3R.s 			page 2


  56              		.loc 1 283 0
  57              		.cfi_startproc
  58              		@ args = 0, pretend = 0, frame = 0
  59              		@ frame_needed = 0, uses_anonymous_args = 0
  60              	.LVL1:
  61 0000 F8B5     		push	{r3, r4, r5, r6, r7, lr}
  62              		.cfi_def_cfa_offset 24
  63              		.cfi_offset 3, -24
  64              		.cfi_offset 4, -20
  65              		.cfi_offset 5, -16
  66              		.cfi_offset 6, -12
  67              		.cfi_offset 7, -8
  68              		.cfi_offset 14, -4
  69              	.LBB26:
  70              	.LBB27:
  71              		.loc 1 155 0
  72 0002 3E4E     		ldr	r6, .L55
  73 0004 756F     		ldr	r5, [r6, #116]
  74              	.LVL2:
  75              		.loc 1 156 0
  76 0006 AF89     		ldrh	r7, [r5, #12]
  77              		.loc 1 157 0
  78 0008 2C88     		ldrh	r4, [r5]
  79 000a A4B2     		uxth	r4, r4
  80              		.loc 1 160 0
  81 000c E005     		lsls	r0, r4, #23
  82              		.loc 1 156 0
  83 000e BFB2     		uxth	r7, r7
  84              	.LVL3:
  85              		.loc 1 160 0
  86 0010 45D4     		bmi	.L51
  87              	.L5:
  88              	.LBB28:
  89              		.loc 1 168 0
  90 0012 2023     		movs	r3, #32
  91              	@ 168 "../../os/hal/platforms/STM32/USARTv1/serial_lld.c" 1
  92 0014 83F31188 		msr     BASEPRI, r3
  93              	@ 0 "" 2
  94              		.thumb
  95              	.LBE28:
  96              		.loc 1 169 0
  97 0018 A106     		lsls	r1, r4, #26
  98 001a 21D5     		bpl	.L6
  99 001c 08E0     		b	.L12
 100              	.LVL4:
 101              	.L7:
 102              		.loc 1 173 0
 103 001e A988     		ldrh	r1, [r5, #4]
 104 0020 3648     		ldr	r0, .L55
 105 0022 C9B2     		uxtb	r1, r1
 106 0024 FFF7FEFF 		bl	sdIncomingDataI
 107              	.LVL5:
 108              		.loc 1 174 0
 109 0028 2C88     		ldrh	r4, [r5]
 110 002a A4B2     		uxth	r4, r4
 111              	.LVL6:
 112              		.loc 1 169 0
ARM GAS  /var/folders/f2/xhg999f973v6h87pc1fwp6lm0000gn/T//ccl0aI3R.s 			page 3


 113 002c A006     		lsls	r0, r4, #26
 114 002e 17D5     		bpl	.L6
 115              	.LVL7:
 116              	.L12:
 117              		.loc 1 171 0
 118 0030 2207     		lsls	r2, r4, #28
 119 0032 F4D0     		beq	.L7
 120              	.LVL8:
 121              	.LBB29:
 122              	.LBB30:
 123              		.loc 1 136 0
 124 0034 14F0080F 		tst	r4, #8
 125 0038 14BF     		ite	ne
 126 003a 8021     		movne	r1, #128
 127 003c 0021     		moveq	r1, #0
 128              	.LVL9:
 129              		.loc 1 140 0
 130 003e 14F0010F 		tst	r4, #1
 131              		.loc 1 141 0
 132 0042 18BF     		it	ne
 133 0044 41F02001 		orrne	r1, r1, #32
 134              	.LVL10:
 135              		.loc 1 142 0
 136 0048 A307     		lsls	r3, r4, #30
 137              		.loc 1 143 0
 138 004a 48BF     		it	mi
 139 004c 41F04001 		orrmi	r1, r1, #64
 140              	.LVL11:
 141              		.loc 1 144 0
 142 0050 6407     		lsls	r4, r4, #29
 143              	.LVL12:
 144              		.loc 1 146 0
 145 0052 2B48     		ldr	r0, .L55+4
 146              		.loc 1 145 0
 147 0054 48BF     		it	mi
 148 0056 41F48071 		orrmi	r1, r1, #256
 149              	.LVL13:
 150              		.loc 1 146 0
 151 005a FFF7FEFF 		bl	chEvtBroadcastFlagsI
 152              	.LVL14:
 153 005e DEE7     		b	.L7
 154              	.LVL15:
 155              	.L6:
 156              	.LBE30:
 157              	.LBE29:
 158              	.LBB31:
 159              		.loc 1 176 0
 160 0060 0023     		movs	r3, #0
 161              	@ 176 "../../os/hal/platforms/STM32/USARTv1/serial_lld.c" 1
 162 0062 83F31188 		msr     BASEPRI, r3
 163              	@ 0 "" 2
 164              		.thumb
 165              	.LBE31:
 166              		.loc 1 179 0
 167 0066 3906     		lsls	r1, r7, #24
 168 0068 01D5     		bpl	.L13
 169 006a 2206     		lsls	r2, r4, #24
ARM GAS  /var/folders/f2/xhg999f973v6h87pc1fwp6lm0000gn/T//ccl0aI3R.s 			page 4


 170 006c 26D4     		bmi	.L52
 171              	.L13:
 172              		.loc 1 193 0
 173 006e 6306     		lsls	r3, r4, #25
 174 0070 11D5     		bpl	.L16
 175              	.LBB32:
 176              		.loc 1 194 0
 177 0072 2023     		movs	r3, #32
 178              	@ 194 "../../os/hal/platforms/STM32/USARTv1/serial_lld.c" 1
 179 0074 83F31188 		msr     BASEPRI, r3
 180              	@ 0 "" 2
 181              		.thumb
 182              	.LBE32:
 183              		.loc 1 195 0
 184 0078 726C     		ldr	r2, [r6, #68]
 185 007a B36C     		ldr	r3, [r6, #72]
 186 007c 1F48     		ldr	r0, .L55
 187 007e 9A42     		cmp	r2, r3
 188 0080 2AD0     		beq	.L53
 189              	.L17:
 190              		.loc 1 197 0
 191 0082 27F04007 		bic	r7, r7, #64
 192              	.LVL16:
 193 0086 BFB2     		uxth	r7, r7
 194              		.loc 1 198 0
 195 0088 4FF6BF72 		movw	r2, #65471
 196              		.loc 1 197 0
 197 008c AF81     		strh	r7, [r5, #12]	@ movhi
 198              	.LBB33:
 199              		.loc 1 199 0
 200 008e 0023     		movs	r3, #0
 201              	.LBE33:
 202              		.loc 1 198 0
 203 0090 2A80     		strh	r2, [r5]	@ movhi
 204              	.LBB34:
 205              		.loc 1 199 0
 206              	@ 199 "../../os/hal/platforms/STM32/USARTv1/serial_lld.c" 1
 207 0092 83F31188 		msr     BASEPRI, r3
 208              	@ 0 "" 2
 209              		.thumb
 210              	.L16:
 211              	.LBE34:
 212              	.LBE27:
 213              	.LBE26:
 214              		.loc 1 290 0
 215 0096 BDE8F840 		pop	{r3, r4, r5, r6, r7, lr}
 216              	.LVL17:
 217              		.loc 1 289 0
 218 009a FFF7FEBF 		b	_port_irq_epilogue
 219              	.LVL18:
 220              	.L51:
 221              	.LBB42:
 222              	.LBB41:
 223              	.LBB35:
 224              		.loc 1 161 0
 225 009e 2023     		movs	r3, #32
 226              	@ 161 "../../os/hal/platforms/STM32/USARTv1/serial_lld.c" 1
ARM GAS  /var/folders/f2/xhg999f973v6h87pc1fwp6lm0000gn/T//ccl0aI3R.s 			page 5


 227 00a0 83F31188 		msr     BASEPRI, r3
 228              	@ 0 "" 2
 229              		.thumb
 230              	.LBE35:
 231              		.loc 1 162 0
 232 00a4 4FF40071 		mov	r1, #512
 233 00a8 301D     		adds	r0, r6, #4
 234 00aa FFF7FEFF 		bl	chEvtBroadcastFlagsI
 235              	.LVL19:
 236              	.LBB36:
 237              		.loc 1 163 0
 238 00ae 0023     		movs	r3, #0
 239              	@ 163 "../../os/hal/platforms/STM32/USARTv1/serial_lld.c" 1
 240 00b0 83F31188 		msr     BASEPRI, r3
 241              	@ 0 "" 2
 242              		.thumb
 243              	.LBE36:
 244              		.loc 1 164 0
 245 00b4 4FF6FF63 		movw	r3, #65279
 246 00b8 2B80     		strh	r3, [r5]	@ movhi
 247 00ba AAE7     		b	.L5
 248              	.LVL20:
 249              	.L52:
 250              	.LBB37:
 251              	.LBB38:
 252              		.loc 1 181 0
 253 00bc 2023     		movs	r3, #32
 254              	@ 181 "../../os/hal/platforms/STM32/USARTv1/serial_lld.c" 1
 255 00be 83F31188 		msr     BASEPRI, r3
 256              	@ 0 "" 2
 257              		.thumb
 258              	.LBE38:
 259              		.loc 1 182 0
 260 00c2 1048     		ldr	r0, .L55+8
 261 00c4 FFF7FEFF 		bl	chOQGetI
 262              	.LVL21:
 263              		.loc 1 183 0
 264 00c8 0028     		cmp	r0, #0
 265 00ca 0DDB     		blt	.L54
 266              		.loc 1 188 0
 267 00cc 80B2     		uxth	r0, r0
 268              	.LVL22:
 269 00ce A880     		strh	r0, [r5, #4]	@ movhi
 270              	.L15:
 271              	.LBB39:
 272              		.loc 1 189 0
 273 00d0 0023     		movs	r3, #0
 274              	@ 189 "../../os/hal/platforms/STM32/USARTv1/serial_lld.c" 1
 275 00d2 83F31188 		msr     BASEPRI, r3
 276              	@ 0 "" 2
 277              		.thumb
 278 00d6 CAE7     		b	.L13
 279              	.L53:
 280              	.LBE39:
 281              	.LBE37:
 282              		.loc 1 195 0
 283 00d8 836B     		ldr	r3, [r0, #56]
ARM GAS  /var/folders/f2/xhg999f973v6h87pc1fwp6lm0000gn/T//ccl0aI3R.s 			page 6


 284 00da 002B     		cmp	r3, #0
 285 00dc D1D0     		beq	.L17
 286              		.loc 1 196 0
 287 00de 0430     		adds	r0, r0, #4
 288 00e0 1021     		movs	r1, #16
 289 00e2 FFF7FEFF 		bl	chEvtBroadcastFlagsI
 290              	.LVL23:
 291 00e6 CCE7     		b	.L17
 292              	.LVL24:
 293              	.L54:
 294              	.LBB40:
 295              		.loc 1 184 0
 296 00e8 0548     		ldr	r0, .L55+4
 297              	.LVL25:
 298 00ea 0821     		movs	r1, #8
 299 00ec FFF7FEFF 		bl	chEvtBroadcastFlagsI
 300              	.LVL26:
 301              		.loc 1 185 0
 302 00f0 27F0C003 		bic	r3, r7, #192
 303 00f4 43F04003 		orr	r3, r3, #64
 304 00f8 AB81     		strh	r3, [r5, #12]	@ movhi
 305 00fa E9E7     		b	.L15
 306              	.L56:
 307              		.align	2
 308              	.L55:
 309 00fc 00000000 		.word	.LANCHOR0
 310 0100 04000000 		.word	.LANCHOR0+4
 311 0104 30000000 		.word	.LANCHOR0+48
 312              	.LBE40:
 313              	.LBE41:
 314              	.LBE42:
 315              		.cfi_endproc
 316              	.LFE123:
 317              		.size	VectorD8, .-VectorD8
 318 0108 AFF30080 		.section	.text.sd_lld_init,"ax",%progbits
 318      AFF30080 
 319              		.align	2
 320              		.p2align 4,,15
 321              		.global	sd_lld_init
 322              		.thumb
 323              		.thumb_func
 324              		.type	sd_lld_init, %function
 325              	sd_lld_init:
 326              	.LFB124:
 327              		.loc 1 378 0
 328              		.cfi_startproc
 329              		@ args = 0, pretend = 0, frame = 0
 330              		@ frame_needed = 0, uses_anonymous_args = 0
 331 0000 10B5     		push	{r4, lr}
 332              		.cfi_def_cfa_offset 8
 333              		.cfi_offset 4, -8
 334              		.cfi_offset 14, -4
 335              		.loc 1 386 0
 336 0002 044C     		ldr	r4, .L58
 337 0004 044A     		ldr	r2, .L58+4
 338 0006 2046     		mov	r0, r4
 339 0008 0021     		movs	r1, #0
ARM GAS  /var/folders/f2/xhg999f973v6h87pc1fwp6lm0000gn/T//ccl0aI3R.s 			page 7


 340 000a FFF7FEFF 		bl	sdObjectInit
 341              	.LVL27:
 342              		.loc 1 387 0
 343 000e 034B     		ldr	r3, .L58+8
 344 0010 6367     		str	r3, [r4, #116]
 345 0012 10BD     		pop	{r4, pc}
 346              	.L59:
 347              		.align	2
 348              	.L58:
 349 0014 00000000 		.word	.LANCHOR0
 350 0018 00000000 		.word	notify2
 351 001c 00440040 		.word	1073759232
 352              		.cfi_endproc
 353              	.LFE124:
 354              		.size	sd_lld_init, .-sd_lld_init
 355              		.section	.text.sd_lld_start,"ax",%progbits
 356              		.align	2
 357              		.p2align 4,,15
 358              		.global	sd_lld_start
 359              		.thumb
 360              		.thumb_func
 361              		.type	sd_lld_start, %function
 362              	sd_lld_start:
 363              	.LFB125:
 364              		.loc 1 421 0
 365              		.cfi_startproc
 366              		@ args = 0, pretend = 0, frame = 0
 367              		@ frame_needed = 0, uses_anonymous_args = 0
 368              	.LVL28:
 369 0000 38B5     		push	{r3, r4, r5, lr}
 370              		.cfi_def_cfa_offset 16
 371              		.cfi_offset 3, -16
 372              		.cfi_offset 4, -12
 373              		.cfi_offset 5, -8
 374              		.cfi_offset 14, -4
 375              		.loc 1 424 0
 376 0002 204C     		ldr	r4, .L68
 377              		.loc 1 426 0
 378 0004 037A     		ldrb	r3, [r0, #8]	@ zero_extendqisi2
 379              		.loc 1 424 0
 380 0006 0029     		cmp	r1, #0
 381 0008 18BF     		it	ne
 382 000a 0C46     		movne	r4, r1
 383              	.LVL29:
 384              		.loc 1 426 0
 385 000c 012B     		cmp	r3, #1
 386              		.loc 1 421 0
 387 000e 0546     		mov	r5, r0
 388              		.loc 1 426 0
 389 0010 23D0     		beq	.L67
 390              	.LVL30:
 391              	.L62:
 392              		.loc 1 421 0
 393 0012 6B6F     		ldr	r3, [r5, #116]
 394              	.LVL31:
 395              	.LBB45:
 396              	.LBB46:
ARM GAS  /var/folders/f2/xhg999f973v6h87pc1fwp6lm0000gn/T//ccl0aI3R.s 			page 8


 397              		.loc 1 97 0
 398 0014 1C4A     		ldr	r2, .L68+4
 399 0016 9342     		cmp	r3, r2
 400 0018 2CD0     		beq	.L63
 401 001a 02F58062 		add	r2, r2, #1024
 402 001e 9342     		cmp	r3, r2
 403 0020 28D0     		beq	.L63
 404              		.loc 1 103 0
 405 0022 2268     		ldr	r2, [r4]
 406 0024 1949     		ldr	r1, .L68+8
 407 0026 B1FBF2F2 		udiv	r2, r1, r2
 408 002a 92B2     		uxth	r2, r2
 409 002c 1A81     		strh	r2, [r3, #8]	@ movhi
 410              	.L65:
 411              		.loc 1 108 0
 412 002e A288     		ldrh	r2, [r4, #4]
 413              		.loc 1 106 0
 414 0030 E188     		ldrh	r1, [r4, #6]
 415              		.loc 1 107 0
 416 0032 2089     		ldrh	r0, [r4, #8]
 417              		.loc 1 108 0
 418 0034 42F40452 		orr	r2, r2, #8448
 419              		.loc 1 106 0
 420 0038 41F04004 		orr	r4, r1, #64
 421              	.LVL32:
 422              		.loc 1 108 0
 423 003c 42F02C02 		orr	r2, r2, #44
 424              		.loc 1 107 0
 425 0040 40F00100 		orr	r0, r0, #1
 426              		.loc 1 108 0
 427 0044 92B2     		uxth	r2, r2
 428              		.loc 1 106 0
 429 0046 A4B2     		uxth	r4, r4
 430              		.loc 1 107 0
 431 0048 80B2     		uxth	r0, r0
 432              		.loc 1 111 0
 433 004a 0021     		movs	r1, #0
 434              		.loc 1 106 0
 435 004c 1C82     		strh	r4, [r3, #16]	@ movhi
 436              		.loc 1 107 0
 437 004e 9882     		strh	r0, [r3, #20]	@ movhi
 438              		.loc 1 108 0
 439 0050 9A81     		strh	r2, [r3, #12]	@ movhi
 440              		.loc 1 111 0
 441 0052 1980     		strh	r1, [r3]	@ movhi
 442              		.loc 1 112 0
 443 0054 1A88     		ldrh	r2, [r3]
 444              		.loc 1 113 0
 445 0056 9B88     		ldrh	r3, [r3, #4]
 446              	.LVL33:
 447 0058 38BD     		pop	{r3, r4, r5, pc}
 448              	.LVL34:
 449              	.L67:
 450              	.LBE46:
 451              	.LBE45:
 452              		.loc 1 435 0
 453 005a 0D4B     		ldr	r3, .L68+12
ARM GAS  /var/folders/f2/xhg999f973v6h87pc1fwp6lm0000gn/T//ccl0aI3R.s 			page 9


 454 005c 9842     		cmp	r0, r3
 455 005e D8D1     		bne	.L62
 456              		.loc 1 436 0
 457 0060 0C4B     		ldr	r3, .L68+16
 458 0062 1A6C     		ldr	r2, [r3, #64]
 459 0064 42F40032 		orr	r2, r2, #131072
 460 0068 1A64     		str	r2, [r3, #64]
 461              		.loc 1 437 0
 462 006a 2620     		movs	r0, #38
 463              	.LVL35:
 464 006c C021     		movs	r1, #192
 465 006e FFF7FEFF 		bl	nvicEnableVector
 466              	.LVL36:
 467 0072 CEE7     		b	.L62
 468              	.LVL37:
 469              	.L63:
 470              	.LBB48:
 471              	.LBB47:
 472              		.loc 1 101 0
 473 0074 2268     		ldr	r2, [r4]
 474 0076 0849     		ldr	r1, .L68+20
 475 0078 B1FBF2F2 		udiv	r2, r1, r2
 476 007c 92B2     		uxth	r2, r2
 477 007e 1A81     		strh	r2, [r3, #8]	@ movhi
 478 0080 D5E7     		b	.L65
 479              	.L69:
 480 0082 00BF     		.align	2
 481              	.L68:
 482 0084 00000000 		.word	.LANCHOR1
 483 0088 00100140 		.word	1073811456
 484 008c 80DE8002 		.word	42000000
 485 0090 00000000 		.word	.LANCHOR0
 486 0094 00380240 		.word	1073887232
 487 0098 00BD0105 		.word	84000000
 488              	.LBE47:
 489              	.LBE48:
 490              		.cfi_endproc
 491              	.LFE125:
 492              		.size	sd_lld_start, .-sd_lld_start
 493 009c AFF30080 		.section	.text.sd_lld_stop,"ax",%progbits
 494              		.align	2
 495              		.p2align 4,,15
 496              		.global	sd_lld_stop
 497              		.thumb
 498              		.thumb_func
 499              		.type	sd_lld_stop, %function
 500              	sd_lld_stop:
 501              	.LFB126:
 502              		.loc 1 482 0
 503              		.cfi_startproc
 504              		@ args = 0, pretend = 0, frame = 0
 505              		@ frame_needed = 0, uses_anonymous_args = 0
 506              		@ link register save eliminated.
 507              	.LVL38:
 508              		.loc 1 484 0
 509 0000 037A     		ldrb	r3, [r0, #8]	@ zero_extendqisi2
 510 0002 022B     		cmp	r3, #2
ARM GAS  /var/folders/f2/xhg999f973v6h87pc1fwp6lm0000gn/T//ccl0aI3R.s 			page 10


 511 0004 00D0     		beq	.L74
 512              	.L70:
 513 0006 7047     		bx	lr
 514              	.L74:
 515              		.loc 1 494 0
 516 0008 0749     		ldr	r1, .L75
 517              		.loc 1 485 0
 518 000a 436F     		ldr	r3, [r0, #116]
 519              	.LVL39:
 520              	.LBB49:
 521              	.LBB50:
 522              		.loc 1 124 0
 523 000c 0022     		movs	r2, #0
 524              	.LBE50:
 525              	.LBE49:
 526              		.loc 1 494 0
 527 000e 8842     		cmp	r0, r1
 528              	.LBB52:
 529              	.LBB51:
 530              		.loc 1 124 0
 531 0010 9A81     		strh	r2, [r3, #12]	@ movhi
 532              		.loc 1 125 0
 533 0012 1A82     		strh	r2, [r3, #16]	@ movhi
 534              		.loc 1 126 0
 535 0014 9A82     		strh	r2, [r3, #20]	@ movhi
 536              	.LBE51:
 537              	.LBE52:
 538              		.loc 1 494 0
 539 0016 F6D1     		bne	.L70
 540              		.loc 1 495 0
 541 0018 044B     		ldr	r3, .L75+4
 542              	.LVL40:
 543 001a 1A6C     		ldr	r2, [r3, #64]
 544 001c 22F40032 		bic	r2, r2, #131072
 545 0020 1A64     		str	r2, [r3, #64]
 546              		.loc 1 496 0
 547 0022 2620     		movs	r0, #38
 548              	.LVL41:
 549 0024 FFF7FEBF 		b	nvicDisableVector
 550              	.LVL42:
 551              	.L76:
 552              		.align	2
 553              	.L75:
 554 0028 00000000 		.word	.LANCHOR0
 555 002c 00380240 		.word	1073887232
 556              		.cfi_endproc
 557              	.LFE126:
 558              		.size	sd_lld_stop, .-sd_lld_stop
 559              		.global	SD2
 560              		.section	.rodata.default_config,"a",%progbits
 561              		.align	2
 562              		.set	.LANCHOR1,. + 0
 563              		.type	default_config, %object
 564              		.size	default_config, 12
 565              	default_config:
 566 0000 00960000 		.word	38400
 567 0004 0000     		.short	0
ARM GAS  /var/folders/f2/xhg999f973v6h87pc1fwp6lm0000gn/T//ccl0aI3R.s 			page 11


 568 0006 0040     		.short	16384
 569 0008 0000     		.short	0
 570 000a 0000     		.space	2
 571              		.section	.bss.SD2,"aw",%nobits
 572              		.align	2
 573              		.set	.LANCHOR0,. + 0
 574              		.type	SD2, %object
 575              		.size	SD2, 120
 576              	SD2:
 577 0000 00000000 		.space	120
 577      00000000 
 577      00000000 
 577      00000000 
 577      00000000 
 578              		.text
 579              	.Letext0:
 580              		.file 2 "/Users/Andy/eclipse_chibi/gcc-arm-none-eabi-4_8-2014q1/lib/gcc/arm-none-eabi/4.8.3/includ
 581              		.file 3 "/Users/Andy/eclipse_chibi/gcc-arm-none-eabi-4_8-2014q1/arm-none-eabi/include/machine/_def
 582              		.file 4 "/Users/Andy/eclipse_chibi/gcc-arm-none-eabi-4_8-2014q1/arm-none-eabi/include/stdint.h"
 583              		.file 5 "../../os/ports/GCC/ARMCMx/chtypes.h"
 584              		.file 6 "../../os/kernel/include/chlists.h"
 585              		.file 7 "../../os/kernel/include/chthreads.h"
 586              		.file 8 "../../os/ports/GCC/ARMCMx/chcore_v7m.h"
 587              		.file 9 "../../os/kernel/include/chmtx.h"
 588              		.file 10 "../../os/kernel/include/chevents.h"
 589              		.file 11 "../../os/kernel/include/chqueues.h"
 590              		.file 12 "../../os/hal/platforms/STM32F4xx/stm32f4xx.h"
 591              		.file 13 "../../os/hal/include/serial.h"
 592              		.file 14 "../../os/hal/platforms/STM32/USARTv1/serial_lld.h"
 593              		.file 15 "../../os/ports/common/ARMCMx/nvic.h"
 594              		.file 16 "../../os/ports/common/ARMCMx/CMSIS/include/core_cm4.h"