ARM GAS  /var/folders/f2/xhg999f973v6h87pc1fwp6lm0000gn/T//ccl0aI3R.s 			page 1


   1              		.syntax unified
   2              		.cpu cortex-m4
   3              		.fpu softvfp
   4              		.eabi_attribute 20, 1
   5              		.eabi_attribute 21, 1
   6              		.eabi_attribute 23, 3
   7              		.eabi_attribute 24, 1
   8              		.eabi_attribute 25, 1
   9              		.eabi_attribute 26, 1
  10              		.eabi_attribute 30, 2
  11              		.eabi_attribute 34, 1
  12              		.eabi_attribute 18, 4
  13              		.thumb
  14              		.file	"serial_lld.c"
  15              		.text
  16              	.Ltext0:
  17              		.cfi_sections	.debug_frame
  18              		.section	.text.notify2,"ax",%progbits
  19              		.align	2
  20              		.p2align 4,,15
  21              		.thumb
  22              		.thumb_func
  23              		.type	notify2, %function
  24              	notify2:
  25              	.LFB122:
  26              		.file 1 "../../os/hal/platforms/STM32/USARTv1/serial_lld.c"
  27              		.loc 1 212 0
  28              		.cfi_startproc
  29              		@ args = 0, pretend = 0, frame = 0
  30              		@ frame_needed = 0, uses_anonymous_args = 0
  31              		@ link register save eliminated.
  32              	.LVL0:
  33              		.loc 1 215 0
  34 0000 034B     		ldr	r3, .L2
  35 0002 9A89     		ldrh	r2, [r3, #12]
  36 0004 92B2     		uxth	r2, r2
  37 0006 42F08002 		orr	r2, r2, #128
  38 000a 9A81     		strh	r2, [r3, #12]	@ movhi
  39 000c 7047     		bx	lr
  40              	.L3:
  41 000e 00BF     		.align	2
  42              	.L2:
  43 0010 00440040 		.word	1073759232
  44              		.cfi_endproc
  45              	.LFE122:
  46              		.size	notify2, .-notify2
  47 0014 AFF30080 		.section	.text.VectorD8,"ax",%progbits
  47      AFF30080 
  47      AFF30080 
  48              		.align	2
  49              		.p2align 4,,15
  50              		.global	VectorD8
  51              		.thumb
  52              		.thumb_func
  53              		.type	VectorD8, %function
  54              	VectorD8:
  55              	.LFB123:
ARM GAS  /var/folders/f2/xhg999f973v6h87pc1fwp6lm0000gn/T//ccl0aI3R.s 			page 2


  56              		.loc 1 283 0
  57              		.cfi_startproc
  58              		@ args = 0, pretend = 0, frame = 0
  59              		@ frame_needed = 0, uses_anonymous_args = 0
  60              	.LVL1:
  61 0000 F8B5     		push	{r3, r4, r5, r6, r7, lr}
  62              		.cfi_def_cfa_offset 24
  63              		.cfi_offset 3, -24
  64              		.cfi_offset 4, -20
  65              		.cfi_offset 5, -16
  66              		.cfi_offset 6, -12
  67              		.cfi_offset 7, -8
  68              		.cfi_offset 14, -4
  69              	.LBB26:
  70              	.LBB27:
  71              		.loc 1 155 0
  72 0002 3E4E     		ldr	r6, .L55
  73 0004 756F     		ldr	r5, [r6, #116]
  74              	.LVL2:
  75              		.loc 1 156 0
  76 0006 AF89     		ldrh	r7, [r5, #12]
  77              		.loc 1 157 0
  78 0008 2C88     		ldrh	r4, [r5]
  79 000a A4B2     		uxth	r4, r4
  80              		.loc 1 160 0
  81 000c E005     		lsls	r0, r4, #23
  82              		.loc 1 156 0
  83 000e BFB2     		uxth	r7, r7
  84              	.LVL3:
  85              		.loc 1 160 0
  86 0010 45D4     		bmi	.L51
  87              	.L5:
  88              	.LBB28:
  89              		.loc 1 168 0
  90 0012 2023     		movs	r3, #32
  91              	@ 168 "../../os/hal/platforms/STM32/USARTv1/serial_lld.c" 1
  92 0014 83F31188 		msr     BASEPRI, r3
  93              	@ 0 "" 2
  94              		.thumb
  95              	.LBE28:
  96              		.loc 1 169 0
  97 0018 A106     		lsls	r1, r4, #26
  98 001a 21D5     		bpl	.L6
  99 001c 08E0     		b	.L12
 100              	.LVL4:
 101              	.L7:
 102              		.loc 1 173 0
 103 001e A988     		ldrh	r1, [r5, #4]
 104 0020 3648     		ldr	r0, .L55
 105 0022 C9B2     		uxtb	r1, r1
 106 0024 FFF7FEFF 		bl	sdIncomingDataI
 107              	.LVL5:
 108              		.loc 1 174 0
 109 0028 2C88     		ldrh	r4, [r5]
 110 002a A4B2     		uxth	r4, r4
 111              	.LVL6:
 112              		.loc 1 169 0
ARM GAS  /var/folders/f2/xhg999f973v6h87pc1fwp6lm0000gn/T//ccl0aI3R.s 			page 3


 113 002c A006     		lsls	r0, r4, #26
 114 002e 17D5     		bpl	.L6
 115              	.LVL7:
 116              	.L12:
 117              		.loc 1 171 0
 118 0030 2207     		lsls	r2, r4, #28
 119 0032 F4D0     		beq	.L7
 120              	.LVL8:
 121              	.LBB29:
 122              	.LBB30:
 123              		.loc 1 136 0
 124 0034 14F0080F 		tst	r4, #8
 125 0038 14BF     		ite	ne
 126 003a 8021     		movne	r1, #128
 127 003c 0021     		moveq	r1, #0
 128              	.LVL9:
 129              		.loc 1 140 0
 130 003e 14F0010F 		tst	r4, #1
 131              		.loc 1 141 0
 132 0042 18BF     		it	ne
 133 0044 41F02001 		orrne	r1, r1, #32
 134              	.LVL10:
 135              		.loc 1 142 0
 136 0048 A307     		lsls	r3, r4, #30
 137              		.loc 1 143 0
 138 004a 48BF     		it	mi
 139 004c 41F04001 		orrmi	r1, r1, #64
 140              	.LVL11:
 141              		.loc 1 144 0
 142 0050 6407     		lsls	r4, r4, #29
 143              	.LVL12:
 144              		.loc 1 146 0
 145 0052 2B48     		ldr	r0, .L55+4
 146              		.loc 1 145 0
 147 0054 48BF     		it	mi
 148 0056 41F48071 		orrmi	r1, r1, #256
 149              	.LVL13:
 150              		.loc 1 146 0
 151 005a FFF7FEFF 		bl	chEvtBroadcastFlagsI
 152              	.LVL14:
 153 005e DEE7     		b	.L7
 154              	.LVL15:
 155              	.L6:
 156              	.LBE30:
 157              	.LBE29:
 158              	.LBB31:
 159              		.loc 1 176 0
 160 0060 0023     		movs	r3, #0
 161              	@ 176 "../../os/hal/platforms/STM32/USARTv1/serial_lld.c" 1
 162 0062 83F31188 		msr     BASEPRI, r3
 163              	@ 0 "" 2
 164              		.thumb
 165              	.LBE31:
 166              		.loc 1 179 0
 167 0066 3906     		lsls	r1, r7, #24
 168 0068 01D5     		bpl	.L13
 169 006a 2206     		lsls	r2, r4, #24
ARM GAS  /var/folders/f2/xhg999f973v6h87pc1fwp6lm0000gn/T//ccl0aI3R.s 			page 4


 170 006c 26D4     		bmi	.L52
 171              	.L13:
 172              		.loc 1 193 0
 173 006e 6306     		lsls	r3, r4, #25
 174 0070 11D5     		bpl	.L16
 175              	.LBB32:
 176              		.loc 1 194 0
 177 0072 2023     		movs	r3, #32
 178              	@ 194 "../../os/hal/platforms/STM32/USARTv1/serial_lld.c" 1
 179 0074 83F31188 		msr     BASEPRI, r3
 180              	@ 0 "" 2
 181              		.thumb
 182              	.LBE32:
 183              		.loc 1 195 0
 184 0078 726C     		ldr	r2, [r6, #68]
 185 007a B36C     		ldr	r3, [r6, #72]
 186 007c 1F48     		ldr	r0, .L55
 187 007e 9A42     		cmp	r2, r3
 188 0080 2AD0     		beq	.L53
 189              	.L17:
 190              		.loc 1 197 0
 191 0082 27F04007 		bic	r7, r7, #64
 192              	.LVL16:
 193 0086 BFB2     		uxth	r7, r7
 194              		.loc 1 198 0
 195 0088 4FF6BF72 		movw	r2, #65471
 196              		.loc 1 197 0
 197 008c AF81     		strh	r7, [r5, #12]	@ movhi
 198              	.LBB33:
 199              		.loc 1 199 0
 200 008e 0023     		movs	r3, #0
 201              	.LBE33:
 202              		.loc 1 198 0
 203 0090 2A80     		strh	r2, [r5]	@ movhi
 204              	.LBB34:
 205              		.loc 1 199 0
 206              	@ 199 "../../os/hal/platforms/STM32/USARTv1/serial_lld.c" 1
 207 0092 83F31188 		msr     BASEPRI, r3
 208              	@ 0 "" 2
 209              		.thumb
 210              	.L16:
 211              	.LBE34:
 212              	.LBE27:
 213              	.LBE26:
 214              		.loc 1 290 0
 215 0096 BDE8F840 		pop	{r3, r4, r5, r6, r7, lr}
 216              	.LVL17:
 217              		.loc 1 289 0
 218 009a FFF7FEBF 		b	_port_irq_epilogue
 219              	.LVL18:
 220              	.L51:
 221              	.LBB42:
 222              	.LBB41:
 223              	.LBB35:
 224              		.loc 1 161 0
 225 009e 2023     		movs	r3, #32
 226              	@ 161 "../../os/hal/platforms/STM32/USARTv1/serial_lld.c" 1
ARM GAS  /var/folders/f2/xhg999f973v6h87pc1fwp6lm0000gn/T//ccl0aI3R.s 			page 5


 227 00a0 83F31188 		msr     BASEPRI, r3
 228              	@ 0 "" 2
 229              		.thumb
 230              	.LBE35:
 231              		.loc 1 162 0
 232 00a4 4FF40071 		mov	r1, #512
 233 00a8 301D     		adds	r0, r6, #4
 234 00aa FFF7FEFF 		bl	chEvtBroadcastFlagsI
 235              	.LVL19:
 236              	.LBB36:
 237              		.loc 1 163 0
 238 00ae 0023     		movs	r3, #0
 239              	@ 163 "../../os/hal/platforms/STM32/USARTv1/serial_lld.c" 1
 240 00b0 83F31188 		msr     BASEPRI, r3
 241              	@ 0 "" 2
 242              		.thumb
 243              	.LBE36:
 244              		.loc 1 164 0
 245 00b4 4FF6FF63 		movw	r3, #65279
 246 00b8 2B80     		strh	r3, [r5]	@ movhi
 247 00ba AAE7     		b	.L5
 248              	.LVL20:
 249              	.L52:
 250              	.LBB37:
 251              	.LBB38:
 252              		.loc 1 181 0
 253 00bc 2023     		movs	r3, #32
 254              	@ 181 "../../os/hal/platforms/STM32/USARTv1/serial_lld.c" 1
 255 00be 83F31188 		msr     BASEPRI, r3
 256              	@ 0 "" 2
 257              		.thumb
 258              	.LBE38:
 259              		.loc 1 182 0
 260 00c2 1048     		ldr	r0, .L55+8
 261 00c4 FFF7FEFF 		bl	chOQGetI
 262              	.LVL21:
 263              		.loc 1 183 0
 264 00c8 0028     		cmp	r0, #0
 265 00ca 0DDB     		blt	.L54
 266              		.loc 1 188 0
 267 00cc 80B2     		uxth	r0, r0
 268              	.LVL22:
 269 00ce A880     		strh	r0, [r5, #4]	@ movhi
 270              	.L15:
 271              	.LBB39:
 272              		.loc 1 189 0
 273 00d0 0023     		movs	r3, #0
 274              	@ 189 "../../os/hal/platforms/STM32/USARTv1/serial_lld.c" 1
 275 00d2 83F31188 		msr     BASEPRI, r3
 276              	@ 0 "" 2
 277              		.thumb
 278 00d6 CAE7     		b	.L13
 279              	.L53:
 280              	.LBE39:
 281              	.LBE37:
 282              		.loc 1 195 0
 283 00d8 836B     		ldr	r3, [r0, #56]
ARM GAS  /var/folders/f2/xhg999f973v6h87pc1fwp6lm0000gn/T//ccl0aI3R.s 			page 6


 284 00da 002B     		cmp	r3, #0
 285 00dc D1D0     		beq	.L17
 286              		.loc 1 196 0
 287 00de 0430     		adds	r0, r0, #4
 288 00e0 1021     		movs	r1, #16
 289 00e2 FFF7FEFF 		bl	chEvtBroadcastFlagsI
 290              	.LVL23:
 291 00e6 CCE7     		b	.L17
 292              	.LVL24:
 293              	.L54:
 294              	.LBB40:
 295              		.loc 1 184 0
 296 00e8 0548     		ldr	r0, .L55+4
 297              	.LVL25:
 298 00ea 0821     		movs	r1, #8
 299 00ec FFF7FEFF 		bl	chEvtBroadcastFlagsI
 300              	.LVL26:
 301              		.loc 1 185 0
 302 00f0 27F0C003 		bic	r3, r7, #192
 303 00f4 43F04003 		orr	r3, r3, #64
 304 00f8 AB81     		strh	r3, [r5, #12]	@ movhi
 305 00fa E9E7     		b	.L15
 306              	.L56:
 307              		.align	2
 308              	.L55:
 309 00fc 00000000 		.word	.LANCHOR0
 310 0100 04000000 		.word	.LANCHOR0+4
 311 0104 30000000 		.word	.LANCHOR0+48
 312              	.LBE40:
 313              	.LBE41:
 314              	.LBE42:
 315              		.cfi_endproc
 316              	.LFE123:
 317              		.size	VectorD8, .-VectorD8
 318 0108 AFF30080 		.section	.text.sd_lld_init,"ax",%progbits
 318      AFF30080 
 319              		.align	2
 320              		.p2align 4,,15
 321              		.global	sd_lld_init
 322              		.thumb
 323              		.thumb_func
 324              		.type	sd_lld_init, %function
 325              	sd_lld_init:
 326              	.LFB124:
 327              		.loc 1 378 0
 328              		.cfi_startproc
 329              		@ args = 0, pretend = 0, frame = 0
 330              		@ frame_needed = 0, uses_anonymous_args = 0
 331 0000 10B5     		push	{r4, lr}
 332              		.cfi_def_cfa_offset 8
 333              		.cfi_offset 4, -8
 334              		.cfi_offset 14, -4
 335              		.loc 1 386 0
 336 0002 044C     		ldr	r4, .L58
 337 0004 044A     		ldr	r2, .L58+4
 338 0006 2046     		mov	r0, r4
 339 0008 0021     		movs	r1, #0
ARM GAS  /var/folders/f2/xhg999f973v6h87pc1fwp6lm0000gn/T//ccl0aI3R.s 			page 7


 340 000a FFF7FEFF 		bl	sdObjectInit
 341              	.LVL27:
 342              		.loc 1 387 0
 343 000e 034B     		ldr	r3, .L58+8
 344 0010 6367     		str	r3, [r4, #116]
 345 0012 10BD     		pop	{r4, pc}
 346              	.L59:
 347              		.align	2
 348              	.L58:
 349 0014 00000000 		.word	.LANCHOR0
 350 0018 00000000 		.word	notify2
 351 001c 00440040 		.word	1073759232
 352              		.cfi_endproc
 353              	.LFE124:
 354              		.size	sd_lld_init, .-sd_lld_init
 355              		.section	.text.sd_lld_start,"ax",%progbits
 356              		.align	2
 357              		.p2align 4,,15
 358              		.global	sd_lld_start
 359              		.thumb
 360              		.thumb_func
 361              		.type	sd_lld_start, %function
 362              	sd_lld_start:
 363              	.LFB125:
 364              		.loc 1 421 0
 365              		.cfi_startproc
 366              		@ args = 0, pretend = 0, frame = 0
 367              		@ frame_needed = 0, uses_anonymous_args = 0
 368              	.LVL28:
 369 0000 38B5     		push	{r3, r4, r5, lr}
 370              		.cfi_def_cfa_offset 16
 371              		.cfi_offset 3, -16
 372              		.cfi_offset 4, -12
 373              		.cfi_offset 5, -8
 374              		.cfi_offset 14, -4
 375              		.loc 1 424 0
 376 0002 204C     		ldr	r4, .L68
 377              		.loc 1 426 0
 378 0004 037A     		ldrb	r3, [r0, #8]	@ zero_extendqisi2
 379              		.loc 1 424 0
 380 0006 0029     		cmp	r1, #0
 381 0008 18BF     		it	ne
 382 000a 0C46     		movne	r4, r1
 383              	.LVL29:
 384              		.loc 1 426 0
 385 000c 012B     		cmp	r3, #1
 386              		.loc 1 421 0
 387 000e 0546     		mov	r5, r0
 388              		.loc 1 426 0
 389 0010 23D0     		beq	.L67
 390              	.LVL30:
 391              	.L62:
 392              		.loc 1 421 0
 393 0012 6B6F     		ldr	r3, [r5, #116]
 394              	.LVL31:
 395              	.LBB45:
 396              	.LBB46:
ARM GAS  /var/folders/f2/xhg999f973v6h87pc1fwp6lm0000gn/T//ccl0aI3R.s 			page 8


 397              		.loc 1 97 0
 398 0014 1C4A     		ldr	r2, .L68+4
 399 0016 9342     		cmp	r3, r2
 400 0018 2CD0     		beq	.L63
 401 001a 02F58062 		add	r2, r2, #1024
 402 001e 9342     		cmp	r3, r2
 403 0020 28D0     		beq	.L63
 404              		.loc 1 103 0
 405 0022 2268     		ldr	r2, [r4]
 406 0024 1949     		ldr	r1, .L68+8
 407 0026 B1FBF2F2 		udiv	r2, r1, r2
 408 002a 92B2     		uxth	r2, r2
 409 002c 1A81     		strh	r2, [r3, #8]	@ movhi
 410              	.L65:
 411              		.loc 1 108 0
 412 002e A288     		ldrh	r2, [r4, #4]
 413              		.loc 1 106 0
 414 0030 E188     		ldrh	r1, [r4, #6]
 415              		.loc 1 107 0
 416 0032 2089     		ldrh	r0, [r4, #8]
 417              		.loc 1 108 0
 418 0034 42F40452 		orr	r2, r2, #8448
 419              		.loc 1 106 0
 420 0038 41F04004 		orr	r4, r1, #64
 421              	.LVL32:
 422              		.loc 1 108 0
 423 003c 42F02C02 		orr	r2, r2, #44
 424              		.loc 1 107 0
 425 0040 40F00100 		orr	r0, r0, #1
 426              		.loc 1 108 0
 427 0044 92B2     		uxth	r2, r2
 428              		.loc 1 106 0
 429 0046 A4B2     		uxth	r4, r4
 430              		.loc 1 107 0
 431 0048 80B2     		uxth	r0, r0
 432              		.loc 1 111 0
 433 004a 0021     		movs	r1, #0
 434              		.loc 1 106 0
 435 004c 1C82     		strh	r4, [r3, #16]	@ movhi
 436              		.loc 1 107 0
 437 004e 9882     		strh	r0, [r3, #20]	@ movhi
 438              		.loc 1 108 0
 439 0050 9A81     		strh	r2, [r3, #12]	@ movhi
 440              		.loc 1 111 0
 441 0052 1980     		strh	r1, [r3]	@ movhi
 442              		.loc 1 112 0
 443 0054 1A88     		ldrh	r2, [r3]
 444              		.loc 1 113 0
 445 0056 9B88     		ldrh	r3, [r3, #4]
 446              	.LVL33:
 447 0058 38BD     		pop	{r3, r4, r5, pc}
 448              	.LVL34:
 449              	.L67:
 450              	.LBE46:
 451              	.LBE45:
 452              		.loc 1 435 0
 453 005a 0D4B     		ldr	r3, .L68+12
ARM GAS  /var/folders/f2/xhg999f973v6h87pc1fwp6lm0000gn/T//ccl0aI3R.s 			page 9


 454 005c 9842     		cmp	r0, r3
 455 005e D8D1     		bne	.L62
 456              		.loc 1 436 0
 457 0060 0C4B     		ldr	r3, .L68+16
 458 0062 1A6C     		ldr	r2, [r3, #64]
 459 0064 42F40032 		orr	r2, r2, #131072
 460 0068 1A64     		str	r2, [r3, #64]
 461              		.loc 1 437 0
 462 006a 2620     		movs	r0, #38
 463              	.LVL35:
 464 006c C021     		movs	r1, #192
 465 006e FFF7FEFF 		bl	nvicEnableVector
 466              	.LVL36:
 467 0072 CEE7     		b	.L62
 468              	.LVL37:
 469              	.L63:
 470              	.LBB48:
 471              	.LBB47:
 472              		.loc 1 101 0
 473 0074 2268     		ldr	r2, [r4]
 474 0076 0849     		ldr	r1, .L68+20
 475 0078 B1FBF2F2 		udiv	r2, r1, r2
 476 007c 92B2     		uxth	r2, r2
 477 007e 1A81     		strh	r2, [r3, #8]	@ movhi
 478 0080 D5E7     		b	.L65
 479              	.L69:
 480 0082 00BF     		.align	2
 481              	.L68:
 482 0084 00000000 		.word	.LANCHOR1
 483 0088 00100140 		.word	1073811456
 484 008c 80DE8002 		.word	42000000
 485 0090 00000000 		.word	.LANCHOR0
 486 0094 00380240 		.word	1073887232
 487 0098 00BD0105 		.word	84000000
 488              	.LBE47:
 489              	.LBE48:
 490              		.cfi_endproc
 491              	.LFE125:
 492              		.size	sd_lld_start, .-sd_lld_start
 493 009c AFF30080 		.section	.text.sd_lld_stop,"ax",%progbits
 494              		.align	2
 495              		.p2align 4,,15
 496              		.global	sd_lld_stop
 497              		.thumb
 498              		.thumb_func
 499              		.type	sd_lld_stop, %function
 500              	sd_lld_stop:
 501              	.LFB126:
 502              		.loc 1 482 0
 503              		.cfi_startproc
 504              		@ args = 0, pretend = 0, frame = 0
 505              		@ frame_needed = 0, uses_anonymous_args = 0
 506              		@ link register save eliminated.
 507              	.LVL38:
 508              		.loc 1 484 0
 509 0000 037A     		ldrb	r3, [r0, #8]	@ zero_extendqisi2
 510 0002 022B     		cmp	r3, #2
ARM GAS  /var/folders/f2/xhg999f973v6h87pc1fwp6lm0000gn/T//ccl0aI3R.s 			page 10


 511 0004 00D0     		beq	.L74
 512              	.L70:
 513 0006 7047     		bx	lr
 514              	.L74:
 515              		.loc 1 494 0
 516 0008 0749     		ldr	r1, .L75
 517              		.loc 1 485 0
 518 000a 436F     		ldr	r3, [r0, #116]
 519              	.LVL39:
 520              	.LBB49:
 521              	.LBB50:
 522              		.loc 1 124 0
 523 000c 0022     		movs	r2, #0
 524              	.LBE50:
 525              	.LBE49:
 526              		.loc 1 494 0
 527 000e 8842     		cmp	r0, r1
 528              	.LBB52:
 529              	.LBB51:
 530              		.loc 1 124 0
 531 0010 9A81     		strh	r2, [r3, #12]	@ movhi
 532              		.loc 1 125 0
 533 0012 1A82     		strh	r2, [r3, #16]	@ movhi
 534              		.loc 1 126 0
 535 0014 9A82     		strh	r2, [r3, #20]	@ movhi
 536              	.LBE51:
 537              	.LBE52:
 538              		.loc 1 494 0
 539 0016 F6D1     		bne	.L70
 540              		.loc 1 495 0
 541 0018 044B     		ldr	r3, .L75+4
 542              	.LVL40:
 543 001a 1A6C     		ldr	r2, [r3, #64]
 544 001c 22F40032 		bic	r2, r2, #131072
 545 0020 1A64     		str	r2, [r3, #64]
 546              		.loc 1 496 0
 547 0022 2620     		movs	r0, #38
 548              	.LVL41:
 549 0024 FFF7FEBF 		b	nvicDisableVector
 550              	.LVL42:
 551              	.L76:
 552              		.align	2
 553              	.L75:
 554 0028 00000000 		.word	.LANCHOR0
 555 002c 00380240 		.word	1073887232
 556              		.cfi_endproc
 557              	.LFE126:
 558              		.size	sd_lld_stop, .-sd_lld_stop
 559              		.global	SD2
 560              		.section	.rodata.default_config,"a",%progbits
 561              		.align	2
 562              		.set	.LANCHOR1,. + 0
 563              		.type	default_config, %object
 564              		.size	default_config, 12
 565              	default_config:
 566 0000 00960000 		.word	38400
 567 0004 0000     		.short	0
ARM GAS  /var/folders/f2/xhg999f973v6h87pc1fwp6lm0000gn/T//ccl0aI3R.s 			page 11


 568 0006 0040     		.short	16384
 569 0008 0000     		.short	0
 570 000a 0000     		.space	2
 571              		.section	.bss.SD2,"aw",%nobits
 572              		.align	2
 573              		.set	.LANCHOR0,. + 0
 574              		.type	SD2, %object
 575              		.size	SD2, 120
 576              	SD2:
 577 0000 00000000 		.space	120
 577      00000000 
 577      00000000 
 577      00000000 
 577      00000000 
 578              		.text
 579              	.Letext0:
 580              		.file 2 "/Users/Andy/eclipse_chibi/gcc-arm-none-eabi-4_8-2014q1/lib/gcc/arm-none-eabi/4.8.3/includ
 581              		.file 3 "/Users/Andy/eclipse_chibi/gcc-arm-none-eabi-4_8-2014q1/arm-none-eabi/include/machine/_def
 582              		.file 4 "/Users/Andy/eclipse_chibi/gcc-arm-none-eabi-4_8-2014q1/arm-none-eabi/include/stdint.h"
 583              		.file 5 "../../os/ports/GCC/ARMCMx/chtypes.h"
 584              		.file 6 "../../os/kernel/include/chlists.h"
 585              		.file 7 "../../os/kernel/include/chthreads.h"
 586              		.file 8 "../../os/ports/GCC/ARMCMx/chcore_v7m.h"
 587              		.file 9 "../../os/kernel/include/chmtx.h"
 588              		.file 10 "../../os/kernel/include/chevents.h"
 589              		.file 11 "../../os/kernel/include/chqueues.h"
 590              		.file 12 "../../os/hal/platforms/STM32F4xx/stm32f4xx.h"
 591              		.file 13 "../../os/hal/include/serial.h"
 592              		.file 14 "../../os/hal/platforms/STM32/USARTv1/serial_lld.h"
 593              		.file 15 "../../os/ports/common/ARMCMx/nvic.h"
 594              		.file 16 "../../os/ports/common/ARMCMx/CMSIS/include/core_cm4.h"
 595              		.section	.debug_info,"",%progbits
 596              	.Ldebug_info0:
 597 0000 1E0F0000 		.4byte	0xf1e
 598 0004 0400     		.2byte	0x4
 599 0006 00000000 		.4byte	.Ldebug_abbrev0
 600 000a 04       		.byte	0x4
 601 000b 01       		.uleb128 0x1
 602 000c AC030000 		.4byte	.LASF148
 603 0010 01       		.byte	0x1
 604 0011 71060000 		.4byte	.LASF149
 605 0015 AF060000 		.4byte	.LASF150
 606 0019 78000000 		.4byte	.Ldebug_ranges0+0x78
 607 001d 00000000 		.4byte	0
 608 0021 00000000 		.4byte	.Ldebug_line0
 609 0025 02       		.uleb128 0x2
 610 0026 04       		.byte	0x4
 611 0027 05       		.byte	0x5
 612 0028 696E7400 		.ascii	"int\000"
 613 002c 03       		.uleb128 0x3
 614 002d 11000000 		.4byte	.LASF2
 615 0031 02       		.byte	0x2
 616 0032 D4       		.byte	0xd4
 617 0033 37000000 		.4byte	0x37
 618 0037 04       		.uleb128 0x4
 619 0038 04       		.byte	0x4
 620 0039 07       		.byte	0x7
ARM GAS  /var/folders/f2/xhg999f973v6h87pc1fwp6lm0000gn/T//ccl0aI3R.s 			page 12


 621 003a AA010000 		.4byte	.LASF0
 622 003e 04       		.uleb128 0x4
 623 003f 01       		.byte	0x1
 624 0040 06       		.byte	0x6
 625 0041 A9000000 		.4byte	.LASF1
 626 0045 03       		.uleb128 0x3
 627 0046 2B000000 		.4byte	.LASF3
 628 004a 03       		.byte	0x3
 629 004b 1C       		.byte	0x1c
 630 004c 50000000 		.4byte	0x50
 631 0050 04       		.uleb128 0x4
 632 0051 01       		.byte	0x1
 633 0052 08       		.byte	0x8
 634 0053 9E030000 		.4byte	.LASF4
 635 0057 04       		.uleb128 0x4
 636 0058 02       		.byte	0x2
 637 0059 05       		.byte	0x5
 638 005a BA040000 		.4byte	.LASF5
 639 005e 03       		.uleb128 0x3
 640 005f A3050000 		.4byte	.LASF6
 641 0063 03       		.byte	0x3
 642 0064 26       		.byte	0x26
 643 0065 69000000 		.4byte	0x69
 644 0069 04       		.uleb128 0x4
 645 006a 02       		.byte	0x2
 646 006b 07       		.byte	0x7
 647 006c F9010000 		.4byte	.LASF7
 648 0070 03       		.uleb128 0x3
 649 0071 D3050000 		.4byte	.LASF8
 650 0075 03       		.byte	0x3
 651 0076 37       		.byte	0x37
 652 0077 7B000000 		.4byte	0x7b
 653 007b 04       		.uleb128 0x4
 654 007c 04       		.byte	0x4
 655 007d 05       		.byte	0x5
 656 007e 05010000 		.4byte	.LASF9
 657 0082 03       		.uleb128 0x3
 658 0083 77010000 		.4byte	.LASF10
 659 0087 03       		.byte	0x3
 660 0088 38       		.byte	0x38
 661 0089 8D000000 		.4byte	0x8d
 662 008d 04       		.uleb128 0x4
 663 008e 04       		.byte	0x4
 664 008f 07       		.byte	0x7
 665 0090 70050000 		.4byte	.LASF11
 666 0094 04       		.uleb128 0x4
 667 0095 08       		.byte	0x8
 668 0096 05       		.byte	0x5
 669 0097 9B000000 		.4byte	.LASF12
 670 009b 04       		.uleb128 0x4
 671 009c 08       		.byte	0x8
 672 009d 07       		.byte	0x7
 673 009e 3F000000 		.4byte	.LASF13
 674 00a2 03       		.uleb128 0x3
 675 00a3 40060000 		.4byte	.LASF14
 676 00a7 04       		.byte	0x4
 677 00a8 2A       		.byte	0x2a
ARM GAS  /var/folders/f2/xhg999f973v6h87pc1fwp6lm0000gn/T//ccl0aI3R.s 			page 13


 678 00a9 45000000 		.4byte	0x45
 679 00ad 03       		.uleb128 0x3
 680 00ae B7010000 		.4byte	.LASF15
 681 00b2 04       		.byte	0x4
 682 00b3 36       		.byte	0x36
 683 00b4 5E000000 		.4byte	0x5e
 684 00b8 03       		.uleb128 0x3
 685 00b9 96030000 		.4byte	.LASF16
 686 00bd 04       		.byte	0x4
 687 00be 41       		.byte	0x41
 688 00bf 70000000 		.4byte	0x70
 689 00c3 03       		.uleb128 0x3
 690 00c4 3E050000 		.4byte	.LASF17
 691 00c8 04       		.byte	0x4
 692 00c9 42       		.byte	0x42
 693 00ca 82000000 		.4byte	0x82
 694 00ce 03       		.uleb128 0x3
 695 00cf CB000000 		.4byte	.LASF18
 696 00d3 05       		.byte	0x5
 697 00d4 2B       		.byte	0x2b
 698 00d5 D9000000 		.4byte	0xd9
 699 00d9 04       		.uleb128 0x4
 700 00da 01       		.byte	0x1
 701 00db 02       		.byte	0x2
 702 00dc 90030000 		.4byte	.LASF19
 703 00e0 03       		.uleb128 0x3
 704 00e1 4C020000 		.4byte	.LASF20
 705 00e5 05       		.byte	0x5
 706 00e6 2C       		.byte	0x2c
 707 00e7 A2000000 		.4byte	0xa2
 708 00eb 03       		.uleb128 0x3
 709 00ec 21010000 		.4byte	.LASF21
 710 00f0 05       		.byte	0x5
 711 00f1 2D       		.byte	0x2d
 712 00f2 A2000000 		.4byte	0xa2
 713 00f6 03       		.uleb128 0x3
 714 00f7 35030000 		.4byte	.LASF22
 715 00fb 05       		.byte	0x5
 716 00fc 2E       		.byte	0x2e
 717 00fd A2000000 		.4byte	0xa2
 718 0101 03       		.uleb128 0x3
 719 0102 DA000000 		.4byte	.LASF23
 720 0106 05       		.byte	0x5
 721 0107 2F       		.byte	0x2f
 722 0108 A2000000 		.4byte	0xa2
 723 010c 03       		.uleb128 0x3
 724 010d 80030000 		.4byte	.LASF24
 725 0111 05       		.byte	0x5
 726 0112 30       		.byte	0x30
 727 0113 C3000000 		.4byte	0xc3
 728 0117 03       		.uleb128 0x3
 729 0118 17020000 		.4byte	.LASF25
 730 011c 05       		.byte	0x5
 731 011d 31       		.byte	0x31
 732 011e B8000000 		.4byte	0xb8
 733 0122 03       		.uleb128 0x3
 734 0123 6A020000 		.4byte	.LASF26
ARM GAS  /var/folders/f2/xhg999f973v6h87pc1fwp6lm0000gn/T//ccl0aI3R.s 			page 14


 735 0127 05       		.byte	0x5
 736 0128 33       		.byte	0x33
 737 0129 C3000000 		.4byte	0xc3
 738 012d 03       		.uleb128 0x3
 739 012e 05060000 		.4byte	.LASF27
 740 0132 05       		.byte	0x5
 741 0133 34       		.byte	0x34
 742 0134 C3000000 		.4byte	0xc3
 743 0138 03       		.uleb128 0x3
 744 0139 BE050000 		.4byte	.LASF28
 745 013d 05       		.byte	0x5
 746 013e 35       		.byte	0x35
 747 013f C3000000 		.4byte	0xc3
 748 0143 03       		.uleb128 0x3
 749 0144 08050000 		.4byte	.LASF29
 750 0148 06       		.byte	0x6
 751 0149 2A       		.byte	0x2a
 752 014a 4E010000 		.4byte	0x14e
 753 014e 05       		.uleb128 0x5
 754 014f 08050000 		.4byte	.LASF29
 755 0153 48       		.byte	0x48
 756 0154 07       		.byte	0x7
 757 0155 5E       		.byte	0x5e
 758 0156 4B020000 		.4byte	0x24b
 759 015a 06       		.uleb128 0x6
 760 015b D6020000 		.4byte	.LASF30
 761 015f 07       		.byte	0x7
 762 0160 5F       		.byte	0x5f
 763 0161 6C020000 		.4byte	0x26c
 764 0165 00       		.byte	0
 765 0166 06       		.uleb128 0x6
 766 0167 6F030000 		.4byte	.LASF31
 767 016b 07       		.byte	0x7
 768 016c 61       		.byte	0x61
 769 016d 6C020000 		.4byte	0x26c
 770 0171 04       		.byte	0x4
 771 0172 06       		.uleb128 0x6
 772 0173 48060000 		.4byte	.LASF32
 773 0177 07       		.byte	0x7
 774 0178 63       		.byte	0x63
 775 0179 0C010000 		.4byte	0x10c
 776 017d 08       		.byte	0x8
 777 017e 06       		.uleb128 0x6
 778 017f F1060000 		.4byte	.LASF33
 779 0183 07       		.byte	0x7
 780 0184 64       		.byte	0x64
 781 0185 26030000 		.4byte	0x326
 782 0189 0C       		.byte	0xc
 783 018a 06       		.uleb128 0x6
 784 018b 67010000 		.4byte	.LASF34
 785 018f 07       		.byte	0x7
 786 0190 66       		.byte	0x66
 787 0191 6C020000 		.4byte	0x26c
 788 0195 10       		.byte	0x10
 789 0196 06       		.uleb128 0x6
 790 0197 E5020000 		.4byte	.LASF35
 791 019b 07       		.byte	0x7
ARM GAS  /var/folders/f2/xhg999f973v6h87pc1fwp6lm0000gn/T//ccl0aI3R.s 			page 15


 792 019c 67       		.byte	0x67
 793 019d 6C020000 		.4byte	0x26c
 794 01a1 14       		.byte	0x14
 795 01a2 06       		.uleb128 0x6
 796 01a3 1D060000 		.4byte	.LASF36
 797 01a7 07       		.byte	0x7
 798 01a8 6E       		.byte	0x6e
 799 01a9 41040000 		.4byte	0x441
 800 01ad 18       		.byte	0x18
 801 01ae 06       		.uleb128 0x6
 802 01af A8040000 		.4byte	.LASF37
 803 01b3 07       		.byte	0x7
 804 01b4 79       		.byte	0x79
 805 01b5 EB000000 		.4byte	0xeb
 806 01b9 1C       		.byte	0x1c
 807 01ba 06       		.uleb128 0x6
 808 01bb DF040000 		.4byte	.LASF38
 809 01bf 07       		.byte	0x7
 810 01c0 7D       		.byte	0x7d
 811 01c1 E0000000 		.4byte	0xe0
 812 01c5 1D       		.byte	0x1d
 813 01c6 06       		.uleb128 0x6
 814 01c7 33010000 		.4byte	.LASF39
 815 01cb 07       		.byte	0x7
 816 01cc 82       		.byte	0x82
 817 01cd F6000000 		.4byte	0xf6
 818 01d1 1E       		.byte	0x1e
 819 01d2 06       		.uleb128 0x6
 820 01d3 C4040000 		.4byte	.LASF40
 821 01d7 07       		.byte	0x7
 822 01d8 88       		.byte	0x88
 823 01d9 01010000 		.4byte	0x101
 824 01dd 1F       		.byte	0x1f
 825 01de 06       		.uleb128 0x6
 826 01df 4B010000 		.4byte	.LASF41
 827 01e3 07       		.byte	0x7
 828 01e4 8F       		.byte	0x8f
 829 01e5 53030000 		.4byte	0x353
 830 01e9 20       		.byte	0x20
 831 01ea 07       		.uleb128 0x7
 832 01eb 705F7500 		.ascii	"p_u\000"
 833 01ef 07       		.byte	0x7
 834 01f0 B4       		.byte	0xb4
 835 01f1 0C040000 		.4byte	0x40c
 836 01f5 24       		.byte	0x24
 837 01f6 06       		.uleb128 0x6
 838 01f7 F7060000 		.4byte	.LASF42
 839 01fb 07       		.byte	0x7
 840 01fc B9       		.byte	0xb9
 841 01fd 92020000 		.4byte	0x292
 842 0201 28       		.byte	0x28
 843 0202 06       		.uleb128 0x6
 844 0203 D7010000 		.4byte	.LASF43
 845 0207 07       		.byte	0x7
 846 0208 BF       		.byte	0xbf
 847 0209 72020000 		.4byte	0x272
 848 020d 2C       		.byte	0x2c
ARM GAS  /var/folders/f2/xhg999f973v6h87pc1fwp6lm0000gn/T//ccl0aI3R.s 			page 16


 849 020e 06       		.uleb128 0x6
 850 020f 3A060000 		.4byte	.LASF44
 851 0213 07       		.byte	0x7
 852 0214 C3       		.byte	0xc3
 853 0215 17010000 		.4byte	0x117
 854 0219 34       		.byte	0x34
 855 021a 06       		.uleb128 0x6
 856 021b 1F050000 		.4byte	.LASF45
 857 021f 07       		.byte	0x7
 858 0220 C9       		.byte	0xc9
 859 0221 22010000 		.4byte	0x122
 860 0225 38       		.byte	0x38
 861 0226 06       		.uleb128 0x6
 862 0227 B0040000 		.4byte	.LASF46
 863 022b 07       		.byte	0x7
 864 022c D0       		.byte	0xd0
 865 022d 53040000 		.4byte	0x453
 866 0231 3C       		.byte	0x3c
 867 0232 06       		.uleb128 0x6
 868 0233 C8050000 		.4byte	.LASF47
 869 0237 07       		.byte	0x7
 870 0238 D4       		.byte	0xd4
 871 0239 0C010000 		.4byte	0x10c
 872 023d 40       		.byte	0x40
 873 023e 06       		.uleb128 0x6
 874 023f C3000000 		.4byte	.LASF48
 875 0243 07       		.byte	0x7
 876 0244 DA       		.byte	0xda
 877 0245 A8020000 		.4byte	0x2a8
 878 0249 44       		.byte	0x44
 879 024a 00       		.byte	0
 880 024b 08       		.uleb128 0x8
 881 024c 08       		.byte	0x8
 882 024d 06       		.byte	0x6
 883 024e 61       		.byte	0x61
 884 024f 6C020000 		.4byte	0x26c
 885 0253 06       		.uleb128 0x6
 886 0254 D6020000 		.4byte	.LASF30
 887 0258 06       		.byte	0x6
 888 0259 62       		.byte	0x62
 889 025a 6C020000 		.4byte	0x26c
 890 025e 00       		.byte	0
 891 025f 06       		.uleb128 0x6
 892 0260 6F030000 		.4byte	.LASF31
 893 0264 06       		.byte	0x6
 894 0265 64       		.byte	0x64
 895 0266 6C020000 		.4byte	0x26c
 896 026a 04       		.byte	0x4
 897 026b 00       		.byte	0
 898 026c 09       		.uleb128 0x9
 899 026d 04       		.byte	0x4
 900 026e 43010000 		.4byte	0x143
 901 0272 03       		.uleb128 0x3
 902 0273 ED020000 		.4byte	.LASF49
 903 0277 06       		.byte	0x6
 904 0278 66       		.byte	0x66
 905 0279 4B020000 		.4byte	0x24b
ARM GAS  /var/folders/f2/xhg999f973v6h87pc1fwp6lm0000gn/T//ccl0aI3R.s 			page 17


 906 027d 08       		.uleb128 0x8
 907 027e 04       		.byte	0x4
 908 027f 06       		.byte	0x6
 909 0280 6B       		.byte	0x6b
 910 0281 92020000 		.4byte	0x292
 911 0285 06       		.uleb128 0x6
 912 0286 D6020000 		.4byte	.LASF30
 913 028a 06       		.byte	0x6
 914 028b 6D       		.byte	0x6d
 915 028c 6C020000 		.4byte	0x26c
 916 0290 00       		.byte	0
 917 0291 00       		.byte	0
 918 0292 03       		.uleb128 0x3
 919 0293 5E020000 		.4byte	.LASF50
 920 0297 06       		.byte	0x6
 921 0298 70       		.byte	0x70
 922 0299 7D020000 		.4byte	0x27d
 923 029d 03       		.uleb128 0x3
 924 029e 82010000 		.4byte	.LASF51
 925 02a2 08       		.byte	0x8
 926 02a3 E5       		.byte	0xe5
 927 02a4 A8020000 		.4byte	0x2a8
 928 02a8 0A       		.uleb128 0xa
 929 02a9 04       		.byte	0x4
 930 02aa 0B       		.uleb128 0xb
 931 02ab F5050000 		.4byte	.LASF52
 932 02af 24       		.byte	0x24
 933 02b0 08       		.byte	0x8
 934 02b1 0C01     		.2byte	0x10c
 935 02b3 26030000 		.4byte	0x326
 936 02b7 0C       		.uleb128 0xc
 937 02b8 723400   		.ascii	"r4\000"
 938 02bb 08       		.byte	0x8
 939 02bc 1F01     		.2byte	0x11f
 940 02be 9D020000 		.4byte	0x29d
 941 02c2 00       		.byte	0
 942 02c3 0C       		.uleb128 0xc
 943 02c4 723500   		.ascii	"r5\000"
 944 02c7 08       		.byte	0x8
 945 02c8 2001     		.2byte	0x120
 946 02ca 9D020000 		.4byte	0x29d
 947 02ce 04       		.byte	0x4
 948 02cf 0C       		.uleb128 0xc
 949 02d0 723600   		.ascii	"r6\000"
 950 02d3 08       		.byte	0x8
 951 02d4 2101     		.2byte	0x121
 952 02d6 9D020000 		.4byte	0x29d
 953 02da 08       		.byte	0x8
 954 02db 0C       		.uleb128 0xc
 955 02dc 723700   		.ascii	"r7\000"
 956 02df 08       		.byte	0x8
 957 02e0 2201     		.2byte	0x122
 958 02e2 9D020000 		.4byte	0x29d
 959 02e6 0C       		.byte	0xc
 960 02e7 0C       		.uleb128 0xc
 961 02e8 723800   		.ascii	"r8\000"
 962 02eb 08       		.byte	0x8
ARM GAS  /var/folders/f2/xhg999f973v6h87pc1fwp6lm0000gn/T//ccl0aI3R.s 			page 18


 963 02ec 2301     		.2byte	0x123
 964 02ee 9D020000 		.4byte	0x29d
 965 02f2 10       		.byte	0x10
 966 02f3 0C       		.uleb128 0xc
 967 02f4 723900   		.ascii	"r9\000"
 968 02f7 08       		.byte	0x8
 969 02f8 2401     		.2byte	0x124
 970 02fa 9D020000 		.4byte	0x29d
 971 02fe 14       		.byte	0x14
 972 02ff 0C       		.uleb128 0xc
 973 0300 72313000 		.ascii	"r10\000"
 974 0304 08       		.byte	0x8
 975 0305 2501     		.2byte	0x125
 976 0307 9D020000 		.4byte	0x29d
 977 030b 18       		.byte	0x18
 978 030c 0C       		.uleb128 0xc
 979 030d 72313100 		.ascii	"r11\000"
 980 0311 08       		.byte	0x8
 981 0312 2601     		.2byte	0x126
 982 0314 9D020000 		.4byte	0x29d
 983 0318 1C       		.byte	0x1c
 984 0319 0C       		.uleb128 0xc
 985 031a 6C7200   		.ascii	"lr\000"
 986 031d 08       		.byte	0x8
 987 031e 2701     		.2byte	0x127
 988 0320 9D020000 		.4byte	0x29d
 989 0324 20       		.byte	0x20
 990 0325 00       		.byte	0
 991 0326 0B       		.uleb128 0xb
 992 0327 ED050000 		.4byte	.LASF53
 993 032b 04       		.byte	0x4
 994 032c 08       		.byte	0x8
 995 032d 3101     		.2byte	0x131
 996 032f 41030000 		.4byte	0x341
 997 0333 0C       		.uleb128 0xc
 998 0334 72313300 		.ascii	"r13\000"
 999 0338 08       		.byte	0x8
 1000 0339 3201     		.2byte	0x132
 1001 033b 41030000 		.4byte	0x341
 1002 033f 00       		.byte	0
 1003 0340 00       		.byte	0
 1004 0341 09       		.uleb128 0x9
 1005 0342 04       		.byte	0x4
 1006 0343 AA020000 		.4byte	0x2aa
 1007 0347 0D       		.uleb128 0xd
 1008 0348 C3000000 		.4byte	0xc3
 1009 034c 04       		.uleb128 0x4
 1010 034d 04       		.byte	0x4
 1011 034e 07       		.byte	0x7
 1012 034f BD020000 		.4byte	.LASF54
 1013 0353 0D       		.uleb128 0xd
 1014 0354 38010000 		.4byte	0x138
 1015 0358 05       		.uleb128 0x5
 1016 0359 D0020000 		.4byte	.LASF55
 1017 035d 10       		.byte	0x10
 1018 035e 09       		.byte	0x9
 1019 035f 2C       		.byte	0x2c
ARM GAS  /var/folders/f2/xhg999f973v6h87pc1fwp6lm0000gn/T//ccl0aI3R.s 			page 19


 1020 0360 89030000 		.4byte	0x389
 1021 0364 06       		.uleb128 0x6
 1022 0365 D2000000 		.4byte	.LASF56
 1023 0369 09       		.byte	0x9
 1024 036a 2D       		.byte	0x2d
 1025 036b 72020000 		.4byte	0x272
 1026 036f 00       		.byte	0
 1027 0370 06       		.uleb128 0x6
 1028 0371 E9060000 		.4byte	.LASF57
 1029 0375 09       		.byte	0x9
 1030 0376 2F       		.byte	0x2f
 1031 0377 6C020000 		.4byte	0x26c
 1032 037b 08       		.byte	0x8
 1033 037c 06       		.uleb128 0x6
 1034 037d B7050000 		.4byte	.LASF58
 1035 0381 09       		.byte	0x9
 1036 0382 31       		.byte	0x31
 1037 0383 89030000 		.4byte	0x389
 1038 0387 0C       		.byte	0xc
 1039 0388 00       		.byte	0
 1040 0389 09       		.uleb128 0x9
 1041 038a 04       		.byte	0x4
 1042 038b 58030000 		.4byte	0x358
 1043 038f 03       		.uleb128 0x3
 1044 0390 D0020000 		.4byte	.LASF55
 1045 0394 09       		.byte	0x9
 1046 0395 33       		.byte	0x33
 1047 0396 58030000 		.4byte	0x358
 1048 039a 03       		.uleb128 0x3
 1049 039b 4F060000 		.4byte	.LASF59
 1050 039f 0A       		.byte	0xa
 1051 03a0 2C       		.byte	0x2c
 1052 03a1 A5030000 		.4byte	0x3a5
 1053 03a5 05       		.uleb128 0x5
 1054 03a6 4F060000 		.4byte	.LASF59
 1055 03aa 10       		.byte	0x10
 1056 03ab 0A       		.byte	0xa
 1057 03ac 31       		.byte	0x31
 1058 03ad E2030000 		.4byte	0x3e2
 1059 03b1 06       		.uleb128 0x6
 1060 03b2 E7040000 		.4byte	.LASF60
 1061 03b6 0A       		.byte	0xa
 1062 03b7 32       		.byte	0x32
 1063 03b8 E2030000 		.4byte	0x3e2
 1064 03bc 00       		.byte	0
 1065 03bd 06       		.uleb128 0x6
 1066 03be 93040000 		.4byte	.LASF61
 1067 03c2 0A       		.byte	0xa
 1068 03c3 35       		.byte	0x35
 1069 03c4 6C020000 		.4byte	0x26c
 1070 03c8 04       		.byte	0x4
 1071 03c9 06       		.uleb128 0x6
 1072 03ca 0D030000 		.4byte	.LASF62
 1073 03ce 0A       		.byte	0xa
 1074 03cf 37       		.byte	0x37
 1075 03d0 22010000 		.4byte	0x122
 1076 03d4 08       		.byte	0x8
ARM GAS  /var/folders/f2/xhg999f973v6h87pc1fwp6lm0000gn/T//ccl0aI3R.s 			page 20


 1077 03d5 06       		.uleb128 0x6
 1078 03d6 9F040000 		.4byte	.LASF63
 1079 03da 0A       		.byte	0xa
 1080 03db 3A       		.byte	0x3a
 1081 03dc 2D010000 		.4byte	0x12d
 1082 03e0 0C       		.byte	0xc
 1083 03e1 00       		.byte	0
 1084 03e2 09       		.uleb128 0x9
 1085 03e3 04       		.byte	0x4
 1086 03e4 9A030000 		.4byte	0x39a
 1087 03e8 05       		.uleb128 0x5
 1088 03e9 98010000 		.4byte	.LASF64
 1089 03ed 04       		.byte	0x4
 1090 03ee 0A       		.byte	0xa
 1091 03ef 41       		.byte	0x41
 1092 03f0 01040000 		.4byte	0x401
 1093 03f4 06       		.uleb128 0x6
 1094 03f5 24060000 		.4byte	.LASF65
 1095 03f9 0A       		.byte	0xa
 1096 03fa 42       		.byte	0x42
 1097 03fb E2030000 		.4byte	0x3e2
 1098 03ff 00       		.byte	0
 1099 0400 00       		.byte	0
 1100 0401 03       		.uleb128 0x3
 1101 0402 98010000 		.4byte	.LASF64
 1102 0406 0A       		.byte	0xa
 1103 0407 45       		.byte	0x45
 1104 0408 E8030000 		.4byte	0x3e8
 1105 040c 0E       		.uleb128 0xe
 1106 040d 04       		.byte	0x4
 1107 040e 07       		.byte	0x7
 1108 040f 96       		.byte	0x96
 1109 0410 41040000 		.4byte	0x441
 1110 0414 0F       		.uleb128 0xf
 1111 0415 18000000 		.4byte	.LASF66
 1112 0419 07       		.byte	0x7
 1113 041a 9D       		.byte	0x9d
 1114 041b 17010000 		.4byte	0x117
 1115 041f 0F       		.uleb128 0xf
 1116 0420 56000000 		.4byte	.LASF67
 1117 0424 07       		.byte	0x7
 1118 0425 A4       		.byte	0xa4
 1119 0426 17010000 		.4byte	0x117
 1120 042a 0F       		.uleb128 0xf
 1121 042b 5D060000 		.4byte	.LASF68
 1122 042f 07       		.byte	0x7
 1123 0430 AB       		.byte	0xab
 1124 0431 A8020000 		.4byte	0x2a8
 1125 0435 0F       		.uleb128 0xf
 1126 0436 D8040000 		.4byte	.LASF69
 1127 043a 07       		.byte	0x7
 1128 043b B2       		.byte	0xb2
 1129 043c 22010000 		.4byte	0x122
 1130 0440 00       		.byte	0
 1131 0441 09       		.uleb128 0x9
 1132 0442 04       		.byte	0x4
 1133 0443 47040000 		.4byte	0x447
ARM GAS  /var/folders/f2/xhg999f973v6h87pc1fwp6lm0000gn/T//ccl0aI3R.s 			page 21


 1134 0447 10       		.uleb128 0x10
 1135 0448 4C040000 		.4byte	0x44c
 1136 044c 04       		.uleb128 0x4
 1137 044d 01       		.byte	0x1
 1138 044e 08       		.byte	0x8
 1139 044f 87050000 		.4byte	.LASF70
 1140 0453 09       		.uleb128 0x9
 1141 0454 04       		.byte	0x4
 1142 0455 8F030000 		.4byte	0x38f
 1143 0459 09       		.uleb128 0x9
 1144 045a 04       		.byte	0x4
 1145 045b 5F040000 		.4byte	0x45f
 1146 045f 11       		.uleb128 0x11
 1147 0460 17010000 		.4byte	0x117
 1148 0464 6E040000 		.4byte	0x46e
 1149 0468 12       		.uleb128 0x12
 1150 0469 A8020000 		.4byte	0x2a8
 1151 046d 00       		.byte	0
 1152 046e 03       		.uleb128 0x3
 1153 046f 9A020000 		.4byte	.LASF71
 1154 0473 0B       		.byte	0xb
 1155 0474 37       		.byte	0x37
 1156 0475 79040000 		.4byte	0x479
 1157 0479 05       		.uleb128 0x5
 1158 047a 9A020000 		.4byte	.LASF71
 1159 047e 24       		.byte	0x24
 1160 047f 0B       		.byte	0xb
 1161 0480 45       		.byte	0x45
 1162 0481 E6040000 		.4byte	0x4e6
 1163 0485 06       		.uleb128 0x6
 1164 0486 89000000 		.4byte	.LASF72
 1165 048a 0B       		.byte	0xb
 1166 048b 46       		.byte	0x46
 1167 048c 72020000 		.4byte	0x272
 1168 0490 00       		.byte	0
 1169 0491 06       		.uleb128 0x6
 1170 0492 C6020000 		.4byte	.LASF73
 1171 0496 0B       		.byte	0xb
 1172 0497 47       		.byte	0x47
 1173 0498 2C000000 		.4byte	0x2c
 1174 049c 08       		.byte	0x8
 1175 049d 06       		.uleb128 0x6
 1176 049e 3A010000 		.4byte	.LASF74
 1177 04a2 0B       		.byte	0xb
 1178 04a3 48       		.byte	0x48
 1179 04a4 08050000 		.4byte	0x508
 1180 04a8 0C       		.byte	0xc
 1181 04a9 06       		.uleb128 0x6
 1182 04aa 17060000 		.4byte	.LASF75
 1183 04ae 0B       		.byte	0xb
 1184 04af 49       		.byte	0x49
 1185 04b0 08050000 		.4byte	0x508
 1186 04b4 10       		.byte	0x10
 1187 04b5 06       		.uleb128 0x6
 1188 04b6 43010000 		.4byte	.LASF76
 1189 04ba 0B       		.byte	0xb
 1190 04bb 4B       		.byte	0x4b
ARM GAS  /var/folders/f2/xhg999f973v6h87pc1fwp6lm0000gn/T//ccl0aI3R.s 			page 22


 1191 04bc 08050000 		.4byte	0x508
 1192 04c0 14       		.byte	0x14
 1193 04c1 06       		.uleb128 0x6
 1194 04c2 88030000 		.4byte	.LASF77
 1195 04c6 0B       		.byte	0xb
 1196 04c7 4C       		.byte	0x4c
 1197 04c8 08050000 		.4byte	0x508
 1198 04cc 18       		.byte	0x18
 1199 04cd 06       		.uleb128 0x6
 1200 04ce 31060000 		.4byte	.LASF78
 1201 04d2 0B       		.byte	0xb
 1202 04d3 4D       		.byte	0x4d
 1203 04d4 E6040000 		.4byte	0x4e6
 1204 04d8 1C       		.byte	0x1c
 1205 04d9 06       		.uleb128 0x6
 1206 04da E2060000 		.4byte	.LASF79
 1207 04de 0B       		.byte	0xb
 1208 04df 4E       		.byte	0x4e
 1209 04e0 A8020000 		.4byte	0x2a8
 1210 04e4 20       		.byte	0x20
 1211 04e5 00       		.byte	0
 1212 04e6 03       		.uleb128 0x3
 1213 04e7 90020000 		.4byte	.LASF80
 1214 04eb 0B       		.byte	0xb
 1215 04ec 3A       		.byte	0x3a
 1216 04ed F1040000 		.4byte	0x4f1
 1217 04f1 09       		.uleb128 0x9
 1218 04f2 04       		.byte	0x4
 1219 04f3 F7040000 		.4byte	0x4f7
 1220 04f7 13       		.uleb128 0x13
 1221 04f8 02050000 		.4byte	0x502
 1222 04fc 12       		.uleb128 0x12
 1223 04fd 02050000 		.4byte	0x502
 1224 0501 00       		.byte	0
 1225 0502 09       		.uleb128 0x9
 1226 0503 04       		.byte	0x4
 1227 0504 6E040000 		.4byte	0x46e
 1228 0508 09       		.uleb128 0x9
 1229 0509 04       		.byte	0x4
 1230 050a A2000000 		.4byte	0xa2
 1231 050e 03       		.uleb128 0x3
 1232 050f 76020000 		.4byte	.LASF81
 1233 0513 0B       		.byte	0xb
 1234 0514 82       		.byte	0x82
 1235 0515 6E040000 		.4byte	0x46e
 1236 0519 03       		.uleb128 0x3
 1237 051a 1F000000 		.4byte	.LASF82
 1238 051e 0B       		.byte	0xb
 1239 051f F5       		.byte	0xf5
 1240 0520 6E040000 		.4byte	0x46e
 1241 0524 11       		.uleb128 0x11
 1242 0525 2C000000 		.4byte	0x2c
 1243 0529 3D050000 		.4byte	0x53d
 1244 052d 12       		.uleb128 0x12
 1245 052e A8020000 		.4byte	0x2a8
 1246 0532 12       		.uleb128 0x12
 1247 0533 3D050000 		.4byte	0x53d
ARM GAS  /var/folders/f2/xhg999f973v6h87pc1fwp6lm0000gn/T//ccl0aI3R.s 			page 23


 1248 0537 12       		.uleb128 0x12
 1249 0538 2C000000 		.4byte	0x2c
 1250 053c 00       		.byte	0
 1251 053d 09       		.uleb128 0x9
 1252 053e 04       		.byte	0x4
 1253 053f 43050000 		.4byte	0x543
 1254 0543 10       		.uleb128 0x10
 1255 0544 A2000000 		.4byte	0xa2
 1256 0548 09       		.uleb128 0x9
 1257 0549 04       		.byte	0x4
 1258 054a 24050000 		.4byte	0x524
 1259 054e 11       		.uleb128 0x11
 1260 054f 2C000000 		.4byte	0x2c
 1261 0553 67050000 		.4byte	0x567
 1262 0557 12       		.uleb128 0x12
 1263 0558 A8020000 		.4byte	0x2a8
 1264 055c 12       		.uleb128 0x12
 1265 055d 08050000 		.4byte	0x508
 1266 0561 12       		.uleb128 0x12
 1267 0562 2C000000 		.4byte	0x2c
 1268 0566 00       		.byte	0
 1269 0567 09       		.uleb128 0x9
 1270 0568 04       		.byte	0x4
 1271 0569 4E050000 		.4byte	0x54e
 1272 056d 11       		.uleb128 0x11
 1273 056e 17010000 		.4byte	0x117
 1274 0572 81050000 		.4byte	0x581
 1275 0576 12       		.uleb128 0x12
 1276 0577 A8020000 		.4byte	0x2a8
 1277 057b 12       		.uleb128 0x12
 1278 057c A2000000 		.4byte	0xa2
 1279 0580 00       		.byte	0
 1280 0581 09       		.uleb128 0x9
 1281 0582 04       		.byte	0x4
 1282 0583 6D050000 		.4byte	0x56d
 1283 0587 14       		.uleb128 0x14
 1284 0588 C3000000 		.4byte	0xc3
 1285 058c 97050000 		.4byte	0x597
 1286 0590 15       		.uleb128 0x15
 1287 0591 4C030000 		.4byte	0x34c
 1288 0595 01       		.byte	0x1
 1289 0596 00       		.byte	0
 1290 0597 0D       		.uleb128 0xd
 1291 0598 AD000000 		.4byte	0xad
 1292 059c 0D       		.uleb128 0xd
 1293 059d B8000000 		.4byte	0xb8
 1294 05a1 16       		.uleb128 0x16
 1295 05a2 90       		.byte	0x90
 1296 05a3 0C       		.byte	0xc
 1297 05a4 5804     		.2byte	0x458
 1298 05a6 4A070000 		.4byte	0x74a
 1299 05aa 0C       		.uleb128 0xc
 1300 05ab 435200   		.ascii	"CR\000"
 1301 05ae 0C       		.byte	0xc
 1302 05af 5A04     		.2byte	0x45a
 1303 05b1 47030000 		.4byte	0x347
 1304 05b5 00       		.byte	0
ARM GAS  /var/folders/f2/xhg999f973v6h87pc1fwp6lm0000gn/T//ccl0aI3R.s 			page 24


 1305 05b6 17       		.uleb128 0x17
 1306 05b7 6F010000 		.4byte	.LASF83
 1307 05bb 0C       		.byte	0xc
 1308 05bc 5B04     		.2byte	0x45b
 1309 05be 47030000 		.4byte	0x347
 1310 05c2 04       		.byte	0x4
 1311 05c3 17       		.uleb128 0x17
 1312 05c4 6C060000 		.4byte	.LASF84
 1313 05c8 0C       		.byte	0xc
 1314 05c9 5C04     		.2byte	0x45c
 1315 05cb 47030000 		.4byte	0x347
 1316 05cf 08       		.byte	0x8
 1317 05d0 0C       		.uleb128 0xc
 1318 05d1 43495200 		.ascii	"CIR\000"
 1319 05d5 0C       		.byte	0xc
 1320 05d6 5D04     		.2byte	0x45d
 1321 05d8 47030000 		.4byte	0x347
 1322 05dc 0C       		.byte	0xc
 1323 05dd 17       		.uleb128 0x17
 1324 05de B5000000 		.4byte	.LASF85
 1325 05e2 0C       		.byte	0xc
 1326 05e3 5E04     		.2byte	0x45e
 1327 05e5 47030000 		.4byte	0x347
 1328 05e9 10       		.byte	0x10
 1329 05ea 17       		.uleb128 0x17
 1330 05eb AE050000 		.4byte	.LASF86
 1331 05ef 0C       		.byte	0xc
 1332 05f0 5F04     		.2byte	0x45f
 1333 05f2 47030000 		.4byte	0x347
 1334 05f6 14       		.byte	0x14
 1335 05f7 17       		.uleb128 0x17
 1336 05f8 FF040000 		.4byte	.LASF87
 1337 05fc 0C       		.byte	0xc
 1338 05fd 6004     		.2byte	0x460
 1339 05ff 47030000 		.4byte	0x347
 1340 0603 18       		.byte	0x18
 1341 0604 17       		.uleb128 0x17
 1342 0605 3D030000 		.4byte	.LASF88
 1343 0609 0C       		.byte	0xc
 1344 060a 6104     		.2byte	0x461
 1345 060c C3000000 		.4byte	0xc3
 1346 0610 1C       		.byte	0x1c
 1347 0611 17       		.uleb128 0x17
 1348 0612 04030000 		.4byte	.LASF89
 1349 0616 0C       		.byte	0xc
 1350 0617 6204     		.2byte	0x462
 1351 0619 47030000 		.4byte	0x347
 1352 061d 20       		.byte	0x20
 1353 061e 17       		.uleb128 0x17
 1354 061f 0E010000 		.4byte	.LASF90
 1355 0623 0C       		.byte	0xc
 1356 0624 6304     		.2byte	0x463
 1357 0626 47030000 		.4byte	0x347
 1358 062a 24       		.byte	0x24
 1359 062b 17       		.uleb128 0x17
 1360 062c 47030000 		.4byte	.LASF91
 1361 0630 0C       		.byte	0xc
ARM GAS  /var/folders/f2/xhg999f973v6h87pc1fwp6lm0000gn/T//ccl0aI3R.s 			page 25


 1362 0631 6404     		.2byte	0x464
 1363 0633 87050000 		.4byte	0x587
 1364 0637 28       		.byte	0x28
 1365 0638 17       		.uleb128 0x17
 1366 0639 64060000 		.4byte	.LASF92
 1367 063d 0C       		.byte	0xc
 1368 063e 6504     		.2byte	0x465
 1369 0640 47030000 		.4byte	0x347
 1370 0644 30       		.byte	0x30
 1371 0645 17       		.uleb128 0x17
 1372 0646 E5050000 		.4byte	.LASF93
 1373 064a 0C       		.byte	0xc
 1374 064b 6604     		.2byte	0x466
 1375 064d 47030000 		.4byte	0x347
 1376 0651 34       		.byte	0x34
 1377 0652 17       		.uleb128 0x17
 1378 0653 DD020000 		.4byte	.LASF94
 1379 0657 0C       		.byte	0xc
 1380 0658 6704     		.2byte	0x467
 1381 065a 47030000 		.4byte	0x347
 1382 065e 38       		.byte	0x38
 1383 065f 17       		.uleb128 0x17
 1384 0660 51030000 		.4byte	.LASF95
 1385 0664 0C       		.byte	0xc
 1386 0665 6804     		.2byte	0x468
 1387 0667 C3000000 		.4byte	0xc3
 1388 066b 3C       		.byte	0x3c
 1389 066c 17       		.uleb128 0x17
 1390 066d DD050000 		.4byte	.LASF96
 1391 0671 0C       		.byte	0xc
 1392 0672 6904     		.2byte	0x469
 1393 0674 47030000 		.4byte	0x347
 1394 0678 40       		.byte	0x40
 1395 0679 17       		.uleb128 0x17
 1396 067a F7040000 		.4byte	.LASF97
 1397 067e 0C       		.byte	0xc
 1398 067f 6A04     		.2byte	0x46a
 1399 0681 47030000 		.4byte	0x347
 1400 0685 44       		.byte	0x44
 1401 0686 17       		.uleb128 0x17
 1402 0687 5B030000 		.4byte	.LASF98
 1403 068b 0C       		.byte	0xc
 1404 068c 6B04     		.2byte	0x46b
 1405 068e 87050000 		.4byte	0x587
 1406 0692 48       		.byte	0x48
 1407 0693 17       		.uleb128 0x17
 1408 0694 6C000000 		.4byte	.LASF99
 1409 0698 0C       		.byte	0xc
 1410 0699 6C04     		.2byte	0x46c
 1411 069b 47030000 		.4byte	0x347
 1412 069f 50       		.byte	0x50
 1413 06a0 17       		.uleb128 0x17
 1414 06a1 FA020000 		.4byte	.LASF100
 1415 06a5 0C       		.byte	0xc
 1416 06a6 6D04     		.2byte	0x46d
 1417 06a8 47030000 		.4byte	0x347
 1418 06ac 54       		.byte	0x54
ARM GAS  /var/folders/f2/xhg999f973v6h87pc1fwp6lm0000gn/T//ccl0aI3R.s 			page 26


 1419 06ad 17       		.uleb128 0x17
 1420 06ae CE040000 		.4byte	.LASF101
 1421 06b2 0C       		.byte	0xc
 1422 06b3 6E04     		.2byte	0x46e
 1423 06b5 47030000 		.4byte	0x347
 1424 06b9 58       		.byte	0x58
 1425 06ba 17       		.uleb128 0x17
 1426 06bb 65030000 		.4byte	.LASF102
 1427 06bf 0C       		.byte	0xc
 1428 06c0 6F04     		.2byte	0x46f
 1429 06c2 C3000000 		.4byte	0xc3
 1430 06c6 5C       		.byte	0x5c
 1431 06c7 17       		.uleb128 0x17
 1432 06c8 17010000 		.4byte	.LASF103
 1433 06cc 0C       		.byte	0xc
 1434 06cd 7004     		.2byte	0x470
 1435 06cf 47030000 		.4byte	0x347
 1436 06d3 60       		.byte	0x60
 1437 06d4 17       		.uleb128 0x17
 1438 06d5 54020000 		.4byte	.LASF104
 1439 06d9 0C       		.byte	0xc
 1440 06da 7104     		.2byte	0x471
 1441 06dc 47030000 		.4byte	0x347
 1442 06e0 64       		.byte	0x64
 1443 06e1 17       		.uleb128 0x17
 1444 06e2 34050000 		.4byte	.LASF105
 1445 06e6 0C       		.byte	0xc
 1446 06e7 7204     		.2byte	0x472
 1447 06e9 87050000 		.4byte	0x587
 1448 06ed 68       		.byte	0x68
 1449 06ee 17       		.uleb128 0x17
 1450 06ef 2C060000 		.4byte	.LASF106
 1451 06f3 0C       		.byte	0xc
 1452 06f4 7304     		.2byte	0x473
 1453 06f6 47030000 		.4byte	0x347
 1454 06fa 70       		.byte	0x70
 1455 06fb 0C       		.uleb128 0xc
 1456 06fc 43535200 		.ascii	"CSR\000"
 1457 0700 0C       		.byte	0xc
 1458 0701 7404     		.2byte	0x474
 1459 0703 47030000 		.4byte	0x347
 1460 0707 74       		.byte	0x74
 1461 0708 17       		.uleb128 0x17
 1462 0709 76030000 		.4byte	.LASF107
 1463 070d 0C       		.byte	0xc
 1464 070e 7504     		.2byte	0x475
 1465 0710 87050000 		.4byte	0x587
 1466 0714 78       		.byte	0x78
 1467 0715 17       		.uleb128 0x17
 1468 0716 11060000 		.4byte	.LASF108
 1469 071a 0C       		.byte	0xc
 1470 071b 7604     		.2byte	0x476
 1471 071d 47030000 		.4byte	0x347
 1472 0721 80       		.byte	0x80
 1473 0722 17       		.uleb128 0x17
 1474 0723 0C020000 		.4byte	.LASF109
 1475 0727 0C       		.byte	0xc
ARM GAS  /var/folders/f2/xhg999f973v6h87pc1fwp6lm0000gn/T//ccl0aI3R.s 			page 27


 1476 0728 7704     		.2byte	0x477
 1477 072a 47030000 		.4byte	0x347
 1478 072e 84       		.byte	0x84
 1479 072f 17       		.uleb128 0x17
 1480 0730 2A030000 		.4byte	.LASF110
 1481 0734 0C       		.byte	0xc
 1482 0735 7804     		.2byte	0x478
 1483 0737 47030000 		.4byte	0x347
 1484 073b 88       		.byte	0x88
 1485 073c 17       		.uleb128 0x17
 1486 073d 93000000 		.4byte	.LASF111
 1487 0741 0C       		.byte	0xc
 1488 0742 7904     		.2byte	0x479
 1489 0744 47030000 		.4byte	0x347
 1490 0748 8C       		.byte	0x8c
 1491 0749 00       		.byte	0
 1492 074a 18       		.uleb128 0x18
 1493 074b E4000000 		.4byte	.LASF112
 1494 074f 0C       		.byte	0xc
 1495 0750 7B04     		.2byte	0x47b
 1496 0752 A1050000 		.4byte	0x5a1
 1497 0756 16       		.uleb128 0x16
 1498 0757 1C       		.byte	0x1c
 1499 0758 0C       		.byte	0xc
 1500 0759 2905     		.2byte	0x529
 1501 075b 14080000 		.4byte	0x814
 1502 075f 0C       		.uleb128 0xc
 1503 0760 535200   		.ascii	"SR\000"
 1504 0763 0C       		.byte	0xc
 1505 0764 2B05     		.2byte	0x52b
 1506 0766 97050000 		.4byte	0x597
 1507 076a 00       		.byte	0
 1508 076b 17       		.uleb128 0x17
 1509 076c 3D030000 		.4byte	.LASF88
 1510 0770 0C       		.byte	0xc
 1511 0771 2C05     		.2byte	0x52c
 1512 0773 AD000000 		.4byte	0xad
 1513 0777 02       		.byte	0x2
 1514 0778 0C       		.uleb128 0xc
 1515 0779 445200   		.ascii	"DR\000"
 1516 077c 0C       		.byte	0xc
 1517 077d 2D05     		.2byte	0x52d
 1518 077f 97050000 		.4byte	0x597
 1519 0783 04       		.byte	0x4
 1520 0784 17       		.uleb128 0x17
 1521 0785 47030000 		.4byte	.LASF91
 1522 0789 0C       		.byte	0xc
 1523 078a 2E05     		.2byte	0x52e
 1524 078c AD000000 		.4byte	0xad
 1525 0790 06       		.byte	0x6
 1526 0791 0C       		.uleb128 0xc
 1527 0792 42525200 		.ascii	"BRR\000"
 1528 0796 0C       		.byte	0xc
 1529 0797 2F05     		.2byte	0x52f
 1530 0799 97050000 		.4byte	0x597
 1531 079d 08       		.byte	0x8
 1532 079e 17       		.uleb128 0x17
ARM GAS  /var/folders/f2/xhg999f973v6h87pc1fwp6lm0000gn/T//ccl0aI3R.s 			page 28


 1533 079f 51030000 		.4byte	.LASF95
 1534 07a3 0C       		.byte	0xc
 1535 07a4 3005     		.2byte	0x530
 1536 07a6 AD000000 		.4byte	0xad
 1537 07aa 0A       		.byte	0xa
 1538 07ab 0C       		.uleb128 0xc
 1539 07ac 43523100 		.ascii	"CR1\000"
 1540 07b0 0C       		.byte	0xc
 1541 07b1 3105     		.2byte	0x531
 1542 07b3 97050000 		.4byte	0x597
 1543 07b7 0C       		.byte	0xc
 1544 07b8 17       		.uleb128 0x17
 1545 07b9 5B030000 		.4byte	.LASF98
 1546 07bd 0C       		.byte	0xc
 1547 07be 3205     		.2byte	0x532
 1548 07c0 AD000000 		.4byte	0xad
 1549 07c4 0E       		.byte	0xe
 1550 07c5 0C       		.uleb128 0xc
 1551 07c6 43523200 		.ascii	"CR2\000"
 1552 07ca 0C       		.byte	0xc
 1553 07cb 3305     		.2byte	0x533
 1554 07cd 97050000 		.4byte	0x597
 1555 07d1 10       		.byte	0x10
 1556 07d2 17       		.uleb128 0x17
 1557 07d3 65030000 		.4byte	.LASF102
 1558 07d7 0C       		.byte	0xc
 1559 07d8 3405     		.2byte	0x534
 1560 07da AD000000 		.4byte	0xad
 1561 07de 12       		.byte	0x12
 1562 07df 0C       		.uleb128 0xc
 1563 07e0 43523300 		.ascii	"CR3\000"
 1564 07e4 0C       		.byte	0xc
 1565 07e5 3505     		.2byte	0x535
 1566 07e7 97050000 		.4byte	0x597
 1567 07eb 14       		.byte	0x14
 1568 07ec 17       		.uleb128 0x17
 1569 07ed 34050000 		.4byte	.LASF105
 1570 07f1 0C       		.byte	0xc
 1571 07f2 3605     		.2byte	0x536
 1572 07f4 AD000000 		.4byte	0xad
 1573 07f8 16       		.byte	0x16
 1574 07f9 17       		.uleb128 0x17
 1575 07fa BE000000 		.4byte	.LASF113
 1576 07fe 0C       		.byte	0xc
 1577 07ff 3705     		.2byte	0x537
 1578 0801 97050000 		.4byte	0x597
 1579 0805 18       		.byte	0x18
 1580 0806 17       		.uleb128 0x17
 1581 0807 76030000 		.4byte	.LASF107
 1582 080b 0C       		.byte	0xc
 1583 080c 3805     		.2byte	0x538
 1584 080e AD000000 		.4byte	0xad
 1585 0812 1A       		.byte	0x1a
 1586 0813 00       		.byte	0
 1587 0814 18       		.uleb128 0x18
 1588 0815 37020000 		.4byte	.LASF114
 1589 0819 0C       		.byte	0xc
ARM GAS  /var/folders/f2/xhg999f973v6h87pc1fwp6lm0000gn/T//ccl0aI3R.s 			page 29


 1590 081a 3905     		.2byte	0x539
 1591 081c 56070000 		.4byte	0x756
 1592 0820 11       		.uleb128 0x11
 1593 0821 17010000 		.4byte	0x117
 1594 0825 39080000 		.4byte	0x839
 1595 0829 12       		.uleb128 0x12
 1596 082a A8020000 		.4byte	0x2a8
 1597 082e 12       		.uleb128 0x12
 1598 082f A2000000 		.4byte	0xa2
 1599 0833 12       		.uleb128 0x12
 1600 0834 38010000 		.4byte	0x138
 1601 0838 00       		.byte	0
 1602 0839 09       		.uleb128 0x9
 1603 083a 04       		.byte	0x4
 1604 083b 20080000 		.4byte	0x820
 1605 083f 11       		.uleb128 0x11
 1606 0840 17010000 		.4byte	0x117
 1607 0844 53080000 		.4byte	0x853
 1608 0848 12       		.uleb128 0x12
 1609 0849 A8020000 		.4byte	0x2a8
 1610 084d 12       		.uleb128 0x12
 1611 084e 38010000 		.4byte	0x138
 1612 0852 00       		.byte	0
 1613 0853 09       		.uleb128 0x9
 1614 0854 04       		.byte	0x4
 1615 0855 3F080000 		.4byte	0x83f
 1616 0859 11       		.uleb128 0x11
 1617 085a 2C000000 		.4byte	0x2c
 1618 085e 77080000 		.4byte	0x877
 1619 0862 12       		.uleb128 0x12
 1620 0863 A8020000 		.4byte	0x2a8
 1621 0867 12       		.uleb128 0x12
 1622 0868 3D050000 		.4byte	0x53d
 1623 086c 12       		.uleb128 0x12
 1624 086d 2C000000 		.4byte	0x2c
 1625 0871 12       		.uleb128 0x12
 1626 0872 38010000 		.4byte	0x138
 1627 0876 00       		.byte	0
 1628 0877 09       		.uleb128 0x9
 1629 0878 04       		.byte	0x4
 1630 0879 59080000 		.4byte	0x859
 1631 087d 11       		.uleb128 0x11
 1632 087e 2C000000 		.4byte	0x2c
 1633 0882 9B080000 		.4byte	0x89b
 1634 0886 12       		.uleb128 0x12
 1635 0887 A8020000 		.4byte	0x2a8
 1636 088b 12       		.uleb128 0x12
 1637 088c 08050000 		.4byte	0x508
 1638 0890 12       		.uleb128 0x12
 1639 0891 2C000000 		.4byte	0x2c
 1640 0895 12       		.uleb128 0x12
 1641 0896 38010000 		.4byte	0x138
 1642 089a 00       		.byte	0
 1643 089b 09       		.uleb128 0x9
 1644 089c 04       		.byte	0x4
 1645 089d 7D080000 		.4byte	0x87d
 1646 08a1 19       		.uleb128 0x19
ARM GAS  /var/folders/f2/xhg999f973v6h87pc1fwp6lm0000gn/T//ccl0aI3R.s 			page 30


 1647 08a2 01       		.byte	0x1
 1648 08a3 0D       		.byte	0xd
 1649 08a4 64       		.byte	0x64
 1650 08a5 BC080000 		.4byte	0x8bc
 1651 08a9 1A       		.uleb128 0x1a
 1652 08aa 2A050000 		.4byte	.LASF115
 1653 08ae 00       		.sleb128 0
 1654 08af 1A       		.uleb128 0x1a
 1655 08b0 EF040000 		.4byte	.LASF116
 1656 08b4 01       		.sleb128 1
 1657 08b5 1A       		.uleb128 0x1a
 1658 08b6 FC050000 		.4byte	.LASF117
 1659 08ba 02       		.sleb128 2
 1660 08bb 00       		.byte	0
 1661 08bc 03       		.uleb128 0x3
 1662 08bd 47050000 		.4byte	.LASF118
 1663 08c1 0D       		.byte	0xd
 1664 08c2 68       		.byte	0x68
 1665 08c3 A1080000 		.4byte	0x8a1
 1666 08c7 03       		.uleb128 0x3
 1667 08c8 51050000 		.4byte	.LASF119
 1668 08cc 0D       		.byte	0xd
 1669 08cd 6D       		.byte	0x6d
 1670 08ce D2080000 		.4byte	0x8d2
 1671 08d2 05       		.uleb128 0x5
 1672 08d3 51050000 		.4byte	.LASF119
 1673 08d7 78       		.byte	0x78
 1674 08d8 0D       		.byte	0xd
 1675 08d9 87       		.byte	0x87
 1676 08da 3D090000 		.4byte	0x93d
 1677 08de 07       		.uleb128 0x7
 1678 08df 766D7400 		.ascii	"vmt\000"
 1679 08e3 0D       		.byte	0xd
 1680 08e4 89       		.byte	0x89
 1681 08e5 EE090000 		.4byte	0x9ee
 1682 08e9 00       		.byte	0
 1683 08ea 06       		.uleb128 0x6
 1684 08eb F3010000 		.4byte	.LASF120
 1685 08ef 0D       		.byte	0xd
 1686 08f0 8A       		.byte	0x8a
 1687 08f1 01040000 		.4byte	0x401
 1688 08f5 04       		.byte	0x4
 1689 08f6 06       		.uleb128 0x6
 1690 08f7 FF000000 		.4byte	.LASF121
 1691 08fb 0D       		.byte	0xd
 1692 08fc 8A       		.byte	0x8a
 1693 08fd BC080000 		.4byte	0x8bc
 1694 0901 08       		.byte	0x8
 1695 0902 06       		.uleb128 0x6
 1696 0903 D0010000 		.4byte	.LASF122
 1697 0907 0D       		.byte	0xd
 1698 0908 8A       		.byte	0x8a
 1699 0909 0E050000 		.4byte	0x50e
 1700 090d 0C       		.byte	0xc
 1701 090e 06       		.uleb128 0x6
 1702 090f 1D020000 		.4byte	.LASF123
 1703 0913 0D       		.byte	0xd
ARM GAS  /var/folders/f2/xhg999f973v6h87pc1fwp6lm0000gn/T//ccl0aI3R.s 			page 31


 1704 0914 8A       		.byte	0x8a
 1705 0915 19050000 		.4byte	0x519
 1706 0919 30       		.byte	0x30
 1707 091a 07       		.uleb128 0x7
 1708 091b 696200   		.ascii	"ib\000"
 1709 091e 0D       		.byte	0xd
 1710 091f 8A       		.byte	0x8a
 1711 0920 F9090000 		.4byte	0x9f9
 1712 0924 54       		.byte	0x54
 1713 0925 07       		.uleb128 0x7
 1714 0926 6F6200   		.ascii	"ob\000"
 1715 0929 0D       		.byte	0xd
 1716 092a 8A       		.byte	0x8a
 1717 092b F9090000 		.4byte	0x9f9
 1718 092f 64       		.byte	0x64
 1719 0930 06       		.uleb128 0x6
 1720 0931 A4010000 		.4byte	.LASF124
 1721 0935 0D       		.byte	0xd
 1722 0936 8A       		.byte	0x8a
 1723 0937 090A0000 		.4byte	0xa09
 1724 093b 74       		.byte	0x74
 1725 093c 00       		.byte	0
 1726 093d 08       		.uleb128 0x8
 1727 093e 0C       		.byte	0xc
 1728 093f 0E       		.byte	0xe
 1729 0940 D7       		.byte	0xd7
 1730 0941 76090000 		.4byte	0x976
 1731 0945 06       		.uleb128 0x6
 1732 0946 81020000 		.4byte	.LASF125
 1733 094a 0E       		.byte	0xe
 1734 094b DB       		.byte	0xdb
 1735 094c C3000000 		.4byte	0xc3
 1736 0950 00       		.byte	0
 1737 0951 07       		.uleb128 0x7
 1738 0952 63723100 		.ascii	"cr1\000"
 1739 0956 0E       		.byte	0xe
 1740 0957 E0       		.byte	0xe0
 1741 0958 AD000000 		.4byte	0xad
 1742 095c 04       		.byte	0x4
 1743 095d 07       		.uleb128 0x7
 1744 095e 63723200 		.ascii	"cr2\000"
 1745 0962 0E       		.byte	0xe
 1746 0963 E4       		.byte	0xe4
 1747 0964 AD000000 		.4byte	0xad
 1748 0968 06       		.byte	0x6
 1749 0969 07       		.uleb128 0x7
 1750 096a 63723300 		.ascii	"cr3\000"
 1751 096e 0E       		.byte	0xe
 1752 096f E8       		.byte	0xe8
 1753 0970 AD000000 		.4byte	0xad
 1754 0974 08       		.byte	0x8
 1755 0975 00       		.byte	0
 1756 0976 03       		.uleb128 0x3
 1757 0977 15030000 		.4byte	.LASF126
 1758 097b 0E       		.byte	0xe
 1759 097c E9       		.byte	0xe9
 1760 097d 3D090000 		.4byte	0x93d
ARM GAS  /var/folders/f2/xhg999f973v6h87pc1fwp6lm0000gn/T//ccl0aI3R.s 			page 32


 1761 0981 05       		.uleb128 0x5
 1762 0982 C0010000 		.4byte	.LASF127
 1763 0986 20       		.byte	0x20
 1764 0987 0D       		.byte	0xd
 1765 0988 7C       		.byte	0x7c
 1766 0989 EE090000 		.4byte	0x9ee
 1767 098d 06       		.uleb128 0x6
 1768 098e A7020000 		.4byte	.LASF128
 1769 0992 0D       		.byte	0xd
 1770 0993 7D       		.byte	0x7d
 1771 0994 48050000 		.4byte	0x548
 1772 0998 00       		.byte	0
 1773 0999 06       		.uleb128 0x6
 1774 099a 82050000 		.4byte	.LASF129
 1775 099e 0D       		.byte	0xd
 1776 099f 7D       		.byte	0x7d
 1777 09a0 67050000 		.4byte	0x567
 1778 09a4 04       		.byte	0x4
 1779 09a5 07       		.uleb128 0x7
 1780 09a6 70757400 		.ascii	"put\000"
 1781 09aa 0D       		.byte	0xd
 1782 09ab 7D       		.byte	0x7d
 1783 09ac 81050000 		.4byte	0x581
 1784 09b0 08       		.byte	0x8
 1785 09b1 07       		.uleb128 0x7
 1786 09b2 67657400 		.ascii	"get\000"
 1787 09b6 0D       		.byte	0xd
 1788 09b7 7D       		.byte	0x7d
 1789 09b8 59040000 		.4byte	0x459
 1790 09bc 0C       		.byte	0xc
 1791 09bd 06       		.uleb128 0x6
 1792 09be AD020000 		.4byte	.LASF130
 1793 09c2 0D       		.byte	0xd
 1794 09c3 7D       		.byte	0x7d
 1795 09c4 39080000 		.4byte	0x839
 1796 09c8 10       		.byte	0x10
 1797 09c9 06       		.uleb128 0x6
 1798 09ca EE010000 		.4byte	.LASF131
 1799 09ce 0D       		.byte	0xd
 1800 09cf 7D       		.byte	0x7d
 1801 09d0 53080000 		.4byte	0x853
 1802 09d4 14       		.byte	0x14
 1803 09d5 06       		.uleb128 0x6
 1804 09d6 45020000 		.4byte	.LASF132
 1805 09da 0D       		.byte	0xd
 1806 09db 7D       		.byte	0x7d
 1807 09dc 77080000 		.4byte	0x877
 1808 09e0 18       		.byte	0x18
 1809 09e1 06       		.uleb128 0x6
 1810 09e2 83000000 		.4byte	.LASF133
 1811 09e6 0D       		.byte	0xd
 1812 09e7 7D       		.byte	0x7d
 1813 09e8 9B080000 		.4byte	0x89b
 1814 09ec 1C       		.byte	0x1c
 1815 09ed 00       		.byte	0
 1816 09ee 09       		.uleb128 0x9
 1817 09ef 04       		.byte	0x4
ARM GAS  /var/folders/f2/xhg999f973v6h87pc1fwp6lm0000gn/T//ccl0aI3R.s 			page 33


 1818 09f0 F4090000 		.4byte	0x9f4
 1819 09f4 10       		.uleb128 0x10
 1820 09f5 81090000 		.4byte	0x981
 1821 09f9 14       		.uleb128 0x14
 1822 09fa A2000000 		.4byte	0xa2
 1823 09fe 090A0000 		.4byte	0xa09
 1824 0a02 15       		.uleb128 0x15
 1825 0a03 4C030000 		.4byte	0x34c
 1826 0a07 0F       		.byte	0xf
 1827 0a08 00       		.byte	0
 1828 0a09 09       		.uleb128 0x9
 1829 0a0a 04       		.byte	0x4
 1830 0a0b 14080000 		.4byte	0x814
 1831 0a0f 1B       		.uleb128 0x1b
 1832 0a10 B2020000 		.4byte	.LASF135
 1833 0a14 01       		.byte	0x1
 1834 0a15 5C       		.byte	0x5c
 1835 0a16 01       		.byte	0x1
 1836 0a17 3B0A0000 		.4byte	0xa3b
 1837 0a1b 1C       		.uleb128 0x1c
 1838 0a1c 73647000 		.ascii	"sdp\000"
 1839 0a20 01       		.byte	0x1
 1840 0a21 5C       		.byte	0x5c
 1841 0a22 3B0A0000 		.4byte	0xa3b
 1842 0a26 1D       		.uleb128 0x1d
 1843 0a27 9C050000 		.4byte	.LASF134
 1844 0a2b 01       		.byte	0x1
 1845 0a2c 5C       		.byte	0x5c
 1846 0a2d 410A0000 		.4byte	0xa41
 1847 0a31 1E       		.uleb128 0x1e
 1848 0a32 7500     		.ascii	"u\000"
 1849 0a34 01       		.byte	0x1
 1850 0a35 5D       		.byte	0x5d
 1851 0a36 090A0000 		.4byte	0xa09
 1852 0a3a 00       		.byte	0
 1853 0a3b 09       		.uleb128 0x9
 1854 0a3c 04       		.byte	0x4
 1855 0a3d C7080000 		.4byte	0x8c7
 1856 0a41 09       		.uleb128 0x9
 1857 0a42 04       		.byte	0x4
 1858 0a43 470A0000 		.4byte	0xa47
 1859 0a47 10       		.uleb128 0x10
 1860 0a48 76090000 		.4byte	0x976
 1861 0a4c 1B       		.uleb128 0x1b
 1862 0a4d 8B010000 		.4byte	.LASF136
 1863 0a51 01       		.byte	0x1
 1864 0a52 7A       		.byte	0x7a
 1865 0a53 01       		.byte	0x1
 1866 0a54 620A0000 		.4byte	0xa62
 1867 0a58 1C       		.uleb128 0x1c
 1868 0a59 7500     		.ascii	"u\000"
 1869 0a5b 01       		.byte	0x1
 1870 0a5c 7A       		.byte	0x7a
 1871 0a5d 090A0000 		.4byte	0xa09
 1872 0a61 00       		.byte	0
 1873 0a62 1B       		.uleb128 0x1b
 1874 0a63 0F050000 		.4byte	.LASF137
ARM GAS  /var/folders/f2/xhg999f973v6h87pc1fwp6lm0000gn/T//ccl0aI3R.s 			page 34


 1875 0a67 01       		.byte	0x1
 1876 0a68 9A       		.byte	0x9a
 1877 0a69 01       		.byte	0x1
 1878 0a6a 270B0000 		.4byte	0xb27
 1879 0a6e 1C       		.uleb128 0x1c
 1880 0a6f 73647000 		.ascii	"sdp\000"
 1881 0a73 01       		.byte	0x1
 1882 0a74 9A       		.byte	0x9a
 1883 0a75 3B0A0000 		.4byte	0xa3b
 1884 0a79 1E       		.uleb128 0x1e
 1885 0a7a 7500     		.ascii	"u\000"
 1886 0a7c 01       		.byte	0x1
 1887 0a7d 9B       		.byte	0x9b
 1888 0a7e 090A0000 		.4byte	0xa09
 1889 0a82 1E       		.uleb128 0x1e
 1890 0a83 63723100 		.ascii	"cr1\000"
 1891 0a87 01       		.byte	0x1
 1892 0a88 9C       		.byte	0x9c
 1893 0a89 AD000000 		.4byte	0xad
 1894 0a8d 1E       		.uleb128 0x1e
 1895 0a8e 737200   		.ascii	"sr\000"
 1896 0a91 01       		.byte	0x1
 1897 0a92 9D       		.byte	0x9d
 1898 0a93 AD000000 		.4byte	0xad
 1899 0a97 1F       		.uleb128 0x1f
 1900 0a98 A80A0000 		.4byte	0xaa8
 1901 0a9c 1E       		.uleb128 0x1e
 1902 0a9d 746D7000 		.ascii	"tmp\000"
 1903 0aa1 01       		.byte	0x1
 1904 0aa2 A1       		.byte	0xa1
 1905 0aa3 C3000000 		.4byte	0xc3
 1906 0aa7 00       		.byte	0
 1907 0aa8 1F       		.uleb128 0x1f
 1908 0aa9 B90A0000 		.4byte	0xab9
 1909 0aad 1E       		.uleb128 0x1e
 1910 0aae 746D7000 		.ascii	"tmp\000"
 1911 0ab2 01       		.byte	0x1
 1912 0ab3 A3       		.byte	0xa3
 1913 0ab4 C3000000 		.4byte	0xc3
 1914 0ab8 00       		.byte	0
 1915 0ab9 1F       		.uleb128 0x1f
 1916 0aba CA0A0000 		.4byte	0xaca
 1917 0abe 1E       		.uleb128 0x1e
 1918 0abf 746D7000 		.ascii	"tmp\000"
 1919 0ac3 01       		.byte	0x1
 1920 0ac4 A8       		.byte	0xa8
 1921 0ac5 C3000000 		.4byte	0xc3
 1922 0ac9 00       		.byte	0
 1923 0aca 1F       		.uleb128 0x1f
 1924 0acb DB0A0000 		.4byte	0xadb
 1925 0acf 1E       		.uleb128 0x1e
 1926 0ad0 746D7000 		.ascii	"tmp\000"
 1927 0ad4 01       		.byte	0x1
 1928 0ad5 B0       		.byte	0xb0
 1929 0ad6 C3000000 		.4byte	0xc3
 1930 0ada 00       		.byte	0
 1931 0adb 1F       		.uleb128 0x1f
ARM GAS  /var/folders/f2/xhg999f973v6h87pc1fwp6lm0000gn/T//ccl0aI3R.s 			page 35


 1932 0adc 080B0000 		.4byte	0xb08
 1933 0ae0 1E       		.uleb128 0x1e
 1934 0ae1 6200     		.ascii	"b\000"
 1935 0ae3 01       		.byte	0x1
 1936 0ae4 B4       		.byte	0xb4
 1937 0ae5 17010000 		.4byte	0x117
 1938 0ae9 1F       		.uleb128 0x1f
 1939 0aea FA0A0000 		.4byte	0xafa
 1940 0aee 1E       		.uleb128 0x1e
 1941 0aef 746D7000 		.ascii	"tmp\000"
 1942 0af3 01       		.byte	0x1
 1943 0af4 B5       		.byte	0xb5
 1944 0af5 C3000000 		.4byte	0xc3
 1945 0af9 00       		.byte	0
 1946 0afa 20       		.uleb128 0x20
 1947 0afb 1E       		.uleb128 0x1e
 1948 0afc 746D7000 		.ascii	"tmp\000"
 1949 0b00 01       		.byte	0x1
 1950 0b01 BD       		.byte	0xbd
 1951 0b02 C3000000 		.4byte	0xc3
 1952 0b06 00       		.byte	0
 1953 0b07 00       		.byte	0
 1954 0b08 1F       		.uleb128 0x1f
 1955 0b09 190B0000 		.4byte	0xb19
 1956 0b0d 1E       		.uleb128 0x1e
 1957 0b0e 746D7000 		.ascii	"tmp\000"
 1958 0b12 01       		.byte	0x1
 1959 0b13 C2       		.byte	0xc2
 1960 0b14 C3000000 		.4byte	0xc3
 1961 0b18 00       		.byte	0
 1962 0b19 20       		.uleb128 0x20
 1963 0b1a 1E       		.uleb128 0x1e
 1964 0b1b 746D7000 		.ascii	"tmp\000"
 1965 0b1f 01       		.byte	0x1
 1966 0b20 C7       		.byte	0xc7
 1967 0b21 C3000000 		.4byte	0xc3
 1968 0b25 00       		.byte	0
 1969 0b26 00       		.byte	0
 1970 0b27 21       		.uleb128 0x21
 1971 0b28 22030000 		.4byte	.LASF151
 1972 0b2c 01       		.byte	0x1
 1973 0b2d D4       		.byte	0xd4
 1974 0b2e 00000000 		.4byte	.LFB122
 1975 0b32 14000000 		.4byte	.LFE122-.LFB122
 1976 0b36 01       		.uleb128 0x1
 1977 0b37 9C       		.byte	0x9c
 1978 0b38 490B0000 		.4byte	0xb49
 1979 0b3c 22       		.uleb128 0x22
 1980 0b3d 717000   		.ascii	"qp\000"
 1981 0b40 01       		.byte	0x1
 1982 0b41 D4       		.byte	0xd4
 1983 0b42 02050000 		.4byte	0x502
 1984 0b46 01       		.uleb128 0x1
 1985 0b47 50       		.byte	0x50
 1986 0b48 00       		.byte	0
 1987 0b49 1B       		.uleb128 0x1b
 1988 0b4a 35000000 		.4byte	.LASF138
ARM GAS  /var/folders/f2/xhg999f973v6h87pc1fwp6lm0000gn/T//ccl0aI3R.s 			page 36


 1989 0b4e 01       		.byte	0x1
 1990 0b4f 87       		.byte	0x87
 1991 0b50 01       		.byte	0x1
 1992 0b51 760B0000 		.4byte	0xb76
 1993 0b55 1C       		.uleb128 0x1c
 1994 0b56 73647000 		.ascii	"sdp\000"
 1995 0b5a 01       		.byte	0x1
 1996 0b5b 87       		.byte	0x87
 1997 0b5c 3B0A0000 		.4byte	0xa3b
 1998 0b60 1C       		.uleb128 0x1c
 1999 0b61 737200   		.ascii	"sr\000"
 2000 0b64 01       		.byte	0x1
 2001 0b65 87       		.byte	0x87
 2002 0b66 AD000000 		.4byte	0xad
 2003 0b6a 1E       		.uleb128 0x1e
 2004 0b6b 73747300 		.ascii	"sts\000"
 2005 0b6f 01       		.byte	0x1
 2006 0b70 88       		.byte	0x88
 2007 0b71 2D010000 		.4byte	0x12d
 2008 0b75 00       		.byte	0
 2009 0b76 23       		.uleb128 0x23
 2010 0b77 87020000 		.4byte	.LASF139
 2011 0b7b 01       		.byte	0x1
 2012 0b7c 1B01     		.2byte	0x11b
 2013 0b7e 00000000 		.4byte	.LFB123
 2014 0b82 08010000 		.4byte	.LFE123-.LFB123
 2015 0b86 01       		.uleb128 0x1
 2016 0b87 9C       		.byte	0x9c
 2017 0b88 4E0D0000 		.4byte	0xd4e
 2018 0b8c 24       		.uleb128 0x24
 2019 0b8d 620A0000 		.4byte	0xa62
 2020 0b91 02000000 		.4byte	.LBB26
 2021 0b95 00000000 		.4byte	.Ldebug_ranges0+0
 2022 0b99 01       		.byte	0x1
 2023 0b9a 1F01     		.2byte	0x11f
 2024 0b9c 440D0000 		.4byte	0xd44
 2025 0ba0 25       		.uleb128 0x25
 2026 0ba1 6E0A0000 		.4byte	0xa6e
 2027 0ba5 06       		.uleb128 0x6
 2028 0ba6 03       		.byte	0x3
 2029 0ba7 00000000 		.4byte	SD2
 2030 0bab 9F       		.byte	0x9f
 2031 0bac 26       		.uleb128 0x26
 2032 0bad 00000000 		.4byte	.Ldebug_ranges0+0
 2033 0bb1 27       		.uleb128 0x27
 2034 0bb2 790A0000 		.4byte	0xa79
 2035 0bb6 00000000 		.4byte	.LLST0
 2036 0bba 27       		.uleb128 0x27
 2037 0bbb 820A0000 		.4byte	0xa82
 2038 0bbf 1E000000 		.4byte	.LLST1
 2039 0bc3 27       		.uleb128 0x27
 2040 0bc4 8D0A0000 		.4byte	0xa8d
 2041 0bc8 3C000000 		.4byte	.LLST2
 2042 0bcc 28       		.uleb128 0x28
 2043 0bcd 12000000 		.4byte	.LBB28
 2044 0bd1 06000000 		.4byte	.LBE28-.LBB28
 2045 0bd5 E10B0000 		.4byte	0xbe1
ARM GAS  /var/folders/f2/xhg999f973v6h87pc1fwp6lm0000gn/T//ccl0aI3R.s 			page 37


 2046 0bd9 29       		.uleb128 0x29
 2047 0bda BE0A0000 		.4byte	0xabe
 2048 0bde 01       		.uleb128 0x1
 2049 0bdf 53       		.byte	0x53
 2050 0be0 00       		.byte	0
 2051 0be1 2A       		.uleb128 0x2a
 2052 0be2 490B0000 		.4byte	0xb49
 2053 0be6 34000000 		.4byte	.LBB29
 2054 0bea 2C000000 		.4byte	.LBE29-.LBB29
 2055 0bee 01       		.byte	0x1
 2056 0bef AC       		.byte	0xac
 2057 0bf0 2D0C0000 		.4byte	0xc2d
 2058 0bf4 2B       		.uleb128 0x2b
 2059 0bf5 600B0000 		.4byte	0xb60
 2060 0bf9 65000000 		.4byte	.LLST3
 2061 0bfd 2B       		.uleb128 0x2b
 2062 0bfe 550B0000 		.4byte	0xb55
 2063 0c02 78000000 		.4byte	.LLST4
 2064 0c06 2C       		.uleb128 0x2c
 2065 0c07 34000000 		.4byte	.LBB30
 2066 0c0b 2C000000 		.4byte	.LBE30-.LBB30
 2067 0c0f 27       		.uleb128 0x27
 2068 0c10 6A0B0000 		.4byte	0xb6a
 2069 0c14 90000000 		.4byte	.LLST5
 2070 0c18 2D       		.uleb128 0x2d
 2071 0c19 5E000000 		.4byte	.LVL14
 2072 0c1d 890E0000 		.4byte	0xe89
 2073 0c21 2E       		.uleb128 0x2e
 2074 0c22 01       		.uleb128 0x1
 2075 0c23 50       		.byte	0x50
 2076 0c24 05       		.uleb128 0x5
 2077 0c25 03       		.byte	0x3
 2078 0c26 04000000 		.4byte	.LANCHOR0+4
 2079 0c2a 00       		.byte	0
 2080 0c2b 00       		.byte	0
 2081 0c2c 00       		.byte	0
 2082 0c2d 28       		.uleb128 0x28
 2083 0c2e 60000000 		.4byte	.LBB31
 2084 0c32 06000000 		.4byte	.LBE31-.LBB31
 2085 0c36 420C0000 		.4byte	0xc42
 2086 0c3a 29       		.uleb128 0x29
 2087 0c3b CF0A0000 		.4byte	0xacf
 2088 0c3f 01       		.uleb128 0x1
 2089 0c40 53       		.byte	0x53
 2090 0c41 00       		.byte	0
 2091 0c42 28       		.uleb128 0x28
 2092 0c43 72000000 		.4byte	.LBB32
 2093 0c47 06000000 		.4byte	.LBE32-.LBB32
 2094 0c4b 570C0000 		.4byte	0xc57
 2095 0c4f 29       		.uleb128 0x29
 2096 0c50 0D0B0000 		.4byte	0xb0d
 2097 0c54 01       		.uleb128 0x1
 2098 0c55 53       		.byte	0x53
 2099 0c56 00       		.byte	0
 2100 0c57 2F       		.uleb128 0x2f
 2101 0c58 18000000 		.4byte	.Ldebug_ranges0+0x18
 2102 0c5c 680C0000 		.4byte	0xc68
ARM GAS  /var/folders/f2/xhg999f973v6h87pc1fwp6lm0000gn/T//ccl0aI3R.s 			page 38


 2103 0c60 29       		.uleb128 0x29
 2104 0c61 1A0B0000 		.4byte	0xb1a
 2105 0c65 01       		.uleb128 0x1
 2106 0c66 53       		.byte	0x53
 2107 0c67 00       		.byte	0
 2108 0c68 28       		.uleb128 0x28
 2109 0c69 9E000000 		.4byte	.LBB35
 2110 0c6d 06000000 		.4byte	.LBE35-.LBB35
 2111 0c71 7D0C0000 		.4byte	0xc7d
 2112 0c75 29       		.uleb128 0x29
 2113 0c76 9C0A0000 		.4byte	0xa9c
 2114 0c7a 01       		.uleb128 0x1
 2115 0c7b 53       		.byte	0x53
 2116 0c7c 00       		.byte	0
 2117 0c7d 28       		.uleb128 0x28
 2118 0c7e AE000000 		.4byte	.LBB36
 2119 0c82 06000000 		.4byte	.LBE36-.LBB36
 2120 0c86 920C0000 		.4byte	0xc92
 2121 0c8a 29       		.uleb128 0x29
 2122 0c8b AD0A0000 		.4byte	0xaad
 2123 0c8f 01       		.uleb128 0x1
 2124 0c90 53       		.byte	0x53
 2125 0c91 00       		.byte	0
 2126 0c92 2F       		.uleb128 0x2f
 2127 0c93 30000000 		.4byte	.Ldebug_ranges0+0x30
 2128 0c97 FE0C0000 		.4byte	0xcfe
 2129 0c9b 27       		.uleb128 0x27
 2130 0c9c E00A0000 		.4byte	0xae0
 2131 0ca0 AF000000 		.4byte	.LLST6
 2132 0ca4 28       		.uleb128 0x28
 2133 0ca5 BC000000 		.4byte	.LBB38
 2134 0ca9 06000000 		.4byte	.LBE38-.LBB38
 2135 0cad B90C0000 		.4byte	0xcb9
 2136 0cb1 29       		.uleb128 0x29
 2137 0cb2 EE0A0000 		.4byte	0xaee
 2138 0cb6 01       		.uleb128 0x1
 2139 0cb7 53       		.byte	0x53
 2140 0cb8 00       		.byte	0
 2141 0cb9 28       		.uleb128 0x28
 2142 0cba D0000000 		.4byte	.LBB39
 2143 0cbe 08000000 		.4byte	.LBE39-.LBB39
 2144 0cc2 CE0C0000 		.4byte	0xcce
 2145 0cc6 29       		.uleb128 0x29
 2146 0cc7 FB0A0000 		.4byte	0xafb
 2147 0ccb 01       		.uleb128 0x1
 2148 0ccc 53       		.byte	0x53
 2149 0ccd 00       		.byte	0
 2150 0cce 30       		.uleb128 0x30
 2151 0ccf C8000000 		.4byte	.LVL21
 2152 0cd3 A50E0000 		.4byte	0xea5
 2153 0cd7 E50C0000 		.4byte	0xce5
 2154 0cdb 2E       		.uleb128 0x2e
 2155 0cdc 01       		.uleb128 0x1
 2156 0cdd 50       		.byte	0x50
 2157 0cde 05       		.uleb128 0x5
 2158 0cdf 03       		.byte	0x3
 2159 0ce0 30000000 		.4byte	.LANCHOR0+48
ARM GAS  /var/folders/f2/xhg999f973v6h87pc1fwp6lm0000gn/T//ccl0aI3R.s 			page 39


 2160 0ce4 00       		.byte	0
 2161 0ce5 2D       		.uleb128 0x2d
 2162 0ce6 F0000000 		.4byte	.LVL26
 2163 0cea 890E0000 		.4byte	0xe89
 2164 0cee 2E       		.uleb128 0x2e
 2165 0cef 01       		.uleb128 0x1
 2166 0cf0 51       		.byte	0x51
 2167 0cf1 01       		.uleb128 0x1
 2168 0cf2 38       		.byte	0x38
 2169 0cf3 2E       		.uleb128 0x2e
 2170 0cf4 01       		.uleb128 0x1
 2171 0cf5 50       		.byte	0x50
 2172 0cf6 05       		.uleb128 0x5
 2173 0cf7 03       		.byte	0x3
 2174 0cf8 04000000 		.4byte	.LANCHOR0+4
 2175 0cfc 00       		.byte	0
 2176 0cfd 00       		.byte	0
 2177 0cfe 30       		.uleb128 0x30
 2178 0cff 28000000 		.4byte	.LVL5
 2179 0d03 C10E0000 		.4byte	0xec1
 2180 0d07 120D0000 		.4byte	0xd12
 2181 0d0b 2E       		.uleb128 0x2e
 2182 0d0c 01       		.uleb128 0x1
 2183 0d0d 50       		.byte	0x50
 2184 0d0e 02       		.uleb128 0x2
 2185 0d0f 76       		.byte	0x76
 2186 0d10 00       		.sleb128 0
 2187 0d11 00       		.byte	0
 2188 0d12 30       		.uleb128 0x30
 2189 0d13 AE000000 		.4byte	.LVL19
 2190 0d17 890E0000 		.4byte	0xe89
 2191 0d1b 2D0D0000 		.4byte	0xd2d
 2192 0d1f 2E       		.uleb128 0x2e
 2193 0d20 01       		.uleb128 0x1
 2194 0d21 51       		.byte	0x51
 2195 0d22 03       		.uleb128 0x3
 2196 0d23 0A       		.byte	0xa
 2197 0d24 0002     		.2byte	0x200
 2198 0d26 2E       		.uleb128 0x2e
 2199 0d27 01       		.uleb128 0x1
 2200 0d28 50       		.byte	0x50
 2201 0d29 02       		.uleb128 0x2
 2202 0d2a 76       		.byte	0x76
 2203 0d2b 04       		.sleb128 4
 2204 0d2c 00       		.byte	0
 2205 0d2d 2D       		.uleb128 0x2d
 2206 0d2e E6000000 		.4byte	.LVL23
 2207 0d32 890E0000 		.4byte	0xe89
 2208 0d36 2E       		.uleb128 0x2e
 2209 0d37 01       		.uleb128 0x1
 2210 0d38 51       		.byte	0x51
 2211 0d39 01       		.uleb128 0x1
 2212 0d3a 40       		.byte	0x40
 2213 0d3b 2E       		.uleb128 0x2e
 2214 0d3c 01       		.uleb128 0x1
 2215 0d3d 50       		.byte	0x50
 2216 0d3e 02       		.uleb128 0x2
ARM GAS  /var/folders/f2/xhg999f973v6h87pc1fwp6lm0000gn/T//ccl0aI3R.s 			page 40


 2217 0d3f 76       		.byte	0x76
 2218 0d40 04       		.sleb128 4
 2219 0d41 00       		.byte	0
 2220 0d42 00       		.byte	0
 2221 0d43 00       		.byte	0
 2222 0d44 31       		.uleb128 0x31
 2223 0d45 9E000000 		.4byte	.LVL18
 2224 0d49 D80E0000 		.4byte	0xed8
 2225 0d4d 00       		.byte	0
 2226 0d4e 23       		.uleb128 0x23
 2227 0d4f E2010000 		.4byte	.LASF140
 2228 0d53 01       		.byte	0x1
 2229 0d54 7A01     		.2byte	0x17a
 2230 0d56 00000000 		.4byte	.LFB124
 2231 0d5a 20000000 		.4byte	.LFE124-.LFB124
 2232 0d5e 01       		.uleb128 0x1
 2233 0d5f 9C       		.byte	0x9c
 2234 0d60 830D0000 		.4byte	0xd83
 2235 0d64 2D       		.uleb128 0x2d
 2236 0d65 0E000000 		.4byte	.LVL27
 2237 0d69 E00E0000 		.4byte	0xee0
 2238 0d6d 2E       		.uleb128 0x2e
 2239 0d6e 01       		.uleb128 0x1
 2240 0d6f 52       		.byte	0x52
 2241 0d70 05       		.uleb128 0x5
 2242 0d71 03       		.byte	0x3
 2243 0d72 00000000 		.4byte	notify2
 2244 0d76 2E       		.uleb128 0x2e
 2245 0d77 01       		.uleb128 0x1
 2246 0d78 51       		.byte	0x51
 2247 0d79 01       		.uleb128 0x1
 2248 0d7a 30       		.byte	0x30
 2249 0d7b 2E       		.uleb128 0x2e
 2250 0d7c 01       		.uleb128 0x1
 2251 0d7d 50       		.byte	0x50
 2252 0d7e 02       		.uleb128 0x2
 2253 0d7f 74       		.byte	0x74
 2254 0d80 00       		.sleb128 0
 2255 0d81 00       		.byte	0
 2256 0d82 00       		.byte	0
 2257 0d83 23       		.uleb128 0x23
 2258 0d84 86040000 		.4byte	.LASF141
 2259 0d88 01       		.byte	0x1
 2260 0d89 A501     		.2byte	0x1a5
 2261 0d8b 00000000 		.4byte	.LFB125
 2262 0d8f 9C000000 		.4byte	.LFE125-.LFB125
 2263 0d93 01       		.uleb128 0x1
 2264 0d94 9C       		.byte	0x9c
 2265 0d95 060E0000 		.4byte	0xe06
 2266 0d99 32       		.uleb128 0x32
 2267 0d9a 73647000 		.ascii	"sdp\000"
 2268 0d9e 01       		.byte	0x1
 2269 0d9f A501     		.2byte	0x1a5
 2270 0da1 3B0A0000 		.4byte	0xa3b
 2271 0da5 CD000000 		.4byte	.LLST7
 2272 0da9 33       		.uleb128 0x33
 2273 0daa 9C050000 		.4byte	.LASF134
ARM GAS  /var/folders/f2/xhg999f973v6h87pc1fwp6lm0000gn/T//ccl0aI3R.s 			page 41


 2274 0dae 01       		.byte	0x1
 2275 0daf A501     		.2byte	0x1a5
 2276 0db1 410A0000 		.4byte	0xa41
 2277 0db5 01010000 		.4byte	.LLST8
 2278 0db9 24       		.uleb128 0x24
 2279 0dba 0F0A0000 		.4byte	0xa0f
 2280 0dbe 14000000 		.4byte	.LBB45
 2281 0dc2 48000000 		.4byte	.Ldebug_ranges0+0x48
 2282 0dc6 01       		.byte	0x1
 2283 0dc7 D601     		.2byte	0x1d6
 2284 0dc9 EF0D0000 		.4byte	0xdef
 2285 0dcd 2B       		.uleb128 0x2b
 2286 0dce 1B0A0000 		.4byte	0xa1b
 2287 0dd2 47010000 		.4byte	.LLST9
 2288 0dd6 2B       		.uleb128 0x2b
 2289 0dd7 260A0000 		.4byte	0xa26
 2290 0ddb 65010000 		.4byte	.LLST10
 2291 0ddf 26       		.uleb128 0x26
 2292 0de0 48000000 		.4byte	.Ldebug_ranges0+0x48
 2293 0de4 27       		.uleb128 0x27
 2294 0de5 310A0000 		.4byte	0xa31
 2295 0de9 A0010000 		.4byte	.LLST11
 2296 0ded 00       		.byte	0
 2297 0dee 00       		.byte	0
 2298 0def 2D       		.uleb128 0x2d
 2299 0df0 72000000 		.4byte	.LVL36
 2300 0df4 FC0E0000 		.4byte	0xefc
 2301 0df8 2E       		.uleb128 0x2e
 2302 0df9 01       		.uleb128 0x1
 2303 0dfa 51       		.byte	0x51
 2304 0dfb 02       		.uleb128 0x2
 2305 0dfc 08       		.byte	0x8
 2306 0dfd C0       		.byte	0xc0
 2307 0dfe 2E       		.uleb128 0x2e
 2308 0dff 01       		.uleb128 0x1
 2309 0e00 50       		.byte	0x50
 2310 0e01 02       		.uleb128 0x2
 2311 0e02 08       		.byte	0x8
 2312 0e03 26       		.byte	0x26
 2313 0e04 00       		.byte	0
 2314 0e05 00       		.byte	0
 2315 0e06 23       		.uleb128 0x23
 2316 0e07 A3060000 		.4byte	.LASF142
 2317 0e0b 01       		.byte	0x1
 2318 0e0c E201     		.2byte	0x1e2
 2319 0e0e 00000000 		.4byte	.LFB126
 2320 0e12 30000000 		.4byte	.LFE126-.LFB126
 2321 0e16 01       		.uleb128 0x1
 2322 0e17 9C       		.byte	0x9c
 2323 0e18 5B0E0000 		.4byte	0xe5b
 2324 0e1c 32       		.uleb128 0x32
 2325 0e1d 73647000 		.ascii	"sdp\000"
 2326 0e21 01       		.byte	0x1
 2327 0e22 E201     		.2byte	0x1e2
 2328 0e24 3B0A0000 		.4byte	0xa3b
 2329 0e28 BE010000 		.4byte	.LLST12
 2330 0e2c 24       		.uleb128 0x24
ARM GAS  /var/folders/f2/xhg999f973v6h87pc1fwp6lm0000gn/T//ccl0aI3R.s 			page 42


 2331 0e2d 4C0A0000 		.4byte	0xa4c
 2332 0e31 0C000000 		.4byte	.LBB49
 2333 0e35 60000000 		.4byte	.Ldebug_ranges0+0x60
 2334 0e39 01       		.byte	0x1
 2335 0e3a E501     		.2byte	0x1e5
 2336 0e3c 4A0E0000 		.4byte	0xe4a
 2337 0e40 2B       		.uleb128 0x2b
 2338 0e41 580A0000 		.4byte	0xa58
 2339 0e45 DF010000 		.4byte	.LLST13
 2340 0e49 00       		.byte	0
 2341 0e4a 34       		.uleb128 0x34
 2342 0e4b 28000000 		.4byte	.LVL42
 2343 0e4f 130F0000 		.4byte	0xf13
 2344 0e53 2E       		.uleb128 0x2e
 2345 0e54 01       		.uleb128 0x1
 2346 0e55 50       		.byte	0x50
 2347 0e56 02       		.uleb128 0x2
 2348 0e57 08       		.byte	0x8
 2349 0e58 26       		.byte	0x26
 2350 0e59 00       		.byte	0
 2351 0e5a 00       		.byte	0
 2352 0e5b 35       		.uleb128 0x35
 2353 0e5c F0000000 		.4byte	.LASF152
 2354 0e60 01       		.byte	0x1
 2355 0e61 49       		.byte	0x49
 2356 0e62 470A0000 		.4byte	0xa47
 2357 0e66 05       		.uleb128 0x5
 2358 0e67 03       		.byte	0x3
 2359 0e68 00000000 		.4byte	default_config
 2360 0e6c 36       		.uleb128 0x36
 2361 0e6d 5F000000 		.4byte	.LASF143
 2362 0e71 10       		.byte	0x10
 2363 0e72 9806     		.2byte	0x698
 2364 0e74 9C050000 		.4byte	0x59c
 2365 0e78 37       		.uleb128 0x37
 2366 0e79 53443200 		.ascii	"SD2\000"
 2367 0e7d 01       		.byte	0x1
 2368 0e7e 2D       		.byte	0x2d
 2369 0e7f C7080000 		.4byte	0x8c7
 2370 0e83 05       		.uleb128 0x5
 2371 0e84 03       		.byte	0x3
 2372 0e85 00000000 		.4byte	SD2
 2373 0e89 38       		.uleb128 0x38
 2374 0e8a 52010000 		.4byte	.LASF144
 2375 0e8e 0A       		.byte	0xa
 2376 0e8f BA       		.byte	0xba
 2377 0e90 9F0E0000 		.4byte	0xe9f
 2378 0e94 12       		.uleb128 0x12
 2379 0e95 9F0E0000 		.4byte	0xe9f
 2380 0e99 12       		.uleb128 0x12
 2381 0e9a 2D010000 		.4byte	0x12d
 2382 0e9e 00       		.byte	0
 2383 0e9f 09       		.uleb128 0x9
 2384 0ea0 04       		.byte	0x4
 2385 0ea1 01040000 		.4byte	0x401
 2386 0ea5 39       		.uleb128 0x39
 2387 0ea6 2A010000 		.4byte	.LASF153
ARM GAS  /var/folders/f2/xhg999f973v6h87pc1fwp6lm0000gn/T//ccl0aI3R.s 			page 43


 2388 0eaa 0B       		.byte	0xb
 2389 0eab 6E01     		.2byte	0x16e
 2390 0ead 17010000 		.4byte	0x117
 2391 0eb1 BB0E0000 		.4byte	0xebb
 2392 0eb5 12       		.uleb128 0x12
 2393 0eb6 BB0E0000 		.4byte	0xebb
 2394 0eba 00       		.byte	0
 2395 0ebb 09       		.uleb128 0x9
 2396 0ebc 04       		.byte	0x4
 2397 0ebd 19050000 		.4byte	0x519
 2398 0ec1 3A       		.uleb128 0x3a
 2399 0ec2 8C050000 		.4byte	.LASF145
 2400 0ec6 0D       		.byte	0xd
 2401 0ec7 3901     		.2byte	0x139
 2402 0ec9 D80E0000 		.4byte	0xed8
 2403 0ecd 12       		.uleb128 0x12
 2404 0ece 3B0A0000 		.4byte	0xa3b
 2405 0ed2 12       		.uleb128 0x12
 2406 0ed3 A2000000 		.4byte	0xa2
 2407 0ed7 00       		.byte	0
 2408 0ed8 3B       		.uleb128 0x3b
 2409 0ed9 24020000 		.4byte	.LASF154
 2410 0edd 08       		.byte	0x8
 2411 0ede 0302     		.2byte	0x203
 2412 0ee0 3A       		.uleb128 0x3a
 2413 0ee1 76000000 		.4byte	.LASF146
 2414 0ee5 0D       		.byte	0xd
 2415 0ee6 3601     		.2byte	0x136
 2416 0ee8 FC0E0000 		.4byte	0xefc
 2417 0eec 12       		.uleb128 0x12
 2418 0eed 3B0A0000 		.4byte	0xa3b
 2419 0ef1 12       		.uleb128 0x12
 2420 0ef2 E6040000 		.4byte	0x4e6
 2421 0ef6 12       		.uleb128 0x12
 2422 0ef7 E6040000 		.4byte	0x4e6
 2423 0efb 00       		.byte	0
 2424 0efc 3A       		.uleb128 0x3a
 2425 0efd 00000000 		.4byte	.LASF147
 2426 0f01 0F       		.byte	0xf
 2427 0f02 2301     		.2byte	0x123
 2428 0f04 130F0000 		.4byte	0xf13
 2429 0f08 12       		.uleb128 0x12
 2430 0f09 C3000000 		.4byte	0xc3
 2431 0f0d 12       		.uleb128 0x12
 2432 0f0e C3000000 		.4byte	0xc3
 2433 0f12 00       		.byte	0
 2434 0f13 3C       		.uleb128 0x3c
 2435 0f14 5E050000 		.4byte	.LASF155
 2436 0f18 0F       		.byte	0xf
 2437 0f19 2401     		.2byte	0x124
 2438 0f1b 12       		.uleb128 0x12
 2439 0f1c C3000000 		.4byte	0xc3
 2440 0f20 00       		.byte	0
 2441 0f21 00       		.byte	0
 2442              		.section	.debug_abbrev,"",%progbits
 2443              	.Ldebug_abbrev0:
 2444 0000 01       		.uleb128 0x1
ARM GAS  /var/folders/f2/xhg999f973v6h87pc1fwp6lm0000gn/T//ccl0aI3R.s 			page 44


 2445 0001 11       		.uleb128 0x11
 2446 0002 01       		.byte	0x1
 2447 0003 25       		.uleb128 0x25
 2448 0004 0E       		.uleb128 0xe
 2449 0005 13       		.uleb128 0x13
 2450 0006 0B       		.uleb128 0xb
 2451 0007 03       		.uleb128 0x3
 2452 0008 0E       		.uleb128 0xe
 2453 0009 1B       		.uleb128 0x1b
 2454 000a 0E       		.uleb128 0xe
 2455 000b 55       		.uleb128 0x55
 2456 000c 17       		.uleb128 0x17
 2457 000d 11       		.uleb128 0x11
 2458 000e 01       		.uleb128 0x1
 2459 000f 10       		.uleb128 0x10
 2460 0010 17       		.uleb128 0x17
 2461 0011 00       		.byte	0
 2462 0012 00       		.byte	0
 2463 0013 02       		.uleb128 0x2
 2464 0014 24       		.uleb128 0x24
 2465 0015 00       		.byte	0
 2466 0016 0B       		.uleb128 0xb
 2467 0017 0B       		.uleb128 0xb
 2468 0018 3E       		.uleb128 0x3e
 2469 0019 0B       		.uleb128 0xb
 2470 001a 03       		.uleb128 0x3
 2471 001b 08       		.uleb128 0x8
 2472 001c 00       		.byte	0
 2473 001d 00       		.byte	0
 2474 001e 03       		.uleb128 0x3
 2475 001f 16       		.uleb128 0x16
 2476 0020 00       		.byte	0
 2477 0021 03       		.uleb128 0x3
 2478 0022 0E       		.uleb128 0xe
 2479 0023 3A       		.uleb128 0x3a
 2480 0024 0B       		.uleb128 0xb
 2481 0025 3B       		.uleb128 0x3b
 2482 0026 0B       		.uleb128 0xb
 2483 0027 49       		.uleb128 0x49
 2484 0028 13       		.uleb128 0x13
 2485 0029 00       		.byte	0
 2486 002a 00       		.byte	0
 2487 002b 04       		.uleb128 0x4
 2488 002c 24       		.uleb128 0x24
 2489 002d 00       		.byte	0
 2490 002e 0B       		.uleb128 0xb
 2491 002f 0B       		.uleb128 0xb
 2492 0030 3E       		.uleb128 0x3e
 2493 0031 0B       		.uleb128 0xb
 2494 0032 03       		.uleb128 0x3
 2495 0033 0E       		.uleb128 0xe
 2496 0034 00       		.byte	0
 2497 0035 00       		.byte	0
 2498 0036 05       		.uleb128 0x5
 2499 0037 13       		.uleb128 0x13
 2500 0038 01       		.byte	0x1
 2501 0039 03       		.uleb128 0x3
ARM GAS  /var/folders/f2/xhg999f973v6h87pc1fwp6lm0000gn/T//ccl0aI3R.s 			page 45


 2502 003a 0E       		.uleb128 0xe
 2503 003b 0B       		.uleb128 0xb
 2504 003c 0B       		.uleb128 0xb
 2505 003d 3A       		.uleb128 0x3a
 2506 003e 0B       		.uleb128 0xb
 2507 003f 3B       		.uleb128 0x3b
 2508 0040 0B       		.uleb128 0xb
 2509 0041 01       		.uleb128 0x1
 2510 0042 13       		.uleb128 0x13
 2511 0043 00       		.byte	0
 2512 0044 00       		.byte	0
 2513 0045 06       		.uleb128 0x6
 2514 0046 0D       		.uleb128 0xd
 2515 0047 00       		.byte	0
 2516 0048 03       		.uleb128 0x3
 2517 0049 0E       		.uleb128 0xe
 2518 004a 3A       		.uleb128 0x3a
 2519 004b 0B       		.uleb128 0xb
 2520 004c 3B       		.uleb128 0x3b
 2521 004d 0B       		.uleb128 0xb
 2522 004e 49       		.uleb128 0x49
 2523 004f 13       		.uleb128 0x13
 2524 0050 38       		.uleb128 0x38
 2525 0051 0B       		.uleb128 0xb
 2526 0052 00       		.byte	0
 2527 0053 00       		.byte	0
 2528 0054 07       		.uleb128 0x7
 2529 0055 0D       		.uleb128 0xd
 2530 0056 00       		.byte	0
 2531 0057 03       		.uleb128 0x3
 2532 0058 08       		.uleb128 0x8
 2533 0059 3A       		.uleb128 0x3a
 2534 005a 0B       		.uleb128 0xb
 2535 005b 3B       		.uleb128 0x3b
 2536 005c 0B       		.uleb128 0xb
 2537 005d 49       		.uleb128 0x49
 2538 005e 13       		.uleb128 0x13
 2539 005f 38       		.uleb128 0x38
 2540 0060 0B       		.uleb128 0xb
 2541 0061 00       		.byte	0
 2542 0062 00       		.byte	0
 2543 0063 08       		.uleb128 0x8
 2544 0064 13       		.uleb128 0x13
 2545 0065 01       		.byte	0x1
 2546 0066 0B       		.uleb128 0xb
 2547 0067 0B       		.uleb128 0xb
 2548 0068 3A       		.uleb128 0x3a
 2549 0069 0B       		.uleb128 0xb
 2550 006a 3B       		.uleb128 0x3b
 2551 006b 0B       		.uleb128 0xb
 2552 006c 01       		.uleb128 0x1
 2553 006d 13       		.uleb128 0x13
 2554 006e 00       		.byte	0
 2555 006f 00       		.byte	0
 2556 0070 09       		.uleb128 0x9
 2557 0071 0F       		.uleb128 0xf
 2558 0072 00       		.byte	0
ARM GAS  /var/folders/f2/xhg999f973v6h87pc1fwp6lm0000gn/T//ccl0aI3R.s 			page 46


 2559 0073 0B       		.uleb128 0xb
 2560 0074 0B       		.uleb128 0xb
 2561 0075 49       		.uleb128 0x49
 2562 0076 13       		.uleb128 0x13
 2563 0077 00       		.byte	0
 2564 0078 00       		.byte	0
 2565 0079 0A       		.uleb128 0xa
 2566 007a 0F       		.uleb128 0xf
 2567 007b 00       		.byte	0
 2568 007c 0B       		.uleb128 0xb
 2569 007d 0B       		.uleb128 0xb
 2570 007e 00       		.byte	0
 2571 007f 00       		.byte	0
 2572 0080 0B       		.uleb128 0xb
 2573 0081 13       		.uleb128 0x13
 2574 0082 01       		.byte	0x1
 2575 0083 03       		.uleb128 0x3
 2576 0084 0E       		.uleb128 0xe
 2577 0085 0B       		.uleb128 0xb
 2578 0086 0B       		.uleb128 0xb
 2579 0087 3A       		.uleb128 0x3a
 2580 0088 0B       		.uleb128 0xb
 2581 0089 3B       		.uleb128 0x3b
 2582 008a 05       		.uleb128 0x5
 2583 008b 01       		.uleb128 0x1
 2584 008c 13       		.uleb128 0x13
 2585 008d 00       		.byte	0
 2586 008e 00       		.byte	0
 2587 008f 0C       		.uleb128 0xc
 2588 0090 0D       		.uleb128 0xd
 2589 0091 00       		.byte	0
 2590 0092 03       		.uleb128 0x3
 2591 0093 08       		.uleb128 0x8
 2592 0094 3A       		.uleb128 0x3a
 2593 0095 0B       		.uleb128 0xb
 2594 0096 3B       		.uleb128 0x3b
 2595 0097 05       		.uleb128 0x5
 2596 0098 49       		.uleb128 0x49
 2597 0099 13       		.uleb128 0x13
 2598 009a 38       		.uleb128 0x38
 2599 009b 0B       		.uleb128 0xb
 2600 009c 00       		.byte	0
 2601 009d 00       		.byte	0
 2602 009e 0D       		.uleb128 0xd
 2603 009f 35       		.uleb128 0x35
 2604 00a0 00       		.byte	0
 2605 00a1 49       		.uleb128 0x49
 2606 00a2 13       		.uleb128 0x13
 2607 00a3 00       		.byte	0
 2608 00a4 00       		.byte	0
 2609 00a5 0E       		.uleb128 0xe
 2610 00a6 17       		.uleb128 0x17
 2611 00a7 01       		.byte	0x1
 2612 00a8 0B       		.uleb128 0xb
 2613 00a9 0B       		.uleb128 0xb
 2614 00aa 3A       		.uleb128 0x3a
 2615 00ab 0B       		.uleb128 0xb
ARM GAS  /var/folders/f2/xhg999f973v6h87pc1fwp6lm0000gn/T//ccl0aI3R.s 			page 47


 2616 00ac 3B       		.uleb128 0x3b
 2617 00ad 0B       		.uleb128 0xb
 2618 00ae 01       		.uleb128 0x1
 2619 00af 13       		.uleb128 0x13
 2620 00b0 00       		.byte	0
 2621 00b1 00       		.byte	0
 2622 00b2 0F       		.uleb128 0xf
 2623 00b3 0D       		.uleb128 0xd
 2624 00b4 00       		.byte	0
 2625 00b5 03       		.uleb128 0x3
 2626 00b6 0E       		.uleb128 0xe
 2627 00b7 3A       		.uleb128 0x3a
 2628 00b8 0B       		.uleb128 0xb
 2629 00b9 3B       		.uleb128 0x3b
 2630 00ba 0B       		.uleb128 0xb
 2631 00bb 49       		.uleb128 0x49
 2632 00bc 13       		.uleb128 0x13
 2633 00bd 00       		.byte	0
 2634 00be 00       		.byte	0
 2635 00bf 10       		.uleb128 0x10
 2636 00c0 26       		.uleb128 0x26
 2637 00c1 00       		.byte	0
 2638 00c2 49       		.uleb128 0x49
 2639 00c3 13       		.uleb128 0x13
 2640 00c4 00       		.byte	0
 2641 00c5 00       		.byte	0
 2642 00c6 11       		.uleb128 0x11
 2643 00c7 15       		.uleb128 0x15
 2644 00c8 01       		.byte	0x1
 2645 00c9 27       		.uleb128 0x27
 2646 00ca 19       		.uleb128 0x19
 2647 00cb 49       		.uleb128 0x49
 2648 00cc 13       		.uleb128 0x13
 2649 00cd 01       		.uleb128 0x1
 2650 00ce 13       		.uleb128 0x13
 2651 00cf 00       		.byte	0
 2652 00d0 00       		.byte	0
 2653 00d1 12       		.uleb128 0x12
 2654 00d2 05       		.uleb128 0x5
 2655 00d3 00       		.byte	0
 2656 00d4 49       		.uleb128 0x49
 2657 00d5 13       		.uleb128 0x13
 2658 00d6 00       		.byte	0
 2659 00d7 00       		.byte	0
 2660 00d8 13       		.uleb128 0x13
 2661 00d9 15       		.uleb128 0x15
 2662 00da 01       		.byte	0x1
 2663 00db 27       		.uleb128 0x27
 2664 00dc 19       		.uleb128 0x19
 2665 00dd 01       		.uleb128 0x1
 2666 00de 13       		.uleb128 0x13
 2667 00df 00       		.byte	0
 2668 00e0 00       		.byte	0
 2669 00e1 14       		.uleb128 0x14
 2670 00e2 01       		.uleb128 0x1
 2671 00e3 01       		.byte	0x1
 2672 00e4 49       		.uleb128 0x49
ARM GAS  /var/folders/f2/xhg999f973v6h87pc1fwp6lm0000gn/T//ccl0aI3R.s 			page 48


 2673 00e5 13       		.uleb128 0x13
 2674 00e6 01       		.uleb128 0x1
 2675 00e7 13       		.uleb128 0x13
 2676 00e8 00       		.byte	0
 2677 00e9 00       		.byte	0
 2678 00ea 15       		.uleb128 0x15
 2679 00eb 21       		.uleb128 0x21
 2680 00ec 00       		.byte	0
 2681 00ed 49       		.uleb128 0x49
 2682 00ee 13       		.uleb128 0x13
 2683 00ef 2F       		.uleb128 0x2f
 2684 00f0 0B       		.uleb128 0xb
 2685 00f1 00       		.byte	0
 2686 00f2 00       		.byte	0
 2687 00f3 16       		.uleb128 0x16
 2688 00f4 13       		.uleb128 0x13
 2689 00f5 01       		.byte	0x1
 2690 00f6 0B       		.uleb128 0xb
 2691 00f7 0B       		.uleb128 0xb
 2692 00f8 3A       		.uleb128 0x3a
 2693 00f9 0B       		.uleb128 0xb
 2694 00fa 3B       		.uleb128 0x3b
 2695 00fb 05       		.uleb128 0x5
 2696 00fc 01       		.uleb128 0x1
 2697 00fd 13       		.uleb128 0x13
 2698 00fe 00       		.byte	0
 2699 00ff 00       		.byte	0
 2700 0100 17       		.uleb128 0x17
 2701 0101 0D       		.uleb128 0xd
 2702 0102 00       		.byte	0
 2703 0103 03       		.uleb128 0x3
 2704 0104 0E       		.uleb128 0xe
 2705 0105 3A       		.uleb128 0x3a
 2706 0106 0B       		.uleb128 0xb
 2707 0107 3B       		.uleb128 0x3b
 2708 0108 05       		.uleb128 0x5
 2709 0109 49       		.uleb128 0x49
 2710 010a 13       		.uleb128 0x13
 2711 010b 38       		.uleb128 0x38
 2712 010c 0B       		.uleb128 0xb
 2713 010d 00       		.byte	0
 2714 010e 00       		.byte	0
 2715 010f 18       		.uleb128 0x18
 2716 0110 16       		.uleb128 0x16
 2717 0111 00       		.byte	0
 2718 0112 03       		.uleb128 0x3
 2719 0113 0E       		.uleb128 0xe
 2720 0114 3A       		.uleb128 0x3a
 2721 0115 0B       		.uleb128 0xb
 2722 0116 3B       		.uleb128 0x3b
 2723 0117 05       		.uleb128 0x5
 2724 0118 49       		.uleb128 0x49
 2725 0119 13       		.uleb128 0x13
 2726 011a 00       		.byte	0
 2727 011b 00       		.byte	0
 2728 011c 19       		.uleb128 0x19
 2729 011d 04       		.uleb128 0x4
ARM GAS  /var/folders/f2/xhg999f973v6h87pc1fwp6lm0000gn/T//ccl0aI3R.s 			page 49


 2730 011e 01       		.byte	0x1
 2731 011f 0B       		.uleb128 0xb
 2732 0120 0B       		.uleb128 0xb
 2733 0121 3A       		.uleb128 0x3a
 2734 0122 0B       		.uleb128 0xb
 2735 0123 3B       		.uleb128 0x3b
 2736 0124 0B       		.uleb128 0xb
 2737 0125 01       		.uleb128 0x1
 2738 0126 13       		.uleb128 0x13
 2739 0127 00       		.byte	0
 2740 0128 00       		.byte	0
 2741 0129 1A       		.uleb128 0x1a
 2742 012a 28       		.uleb128 0x28
 2743 012b 00       		.byte	0
 2744 012c 03       		.uleb128 0x3
 2745 012d 0E       		.uleb128 0xe
 2746 012e 1C       		.uleb128 0x1c
 2747 012f 0D       		.uleb128 0xd
 2748 0130 00       		.byte	0
 2749 0131 00       		.byte	0
 2750 0132 1B       		.uleb128 0x1b
 2751 0133 2E       		.uleb128 0x2e
 2752 0134 01       		.byte	0x1
 2753 0135 03       		.uleb128 0x3
 2754 0136 0E       		.uleb128 0xe
 2755 0137 3A       		.uleb128 0x3a
 2756 0138 0B       		.uleb128 0xb
 2757 0139 3B       		.uleb128 0x3b
 2758 013a 0B       		.uleb128 0xb
 2759 013b 27       		.uleb128 0x27
 2760 013c 19       		.uleb128 0x19
 2761 013d 20       		.uleb128 0x20
 2762 013e 0B       		.uleb128 0xb
 2763 013f 01       		.uleb128 0x1
 2764 0140 13       		.uleb128 0x13
 2765 0141 00       		.byte	0
 2766 0142 00       		.byte	0
 2767 0143 1C       		.uleb128 0x1c
 2768 0144 05       		.uleb128 0x5
 2769 0145 00       		.byte	0
 2770 0146 03       		.uleb128 0x3
 2771 0147 08       		.uleb128 0x8
 2772 0148 3A       		.uleb128 0x3a
 2773 0149 0B       		.uleb128 0xb
 2774 014a 3B       		.uleb128 0x3b
 2775 014b 0B       		.uleb128 0xb
 2776 014c 49       		.uleb128 0x49
 2777 014d 13       		.uleb128 0x13
 2778 014e 00       		.byte	0
 2779 014f 00       		.byte	0
 2780 0150 1D       		.uleb128 0x1d
 2781 0151 05       		.uleb128 0x5
 2782 0152 00       		.byte	0
 2783 0153 03       		.uleb128 0x3
 2784 0154 0E       		.uleb128 0xe
 2785 0155 3A       		.uleb128 0x3a
 2786 0156 0B       		.uleb128 0xb
ARM GAS  /var/folders/f2/xhg999f973v6h87pc1fwp6lm0000gn/T//ccl0aI3R.s 			page 50


 2787 0157 3B       		.uleb128 0x3b
 2788 0158 0B       		.uleb128 0xb
 2789 0159 49       		.uleb128 0x49
 2790 015a 13       		.uleb128 0x13
 2791 015b 00       		.byte	0
 2792 015c 00       		.byte	0
 2793 015d 1E       		.uleb128 0x1e
 2794 015e 34       		.uleb128 0x34
 2795 015f 00       		.byte	0
 2796 0160 03       		.uleb128 0x3
 2797 0161 08       		.uleb128 0x8
 2798 0162 3A       		.uleb128 0x3a
 2799 0163 0B       		.uleb128 0xb
 2800 0164 3B       		.uleb128 0x3b
 2801 0165 0B       		.uleb128 0xb
 2802 0166 49       		.uleb128 0x49
 2803 0167 13       		.uleb128 0x13
 2804 0168 00       		.byte	0
 2805 0169 00       		.byte	0
 2806 016a 1F       		.uleb128 0x1f
 2807 016b 0B       		.uleb128 0xb
 2808 016c 01       		.byte	0x1
 2809 016d 01       		.uleb128 0x1
 2810 016e 13       		.uleb128 0x13
 2811 016f 00       		.byte	0
 2812 0170 00       		.byte	0
 2813 0171 20       		.uleb128 0x20
 2814 0172 0B       		.uleb128 0xb
 2815 0173 01       		.byte	0x1
 2816 0174 00       		.byte	0
 2817 0175 00       		.byte	0
 2818 0176 21       		.uleb128 0x21
 2819 0177 2E       		.uleb128 0x2e
 2820 0178 01       		.byte	0x1
 2821 0179 03       		.uleb128 0x3
 2822 017a 0E       		.uleb128 0xe
 2823 017b 3A       		.uleb128 0x3a
 2824 017c 0B       		.uleb128 0xb
 2825 017d 3B       		.uleb128 0x3b
 2826 017e 0B       		.uleb128 0xb
 2827 017f 27       		.uleb128 0x27
 2828 0180 19       		.uleb128 0x19
 2829 0181 11       		.uleb128 0x11
 2830 0182 01       		.uleb128 0x1
 2831 0183 12       		.uleb128 0x12
 2832 0184 06       		.uleb128 0x6
 2833 0185 40       		.uleb128 0x40
 2834 0186 18       		.uleb128 0x18
 2835 0187 9742     		.uleb128 0x2117
 2836 0189 19       		.uleb128 0x19
 2837 018a 01       		.uleb128 0x1
 2838 018b 13       		.uleb128 0x13
 2839 018c 00       		.byte	0
 2840 018d 00       		.byte	0
 2841 018e 22       		.uleb128 0x22
 2842 018f 05       		.uleb128 0x5
 2843 0190 00       		.byte	0
ARM GAS  /var/folders/f2/xhg999f973v6h87pc1fwp6lm0000gn/T//ccl0aI3R.s 			page 51


 2844 0191 03       		.uleb128 0x3
 2845 0192 08       		.uleb128 0x8
 2846 0193 3A       		.uleb128 0x3a
 2847 0194 0B       		.uleb128 0xb
 2848 0195 3B       		.uleb128 0x3b
 2849 0196 0B       		.uleb128 0xb
 2850 0197 49       		.uleb128 0x49
 2851 0198 13       		.uleb128 0x13
 2852 0199 02       		.uleb128 0x2
 2853 019a 18       		.uleb128 0x18
 2854 019b 00       		.byte	0
 2855 019c 00       		.byte	0
 2856 019d 23       		.uleb128 0x23
 2857 019e 2E       		.uleb128 0x2e
 2858 019f 01       		.byte	0x1
 2859 01a0 3F       		.uleb128 0x3f
 2860 01a1 19       		.uleb128 0x19
 2861 01a2 03       		.uleb128 0x3
 2862 01a3 0E       		.uleb128 0xe
 2863 01a4 3A       		.uleb128 0x3a
 2864 01a5 0B       		.uleb128 0xb
 2865 01a6 3B       		.uleb128 0x3b
 2866 01a7 05       		.uleb128 0x5
 2867 01a8 27       		.uleb128 0x27
 2868 01a9 19       		.uleb128 0x19
 2869 01aa 11       		.uleb128 0x11
 2870 01ab 01       		.uleb128 0x1
 2871 01ac 12       		.uleb128 0x12
 2872 01ad 06       		.uleb128 0x6
 2873 01ae 40       		.uleb128 0x40
 2874 01af 18       		.uleb128 0x18
 2875 01b0 9742     		.uleb128 0x2117
 2876 01b2 19       		.uleb128 0x19
 2877 01b3 01       		.uleb128 0x1
 2878 01b4 13       		.uleb128 0x13
 2879 01b5 00       		.byte	0
 2880 01b6 00       		.byte	0
 2881 01b7 24       		.uleb128 0x24
 2882 01b8 1D       		.uleb128 0x1d
 2883 01b9 01       		.byte	0x1
 2884 01ba 31       		.uleb128 0x31
 2885 01bb 13       		.uleb128 0x13
 2886 01bc 52       		.uleb128 0x52
 2887 01bd 01       		.uleb128 0x1
 2888 01be 55       		.uleb128 0x55
 2889 01bf 17       		.uleb128 0x17
 2890 01c0 58       		.uleb128 0x58
 2891 01c1 0B       		.uleb128 0xb
 2892 01c2 59       		.uleb128 0x59
 2893 01c3 05       		.uleb128 0x5
 2894 01c4 01       		.uleb128 0x1
 2895 01c5 13       		.uleb128 0x13
 2896 01c6 00       		.byte	0
 2897 01c7 00       		.byte	0
 2898 01c8 25       		.uleb128 0x25
 2899 01c9 05       		.uleb128 0x5
 2900 01ca 00       		.byte	0
ARM GAS  /var/folders/f2/xhg999f973v6h87pc1fwp6lm0000gn/T//ccl0aI3R.s 			page 52


 2901 01cb 31       		.uleb128 0x31
 2902 01cc 13       		.uleb128 0x13
 2903 01cd 02       		.uleb128 0x2
 2904 01ce 18       		.uleb128 0x18
 2905 01cf 00       		.byte	0
 2906 01d0 00       		.byte	0
 2907 01d1 26       		.uleb128 0x26
 2908 01d2 0B       		.uleb128 0xb
 2909 01d3 01       		.byte	0x1
 2910 01d4 55       		.uleb128 0x55
 2911 01d5 17       		.uleb128 0x17
 2912 01d6 00       		.byte	0
 2913 01d7 00       		.byte	0
 2914 01d8 27       		.uleb128 0x27
 2915 01d9 34       		.uleb128 0x34
 2916 01da 00       		.byte	0
 2917 01db 31       		.uleb128 0x31
 2918 01dc 13       		.uleb128 0x13
 2919 01dd 02       		.uleb128 0x2
 2920 01de 17       		.uleb128 0x17
 2921 01df 00       		.byte	0
 2922 01e0 00       		.byte	0
 2923 01e1 28       		.uleb128 0x28
 2924 01e2 0B       		.uleb128 0xb
 2925 01e3 01       		.byte	0x1
 2926 01e4 11       		.uleb128 0x11
 2927 01e5 01       		.uleb128 0x1
 2928 01e6 12       		.uleb128 0x12
 2929 01e7 06       		.uleb128 0x6
 2930 01e8 01       		.uleb128 0x1
 2931 01e9 13       		.uleb128 0x13
 2932 01ea 00       		.byte	0
 2933 01eb 00       		.byte	0
 2934 01ec 29       		.uleb128 0x29
 2935 01ed 34       		.uleb128 0x34
 2936 01ee 00       		.byte	0
 2937 01ef 31       		.uleb128 0x31
 2938 01f0 13       		.uleb128 0x13
 2939 01f1 02       		.uleb128 0x2
 2940 01f2 18       		.uleb128 0x18
 2941 01f3 00       		.byte	0
 2942 01f4 00       		.byte	0
 2943 01f5 2A       		.uleb128 0x2a
 2944 01f6 1D       		.uleb128 0x1d
 2945 01f7 01       		.byte	0x1
 2946 01f8 31       		.uleb128 0x31
 2947 01f9 13       		.uleb128 0x13
 2948 01fa 11       		.uleb128 0x11
 2949 01fb 01       		.uleb128 0x1
 2950 01fc 12       		.uleb128 0x12
 2951 01fd 06       		.uleb128 0x6
 2952 01fe 58       		.uleb128 0x58
 2953 01ff 0B       		.uleb128 0xb
 2954 0200 59       		.uleb128 0x59
 2955 0201 0B       		.uleb128 0xb
 2956 0202 01       		.uleb128 0x1
 2957 0203 13       		.uleb128 0x13
ARM GAS  /var/folders/f2/xhg999f973v6h87pc1fwp6lm0000gn/T//ccl0aI3R.s 			page 53


 2958 0204 00       		.byte	0
 2959 0205 00       		.byte	0
 2960 0206 2B       		.uleb128 0x2b
 2961 0207 05       		.uleb128 0x5
 2962 0208 00       		.byte	0
 2963 0209 31       		.uleb128 0x31
 2964 020a 13       		.uleb128 0x13
 2965 020b 02       		.uleb128 0x2
 2966 020c 17       		.uleb128 0x17
 2967 020d 00       		.byte	0
 2968 020e 00       		.byte	0
 2969 020f 2C       		.uleb128 0x2c
 2970 0210 0B       		.uleb128 0xb
 2971 0211 01       		.byte	0x1
 2972 0212 11       		.uleb128 0x11
 2973 0213 01       		.uleb128 0x1
 2974 0214 12       		.uleb128 0x12
 2975 0215 06       		.uleb128 0x6
 2976 0216 00       		.byte	0
 2977 0217 00       		.byte	0
 2978 0218 2D       		.uleb128 0x2d
 2979 0219 898201   		.uleb128 0x4109
 2980 021c 01       		.byte	0x1
 2981 021d 11       		.uleb128 0x11
 2982 021e 01       		.uleb128 0x1
 2983 021f 31       		.uleb128 0x31
 2984 0220 13       		.uleb128 0x13
 2985 0221 00       		.byte	0
 2986 0222 00       		.byte	0
 2987 0223 2E       		.uleb128 0x2e
 2988 0224 8A8201   		.uleb128 0x410a
 2989 0227 00       		.byte	0
 2990 0228 02       		.uleb128 0x2
 2991 0229 18       		.uleb128 0x18
 2992 022a 9142     		.uleb128 0x2111
 2993 022c 18       		.uleb128 0x18
 2994 022d 00       		.byte	0
 2995 022e 00       		.byte	0
 2996 022f 2F       		.uleb128 0x2f
 2997 0230 0B       		.uleb128 0xb
 2998 0231 01       		.byte	0x1
 2999 0232 55       		.uleb128 0x55
 3000 0233 17       		.uleb128 0x17
 3001 0234 01       		.uleb128 0x1
 3002 0235 13       		.uleb128 0x13
 3003 0236 00       		.byte	0
 3004 0237 00       		.byte	0
 3005 0238 30       		.uleb128 0x30
 3006 0239 898201   		.uleb128 0x4109
 3007 023c 01       		.byte	0x1
 3008 023d 11       		.uleb128 0x11
 3009 023e 01       		.uleb128 0x1
 3010 023f 31       		.uleb128 0x31
 3011 0240 13       		.uleb128 0x13
 3012 0241 01       		.uleb128 0x1
 3013 0242 13       		.uleb128 0x13
 3014 0243 00       		.byte	0
ARM GAS  /var/folders/f2/xhg999f973v6h87pc1fwp6lm0000gn/T//ccl0aI3R.s 			page 54


 3015 0244 00       		.byte	0
 3016 0245 31       		.uleb128 0x31
 3017 0246 898201   		.uleb128 0x4109
 3018 0249 00       		.byte	0
 3019 024a 11       		.uleb128 0x11
 3020 024b 01       		.uleb128 0x1
 3021 024c 9542     		.uleb128 0x2115
 3022 024e 19       		.uleb128 0x19
 3023 024f 31       		.uleb128 0x31
 3024 0250 13       		.uleb128 0x13
 3025 0251 00       		.byte	0
 3026 0252 00       		.byte	0
 3027 0253 32       		.uleb128 0x32
 3028 0254 05       		.uleb128 0x5
 3029 0255 00       		.byte	0
 3030 0256 03       		.uleb128 0x3
 3031 0257 08       		.uleb128 0x8
 3032 0258 3A       		.uleb128 0x3a
 3033 0259 0B       		.uleb128 0xb
 3034 025a 3B       		.uleb128 0x3b
 3035 025b 05       		.uleb128 0x5
 3036 025c 49       		.uleb128 0x49
 3037 025d 13       		.uleb128 0x13
 3038 025e 02       		.uleb128 0x2
 3039 025f 17       		.uleb128 0x17
 3040 0260 00       		.byte	0
 3041 0261 00       		.byte	0
 3042 0262 33       		.uleb128 0x33
 3043 0263 05       		.uleb128 0x5
 3044 0264 00       		.byte	0
 3045 0265 03       		.uleb128 0x3
 3046 0266 0E       		.uleb128 0xe
 3047 0267 3A       		.uleb128 0x3a
 3048 0268 0B       		.uleb128 0xb
 3049 0269 3B       		.uleb128 0x3b
 3050 026a 05       		.uleb128 0x5
 3051 026b 49       		.uleb128 0x49
 3052 026c 13       		.uleb128 0x13
 3053 026d 02       		.uleb128 0x2
 3054 026e 17       		.uleb128 0x17
 3055 026f 00       		.byte	0
 3056 0270 00       		.byte	0
 3057 0271 34       		.uleb128 0x34
 3058 0272 898201   		.uleb128 0x4109
 3059 0275 01       		.byte	0x1
 3060 0276 11       		.uleb128 0x11
 3061 0277 01       		.uleb128 0x1
 3062 0278 9542     		.uleb128 0x2115
 3063 027a 19       		.uleb128 0x19
 3064 027b 31       		.uleb128 0x31
 3065 027c 13       		.uleb128 0x13
 3066 027d 00       		.byte	0
 3067 027e 00       		.byte	0
 3068 027f 35       		.uleb128 0x35
 3069 0280 34       		.uleb128 0x34
 3070 0281 00       		.byte	0
 3071 0282 03       		.uleb128 0x3
ARM GAS  /var/folders/f2/xhg999f973v6h87pc1fwp6lm0000gn/T//ccl0aI3R.s 			page 55


 3072 0283 0E       		.uleb128 0xe
 3073 0284 3A       		.uleb128 0x3a
 3074 0285 0B       		.uleb128 0xb
 3075 0286 3B       		.uleb128 0x3b
 3076 0287 0B       		.uleb128 0xb
 3077 0288 49       		.uleb128 0x49
 3078 0289 13       		.uleb128 0x13
 3079 028a 02       		.uleb128 0x2
 3080 028b 18       		.uleb128 0x18
 3081 028c 00       		.byte	0
 3082 028d 00       		.byte	0
 3083 028e 36       		.uleb128 0x36
 3084 028f 34       		.uleb128 0x34
 3085 0290 00       		.byte	0
 3086 0291 03       		.uleb128 0x3
 3087 0292 0E       		.uleb128 0xe
 3088 0293 3A       		.uleb128 0x3a
 3089 0294 0B       		.uleb128 0xb
 3090 0295 3B       		.uleb128 0x3b
 3091 0296 05       		.uleb128 0x5
 3092 0297 49       		.uleb128 0x49
 3093 0298 13       		.uleb128 0x13
 3094 0299 3F       		.uleb128 0x3f
 3095 029a 19       		.uleb128 0x19
 3096 029b 3C       		.uleb128 0x3c
 3097 029c 19       		.uleb128 0x19
 3098 029d 00       		.byte	0
 3099 029e 00       		.byte	0
 3100 029f 37       		.uleb128 0x37
 3101 02a0 34       		.uleb128 0x34
 3102 02a1 00       		.byte	0
 3103 02a2 03       		.uleb128 0x3
 3104 02a3 08       		.uleb128 0x8
 3105 02a4 3A       		.uleb128 0x3a
 3106 02a5 0B       		.uleb128 0xb
 3107 02a6 3B       		.uleb128 0x3b
 3108 02a7 0B       		.uleb128 0xb
 3109 02a8 49       		.uleb128 0x49
 3110 02a9 13       		.uleb128 0x13
 3111 02aa 3F       		.uleb128 0x3f
 3112 02ab 19       		.uleb128 0x19
 3113 02ac 02       		.uleb128 0x2
 3114 02ad 18       		.uleb128 0x18
 3115 02ae 00       		.byte	0
 3116 02af 00       		.byte	0
 3117 02b0 38       		.uleb128 0x38
 3118 02b1 2E       		.uleb128 0x2e
 3119 02b2 01       		.byte	0x1
 3120 02b3 3F       		.uleb128 0x3f
 3121 02b4 19       		.uleb128 0x19
 3122 02b5 03       		.uleb128 0x3
 3123 02b6 0E       		.uleb128 0xe
 3124 02b7 3A       		.uleb128 0x3a
 3125 02b8 0B       		.uleb128 0xb
 3126 02b9 3B       		.uleb128 0x3b
 3127 02ba 0B       		.uleb128 0xb
 3128 02bb 27       		.uleb128 0x27
ARM GAS  /var/folders/f2/xhg999f973v6h87pc1fwp6lm0000gn/T//ccl0aI3R.s 			page 56


 3129 02bc 19       		.uleb128 0x19
 3130 02bd 3C       		.uleb128 0x3c
 3131 02be 19       		.uleb128 0x19
 3132 02bf 01       		.uleb128 0x1
 3133 02c0 13       		.uleb128 0x13
 3134 02c1 00       		.byte	0
 3135 02c2 00       		.byte	0
 3136 02c3 39       		.uleb128 0x39
 3137 02c4 2E       		.uleb128 0x2e
 3138 02c5 01       		.byte	0x1
 3139 02c6 3F       		.uleb128 0x3f
 3140 02c7 19       		.uleb128 0x19
 3141 02c8 03       		.uleb128 0x3
 3142 02c9 0E       		.uleb128 0xe
 3143 02ca 3A       		.uleb128 0x3a
 3144 02cb 0B       		.uleb128 0xb
 3145 02cc 3B       		.uleb128 0x3b
 3146 02cd 05       		.uleb128 0x5
 3147 02ce 27       		.uleb128 0x27
 3148 02cf 19       		.uleb128 0x19
 3149 02d0 49       		.uleb128 0x49
 3150 02d1 13       		.uleb128 0x13
 3151 02d2 3C       		.uleb128 0x3c
 3152 02d3 19       		.uleb128 0x19
 3153 02d4 01       		.uleb128 0x1
 3154 02d5 13       		.uleb128 0x13
 3155 02d6 00       		.byte	0
 3156 02d7 00       		.byte	0
 3157 02d8 3A       		.uleb128 0x3a
 3158 02d9 2E       		.uleb128 0x2e
 3159 02da 01       		.byte	0x1
 3160 02db 3F       		.uleb128 0x3f
 3161 02dc 19       		.uleb128 0x19
 3162 02dd 03       		.uleb128 0x3
 3163 02de 0E       		.uleb128 0xe
 3164 02df 3A       		.uleb128 0x3a
 3165 02e0 0B       		.uleb128 0xb
 3166 02e1 3B       		.uleb128 0x3b
 3167 02e2 05       		.uleb128 0x5
 3168 02e3 27       		.uleb128 0x27
 3169 02e4 19       		.uleb128 0x19
 3170 02e5 3C       		.uleb128 0x3c
 3171 02e6 19       		.uleb128 0x19
 3172 02e7 01       		.uleb128 0x1
 3173 02e8 13       		.uleb128 0x13
 3174 02e9 00       		.byte	0
 3175 02ea 00       		.byte	0
 3176 02eb 3B       		.uleb128 0x3b
 3177 02ec 2E       		.uleb128 0x2e
 3178 02ed 00       		.byte	0
 3179 02ee 3F       		.uleb128 0x3f
 3180 02ef 19       		.uleb128 0x19
 3181 02f0 03       		.uleb128 0x3
 3182 02f1 0E       		.uleb128 0xe
 3183 02f2 3A       		.uleb128 0x3a
 3184 02f3 0B       		.uleb128 0xb
 3185 02f4 3B       		.uleb128 0x3b
ARM GAS  /var/folders/f2/xhg999f973v6h87pc1fwp6lm0000gn/T//ccl0aI3R.s 			page 57


 3186 02f5 05       		.uleb128 0x5
 3187 02f6 27       		.uleb128 0x27
 3188 02f7 19       		.uleb128 0x19
 3189 02f8 3C       		.uleb128 0x3c
 3190 02f9 19       		.uleb128 0x19
 3191 02fa 00       		.byte	0
 3192 02fb 00       		.byte	0
 3193 02fc 3C       		.uleb128 0x3c
 3194 02fd 2E       		.uleb128 0x2e
 3195 02fe 01       		.byte	0x1
 3196 02ff 3F       		.uleb128 0x3f
 3197 0300 19       		.uleb128 0x19
 3198 0301 03       		.uleb128 0x3
 3199 0302 0E       		.uleb128 0xe
 3200 0303 3A       		.uleb128 0x3a
 3201 0304 0B       		.uleb128 0xb
 3202 0305 3B       		.uleb128 0x3b
 3203 0306 05       		.uleb128 0x5
 3204 0307 27       		.uleb128 0x27
 3205 0308 19       		.uleb128 0x19
 3206 0309 3C       		.uleb128 0x3c
 3207 030a 19       		.uleb128 0x19
 3208 030b 00       		.byte	0
 3209 030c 00       		.byte	0
 3210 030d 00       		.byte	0
 3211              		.section	.debug_loc,"",%progbits
 3212              	.Ldebug_loc0:
 3213              	.LLST0:
 3214 0000 06000000 		.4byte	.LVL2
 3215 0004 9A000000 		.4byte	.LVL17
 3216 0008 0100     		.2byte	0x1
 3217 000a 55       		.byte	0x55
 3218 000b 9E000000 		.4byte	.LVL18
 3219 000f 08010000 		.4byte	.LFE123
 3220 0013 0100     		.2byte	0x1
 3221 0015 55       		.byte	0x55
 3222 0016 00000000 		.4byte	0
 3223 001a 00000000 		.4byte	0
 3224              	.LLST1:
 3225 001e 10000000 		.4byte	.LVL3
 3226 0022 86000000 		.4byte	.LVL16
 3227 0026 0100     		.2byte	0x1
 3228 0028 57       		.byte	0x57
 3229 0029 9E000000 		.4byte	.LVL18
 3230 002d 08010000 		.4byte	.LFE123
 3231 0031 0100     		.2byte	0x1
 3232 0033 57       		.byte	0x57
 3233 0034 00000000 		.4byte	0
 3234 0038 00000000 		.4byte	0
 3235              	.LLST2:
 3236 003c 10000000 		.4byte	.LVL3
 3237 0040 1E000000 		.4byte	.LVL4
 3238 0044 0100     		.2byte	0x1
 3239 0046 54       		.byte	0x54
 3240 0047 2C000000 		.4byte	.LVL6
 3241 004b 52000000 		.4byte	.LVL12
 3242 004f 0100     		.2byte	0x1
ARM GAS  /var/folders/f2/xhg999f973v6h87pc1fwp6lm0000gn/T//ccl0aI3R.s 			page 58


 3243 0051 54       		.byte	0x54
 3244 0052 9E000000 		.4byte	.LVL18
 3245 0056 BC000000 		.4byte	.LVL20
 3246 005a 0100     		.2byte	0x1
 3247 005c 54       		.byte	0x54
 3248 005d 00000000 		.4byte	0
 3249 0061 00000000 		.4byte	0
 3250              	.LLST3:
 3251 0065 34000000 		.4byte	.LVL8
 3252 0069 52000000 		.4byte	.LVL12
 3253 006d 0100     		.2byte	0x1
 3254 006f 54       		.byte	0x54
 3255 0070 00000000 		.4byte	0
 3256 0074 00000000 		.4byte	0
 3257              	.LLST4:
 3258 0078 34000000 		.4byte	.LVL8
 3259 007c 60000000 		.4byte	.LVL15
 3260 0080 0600     		.2byte	0x6
 3261 0082 03       		.byte	0x3
 3262 0083 00000000 		.4byte	SD2
 3263 0087 9F       		.byte	0x9f
 3264 0088 00000000 		.4byte	0
 3265 008c 00000000 		.4byte	0
 3266              	.LLST5:
 3267 0090 34000000 		.4byte	.LVL8
 3268 0094 3E000000 		.4byte	.LVL9
 3269 0098 0200     		.2byte	0x2
 3270 009a 30       		.byte	0x30
 3271 009b 9F       		.byte	0x9f
 3272 009c 3E000000 		.4byte	.LVL9
 3273 00a0 5D000000 		.4byte	.LVL14-1
 3274 00a4 0100     		.2byte	0x1
 3275 00a6 51       		.byte	0x51
 3276 00a7 00000000 		.4byte	0
 3277 00ab 00000000 		.4byte	0
 3278              	.LLST6:
 3279 00af C8000000 		.4byte	.LVL21
 3280 00b3 CE000000 		.4byte	.LVL22
 3281 00b7 0100     		.2byte	0x1
 3282 00b9 50       		.byte	0x50
 3283 00ba E8000000 		.4byte	.LVL24
 3284 00be EA000000 		.4byte	.LVL25
 3285 00c2 0100     		.2byte	0x1
 3286 00c4 50       		.byte	0x50
 3287 00c5 00000000 		.4byte	0
 3288 00c9 00000000 		.4byte	0
 3289              	.LLST7:
 3290 00cd 00000000 		.4byte	.LVL28
 3291 00d1 12000000 		.4byte	.LVL30
 3292 00d5 0100     		.2byte	0x1
 3293 00d7 50       		.byte	0x50
 3294 00d8 12000000 		.4byte	.LVL30
 3295 00dc 5A000000 		.4byte	.LVL34
 3296 00e0 0100     		.2byte	0x1
 3297 00e2 55       		.byte	0x55
 3298 00e3 5A000000 		.4byte	.LVL34
 3299 00e7 6C000000 		.4byte	.LVL35
ARM GAS  /var/folders/f2/xhg999f973v6h87pc1fwp6lm0000gn/T//ccl0aI3R.s 			page 59


 3300 00eb 0100     		.2byte	0x1
 3301 00ed 50       		.byte	0x50
 3302 00ee 6C000000 		.4byte	.LVL35
 3303 00f2 9C000000 		.4byte	.LFE125
 3304 00f6 0100     		.2byte	0x1
 3305 00f8 55       		.byte	0x55
 3306 00f9 00000000 		.4byte	0
 3307 00fd 00000000 		.4byte	0
 3308              	.LLST8:
 3309 0101 00000000 		.4byte	.LVL28
 3310 0105 0C000000 		.4byte	.LVL29
 3311 0109 0100     		.2byte	0x1
 3312 010b 51       		.byte	0x51
 3313 010c 0C000000 		.4byte	.LVL29
 3314 0110 3C000000 		.4byte	.LVL32
 3315 0114 0100     		.2byte	0x1
 3316 0116 54       		.byte	0x54
 3317 0117 3C000000 		.4byte	.LVL32
 3318 011b 5A000000 		.4byte	.LVL34
 3319 011f 1300     		.2byte	0x13
 3320 0121 F3       		.byte	0xf3
 3321 0122 01       		.uleb128 0x1
 3322 0123 51       		.byte	0x51
 3323 0124 03       		.byte	0x3
 3324 0125 00000000 		.4byte	.LANCHOR1
 3325 0129 F3       		.byte	0xf3
 3326 012a 01       		.uleb128 0x1
 3327 012b 51       		.byte	0x51
 3328 012c 30       		.byte	0x30
 3329 012d 2E       		.byte	0x2e
 3330 012e 28       		.byte	0x28
 3331 012f 0100     		.2byte	0x1
 3332 0131 16       		.byte	0x16
 3333 0132 13       		.byte	0x13
 3334 0133 9F       		.byte	0x9f
 3335 0134 5A000000 		.4byte	.LVL34
 3336 0138 9C000000 		.4byte	.LFE125
 3337 013c 0100     		.2byte	0x1
 3338 013e 54       		.byte	0x54
 3339 013f 00000000 		.4byte	0
 3340 0143 00000000 		.4byte	0
 3341              	.LLST9:
 3342 0147 14000000 		.4byte	.LVL31
 3343 014b 5A000000 		.4byte	.LVL34
 3344 014f 0100     		.2byte	0x1
 3345 0151 55       		.byte	0x55
 3346 0152 74000000 		.4byte	.LVL37
 3347 0156 9C000000 		.4byte	.LFE125
 3348 015a 0100     		.2byte	0x1
 3349 015c 55       		.byte	0x55
 3350 015d 00000000 		.4byte	0
 3351 0161 00000000 		.4byte	0
 3352              	.LLST10:
 3353 0165 14000000 		.4byte	.LVL31
 3354 0169 3C000000 		.4byte	.LVL32
 3355 016d 0100     		.2byte	0x1
 3356 016f 54       		.byte	0x54
ARM GAS  /var/folders/f2/xhg999f973v6h87pc1fwp6lm0000gn/T//ccl0aI3R.s 			page 60


 3357 0170 3C000000 		.4byte	.LVL32
 3358 0174 5A000000 		.4byte	.LVL34
 3359 0178 1300     		.2byte	0x13
 3360 017a F3       		.byte	0xf3
 3361 017b 01       		.uleb128 0x1
 3362 017c 51       		.byte	0x51
 3363 017d 03       		.byte	0x3
 3364 017e 00000000 		.4byte	.LANCHOR1
 3365 0182 F3       		.byte	0xf3
 3366 0183 01       		.uleb128 0x1
 3367 0184 51       		.byte	0x51
 3368 0185 30       		.byte	0x30
 3369 0186 2E       		.byte	0x2e
 3370 0187 28       		.byte	0x28
 3371 0188 0100     		.2byte	0x1
 3372 018a 16       		.byte	0x16
 3373 018b 13       		.byte	0x13
 3374 018c 9F       		.byte	0x9f
 3375 018d 74000000 		.4byte	.LVL37
 3376 0191 9C000000 		.4byte	.LFE125
 3377 0195 0100     		.2byte	0x1
 3378 0197 54       		.byte	0x54
 3379 0198 00000000 		.4byte	0
 3380 019c 00000000 		.4byte	0
 3381              	.LLST11:
 3382 01a0 14000000 		.4byte	.LVL31
 3383 01a4 58000000 		.4byte	.LVL33
 3384 01a8 0100     		.2byte	0x1
 3385 01aa 53       		.byte	0x53
 3386 01ab 74000000 		.4byte	.LVL37
 3387 01af 9C000000 		.4byte	.LFE125
 3388 01b3 0100     		.2byte	0x1
 3389 01b5 53       		.byte	0x53
 3390 01b6 00000000 		.4byte	0
 3391 01ba 00000000 		.4byte	0
 3392              	.LLST12:
 3393 01be 00000000 		.4byte	.LVL38
 3394 01c2 24000000 		.4byte	.LVL41
 3395 01c6 0100     		.2byte	0x1
 3396 01c8 50       		.byte	0x50
 3397 01c9 24000000 		.4byte	.LVL41
 3398 01cd 30000000 		.4byte	.LFE126
 3399 01d1 0400     		.2byte	0x4
 3400 01d3 F3       		.byte	0xf3
 3401 01d4 01       		.uleb128 0x1
 3402 01d5 50       		.byte	0x50
 3403 01d6 9F       		.byte	0x9f
 3404 01d7 00000000 		.4byte	0
 3405 01db 00000000 		.4byte	0
 3406              	.LLST13:
 3407 01df 0C000000 		.4byte	.LVL39
 3408 01e3 1A000000 		.4byte	.LVL40
 3409 01e7 0100     		.2byte	0x1
 3410 01e9 53       		.byte	0x53
 3411 01ea 1A000000 		.4byte	.LVL40
 3412 01ee 24000000 		.4byte	.LVL41
 3413 01f2 0300     		.2byte	0x3
ARM GAS  /var/folders/f2/xhg999f973v6h87pc1fwp6lm0000gn/T//ccl0aI3R.s 			page 61


 3414 01f4 70       		.byte	0x70
 3415 01f5 F400     		.sleb128 116
 3416 01f7 24000000 		.4byte	.LVL41
 3417 01fb 27000000 		.4byte	.LVL42-1
 3418 01ff 0500     		.2byte	0x5
 3419 0201 F3       		.byte	0xf3
 3420 0202 01       		.uleb128 0x1
 3421 0203 50       		.byte	0x50
 3422 0204 23       		.byte	0x23
 3423 0205 74       		.uleb128 0x74
 3424 0206 00000000 		.4byte	0
 3425 020a 00000000 		.4byte	0
 3426              		.section	.debug_aranges,"",%progbits
 3427 0000 3C000000 		.4byte	0x3c
 3428 0004 0200     		.2byte	0x2
 3429 0006 00000000 		.4byte	.Ldebug_info0
 3430 000a 04       		.byte	0x4
 3431 000b 00       		.byte	0
 3432 000c 0000     		.2byte	0
 3433 000e 0000     		.2byte	0
 3434 0010 00000000 		.4byte	.LFB122
 3435 0014 14000000 		.4byte	.LFE122-.LFB122
 3436 0018 00000000 		.4byte	.LFB123
 3437 001c 08010000 		.4byte	.LFE123-.LFB123
 3438 0020 00000000 		.4byte	.LFB124
 3439 0024 20000000 		.4byte	.LFE124-.LFB124
 3440 0028 00000000 		.4byte	.LFB125
 3441 002c 9C000000 		.4byte	.LFE125-.LFB125
 3442 0030 00000000 		.4byte	.LFB126
 3443 0034 30000000 		.4byte	.LFE126-.LFB126
 3444 0038 00000000 		.4byte	0
 3445 003c 00000000 		.4byte	0
 3446              		.section	.debug_ranges,"",%progbits
 3447              	.Ldebug_ranges0:
 3448 0000 02000000 		.4byte	.LBB26
 3449 0004 96000000 		.4byte	.LBE26
 3450 0008 9E000000 		.4byte	.LBB42
 3451 000c 08010000 		.4byte	.LBE42
 3452 0010 00000000 		.4byte	0
 3453 0014 00000000 		.4byte	0
 3454 0018 8E000000 		.4byte	.LBB33
 3455 001c 90000000 		.4byte	.LBE33
 3456 0020 92000000 		.4byte	.LBB34
 3457 0024 96000000 		.4byte	.LBE34
 3458 0028 00000000 		.4byte	0
 3459 002c 00000000 		.4byte	0
 3460 0030 BC000000 		.4byte	.LBB37
 3461 0034 D8000000 		.4byte	.LBE37
 3462 0038 E8000000 		.4byte	.LBB40
 3463 003c 08010000 		.4byte	.LBE40
 3464 0040 00000000 		.4byte	0
 3465 0044 00000000 		.4byte	0
 3466 0048 14000000 		.4byte	.LBB45
 3467 004c 5A000000 		.4byte	.LBE45
 3468 0050 74000000 		.4byte	.LBB48
 3469 0054 9C000000 		.4byte	.LBE48
 3470 0058 00000000 		.4byte	0
ARM GAS  /var/folders/f2/xhg999f973v6h87pc1fwp6lm0000gn/T//ccl0aI3R.s 			page 62


 3471 005c 00000000 		.4byte	0
 3472 0060 0C000000 		.4byte	.LBB49
 3473 0064 0E000000 		.4byte	.LBE49
 3474 0068 10000000 		.4byte	.LBB52
 3475 006c 16000000 		.4byte	.LBE52
 3476 0070 00000000 		.4byte	0
 3477 0074 00000000 		.4byte	0
 3478 0078 00000000 		.4byte	.LFB122
 3479 007c 14000000 		.4byte	.LFE122
 3480 0080 00000000 		.4byte	.LFB123
 3481 0084 08010000 		.4byte	.LFE123
 3482 0088 00000000 		.4byte	.LFB124
 3483 008c 20000000 		.4byte	.LFE124
 3484 0090 00000000 		.4byte	.LFB125
 3485 0094 9C000000 		.4byte	.LFE125
 3486 0098 00000000 		.4byte	.LFB126
 3487 009c 30000000 		.4byte	.LFE126
 3488 00a0 00000000 		.4byte	0
 3489 00a4 00000000 		.4byte	0
 3490              		.section	.debug_line,"",%progbits
 3491              	.Ldebug_line0:
 3492 0000 A1030000 		.section	.debug_str,"MS",%progbits,1
 3492      0200C402 
 3492      00000201 
 3492      FB0E0D00 
 3492      01010101 
 3493              	.LASF147:
 3494 0000 6E766963 		.ascii	"nvicEnableVector\000"
 3494      456E6162 
 3494      6C655665 
 3494      63746F72 
 3494      00
 3495              	.LASF2:
 3496 0011 73697A65 		.ascii	"size_t\000"
 3496      5F7400
 3497              	.LASF66:
 3498 0018 7264796D 		.ascii	"rdymsg\000"
 3498      736700
 3499              	.LASF82:
 3500 001f 4F757470 		.ascii	"OutputQueue\000"
 3500      75745175 
 3500      65756500 
 3501              	.LASF3:
 3502 002b 5F5F7569 		.ascii	"__uint8_t\000"
 3502      6E74385F 
 3502      7400
 3503              	.LASF138:
 3504 0035 7365745F 		.ascii	"set_error\000"
 3504      6572726F 
 3504      7200
 3505              	.LASF13:
 3506 003f 6C6F6E67 		.ascii	"long long unsigned int\000"
 3506      206C6F6E 
 3506      6720756E 
 3506      7369676E 
 3506      65642069 
 3507              	.LASF67:
ARM GAS  /var/folders/f2/xhg999f973v6h87pc1fwp6lm0000gn/T//ccl0aI3R.s 			page 63


 3508 0056 65786974 		.ascii	"exitcode\000"
 3508      636F6465 
 3508      00
 3509              	.LASF143:
 3510 005f 49544D5F 		.ascii	"ITM_RxBuffer\000"
 3510      52784275 
 3510      66666572 
 3510      00
 3511              	.LASF99:
 3512 006c 41484231 		.ascii	"AHB1LPENR\000"
 3512      4C50454E 
 3512      5200
 3513              	.LASF146:
 3514 0076 73644F62 		.ascii	"sdObjectInit\000"
 3514      6A656374 
 3514      496E6974 
 3514      00
 3515              	.LASF133:
 3516 0083 72656164 		.ascii	"readt\000"
 3516      7400
 3517              	.LASF72:
 3518 0089 715F7761 		.ascii	"q_waiting\000"
 3518      6974696E 
 3518      6700
 3519              	.LASF111:
 3520 0093 44434B43 		.ascii	"DCKCFGR\000"
 3520      46475200 
 3521              	.LASF12:
 3522 009b 6C6F6E67 		.ascii	"long long int\000"
 3522      206C6F6E 
 3522      6720696E 
 3522      7400
 3523              	.LASF1:
 3524 00a9 7369676E 		.ascii	"signed char\000"
 3524      65642063 
 3524      68617200 
 3525              	.LASF85:
 3526 00b5 41484231 		.ascii	"AHB1RSTR\000"
 3526      52535452 
 3526      00
 3527              	.LASF113:
 3528 00be 47545052 		.ascii	"GTPR\000"
 3528      00
 3529              	.LASF48:
 3530 00c3 705F6D70 		.ascii	"p_mpool\000"
 3530      6F6F6C00 
 3531              	.LASF18:
 3532 00cb 626F6F6C 		.ascii	"bool_t\000"
 3532      5F7400
 3533              	.LASF56:
 3534 00d2 6D5F7175 		.ascii	"m_queue\000"
 3534      65756500 
 3535              	.LASF23:
 3536 00da 74736C69 		.ascii	"tslices_t\000"
 3536      6365735F 
 3536      7400
 3537              	.LASF112:
ARM GAS  /var/folders/f2/xhg999f973v6h87pc1fwp6lm0000gn/T//ccl0aI3R.s 			page 64


 3538 00e4 5243435F 		.ascii	"RCC_TypeDef\000"
 3538      54797065 
 3538      44656600 
 3539              	.LASF152:
 3540 00f0 64656661 		.ascii	"default_config\000"
 3540      756C745F 
 3540      636F6E66 
 3540      696700
 3541              	.LASF121:
 3542 00ff 73746174 		.ascii	"state\000"
 3542      6500
 3543              	.LASF9:
 3544 0105 6C6F6E67 		.ascii	"long int\000"
 3544      20696E74 
 3544      00
 3545              	.LASF90:
 3546 010e 41504232 		.ascii	"APB2RSTR\000"
 3546      52535452 
 3546      00
 3547              	.LASF103:
 3548 0117 41504231 		.ascii	"APB1LPENR\000"
 3548      4C50454E 
 3548      5200
 3549              	.LASF21:
 3550 0121 74737461 		.ascii	"tstate_t\000"
 3550      74655F74 
 3550      00
 3551              	.LASF153:
 3552 012a 63684F51 		.ascii	"chOQGetI\000"
 3552      47657449 
 3552      00
 3553              	.LASF39:
 3554 0133 705F7265 		.ascii	"p_refs\000"
 3554      667300
 3555              	.LASF74:
 3556 013a 715F6275 		.ascii	"q_buffer\000"
 3556      66666572 
 3556      00
 3557              	.LASF76:
 3558 0143 715F7772 		.ascii	"q_wrptr\000"
 3558      70747200 
 3559              	.LASF41:
 3560 014b 705F7469 		.ascii	"p_time\000"
 3560      6D6500
 3561              	.LASF144:
 3562 0152 63684576 		.ascii	"chEvtBroadcastFlagsI\000"
 3562      7442726F 
 3562      61646361 
 3562      7374466C 
 3562      61677349 
 3563              	.LASF34:
 3564 0167 705F6E65 		.ascii	"p_newer\000"
 3564      77657200 
 3565              	.LASF83:
 3566 016f 504C4C43 		.ascii	"PLLCFGR\000"
 3566      46475200 
 3567              	.LASF10:
ARM GAS  /var/folders/f2/xhg999f973v6h87pc1fwp6lm0000gn/T//ccl0aI3R.s 			page 65


 3568 0177 5F5F7569 		.ascii	"__uint32_t\000"
 3568      6E743332 
 3568      5F7400
 3569              	.LASF51:
 3570 0182 72656761 		.ascii	"regarm_t\000"
 3570      726D5F74 
 3570      00
 3571              	.LASF136:
 3572 018b 75736172 		.ascii	"usart_deinit\000"
 3572      745F6465 
 3572      696E6974 
 3572      00
 3573              	.LASF64:
 3574 0198 4576656E 		.ascii	"EventSource\000"
 3574      74536F75 
 3574      72636500 
 3575              	.LASF124:
 3576 01a4 75736172 		.ascii	"usart\000"
 3576      7400
 3577              	.LASF0:
 3578 01aa 756E7369 		.ascii	"unsigned int\000"
 3578      676E6564 
 3578      20696E74 
 3578      00
 3579              	.LASF15:
 3580 01b7 75696E74 		.ascii	"uint16_t\000"
 3580      31365F74 
 3580      00
 3581              	.LASF127:
 3582 01c0 53657269 		.ascii	"SerialDriverVMT\000"
 3582      616C4472 
 3582      69766572 
 3582      564D5400 
 3583              	.LASF122:
 3584 01d0 69717565 		.ascii	"iqueue\000"
 3584      756500
 3585              	.LASF43:
 3586 01d7 705F6D73 		.ascii	"p_msgqueue\000"
 3586      67717565 
 3586      756500
 3587              	.LASF140:
 3588 01e2 73645F6C 		.ascii	"sd_lld_init\000"
 3588      6C645F69 
 3588      6E697400 
 3589              	.LASF131:
 3590 01ee 67657474 		.ascii	"gett\000"
 3590      00
 3591              	.LASF120:
 3592 01f3 6576656E 		.ascii	"event\000"
 3592      7400
 3593              	.LASF7:
 3594 01f9 73686F72 		.ascii	"short unsigned int\000"
 3594      7420756E 
 3594      7369676E 
 3594      65642069 
 3594      6E7400
 3595              	.LASF109:
ARM GAS  /var/folders/f2/xhg999f973v6h87pc1fwp6lm0000gn/T//ccl0aI3R.s 			page 66


 3596 020c 504C4C49 		.ascii	"PLLI2SCFGR\000"
 3596      32534346 
 3596      475200
 3597              	.LASF25:
 3598 0217 6D73675F 		.ascii	"msg_t\000"
 3598      7400
 3599              	.LASF123:
 3600 021d 6F717565 		.ascii	"oqueue\000"
 3600      756500
 3601              	.LASF154:
 3602 0224 5F706F72 		.ascii	"_port_irq_epilogue\000"
 3602      745F6972 
 3602      715F6570 
 3602      696C6F67 
 3602      756500
 3603              	.LASF114:
 3604 0237 55534152 		.ascii	"USART_TypeDef\000"
 3604      545F5479 
 3604      70654465 
 3604      6600
 3605              	.LASF132:
 3606 0245 77726974 		.ascii	"writet\000"
 3606      657400
 3607              	.LASF20:
 3608 024c 746D6F64 		.ascii	"tmode_t\000"
 3608      655F7400 
 3609              	.LASF104:
 3610 0254 41504232 		.ascii	"APB2LPENR\000"
 3610      4C50454E 
 3610      5200
 3611              	.LASF50:
 3612 025e 54687265 		.ascii	"ThreadsList\000"
 3612      6164734C 
 3612      69737400 
 3613              	.LASF26:
 3614 026a 6576656E 		.ascii	"eventmask_t\000"
 3614      746D6173 
 3614      6B5F7400 
 3615              	.LASF81:
 3616 0276 496E7075 		.ascii	"InputQueue\000"
 3616      74517565 
 3616      756500
 3617              	.LASF125:
 3618 0281 73706565 		.ascii	"speed\000"
 3618      6400
 3619              	.LASF139:
 3620 0287 56656374 		.ascii	"VectorD8\000"
 3620      6F724438 
 3620      00
 3621              	.LASF80:
 3622 0290 716E6F74 		.ascii	"qnotify_t\000"
 3622      6966795F 
 3622      7400
 3623              	.LASF71:
 3624 029a 47656E65 		.ascii	"GenericQueue\000"
 3624      72696351 
 3624      75657565 
ARM GAS  /var/folders/f2/xhg999f973v6h87pc1fwp6lm0000gn/T//ccl0aI3R.s 			page 67


 3624      00
 3625              	.LASF128:
 3626 02a7 77726974 		.ascii	"write\000"
 3626      6500
 3627              	.LASF130:
 3628 02ad 70757474 		.ascii	"putt\000"
 3628      00
 3629              	.LASF135:
 3630 02b2 75736172 		.ascii	"usart_init\000"
 3630      745F696E 
 3630      697400
 3631              	.LASF54:
 3632 02bd 73697A65 		.ascii	"sizetype\000"
 3632      74797065 
 3632      00
 3633              	.LASF73:
 3634 02c6 715F636F 		.ascii	"q_counter\000"
 3634      756E7465 
 3634      7200
 3635              	.LASF55:
 3636 02d0 4D757465 		.ascii	"Mutex\000"
 3636      7800
 3637              	.LASF30:
 3638 02d6 705F6E65 		.ascii	"p_next\000"
 3638      787400
 3639              	.LASF94:
 3640 02dd 41484233 		.ascii	"AHB3ENR\000"
 3640      454E5200 
 3641              	.LASF35:
 3642 02e5 705F6F6C 		.ascii	"p_older\000"
 3642      64657200 
 3643              	.LASF49:
 3644 02ed 54687265 		.ascii	"ThreadsQueue\000"
 3644      61647351 
 3644      75657565 
 3644      00
 3645              	.LASF100:
 3646 02fa 41484232 		.ascii	"AHB2LPENR\000"
 3646      4C50454E 
 3646      5200
 3647              	.LASF89:
 3648 0304 41504231 		.ascii	"APB1RSTR\000"
 3648      52535452 
 3648      00
 3649              	.LASF62:
 3650 030d 656C5F6D 		.ascii	"el_mask\000"
 3650      61736B00 
 3651              	.LASF126:
 3652 0315 53657269 		.ascii	"SerialConfig\000"
 3652      616C436F 
 3652      6E666967 
 3652      00
 3653              	.LASF151:
 3654 0322 6E6F7469 		.ascii	"notify2\000"
 3654      66793200 
 3655              	.LASF110:
 3656 032a 504C4C53 		.ascii	"PLLSAICFGR\000"
ARM GAS  /var/folders/f2/xhg999f973v6h87pc1fwp6lm0000gn/T//ccl0aI3R.s 			page 68


 3656      41494346 
 3656      475200
 3657              	.LASF22:
 3658 0335 74726566 		.ascii	"trefs_t\000"
 3658      735F7400 
 3659              	.LASF88:
 3660 033d 52455345 		.ascii	"RESERVED0\000"
 3660      52564544 
 3660      3000
 3661              	.LASF91:
 3662 0347 52455345 		.ascii	"RESERVED1\000"
 3662      52564544 
 3662      3100
 3663              	.LASF95:
 3664 0351 52455345 		.ascii	"RESERVED2\000"
 3664      52564544 
 3664      3200
 3665              	.LASF98:
 3666 035b 52455345 		.ascii	"RESERVED3\000"
 3666      52564544 
 3666      3300
 3667              	.LASF102:
 3668 0365 52455345 		.ascii	"RESERVED4\000"
 3668      52564544 
 3668      3400
 3669              	.LASF31:
 3670 036f 705F7072 		.ascii	"p_prev\000"
 3670      657600
 3671              	.LASF107:
 3672 0376 52455345 		.ascii	"RESERVED6\000"
 3672      52564544 
 3672      3600
 3673              	.LASF24:
 3674 0380 74707269 		.ascii	"tprio_t\000"
 3674      6F5F7400 
 3675              	.LASF77:
 3676 0388 715F7264 		.ascii	"q_rdptr\000"
 3676      70747200 
 3677              	.LASF19:
 3678 0390 5F426F6F 		.ascii	"_Bool\000"
 3678      6C00
 3679              	.LASF16:
 3680 0396 696E7433 		.ascii	"int32_t\000"
 3680      325F7400 
 3681              	.LASF4:
 3682 039e 756E7369 		.ascii	"unsigned char\000"
 3682      676E6564 
 3682      20636861 
 3682      7200
 3683              	.LASF148:
 3684 03ac 474E5520 		.ascii	"GNU C 4.8.3 20140228 (release) [ARM/embedded-4_8-br"
 3684      4320342E 
 3684      382E3320 
 3684      32303134 
 3684      30323238 
 3685 03df 616E6368 		.ascii	"anch revision 208322] -mcpu=cortex-m4 -mno-thumb-in"
 3685      20726576 
ARM GAS  /var/folders/f2/xhg999f973v6h87pc1fwp6lm0000gn/T//ccl0aI3R.s 			page 69


 3685      6973696F 
 3685      6E203230 
 3685      38333232 
 3686 0412 74657277 		.ascii	"terwork -mthumb -ggdb -O2 -fomit-frame-pointer -fal"
 3686      6F726B20 
 3686      2D6D7468 
 3686      756D6220 
 3686      2D676764 
 3687 0445 69676E2D 		.ascii	"ign-functions=16 -ffunction-sections -fdata-section"
 3687      66756E63 
 3687      74696F6E 
 3687      733D3136 
 3687      202D6666 
 3688 0478 73202D66 		.ascii	"s -fno-common\000"
 3688      6E6F2D63 
 3688      6F6D6D6F 
 3688      6E00
 3689              	.LASF141:
 3690 0486 73645F6C 		.ascii	"sd_lld_start\000"
 3690      6C645F73 
 3690      74617274 
 3690      00
 3691              	.LASF61:
 3692 0493 656C5F6C 		.ascii	"el_listener\000"
 3692      69737465 
 3692      6E657200 
 3693              	.LASF63:
 3694 049f 656C5F66 		.ascii	"el_flags\000"
 3694      6C616773 
 3694      00
 3695              	.LASF37:
 3696 04a8 705F7374 		.ascii	"p_state\000"
 3696      61746500 
 3697              	.LASF46:
 3698 04b0 705F6D74 		.ascii	"p_mtxlist\000"
 3698      786C6973 
 3698      7400
 3699              	.LASF5:
 3700 04ba 73686F72 		.ascii	"short int\000"
 3700      7420696E 
 3700      7400
 3701              	.LASF40:
 3702 04c4 705F7072 		.ascii	"p_preempt\000"
 3702      65656D70 
 3702      7400
 3703              	.LASF101:
 3704 04ce 41484233 		.ascii	"AHB3LPENR\000"
 3704      4C50454E 
 3704      5200
 3705              	.LASF69:
 3706 04d8 65776D61 		.ascii	"ewmask\000"
 3706      736B00
 3707              	.LASF38:
 3708 04df 705F666C 		.ascii	"p_flags\000"
 3708      61677300 
 3709              	.LASF60:
 3710 04e7 656C5F6E 		.ascii	"el_next\000"
ARM GAS  /var/folders/f2/xhg999f973v6h87pc1fwp6lm0000gn/T//ccl0aI3R.s 			page 70


 3710      65787400 
 3711              	.LASF116:
 3712 04ef 53445F53 		.ascii	"SD_STOP\000"
 3712      544F5000 
 3713              	.LASF97:
 3714 04f7 41504232 		.ascii	"APB2ENR\000"
 3714      454E5200 
 3715              	.LASF87:
 3716 04ff 41484233 		.ascii	"AHB3RSTR\000"
 3716      52535452 
 3716      00
 3717              	.LASF29:
 3718 0508 54687265 		.ascii	"Thread\000"
 3718      616400
 3719              	.LASF137:
 3720 050f 73657276 		.ascii	"serve_interrupt\000"
 3720      655F696E 
 3720      74657272 
 3720      75707400 
 3721              	.LASF45:
 3722 051f 705F6570 		.ascii	"p_epending\000"
 3722      656E6469 
 3722      6E6700
 3723              	.LASF115:
 3724 052a 53445F55 		.ascii	"SD_UNINIT\000"
 3724      4E494E49 
 3724      5400
 3725              	.LASF105:
 3726 0534 52455345 		.ascii	"RESERVED5\000"
 3726      52564544 
 3726      3500
 3727              	.LASF17:
 3728 053e 75696E74 		.ascii	"uint32_t\000"
 3728      33325F74 
 3728      00
 3729              	.LASF118:
 3730 0547 73647374 		.ascii	"sdstate_t\000"
 3730      6174655F 
 3730      7400
 3731              	.LASF119:
 3732 0551 53657269 		.ascii	"SerialDriver\000"
 3732      616C4472 
 3732      69766572 
 3732      00
 3733              	.LASF155:
 3734 055e 6E766963 		.ascii	"nvicDisableVector\000"
 3734      44697361 
 3734      626C6556 
 3734      6563746F 
 3734      7200
 3735              	.LASF11:
 3736 0570 6C6F6E67 		.ascii	"long unsigned int\000"
 3736      20756E73 
 3736      69676E65 
 3736      6420696E 
 3736      7400
 3737              	.LASF129:
ARM GAS  /var/folders/f2/xhg999f973v6h87pc1fwp6lm0000gn/T//ccl0aI3R.s 			page 71


 3738 0582 72656164 		.ascii	"read\000"
 3738      00
 3739              	.LASF70:
 3740 0587 63686172 		.ascii	"char\000"
 3740      00
 3741              	.LASF145:
 3742 058c 7364496E 		.ascii	"sdIncomingDataI\000"
 3742      636F6D69 
 3742      6E674461 
 3742      74614900 
 3743              	.LASF134:
 3744 059c 636F6E66 		.ascii	"config\000"
 3744      696700
 3745              	.LASF6:
 3746 05a3 5F5F7569 		.ascii	"__uint16_t\000"
 3746      6E743136 
 3746      5F7400
 3747              	.LASF86:
 3748 05ae 41484232 		.ascii	"AHB2RSTR\000"
 3748      52535452 
 3748      00
 3749              	.LASF58:
 3750 05b7 6D5F6E65 		.ascii	"m_next\000"
 3750      787400
 3751              	.LASF28:
 3752 05be 73797374 		.ascii	"systime_t\000"
 3752      696D655F 
 3752      7400
 3753              	.LASF47:
 3754 05c8 705F7265 		.ascii	"p_realprio\000"
 3754      616C7072 
 3754      696F00
 3755              	.LASF8:
 3756 05d3 5F5F696E 		.ascii	"__int32_t\000"
 3756      7433325F 
 3756      7400
 3757              	.LASF96:
 3758 05dd 41504231 		.ascii	"APB1ENR\000"
 3758      454E5200 
 3759              	.LASF93:
 3760 05e5 41484232 		.ascii	"AHB2ENR\000"
 3760      454E5200 
 3761              	.LASF53:
 3762 05ed 636F6E74 		.ascii	"context\000"
 3762      65787400 
 3763              	.LASF52:
 3764 05f5 696E7463 		.ascii	"intctx\000"
 3764      747800
 3765              	.LASF117:
 3766 05fc 53445F52 		.ascii	"SD_READY\000"
 3766      45414459 
 3766      00
 3767              	.LASF27:
 3768 0605 666C6167 		.ascii	"flagsmask_t\000"
 3768      736D6173 
 3768      6B5F7400 
 3769              	.LASF108:
ARM GAS  /var/folders/f2/xhg999f973v6h87pc1fwp6lm0000gn/T//ccl0aI3R.s 			page 72


 3770 0611 53534347 		.ascii	"SSCGR\000"
 3770      5200
 3771              	.LASF75:
 3772 0617 715F746F 		.ascii	"q_top\000"
 3772      7000
 3773              	.LASF36:
 3774 061d 705F6E61 		.ascii	"p_name\000"
 3774      6D6500
 3775              	.LASF65:
 3776 0624 65735F6E 		.ascii	"es_next\000"
 3776      65787400 
 3777              	.LASF106:
 3778 062c 42444352 		.ascii	"BDCR\000"
 3778      00
 3779              	.LASF78:
 3780 0631 715F6E6F 		.ascii	"q_notify\000"
 3780      74696679 
 3780      00
 3781              	.LASF44:
 3782 063a 705F6D73 		.ascii	"p_msg\000"
 3782      6700
 3783              	.LASF14:
 3784 0640 75696E74 		.ascii	"uint8_t\000"
 3784      385F7400 
 3785              	.LASF32:
 3786 0648 705F7072 		.ascii	"p_prio\000"
 3786      696F00
 3787              	.LASF59:
 3788 064f 4576656E 		.ascii	"EventListener\000"
 3788      744C6973 
 3788      74656E65 
 3788      7200
 3789              	.LASF68:
 3790 065d 77746F62 		.ascii	"wtobjp\000"
 3790      6A7000
 3791              	.LASF92:
 3792 0664 41484231 		.ascii	"AHB1ENR\000"
 3792      454E5200 
 3793              	.LASF84:
 3794 066c 43464752 		.ascii	"CFGR\000"
 3794      00
 3795              	.LASF149:
 3796 0671 2E2E2F2E 		.ascii	"../../os/hal/platforms/STM32/USARTv1/serial_lld.c\000"
 3796      2E2F6F73 
 3796      2F68616C 
 3796      2F706C61 
 3796      74666F72 
 3797              	.LASF142:
 3798 06a3 73645F6C 		.ascii	"sd_lld_stop\000"
 3798      6C645F73 
 3798      746F7000 
 3799              	.LASF150:
 3800 06af 2F557365 		.ascii	"/Users/Andy/ChibiStudio/ChibiOS/demos/CAM-DCMI_SD/\000"
 3800      72732F41 
 3800      6E64792F 
 3800      43686962 
 3800      69537475 
ARM GAS  /var/folders/f2/xhg999f973v6h87pc1fwp6lm0000gn/T//ccl0aI3R.s 			page 73


 3801              	.LASF79:
 3802 06e2 715F6C69 		.ascii	"q_link\000"
 3802      6E6B00
 3803              	.LASF57:
 3804 06e9 6D5F6F77 		.ascii	"m_owner\000"
 3804      6E657200 
 3805              	.LASF33:
 3806 06f1 705F6374 		.ascii	"p_ctx\000"
 3806      7800
 3807              	.LASF42:
 3808 06f7 705F7761 		.ascii	"p_waiting\000"
 3808      6974696E 
 3808      6700
 3809              		.ident	"GCC: (GNU Tools for ARM Embedded Processors) 4.8.3 20140228 (release) [ARM/embedded-4_8-br
ARM GAS  /var/folders/f2/xhg999f973v6h87pc1fwp6lm0000gn/T//ccl0aI3R.s 			page 74


DEFINED SYMBOLS
                            *ABS*:0000000000000000 serial_lld.c
/var/folders/f2/xhg999f973v6h87pc1fwp6lm0000gn/T//ccl0aI3R.s:19     .text.notify2:0000000000000000 $t
/var/folders/f2/xhg999f973v6h87pc1fwp6lm0000gn/T//ccl0aI3R.s:24     .text.notify2:0000000000000000 notify2
/var/folders/f2/xhg999f973v6h87pc1fwp6lm0000gn/T//ccl0aI3R.s:43     .text.notify2:0000000000000010 $d
/var/folders/f2/xhg999f973v6h87pc1fwp6lm0000gn/T//ccl0aI3R.s:48     .text.VectorD8:0000000000000000 $t
/var/folders/f2/xhg999f973v6h87pc1fwp6lm0000gn/T//ccl0aI3R.s:54     .text.VectorD8:0000000000000000 VectorD8
/var/folders/f2/xhg999f973v6h87pc1fwp6lm0000gn/T//ccl0aI3R.s:309    .text.VectorD8:00000000000000fc $d
/var/folders/f2/xhg999f973v6h87pc1fwp6lm0000gn/T//ccl0aI3R.s:319    .text.sd_lld_init:0000000000000000 $t
/var/folders/f2/xhg999f973v6h87pc1fwp6lm0000gn/T//ccl0aI3R.s:325    .text.sd_lld_init:0000000000000000 sd_lld_init
/var/folders/f2/xhg999f973v6h87pc1fwp6lm0000gn/T//ccl0aI3R.s:349    .text.sd_lld_init:0000000000000014 $d
/var/folders/f2/xhg999f973v6h87pc1fwp6lm0000gn/T//ccl0aI3R.s:356    .text.sd_lld_start:0000000000000000 $t
/var/folders/f2/xhg999f973v6h87pc1fwp6lm0000gn/T//ccl0aI3R.s:362    .text.sd_lld_start:0000000000000000 sd_lld_start
/var/folders/f2/xhg999f973v6h87pc1fwp6lm0000gn/T//ccl0aI3R.s:482    .text.sd_lld_start:0000000000000084 $d
/var/folders/f2/xhg999f973v6h87pc1fwp6lm0000gn/T//ccl0aI3R.s:494    .text.sd_lld_stop:0000000000000000 $t
/var/folders/f2/xhg999f973v6h87pc1fwp6lm0000gn/T//ccl0aI3R.s:500    .text.sd_lld_stop:0000000000000000 sd_lld_stop
/var/folders/f2/xhg999f973v6h87pc1fwp6lm0000gn/T//ccl0aI3R.s:554    .text.sd_lld_stop:0000000000000028 $d
/var/folders/f2/xhg999f973v6h87pc1fwp6lm0000gn/T//ccl0aI3R.s:576    .bss.SD2:0000000000000000 SD2
/var/folders/f2/xhg999f973v6h87pc1fwp6lm0000gn/T//ccl0aI3R.s:561    .rodata.default_config:0000000000000000 $d
/var/folders/f2/xhg999f973v6h87pc1fwp6lm0000gn/T//ccl0aI3R.s:565    .rodata.default_config:0000000000000000 default_config
/var/folders/f2/xhg999f973v6h87pc1fwp6lm0000gn/T//ccl0aI3R.s:572    .bss.SD2:0000000000000000 $d
                     .debug_frame:0000000000000010 $d
/var/folders/f2/xhg999f973v6h87pc1fwp6lm0000gn/T//ccl0aI3R.s:47     .text.notify2:0000000000000014 $t
/var/folders/f2/xhg999f973v6h87pc1fwp6lm0000gn/T//ccl0aI3R.s:318    .text.VectorD8:0000000000000108 $t
/var/folders/f2/xhg999f973v6h87pc1fwp6lm0000gn/T//ccl0aI3R.s:493    .text.sd_lld_start:000000000000009c $t

UNDEFINED SYMBOLS
sdIncomingDataI
chEvtBroadcastFlagsI
_port_irq_epilogue
chOQGetI
sdObjectInit
nvicEnableVector
nvicDisableVector
