ARM GAS  /var/folders/4k/6h5l9jl178sb4hslwv3xp1mr0000gn/T//ccnwyzoi.s 			page 1


   1              		.syntax unified
   2              		.cpu cortex-m4
   3              		.fpu softvfp
   4              		.eabi_attribute 20, 1
   5              		.eabi_attribute 21, 1
   6              		.eabi_attribute 23, 3
   7              		.eabi_attribute 24, 1
   8              		.eabi_attribute 25, 1
   9              		.eabi_attribute 26, 1
  10              		.eabi_attribute 30, 2
  11              		.eabi_attribute 34, 1
  12              		.eabi_attribute 18, 4
  13              		.thumb
  14              		.file	"spi.c"
  15              		.text
  16              	.Ltext0:
  17              		.cfi_sections	.debug_frame
  18              		.section	.text.spiInit,"ax",%progbits
  19              		.align	2
  20              		.p2align 4,,15
  21              		.global	spiInit
  22              		.thumb
  23              		.thumb_func
  24              		.type	spiInit, %function
  25              	spiInit:
  26              	.LFB118:
  27              		.file 1 "../ChibiStudio/ChibiOS/os/hal/src/spi.c"
  28              		.loc 1 68 0
  29              		.cfi_startproc
  30              		@ args = 0, pretend = 0, frame = 0
  31              		@ frame_needed = 0, uses_anonymous_args = 0
  32              		@ link register save eliminated.
  33              		.loc 1 70 0
  34 0000 FFF7FEBF 		b	spi_lld_init
  35              	.LVL0:
  36              		.cfi_endproc
  37              	.LFE118:
  38              		.size	spiInit, .-spiInit
  39 0004 AFF30080 		.section	.text.spiObjectInit,"ax",%progbits
  39      AFF30080 
  39      AFF30080 
  40              		.align	2
  41              		.p2align 4,,15
  42              		.global	spiObjectInit
  43              		.thumb
  44              		.thumb_func
  45              		.type	spiObjectInit, %function
  46              	spiObjectInit:
  47              	.LFB119:
  48              		.loc 1 80 0
  49              		.cfi_startproc
  50              		@ args = 0, pretend = 0, frame = 0
  51              		@ frame_needed = 0, uses_anonymous_args = 0
  52              		@ link register save eliminated.
  53              	.LVL1:
  54              		.loc 1 83 0
  55 0000 0023     		movs	r3, #0
ARM GAS  /var/folders/4k/6h5l9jl178sb4hslwv3xp1mr0000gn/T//ccnwyzoi.s 			page 2


  56              		.loc 1 82 0
  57 0002 0122     		movs	r2, #1
  58 0004 0270     		strb	r2, [r0]
  59              		.loc 1 83 0
  60 0006 4360     		str	r3, [r0, #4]
  61              		.loc 1 85 0
  62 0008 8360     		str	r3, [r0, #8]
  63              		.loc 1 89 0
  64 000a 0C30     		adds	r0, r0, #12
  65              	.LVL2:
  66 000c FFF7FEBF 		b	chMtxInit
  67              	.LVL3:
  68              		.cfi_endproc
  69              	.LFE119:
  70              		.size	spiObjectInit, .-spiObjectInit
  71              		.section	.text.spiStart,"ax",%progbits
  72              		.align	2
  73              		.p2align 4,,15
  74              		.global	spiStart
  75              		.thumb
  76              		.thumb_func
  77              		.type	spiStart, %function
  78              	spiStart:
  79              	.LFB120:
  80              		.loc 1 107 0
  81              		.cfi_startproc
  82              		@ args = 0, pretend = 0, frame = 0
  83              		@ frame_needed = 0, uses_anonymous_args = 0
  84              	.LVL4:
  85 0000 10B5     		push	{r4, lr}
  86              		.cfi_def_cfa_offset 8
  87              		.cfi_offset 4, -8
  88              		.cfi_offset 14, -4
  89              	.LBB2:
  90              		.loc 1 111 0
  91 0002 2023     		movs	r3, #32
  92              	.LBE2:
  93              		.loc 1 107 0
  94 0004 0446     		mov	r4, r0
  95              	.LBB3:
  96              		.loc 1 111 0
  97              	@ 111 "../ChibiStudio/ChibiOS/os/hal/src/spi.c" 1
  98 0006 83F31188 		msr     BASEPRI, r3
  99              	@ 0 "" 2
 100              		.thumb
 101              	.LBE3:
 102              		.loc 1 114 0
 103 000a 4160     		str	r1, [r0, #4]
 104              		.loc 1 115 0
 105 000c FFF7FEFF 		bl	spi_lld_start
 106              	.LVL5:
 107              		.loc 1 116 0
 108 0010 0223     		movs	r3, #2
 109 0012 2370     		strb	r3, [r4]
 110              	.LBB4:
 111              		.loc 1 117 0
 112 0014 0023     		movs	r3, #0
ARM GAS  /var/folders/4k/6h5l9jl178sb4hslwv3xp1mr0000gn/T//ccnwyzoi.s 			page 3


 113              	@ 117 "../ChibiStudio/ChibiOS/os/hal/src/spi.c" 1
 114 0016 83F31188 		msr     BASEPRI, r3
 115              	@ 0 "" 2
 116              		.thumb
 117 001a 10BD     		pop	{r4, pc}
 118              	.LBE4:
 119              		.cfi_endproc
 120              	.LFE120:
 121              		.size	spiStart, .-spiStart
 122 001c AFF30080 		.section	.text.spiStop,"ax",%progbits
 123              		.align	2
 124              		.p2align 4,,15
 125              		.global	spiStop
 126              		.thumb
 127              		.thumb_func
 128              		.type	spiStop, %function
 129              	spiStop:
 130              	.LFB121:
 131              		.loc 1 129 0
 132              		.cfi_startproc
 133              		@ args = 0, pretend = 0, frame = 0
 134              		@ frame_needed = 0, uses_anonymous_args = 0
 135              	.LVL6:
 136 0000 10B5     		push	{r4, lr}
 137              		.cfi_def_cfa_offset 8
 138              		.cfi_offset 4, -8
 139              		.cfi_offset 14, -4
 140              	.LBB5:
 141              		.loc 1 133 0
 142 0002 2023     		movs	r3, #32
 143              	.LBE5:
 144              		.loc 1 129 0
 145 0004 0446     		mov	r4, r0
 146              	.LBB6:
 147              		.loc 1 133 0
 148              	@ 133 "../ChibiStudio/ChibiOS/os/hal/src/spi.c" 1
 149 0006 83F31188 		msr     BASEPRI, r3
 150              	@ 0 "" 2
 151              		.thumb
 152              	.LBE6:
 153              		.loc 1 136 0
 154 000a FFF7FEFF 		bl	spi_lld_unselect
 155              	.LVL7:
 156              		.loc 1 137 0
 157 000e 2046     		mov	r0, r4
 158 0010 FFF7FEFF 		bl	spi_lld_stop
 159              	.LVL8:
 160              		.loc 1 138 0
 161 0014 0123     		movs	r3, #1
 162 0016 2370     		strb	r3, [r4]
 163              	.LBB7:
 164              		.loc 1 139 0
 165 0018 0023     		movs	r3, #0
 166              	@ 139 "../ChibiStudio/ChibiOS/os/hal/src/spi.c" 1
 167 001a 83F31188 		msr     BASEPRI, r3
 168              	@ 0 "" 2
 169              		.thumb
ARM GAS  /var/folders/4k/6h5l9jl178sb4hslwv3xp1mr0000gn/T//ccnwyzoi.s 			page 4


 170 001e 10BD     		pop	{r4, pc}
 171              	.LBE7:
 172              		.cfi_endproc
 173              	.LFE121:
 174              		.size	spiStop, .-spiStop
 175              		.section	.text.spiSelect,"ax",%progbits
 176              		.align	2
 177              		.p2align 4,,15
 178              		.global	spiSelect
 179              		.thumb
 180              		.thumb_func
 181              		.type	spiSelect, %function
 182              	spiSelect:
 183              	.LFB122:
 184              		.loc 1 149 0
 185              		.cfi_startproc
 186              		@ args = 0, pretend = 0, frame = 0
 187              		@ frame_needed = 0, uses_anonymous_args = 0
 188              	.LVL9:
 189 0000 08B5     		push	{r3, lr}
 190              		.cfi_def_cfa_offset 8
 191              		.cfi_offset 3, -8
 192              		.cfi_offset 14, -4
 193              	.LBB8:
 194              		.loc 1 153 0
 195 0002 2023     		movs	r3, #32
 196              	@ 153 "../ChibiStudio/ChibiOS/os/hal/src/spi.c" 1
 197 0004 83F31188 		msr     BASEPRI, r3
 198              	@ 0 "" 2
 199              		.thumb
 200              	.LBE8:
 201              		.loc 1 155 0
 202 0008 FFF7FEFF 		bl	spi_lld_select
 203              	.LVL10:
 204              	.LBB9:
 205              		.loc 1 156 0
 206 000c 0023     		movs	r3, #0
 207              	@ 156 "../ChibiStudio/ChibiOS/os/hal/src/spi.c" 1
 208 000e 83F31188 		msr     BASEPRI, r3
 209              	@ 0 "" 2
 210              		.thumb
 211 0012 08BD     		pop	{r3, pc}
 212              	.LBE9:
 213              		.cfi_endproc
 214              	.LFE122:
 215              		.size	spiSelect, .-spiSelect
 216 0014 AFF30080 		.section	.text.spiUnselect,"ax",%progbits
 216      AFF30080 
 216      AFF30080 
 217              		.align	2
 218              		.p2align 4,,15
 219              		.global	spiUnselect
 220              		.thumb
 221              		.thumb_func
 222              		.type	spiUnselect, %function
 223              	spiUnselect:
 224              	.LFB123:
ARM GAS  /var/folders/4k/6h5l9jl178sb4hslwv3xp1mr0000gn/T//ccnwyzoi.s 			page 5


 225              		.loc 1 167 0
 226              		.cfi_startproc
 227              		@ args = 0, pretend = 0, frame = 0
 228              		@ frame_needed = 0, uses_anonymous_args = 0
 229              	.LVL11:
 230 0000 08B5     		push	{r3, lr}
 231              		.cfi_def_cfa_offset 8
 232              		.cfi_offset 3, -8
 233              		.cfi_offset 14, -4
 234              	.LBB10:
 235              		.loc 1 171 0
 236 0002 2023     		movs	r3, #32
 237              	@ 171 "../ChibiStudio/ChibiOS/os/hal/src/spi.c" 1
 238 0004 83F31188 		msr     BASEPRI, r3
 239              	@ 0 "" 2
 240              		.thumb
 241              	.LBE10:
 242              		.loc 1 173 0
 243 0008 FFF7FEFF 		bl	spi_lld_unselect
 244              	.LVL12:
 245              	.LBB11:
 246              		.loc 1 174 0
 247 000c 0023     		movs	r3, #0
 248              	@ 174 "../ChibiStudio/ChibiOS/os/hal/src/spi.c" 1
 249 000e 83F31188 		msr     BASEPRI, r3
 250              	@ 0 "" 2
 251              		.thumb
 252 0012 08BD     		pop	{r3, pc}
 253              	.LBE11:
 254              		.cfi_endproc
 255              	.LFE123:
 256              		.size	spiUnselect, .-spiUnselect
 257 0014 AFF30080 		.section	.text.spiStartIgnore,"ax",%progbits
 257      AFF30080 
 257      AFF30080 
 258              		.align	2
 259              		.p2align 4,,15
 260              		.global	spiStartIgnore
 261              		.thumb
 262              		.thumb_func
 263              		.type	spiStartIgnore, %function
 264              	spiStartIgnore:
 265              	.LFB124:
 266              		.loc 1 190 0
 267              		.cfi_startproc
 268              		@ args = 0, pretend = 0, frame = 0
 269              		@ frame_needed = 0, uses_anonymous_args = 0
 270              	.LVL13:
 271 0000 08B5     		push	{r3, lr}
 272              		.cfi_def_cfa_offset 8
 273              		.cfi_offset 3, -8
 274              		.cfi_offset 14, -4
 275              	.LBB12:
 276              		.loc 1 194 0
 277 0002 2023     		movs	r3, #32
 278              	@ 194 "../ChibiStudio/ChibiOS/os/hal/src/spi.c" 1
 279 0004 83F31188 		msr     BASEPRI, r3
ARM GAS  /var/folders/4k/6h5l9jl178sb4hslwv3xp1mr0000gn/T//ccnwyzoi.s 			page 6


 280              	@ 0 "" 2
 281              		.thumb
 282              	.LBE12:
 283              		.loc 1 196 0
 284 0008 0323     		movs	r3, #3
 285 000a 0370     		strb	r3, [r0]
 286 000c FFF7FEFF 		bl	spi_lld_ignore
 287              	.LVL14:
 288              	.LBB13:
 289              		.loc 1 197 0
 290 0010 0023     		movs	r3, #0
 291              	@ 197 "../ChibiStudio/ChibiOS/os/hal/src/spi.c" 1
 292 0012 83F31188 		msr     BASEPRI, r3
 293              	@ 0 "" 2
 294              		.thumb
 295 0016 08BD     		pop	{r3, pc}
 296              	.LBE13:
 297              		.cfi_endproc
 298              	.LFE124:
 299              		.size	spiStartIgnore, .-spiStartIgnore
 300 0018 AFF30080 		.section	.text.spiStartExchange,"ax",%progbits
 300      AFF30080 
 301              		.align	2
 302              		.p2align 4,,15
 303              		.global	spiStartExchange
 304              		.thumb
 305              		.thumb_func
 306              		.type	spiStartExchange, %function
 307              	spiStartExchange:
 308              	.LFB125:
 309              		.loc 1 218 0
 310              		.cfi_startproc
 311              		@ args = 0, pretend = 0, frame = 0
 312              		@ frame_needed = 0, uses_anonymous_args = 0
 313              	.LVL15:
 314 0000 38B5     		push	{r3, r4, r5, lr}
 315              		.cfi_def_cfa_offset 16
 316              		.cfi_offset 3, -16
 317              		.cfi_offset 4, -12
 318              		.cfi_offset 5, -8
 319              		.cfi_offset 14, -4
 320              		.loc 1 218 0
 321 0002 1C46     		mov	r4, r3
 322              	.LBB14:
 323              		.loc 1 223 0
 324 0004 2023     		movs	r3, #32
 325              	.LVL16:
 326              	@ 223 "../ChibiStudio/ChibiOS/os/hal/src/spi.c" 1
 327 0006 83F31188 		msr     BASEPRI, r3
 328              	@ 0 "" 2
 329              		.thumb
 330              	.LBE14:
 331              		.loc 1 225 0
 332 000a 0325     		movs	r5, #3
 333 000c 2346     		mov	r3, r4
 334 000e 0570     		strb	r5, [r0]
 335 0010 FFF7FEFF 		bl	spi_lld_exchange
ARM GAS  /var/folders/4k/6h5l9jl178sb4hslwv3xp1mr0000gn/T//ccnwyzoi.s 			page 7


 336              	.LVL17:
 337              	.LBB15:
 338              		.loc 1 226 0
 339 0014 0023     		movs	r3, #0
 340              	@ 226 "../ChibiStudio/ChibiOS/os/hal/src/spi.c" 1
 341 0016 83F31188 		msr     BASEPRI, r3
 342              	@ 0 "" 2
 343              		.thumb
 344 001a 38BD     		pop	{r3, r4, r5, pc}
 345              	.LBE15:
 346              		.cfi_endproc
 347              	.LFE125:
 348              		.size	spiStartExchange, .-spiStartExchange
 349 001c AFF30080 		.section	.text.spiStartSend,"ax",%progbits
 350              		.align	2
 351              		.p2align 4,,15
 352              		.global	spiStartSend
 353              		.thumb
 354              		.thumb_func
 355              		.type	spiStartSend, %function
 356              	spiStartSend:
 357              	.LFB126:
 358              		.loc 1 244 0
 359              		.cfi_startproc
 360              		@ args = 0, pretend = 0, frame = 0
 361              		@ frame_needed = 0, uses_anonymous_args = 0
 362              	.LVL18:
 363 0000 08B5     		push	{r3, lr}
 364              		.cfi_def_cfa_offset 8
 365              		.cfi_offset 3, -8
 366              		.cfi_offset 14, -4
 367              	.LBB16:
 368              		.loc 1 249 0
 369 0002 2023     		movs	r3, #32
 370              	@ 249 "../ChibiStudio/ChibiOS/os/hal/src/spi.c" 1
 371 0004 83F31188 		msr     BASEPRI, r3
 372              	@ 0 "" 2
 373              		.thumb
 374              	.LBE16:
 375              		.loc 1 251 0
 376 0008 0323     		movs	r3, #3
 377 000a 0370     		strb	r3, [r0]
 378 000c FFF7FEFF 		bl	spi_lld_send
 379              	.LVL19:
 380              	.LBB17:
 381              		.loc 1 252 0
 382 0010 0023     		movs	r3, #0
 383              	@ 252 "../ChibiStudio/ChibiOS/os/hal/src/spi.c" 1
 384 0012 83F31188 		msr     BASEPRI, r3
 385              	@ 0 "" 2
 386              		.thumb
 387 0016 08BD     		pop	{r3, pc}
 388              	.LBE17:
 389              		.cfi_endproc
 390              	.LFE126:
 391              		.size	spiStartSend, .-spiStartSend
 392 0018 AFF30080 		.section	.text.spiStartReceive,"ax",%progbits
ARM GAS  /var/folders/4k/6h5l9jl178sb4hslwv3xp1mr0000gn/T//ccnwyzoi.s 			page 8


 392      AFF30080 
 393              		.align	2
 394              		.p2align 4,,15
 395              		.global	spiStartReceive
 396              		.thumb
 397              		.thumb_func
 398              		.type	spiStartReceive, %function
 399              	spiStartReceive:
 400              	.LFB127:
 401              		.loc 1 270 0
 402              		.cfi_startproc
 403              		@ args = 0, pretend = 0, frame = 0
 404              		@ frame_needed = 0, uses_anonymous_args = 0
 405              	.LVL20:
 406 0000 08B5     		push	{r3, lr}
 407              		.cfi_def_cfa_offset 8
 408              		.cfi_offset 3, -8
 409              		.cfi_offset 14, -4
 410              	.LBB18:
 411              		.loc 1 275 0
 412 0002 2023     		movs	r3, #32
 413              	@ 275 "../ChibiStudio/ChibiOS/os/hal/src/spi.c" 1
 414 0004 83F31188 		msr     BASEPRI, r3
 415              	@ 0 "" 2
 416              		.thumb
 417              	.LBE18:
 418              		.loc 1 277 0
 419 0008 0323     		movs	r3, #3
 420 000a 0370     		strb	r3, [r0]
 421 000c FFF7FEFF 		bl	spi_lld_receive
 422              	.LVL21:
 423              	.LBB19:
 424              		.loc 1 278 0
 425 0010 0023     		movs	r3, #0
 426              	@ 278 "../ChibiStudio/ChibiOS/os/hal/src/spi.c" 1
 427 0012 83F31188 		msr     BASEPRI, r3
 428              	@ 0 "" 2
 429              		.thumb
 430 0016 08BD     		pop	{r3, pc}
 431              	.LBE19:
 432              		.cfi_endproc
 433              	.LFE127:
 434              		.size	spiStartReceive, .-spiStartReceive
 435 0018 AFF30080 		.section	.text.spiIgnore,"ax",%progbits
 435      AFF30080 
 436              		.align	2
 437              		.p2align 4,,15
 438              		.global	spiIgnore
 439              		.thumb
 440              		.thumb_func
 441              		.type	spiIgnore, %function
 442              	spiIgnore:
 443              	.LFB128:
 444              		.loc 1 296 0
 445              		.cfi_startproc
 446              		@ args = 0, pretend = 0, frame = 0
 447              		@ frame_needed = 0, uses_anonymous_args = 0
ARM GAS  /var/folders/4k/6h5l9jl178sb4hslwv3xp1mr0000gn/T//ccnwyzoi.s 			page 9


 448              	.LVL22:
 449 0000 10B5     		push	{r4, lr}
 450              		.cfi_def_cfa_offset 8
 451              		.cfi_offset 4, -8
 452              		.cfi_offset 14, -4
 453              	.LBB20:
 454              		.loc 1 300 0
 455 0002 2023     		movs	r3, #32
 456              	.LBE20:
 457              		.loc 1 296 0
 458 0004 0446     		mov	r4, r0
 459              	.LBB21:
 460              		.loc 1 300 0
 461              	@ 300 "../ChibiStudio/ChibiOS/os/hal/src/spi.c" 1
 462 0006 83F31188 		msr     BASEPRI, r3
 463              	@ 0 "" 2
 464              		.thumb
 465              	.LBE21:
 466              		.loc 1 303 0
 467 000a 0323     		movs	r3, #3
 468 000c 0370     		strb	r3, [r0]
 469 000e FFF7FEFF 		bl	spi_lld_ignore
 470              	.LVL23:
 471              		.loc 1 304 0
 472 0012 054B     		ldr	r3, .L12
 473 0014 9B69     		ldr	r3, [r3, #24]
 474 0016 A360     		str	r3, [r4, #8]
 475 0018 0220     		movs	r0, #2
 476 001a FFF7FEFF 		bl	chSchGoSleepS
 477              	.LVL24:
 478              	.LBB22:
 479              		.loc 1 305 0
 480 001e 0023     		movs	r3, #0
 481              	@ 305 "../ChibiStudio/ChibiOS/os/hal/src/spi.c" 1
 482 0020 83F31188 		msr     BASEPRI, r3
 483              	@ 0 "" 2
 484              		.thumb
 485 0024 10BD     		pop	{r4, pc}
 486              	.LVL25:
 487              	.L13:
 488 0026 00BF     		.align	2
 489              	.L12:
 490 0028 00000000 		.word	rlist
 491              	.LBE22:
 492              		.cfi_endproc
 493              	.LFE128:
 494              		.size	spiIgnore, .-spiIgnore
 495 002c AFF30080 		.section	.text.spiExchange,"ax",%progbits
 496              		.align	2
 497              		.p2align 4,,15
 498              		.global	spiExchange
 499              		.thumb
 500              		.thumb_func
 501              		.type	spiExchange, %function
 502              	spiExchange:
 503              	.LFB129:
 504              		.loc 1 327 0
ARM GAS  /var/folders/4k/6h5l9jl178sb4hslwv3xp1mr0000gn/T//ccnwyzoi.s 			page 10


 505              		.cfi_startproc
 506              		@ args = 0, pretend = 0, frame = 0
 507              		@ frame_needed = 0, uses_anonymous_args = 0
 508              	.LVL26:
 509 0000 38B5     		push	{r3, r4, r5, lr}
 510              		.cfi_def_cfa_offset 16
 511              		.cfi_offset 3, -16
 512              		.cfi_offset 4, -12
 513              		.cfi_offset 5, -8
 514              		.cfi_offset 14, -4
 515              		.loc 1 327 0
 516 0002 1D46     		mov	r5, r3
 517 0004 0446     		mov	r4, r0
 518              	.LBB23:
 519              		.loc 1 332 0
 520 0006 2023     		movs	r3, #32
 521              	.LVL27:
 522              	@ 332 "../ChibiStudio/ChibiOS/os/hal/src/spi.c" 1
 523 0008 83F31188 		msr     BASEPRI, r3
 524              	@ 0 "" 2
 525              		.thumb
 526              	.LBE23:
 527              		.loc 1 336 0
 528 000c 0320     		movs	r0, #3
 529              	.LVL28:
 530 000e 2B46     		mov	r3, r5
 531 0010 2070     		strb	r0, [r4]
 532 0012 2046     		mov	r0, r4
 533 0014 FFF7FEFF 		bl	spi_lld_exchange
 534              	.LVL29:
 535              		.loc 1 337 0
 536 0018 044B     		ldr	r3, .L15
 537 001a 9B69     		ldr	r3, [r3, #24]
 538 001c A360     		str	r3, [r4, #8]
 539 001e 0220     		movs	r0, #2
 540 0020 FFF7FEFF 		bl	chSchGoSleepS
 541              	.LVL30:
 542              	.LBB24:
 543              		.loc 1 338 0
 544 0024 0023     		movs	r3, #0
 545              	@ 338 "../ChibiStudio/ChibiOS/os/hal/src/spi.c" 1
 546 0026 83F31188 		msr     BASEPRI, r3
 547              	@ 0 "" 2
 548              		.thumb
 549 002a 38BD     		pop	{r3, r4, r5, pc}
 550              	.LVL31:
 551              	.L16:
 552              		.align	2
 553              	.L15:
 554 002c 00000000 		.word	rlist
 555              	.LBE24:
 556              		.cfi_endproc
 557              	.LFE129:
 558              		.size	spiExchange, .-spiExchange
 559              		.section	.text.spiSend,"ax",%progbits
 560              		.align	2
 561              		.p2align 4,,15
ARM GAS  /var/folders/4k/6h5l9jl178sb4hslwv3xp1mr0000gn/T//ccnwyzoi.s 			page 11


 562              		.global	spiSend
 563              		.thumb
 564              		.thumb_func
 565              		.type	spiSend, %function
 566              	spiSend:
 567              	.LFB130:
 568              		.loc 1 357 0
 569              		.cfi_startproc
 570              		@ args = 0, pretend = 0, frame = 0
 571              		@ frame_needed = 0, uses_anonymous_args = 0
 572              	.LVL32:
 573 0000 10B5     		push	{r4, lr}
 574              		.cfi_def_cfa_offset 8
 575              		.cfi_offset 4, -8
 576              		.cfi_offset 14, -4
 577              	.LBB25:
 578              		.loc 1 361 0
 579 0002 2023     		movs	r3, #32
 580              	.LBE25:
 581              		.loc 1 357 0
 582 0004 0446     		mov	r4, r0
 583              	.LBB26:
 584              		.loc 1 361 0
 585              	@ 361 "../ChibiStudio/ChibiOS/os/hal/src/spi.c" 1
 586 0006 83F31188 		msr     BASEPRI, r3
 587              	@ 0 "" 2
 588              		.thumb
 589              	.LBE26:
 590              		.loc 1 364 0
 591 000a 0323     		movs	r3, #3
 592 000c 0370     		strb	r3, [r0]
 593 000e FFF7FEFF 		bl	spi_lld_send
 594              	.LVL33:
 595              		.loc 1 365 0
 596 0012 054B     		ldr	r3, .L18
 597 0014 9B69     		ldr	r3, [r3, #24]
 598 0016 A360     		str	r3, [r4, #8]
 599 0018 0220     		movs	r0, #2
 600 001a FFF7FEFF 		bl	chSchGoSleepS
 601              	.LVL34:
 602              	.LBB27:
 603              		.loc 1 366 0
 604 001e 0023     		movs	r3, #0
 605              	@ 366 "../ChibiStudio/ChibiOS/os/hal/src/spi.c" 1
 606 0020 83F31188 		msr     BASEPRI, r3
 607              	@ 0 "" 2
 608              		.thumb
 609 0024 10BD     		pop	{r4, pc}
 610              	.LVL35:
 611              	.L19:
 612 0026 00BF     		.align	2
 613              	.L18:
 614 0028 00000000 		.word	rlist
 615              	.LBE27:
 616              		.cfi_endproc
 617              	.LFE130:
 618              		.size	spiSend, .-spiSend
ARM GAS  /var/folders/4k/6h5l9jl178sb4hslwv3xp1mr0000gn/T//ccnwyzoi.s 			page 12


 619 002c AFF30080 		.section	.text.spiReceive,"ax",%progbits
 620              		.align	2
 621              		.p2align 4,,15
 622              		.global	spiReceive
 623              		.thumb
 624              		.thumb_func
 625              		.type	spiReceive, %function
 626              	spiReceive:
 627              	.LFB131:
 628              		.loc 1 385 0
 629              		.cfi_startproc
 630              		@ args = 0, pretend = 0, frame = 0
 631              		@ frame_needed = 0, uses_anonymous_args = 0
 632              	.LVL36:
 633 0000 10B5     		push	{r4, lr}
 634              		.cfi_def_cfa_offset 8
 635              		.cfi_offset 4, -8
 636              		.cfi_offset 14, -4
 637              	.LBB28:
 638              		.loc 1 390 0
 639 0002 2023     		movs	r3, #32
 640              	.LBE28:
 641              		.loc 1 385 0
 642 0004 0446     		mov	r4, r0
 643              	.LBB29:
 644              		.loc 1 390 0
 645              	@ 390 "../ChibiStudio/ChibiOS/os/hal/src/spi.c" 1
 646 0006 83F31188 		msr     BASEPRI, r3
 647              	@ 0 "" 2
 648              		.thumb
 649              	.LBE29:
 650              		.loc 1 394 0
 651 000a 0323     		movs	r3, #3
 652 000c 0370     		strb	r3, [r0]
 653 000e FFF7FEFF 		bl	spi_lld_receive
 654              	.LVL37:
 655              		.loc 1 395 0
 656 0012 054B     		ldr	r3, .L21
 657 0014 9B69     		ldr	r3, [r3, #24]
 658 0016 A360     		str	r3, [r4, #8]
 659 0018 0220     		movs	r0, #2
 660 001a FFF7FEFF 		bl	chSchGoSleepS
 661              	.LVL38:
 662              	.LBB30:
 663              		.loc 1 396 0
 664 001e 0023     		movs	r3, #0
 665              	@ 396 "../ChibiStudio/ChibiOS/os/hal/src/spi.c" 1
 666 0020 83F31188 		msr     BASEPRI, r3
 667              	@ 0 "" 2
 668              		.thumb
 669 0024 10BD     		pop	{r4, pc}
 670              	.LVL39:
 671              	.L22:
 672 0026 00BF     		.align	2
 673              	.L21:
 674 0028 00000000 		.word	rlist
 675              	.LBE30:
ARM GAS  /var/folders/4k/6h5l9jl178sb4hslwv3xp1mr0000gn/T//ccnwyzoi.s 			page 13


 676              		.cfi_endproc
 677              	.LFE131:
 678              		.size	spiReceive, .-spiReceive
 679 002c AFF30080 		.section	.text.spiAcquireBus,"ax",%progbits
 680              		.align	2
 681              		.p2align 4,,15
 682              		.global	spiAcquireBus
 683              		.thumb
 684              		.thumb_func
 685              		.type	spiAcquireBus, %function
 686              	spiAcquireBus:
 687              	.LFB132:
 688              		.loc 1 412 0
 689              		.cfi_startproc
 690              		@ args = 0, pretend = 0, frame = 0
 691              		@ frame_needed = 0, uses_anonymous_args = 0
 692              		@ link register save eliminated.
 693              	.LVL40:
 694              		.loc 1 417 0
 695 0000 0C30     		adds	r0, r0, #12
 696              	.LVL41:
 697 0002 FFF7FEBF 		b	chMtxLock
 698              	.LVL42:
 699              		.cfi_endproc
 700              	.LFE132:
 701              		.size	spiAcquireBus, .-spiAcquireBus
 702 0006 00BFAFF3 		.section	.text.spiReleaseBus,"ax",%progbits
 702      0080AFF3 
 702      0080
 703              		.align	2
 704              		.p2align 4,,15
 705              		.global	spiReleaseBus
 706              		.thumb
 707              		.thumb_func
 708              		.type	spiReleaseBus, %function
 709              	spiReleaseBus:
 710              	.LFB133:
 711              		.loc 1 432 0
 712              		.cfi_startproc
 713              		@ args = 0, pretend = 0, frame = 0
 714              		@ frame_needed = 0, uses_anonymous_args = 0
 715              		@ link register save eliminated.
 716              	.LVL43:
 717              		.loc 1 438 0
 718 0000 FFF7FEBF 		b	chMtxUnlock
 719              	.LVL44:
 720              		.cfi_endproc
 721              	.LFE133:
 722              		.size	spiReleaseBus, .-spiReleaseBus
 723 0004 AFF30080 		.text
 723      AFF30080 
 723      AFF30080 
 724              	.Letext0:
 725              		.file 2 "/Users/mikevanis/Documents/workspace/gcc-arm-none-eabi-4_8-2014q1/lib/gcc/arm-none-eabi/4
 726              		.file 3 "/Users/mikevanis/Documents/workspace/gcc-arm-none-eabi-4_8-2014q1/arm-none-eabi/include/m
 727              		.file 4 "/Users/mikevanis/Documents/workspace/gcc-arm-none-eabi-4_8-2014q1/arm-none-eabi/include/s
 728              		.file 5 "../ChibiStudio/ChibiOS/os/ports/GCC/ARMCMx/chtypes.h"
ARM GAS  /var/folders/4k/6h5l9jl178sb4hslwv3xp1mr0000gn/T//ccnwyzoi.s 			page 14


 729              		.file 6 "../ChibiStudio/ChibiOS/os/kernel/include/chlists.h"
 730              		.file 7 "../ChibiStudio/ChibiOS/os/kernel/include/chthreads.h"
 731              		.file 8 "../ChibiStudio/ChibiOS/os/ports/GCC/ARMCMx/chcore_v7m.h"
 732              		.file 9 "../ChibiStudio/ChibiOS/os/kernel/include/chschd.h"
 733              		.file 10 "../ChibiStudio/ChibiOS/os/kernel/include/chmtx.h"
 734              		.file 11 "../ChibiStudio/ChibiOS/os/hal/platforms/STM32F4xx/stm32f4xx.h"
 735              		.file 12 "../ChibiStudio/ChibiOS/os/hal/platforms/STM32F4xx/stm32_dma.h"
 736              		.file 13 "../ChibiStudio/ChibiOS/os/hal/platforms/STM32/GPIOv2/pal_lld.h"
 737              		.file 14 "../ChibiStudio/ChibiOS/os/hal/include/spi.h"
 738              		.file 15 "../ChibiStudio/ChibiOS/os/hal/platforms/STM32/SPIv1/spi_lld.h"
 739              		.file 16 "../ChibiStudio/ChibiOS/os/ports/common/ARMCMx/CMSIS/include/core_cm4.h"
 740              		.section	.debug_info,"",%progbits
 741              	.Ldebug_info0:
 742 0000 C7100000 		.4byte	0x10c7
 743 0004 0400     		.2byte	0x4
 744 0006 00000000 		.4byte	.Ldebug_abbrev0
 745 000a 04       		.byte	0x4
 746 000b 01       		.uleb128 0x1
 747 000c DB030000 		.4byte	.LASF157
 748 0010 01       		.byte	0x1
 749 0011 C4060000 		.4byte	.LASF158
 750 0015 06050000 		.4byte	.LASF159
 751 0019 78000000 		.4byte	.Ldebug_ranges0+0x78
 752 001d 00000000 		.4byte	0
 753 0021 00000000 		.4byte	.Ldebug_line0
 754 0025 02       		.uleb128 0x2
 755 0026 04       		.byte	0x4
 756 0027 05       		.byte	0x5
 757 0028 696E7400 		.ascii	"int\000"
 758 002c 03       		.uleb128 0x3
 759 002d 0B000000 		.4byte	.LASF2
 760 0031 02       		.byte	0x2
 761 0032 D4       		.byte	0xd4
 762 0033 37000000 		.4byte	0x37
 763 0037 04       		.uleb128 0x4
 764 0038 04       		.byte	0x4
 765 0039 07       		.byte	0x7
 766 003a F6010000 		.4byte	.LASF0
 767 003e 04       		.uleb128 0x4
 768 003f 01       		.byte	0x1
 769 0040 06       		.byte	0x6
 770 0041 C4000000 		.4byte	.LASF1
 771 0045 03       		.uleb128 0x3
 772 0046 20000000 		.4byte	.LASF3
 773 004a 03       		.byte	0x3
 774 004b 1C       		.byte	0x1c
 775 004c 50000000 		.4byte	0x50
 776 0050 04       		.uleb128 0x4
 777 0051 01       		.byte	0x1
 778 0052 08       		.byte	0x8
 779 0053 BA030000 		.4byte	.LASF4
 780 0057 04       		.uleb128 0x4
 781 0058 02       		.byte	0x2
 782 0059 05       		.byte	0x5
 783 005a BF040000 		.4byte	.LASF5
 784 005e 03       		.uleb128 0x3
 785 005f B6050000 		.4byte	.LASF6
ARM GAS  /var/folders/4k/6h5l9jl178sb4hslwv3xp1mr0000gn/T//ccnwyzoi.s 			page 15


 786 0063 03       		.byte	0x3
 787 0064 26       		.byte	0x26
 788 0065 69000000 		.4byte	0x69
 789 0069 04       		.uleb128 0x4
 790 006a 02       		.byte	0x2
 791 006b 07       		.byte	0x7
 792 006c 51020000 		.4byte	.LASF7
 793 0070 03       		.uleb128 0x3
 794 0071 E8050000 		.4byte	.LASF8
 795 0075 03       		.byte	0x3
 796 0076 37       		.byte	0x37
 797 0077 7B000000 		.4byte	0x7b
 798 007b 04       		.uleb128 0x4
 799 007c 04       		.byte	0x4
 800 007d 05       		.byte	0x5
 801 007e 19010000 		.4byte	.LASF9
 802 0082 03       		.uleb128 0x3
 803 0083 F2050000 		.4byte	.LASF10
 804 0087 03       		.byte	0x3
 805 0088 38       		.byte	0x38
 806 0089 8D000000 		.4byte	0x8d
 807 008d 04       		.uleb128 0x4
 808 008e 04       		.byte	0x4
 809 008f 07       		.byte	0x7
 810 0090 7F050000 		.4byte	.LASF11
 811 0094 04       		.uleb128 0x4
 812 0095 08       		.byte	0x8
 813 0096 05       		.byte	0x5
 814 0097 53010000 		.4byte	.LASF12
 815 009b 04       		.uleb128 0x4
 816 009c 08       		.byte	0x8
 817 009d 07       		.byte	0x7
 818 009e 4A000000 		.4byte	.LASF13
 819 00a2 03       		.uleb128 0x3
 820 00a3 B7060000 		.4byte	.LASF14
 821 00a7 04       		.byte	0x4
 822 00a8 2A       		.byte	0x2a
 823 00a9 45000000 		.4byte	0x45
 824 00ad 03       		.uleb128 0x3
 825 00ae 61010000 		.4byte	.LASF15
 826 00b2 04       		.byte	0x4
 827 00b3 36       		.byte	0x36
 828 00b4 5E000000 		.4byte	0x5e
 829 00b8 03       		.uleb128 0x3
 830 00b9 B2030000 		.4byte	.LASF16
 831 00bd 04       		.byte	0x4
 832 00be 41       		.byte	0x41
 833 00bf 70000000 		.4byte	0x70
 834 00c3 03       		.uleb128 0x3
 835 00c4 66050000 		.4byte	.LASF17
 836 00c8 04       		.byte	0x4
 837 00c9 42       		.byte	0x42
 838 00ca 82000000 		.4byte	0x82
 839 00ce 04       		.uleb128 0x4
 840 00cf 01       		.byte	0x1
 841 00d0 02       		.byte	0x2
 842 00d1 AC030000 		.4byte	.LASF18
ARM GAS  /var/folders/4k/6h5l9jl178sb4hslwv3xp1mr0000gn/T//ccnwyzoi.s 			page 16


 843 00d5 03       		.uleb128 0x3
 844 00d6 6A020000 		.4byte	.LASF19
 845 00da 05       		.byte	0x5
 846 00db 2C       		.byte	0x2c
 847 00dc A2000000 		.4byte	0xa2
 848 00e0 03       		.uleb128 0x3
 849 00e1 22010000 		.4byte	.LASF20
 850 00e5 05       		.byte	0x5
 851 00e6 2D       		.byte	0x2d
 852 00e7 A2000000 		.4byte	0xa2
 853 00eb 03       		.uleb128 0x3
 854 00ec 77050000 		.4byte	.LASF21
 855 00f0 05       		.byte	0x5
 856 00f1 2E       		.byte	0x2e
 857 00f2 A2000000 		.4byte	0xa2
 858 00f6 03       		.uleb128 0x3
 859 00f7 FB000000 		.4byte	.LASF22
 860 00fb 05       		.byte	0x5
 861 00fc 2F       		.byte	0x2f
 862 00fd A2000000 		.4byte	0xa2
 863 0101 03       		.uleb128 0x3
 864 0102 9E030000 		.4byte	.LASF23
 865 0106 05       		.byte	0x5
 866 0107 30       		.byte	0x30
 867 0108 C3000000 		.4byte	0xc3
 868 010c 03       		.uleb128 0x3
 869 010d 64020000 		.4byte	.LASF24
 870 0111 05       		.byte	0x5
 871 0112 31       		.byte	0x31
 872 0113 B8000000 		.4byte	0xb8
 873 0117 03       		.uleb128 0x3
 874 0118 7E020000 		.4byte	.LASF25
 875 011c 05       		.byte	0x5
 876 011d 33       		.byte	0x33
 877 011e C3000000 		.4byte	0xc3
 878 0122 03       		.uleb128 0x3
 879 0123 D3050000 		.4byte	.LASF26
 880 0127 05       		.byte	0x5
 881 0128 35       		.byte	0x35
 882 0129 C3000000 		.4byte	0xc3
 883 012d 03       		.uleb128 0x3
 884 012e FF040000 		.4byte	.LASF27
 885 0132 06       		.byte	0x6
 886 0133 2A       		.byte	0x2a
 887 0134 38010000 		.4byte	0x138
 888 0138 05       		.uleb128 0x5
 889 0139 FF040000 		.4byte	.LASF27
 890 013d 48       		.byte	0x48
 891 013e 07       		.byte	0x7
 892 013f 5E       		.byte	0x5e
 893 0140 35020000 		.4byte	0x235
 894 0144 06       		.uleb128 0x6
 895 0145 F0040000 		.4byte	.LASF28
 896 0149 07       		.byte	0x7
 897 014a 5F       		.byte	0x5f
 898 014b 56020000 		.4byte	0x256
 899 014f 00       		.byte	0
ARM GAS  /var/folders/4k/6h5l9jl178sb4hslwv3xp1mr0000gn/T//ccnwyzoi.s 			page 17


 900 0150 06       		.uleb128 0x6
 901 0151 79030000 		.4byte	.LASF29
 902 0155 07       		.byte	0x7
 903 0156 61       		.byte	0x61
 904 0157 56020000 		.4byte	0x256
 905 015b 04       		.byte	0x4
 906 015c 06       		.uleb128 0x6
 907 015d AB000000 		.4byte	.LASF30
 908 0161 07       		.byte	0x7
 909 0162 63       		.byte	0x63
 910 0163 01010000 		.4byte	0x101
 911 0167 08       		.byte	0x8
 912 0168 06       		.uleb128 0x6
 913 0169 1A070000 		.4byte	.LASF31
 914 016d 07       		.byte	0x7
 915 016e 64       		.byte	0x64
 916 016f 10030000 		.4byte	0x310
 917 0173 0C       		.byte	0xc
 918 0174 06       		.uleb128 0x6
 919 0175 80010000 		.4byte	.LASF32
 920 0179 07       		.byte	0x7
 921 017a 66       		.byte	0x66
 922 017b 56020000 		.4byte	0x256
 923 017f 10       		.byte	0x10
 924 0180 06       		.uleb128 0x6
 925 0181 FF020000 		.4byte	.LASF33
 926 0185 07       		.byte	0x7
 927 0186 67       		.byte	0x67
 928 0187 56020000 		.4byte	0x256
 929 018b 14       		.byte	0x14
 930 018c 06       		.uleb128 0x6
 931 018d F3060000 		.4byte	.LASF34
 932 0191 07       		.byte	0x7
 933 0192 6E       		.byte	0x6e
 934 0193 15040000 		.4byte	0x415
 935 0197 18       		.byte	0x18
 936 0198 06       		.uleb128 0x6
 937 0199 C9040000 		.4byte	.LASF35
 938 019d 07       		.byte	0x7
 939 019e 79       		.byte	0x79
 940 019f E0000000 		.4byte	0xe0
 941 01a3 1C       		.byte	0x1c
 942 01a4 06       		.uleb128 0x6
 943 01a5 F7040000 		.4byte	.LASF36
 944 01a9 07       		.byte	0x7
 945 01aa 7D       		.byte	0x7d
 946 01ab D5000000 		.4byte	0xd5
 947 01af 1D       		.byte	0x1d
 948 01b0 06       		.uleb128 0x6
 949 01b1 4C010000 		.4byte	.LASF37
 950 01b5 07       		.byte	0x7
 951 01b6 82       		.byte	0x82
 952 01b7 EB000000 		.4byte	0xeb
 953 01bb 1E       		.byte	0x1e
 954 01bc 06       		.uleb128 0x6
 955 01bd D1040000 		.4byte	.LASF38
 956 01c1 07       		.byte	0x7
ARM GAS  /var/folders/4k/6h5l9jl178sb4hslwv3xp1mr0000gn/T//ccnwyzoi.s 			page 18


 957 01c2 88       		.byte	0x88
 958 01c3 F6000000 		.4byte	0xf6
 959 01c7 1F       		.byte	0x1f
 960 01c8 06       		.uleb128 0x6
 961 01c9 6A010000 		.4byte	.LASF39
 962 01cd 07       		.byte	0x7
 963 01ce 8F       		.byte	0x8f
 964 01cf 3D030000 		.4byte	0x33d
 965 01d3 20       		.byte	0x20
 966 01d4 07       		.uleb128 0x7
 967 01d5 705F7500 		.ascii	"p_u\000"
 968 01d9 07       		.byte	0x7
 969 01da B4       		.byte	0xb4
 970 01db E0030000 		.4byte	0x3e0
 971 01df 24       		.byte	0x24
 972 01e0 06       		.uleb128 0x6
 973 01e1 20070000 		.4byte	.LASF40
 974 01e5 07       		.byte	0x7
 975 01e6 B9       		.byte	0xb9
 976 01e7 7C020000 		.4byte	0x27c
 977 01eb 28       		.byte	0x28
 978 01ec 06       		.uleb128 0x6
 979 01ed 25020000 		.4byte	.LASF41
 980 01f1 07       		.byte	0x7
 981 01f2 BF       		.byte	0xbf
 982 01f3 5C020000 		.4byte	0x25c
 983 01f7 2C       		.byte	0x2c
 984 01f8 06       		.uleb128 0x6
 985 01f9 0C070000 		.4byte	.LASF42
 986 01fd 07       		.byte	0x7
 987 01fe C3       		.byte	0xc3
 988 01ff 0C010000 		.4byte	0x10c
 989 0203 34       		.byte	0x34
 990 0204 06       		.uleb128 0x6
 991 0205 4C050000 		.4byte	.LASF43
 992 0209 07       		.byte	0x7
 993 020a C9       		.byte	0xc9
 994 020b 17010000 		.4byte	0x117
 995 020f 38       		.byte	0x38
 996 0210 06       		.uleb128 0x6
 997 0211 B5040000 		.4byte	.LASF44
 998 0215 07       		.byte	0x7
 999 0216 D0       		.byte	0xd0
 1000 0217 27040000 		.4byte	0x427
 1001 021b 3C       		.byte	0x3c
 1002 021c 06       		.uleb128 0x6
 1003 021d DD050000 		.4byte	.LASF45
 1004 0221 07       		.byte	0x7
 1005 0222 D4       		.byte	0xd4
 1006 0223 01010000 		.4byte	0x101
 1007 0227 40       		.byte	0x40
 1008 0228 06       		.uleb128 0x6
 1009 0229 BC010000 		.4byte	.LASF46
 1010 022d 07       		.byte	0x7
 1011 022e DA       		.byte	0xda
 1012 022f 92020000 		.4byte	0x292
 1013 0233 44       		.byte	0x44
ARM GAS  /var/folders/4k/6h5l9jl178sb4hslwv3xp1mr0000gn/T//ccnwyzoi.s 			page 19


 1014 0234 00       		.byte	0
 1015 0235 08       		.uleb128 0x8
 1016 0236 08       		.byte	0x8
 1017 0237 06       		.byte	0x6
 1018 0238 61       		.byte	0x61
 1019 0239 56020000 		.4byte	0x256
 1020 023d 06       		.uleb128 0x6
 1021 023e F0040000 		.4byte	.LASF28
 1022 0242 06       		.byte	0x6
 1023 0243 62       		.byte	0x62
 1024 0244 56020000 		.4byte	0x256
 1025 0248 00       		.byte	0
 1026 0249 06       		.uleb128 0x6
 1027 024a 79030000 		.4byte	.LASF29
 1028 024e 06       		.byte	0x6
 1029 024f 64       		.byte	0x64
 1030 0250 56020000 		.4byte	0x256
 1031 0254 04       		.byte	0x4
 1032 0255 00       		.byte	0
 1033 0256 09       		.uleb128 0x9
 1034 0257 04       		.byte	0x4
 1035 0258 2D010000 		.4byte	0x12d
 1036 025c 03       		.uleb128 0x3
 1037 025d 0D030000 		.4byte	.LASF47
 1038 0261 06       		.byte	0x6
 1039 0262 66       		.byte	0x66
 1040 0263 35020000 		.4byte	0x235
 1041 0267 08       		.uleb128 0x8
 1042 0268 04       		.byte	0x4
 1043 0269 06       		.byte	0x6
 1044 026a 6B       		.byte	0x6b
 1045 026b 7C020000 		.4byte	0x27c
 1046 026f 06       		.uleb128 0x6
 1047 0270 F0040000 		.4byte	.LASF28
 1048 0274 06       		.byte	0x6
 1049 0275 6D       		.byte	0x6d
 1050 0276 56020000 		.4byte	0x256
 1051 027a 00       		.byte	0
 1052 027b 00       		.byte	0
 1053 027c 03       		.uleb128 0x3
 1054 027d 72020000 		.4byte	.LASF48
 1055 0281 06       		.byte	0x6
 1056 0282 70       		.byte	0x70
 1057 0283 67020000 		.4byte	0x267
 1058 0287 03       		.uleb128 0x3
 1059 0288 C4010000 		.4byte	.LASF49
 1060 028c 08       		.byte	0x8
 1061 028d E5       		.byte	0xe5
 1062 028e 92020000 		.4byte	0x292
 1063 0292 0A       		.uleb128 0xa
 1064 0293 04       		.byte	0x4
 1065 0294 0B       		.uleb128 0xb
 1066 0295 61060000 		.4byte	.LASF50
 1067 0299 24       		.byte	0x24
 1068 029a 08       		.byte	0x8
 1069 029b 0C01     		.2byte	0x10c
 1070 029d 10030000 		.4byte	0x310
ARM GAS  /var/folders/4k/6h5l9jl178sb4hslwv3xp1mr0000gn/T//ccnwyzoi.s 			page 20


 1071 02a1 0C       		.uleb128 0xc
 1072 02a2 723400   		.ascii	"r4\000"
 1073 02a5 08       		.byte	0x8
 1074 02a6 1F01     		.2byte	0x11f
 1075 02a8 87020000 		.4byte	0x287
 1076 02ac 00       		.byte	0
 1077 02ad 0C       		.uleb128 0xc
 1078 02ae 723500   		.ascii	"r5\000"
 1079 02b1 08       		.byte	0x8
 1080 02b2 2001     		.2byte	0x120
 1081 02b4 87020000 		.4byte	0x287
 1082 02b8 04       		.byte	0x4
 1083 02b9 0C       		.uleb128 0xc
 1084 02ba 723600   		.ascii	"r6\000"
 1085 02bd 08       		.byte	0x8
 1086 02be 2101     		.2byte	0x121
 1087 02c0 87020000 		.4byte	0x287
 1088 02c4 08       		.byte	0x8
 1089 02c5 0C       		.uleb128 0xc
 1090 02c6 723700   		.ascii	"r7\000"
 1091 02c9 08       		.byte	0x8
 1092 02ca 2201     		.2byte	0x122
 1093 02cc 87020000 		.4byte	0x287
 1094 02d0 0C       		.byte	0xc
 1095 02d1 0C       		.uleb128 0xc
 1096 02d2 723800   		.ascii	"r8\000"
 1097 02d5 08       		.byte	0x8
 1098 02d6 2301     		.2byte	0x123
 1099 02d8 87020000 		.4byte	0x287
 1100 02dc 10       		.byte	0x10
 1101 02dd 0C       		.uleb128 0xc
 1102 02de 723900   		.ascii	"r9\000"
 1103 02e1 08       		.byte	0x8
 1104 02e2 2401     		.2byte	0x124
 1105 02e4 87020000 		.4byte	0x287
 1106 02e8 14       		.byte	0x14
 1107 02e9 0C       		.uleb128 0xc
 1108 02ea 72313000 		.ascii	"r10\000"
 1109 02ee 08       		.byte	0x8
 1110 02ef 2501     		.2byte	0x125
 1111 02f1 87020000 		.4byte	0x287
 1112 02f5 18       		.byte	0x18
 1113 02f6 0C       		.uleb128 0xc
 1114 02f7 72313100 		.ascii	"r11\000"
 1115 02fb 08       		.byte	0x8
 1116 02fc 2601     		.2byte	0x126
 1117 02fe 87020000 		.4byte	0x287
 1118 0302 1C       		.byte	0x1c
 1119 0303 0C       		.uleb128 0xc
 1120 0304 6C7200   		.ascii	"lr\000"
 1121 0307 08       		.byte	0x8
 1122 0308 2701     		.2byte	0x127
 1123 030a 87020000 		.4byte	0x287
 1124 030e 20       		.byte	0x20
 1125 030f 00       		.byte	0
 1126 0310 0B       		.uleb128 0xb
 1127 0311 49020000 		.4byte	.LASF51
ARM GAS  /var/folders/4k/6h5l9jl178sb4hslwv3xp1mr0000gn/T//ccnwyzoi.s 			page 21


 1128 0315 04       		.byte	0x4
 1129 0316 08       		.byte	0x8
 1130 0317 3101     		.2byte	0x131
 1131 0319 2B030000 		.4byte	0x32b
 1132 031d 0C       		.uleb128 0xc
 1133 031e 72313300 		.ascii	"r13\000"
 1134 0322 08       		.byte	0x8
 1135 0323 3201     		.2byte	0x132
 1136 0325 2B030000 		.4byte	0x32b
 1137 0329 00       		.byte	0
 1138 032a 00       		.byte	0
 1139 032b 09       		.uleb128 0x9
 1140 032c 04       		.byte	0x4
 1141 032d 94020000 		.4byte	0x294
 1142 0331 0D       		.uleb128 0xd
 1143 0332 C3000000 		.4byte	0xc3
 1144 0336 04       		.uleb128 0x4
 1145 0337 04       		.byte	0x4
 1146 0338 07       		.byte	0x7
 1147 0339 C5020000 		.4byte	.LASF52
 1148 033d 0D       		.uleb128 0xd
 1149 033e 22010000 		.4byte	0x122
 1150 0342 08       		.uleb128 0x8
 1151 0343 1C       		.byte	0x1c
 1152 0344 09       		.byte	0x9
 1153 0345 5E       		.byte	0x5e
 1154 0346 93030000 		.4byte	0x393
 1155 034a 06       		.uleb128 0x6
 1156 034b 6F050000 		.4byte	.LASF53
 1157 034f 09       		.byte	0x9
 1158 0350 5F       		.byte	0x5f
 1159 0351 5C020000 		.4byte	0x25c
 1160 0355 00       		.byte	0
 1161 0356 06       		.uleb128 0x6
 1162 0357 9C020000 		.4byte	.LASF54
 1163 035b 09       		.byte	0x9
 1164 035c 60       		.byte	0x60
 1165 035d 01010000 		.4byte	0x101
 1166 0361 08       		.byte	0x8
 1167 0362 06       		.uleb128 0x6
 1168 0363 07030000 		.4byte	.LASF55
 1169 0367 09       		.byte	0x9
 1170 0368 62       		.byte	0x62
 1171 0369 10030000 		.4byte	0x310
 1172 036d 0C       		.byte	0xc
 1173 036e 06       		.uleb128 0x6
 1174 036f B4010000 		.4byte	.LASF56
 1175 0373 09       		.byte	0x9
 1176 0374 65       		.byte	0x65
 1177 0375 56020000 		.4byte	0x256
 1178 0379 10       		.byte	0x10
 1179 037a 06       		.uleb128 0x6
 1180 037b 2E030000 		.4byte	.LASF57
 1181 037f 09       		.byte	0x9
 1182 0380 66       		.byte	0x66
 1183 0381 56020000 		.4byte	0x256
 1184 0385 14       		.byte	0x14
ARM GAS  /var/folders/4k/6h5l9jl178sb4hslwv3xp1mr0000gn/T//ccnwyzoi.s 			page 22


 1185 0386 06       		.uleb128 0x6
 1186 0387 24030000 		.4byte	.LASF58
 1187 038b 09       		.byte	0x9
 1188 038c 69       		.byte	0x69
 1189 038d 56020000 		.4byte	0x256
 1190 0391 18       		.byte	0x18
 1191 0392 00       		.byte	0
 1192 0393 03       		.uleb128 0x3
 1193 0394 8A020000 		.4byte	.LASF59
 1194 0398 09       		.byte	0x9
 1195 0399 6B       		.byte	0x6b
 1196 039a 42030000 		.4byte	0x342
 1197 039e 05       		.uleb128 0x5
 1198 039f D4020000 		.4byte	.LASF60
 1199 03a3 10       		.byte	0x10
 1200 03a4 0A       		.byte	0xa
 1201 03a5 2C       		.byte	0x2c
 1202 03a6 CF030000 		.4byte	0x3cf
 1203 03aa 06       		.uleb128 0x6
 1204 03ab F3000000 		.4byte	.LASF61
 1205 03af 0A       		.byte	0xa
 1206 03b0 2D       		.byte	0x2d
 1207 03b1 5C020000 		.4byte	0x25c
 1208 03b5 00       		.byte	0
 1209 03b6 06       		.uleb128 0x6
 1210 03b7 12070000 		.4byte	.LASF62
 1211 03bb 0A       		.byte	0xa
 1212 03bc 2F       		.byte	0x2f
 1213 03bd 56020000 		.4byte	0x256
 1214 03c1 08       		.byte	0x8
 1215 03c2 06       		.uleb128 0x6
 1216 03c3 CC050000 		.4byte	.LASF63
 1217 03c7 0A       		.byte	0xa
 1218 03c8 31       		.byte	0x31
 1219 03c9 CF030000 		.4byte	0x3cf
 1220 03cd 0C       		.byte	0xc
 1221 03ce 00       		.byte	0
 1222 03cf 09       		.uleb128 0x9
 1223 03d0 04       		.byte	0x4
 1224 03d1 9E030000 		.4byte	0x39e
 1225 03d5 03       		.uleb128 0x3
 1226 03d6 D4020000 		.4byte	.LASF60
 1227 03da 0A       		.byte	0xa
 1228 03db 33       		.byte	0x33
 1229 03dc 9E030000 		.4byte	0x39e
 1230 03e0 0E       		.uleb128 0xe
 1231 03e1 04       		.byte	0x4
 1232 03e2 07       		.byte	0x7
 1233 03e3 96       		.byte	0x96
 1234 03e4 15040000 		.4byte	0x415
 1235 03e8 0F       		.uleb128 0xf
 1236 03e9 12000000 		.4byte	.LASF64
 1237 03ed 07       		.byte	0x7
 1238 03ee 9D       		.byte	0x9d
 1239 03ef 0C010000 		.4byte	0x10c
 1240 03f3 0F       		.uleb128 0xf
 1241 03f4 77000000 		.4byte	.LASF65
ARM GAS  /var/folders/4k/6h5l9jl178sb4hslwv3xp1mr0000gn/T//ccnwyzoi.s 			page 23


 1242 03f8 07       		.byte	0x7
 1243 03f9 A4       		.byte	0xa4
 1244 03fa 0C010000 		.4byte	0x10c
 1245 03fe 0F       		.uleb128 0xf
 1246 03ff EC060000 		.4byte	.LASF66
 1247 0403 07       		.byte	0x7
 1248 0404 AB       		.byte	0xab
 1249 0405 92020000 		.4byte	0x292
 1250 0409 0F       		.uleb128 0xf
 1251 040a E9040000 		.4byte	.LASF67
 1252 040e 07       		.byte	0x7
 1253 040f B2       		.byte	0xb2
 1254 0410 17010000 		.4byte	0x117
 1255 0414 00       		.byte	0
 1256 0415 09       		.uleb128 0x9
 1257 0416 04       		.byte	0x4
 1258 0417 1B040000 		.4byte	0x41b
 1259 041b 10       		.uleb128 0x10
 1260 041c 20040000 		.4byte	0x420
 1261 0420 04       		.uleb128 0x4
 1262 0421 01       		.byte	0x1
 1263 0422 08       		.byte	0x8
 1264 0423 9D050000 		.4byte	.LASF68
 1265 0427 09       		.uleb128 0x9
 1266 0428 04       		.byte	0x4
 1267 0429 D5030000 		.4byte	0x3d5
 1268 042d 0D       		.uleb128 0xd
 1269 042e AD000000 		.4byte	0xad
 1270 0432 0D       		.uleb128 0xd
 1271 0433 B8000000 		.4byte	0xb8
 1272 0437 11       		.uleb128 0x11
 1273 0438 18       		.byte	0x18
 1274 0439 0B       		.byte	0xb
 1275 043a B102     		.2byte	0x2b1
 1276 043c 8E040000 		.4byte	0x48e
 1277 0440 0C       		.uleb128 0xc
 1278 0441 435200   		.ascii	"CR\000"
 1279 0444 0B       		.byte	0xb
 1280 0445 B302     		.2byte	0x2b3
 1281 0447 31030000 		.4byte	0x331
 1282 044b 00       		.byte	0
 1283 044c 12       		.uleb128 0x12
 1284 044d 04060000 		.4byte	.LASF69
 1285 0451 0B       		.byte	0xb
 1286 0452 B402     		.2byte	0x2b4
 1287 0454 31030000 		.4byte	0x331
 1288 0458 04       		.byte	0x4
 1289 0459 0C       		.uleb128 0xc
 1290 045a 50415200 		.ascii	"PAR\000"
 1291 045e 0B       		.byte	0xb
 1292 045f B502     		.2byte	0x2b5
 1293 0461 31030000 		.4byte	0x331
 1294 0465 08       		.byte	0x8
 1295 0466 12       		.uleb128 0x12
 1296 0467 06000000 		.4byte	.LASF70
 1297 046b 0B       		.byte	0xb
 1298 046c B602     		.2byte	0x2b6
ARM GAS  /var/folders/4k/6h5l9jl178sb4hslwv3xp1mr0000gn/T//ccnwyzoi.s 			page 24


 1299 046e 31030000 		.4byte	0x331
 1300 0472 0C       		.byte	0xc
 1301 0473 12       		.uleb128 0x12
 1302 0474 68060000 		.4byte	.LASF71
 1303 0478 0B       		.byte	0xb
 1304 0479 B702     		.2byte	0x2b7
 1305 047b 31030000 		.4byte	0x331
 1306 047f 10       		.byte	0x10
 1307 0480 0C       		.uleb128 0xc
 1308 0481 46435200 		.ascii	"FCR\000"
 1309 0485 0B       		.byte	0xb
 1310 0486 B802     		.2byte	0x2b8
 1311 0488 31030000 		.4byte	0x331
 1312 048c 14       		.byte	0x14
 1313 048d 00       		.byte	0
 1314 048e 13       		.uleb128 0x13
 1315 048f 21060000 		.4byte	.LASF72
 1316 0493 0B       		.byte	0xb
 1317 0494 B902     		.2byte	0x2b9
 1318 0496 37040000 		.4byte	0x437
 1319 049a 11       		.uleb128 0x11
 1320 049b 24       		.byte	0x24
 1321 049c 0B       		.byte	0xb
 1322 049d E304     		.2byte	0x4e3
 1323 049f 8C050000 		.4byte	0x58c
 1324 04a3 0C       		.uleb128 0xc
 1325 04a4 43523100 		.ascii	"CR1\000"
 1326 04a8 0B       		.byte	0xb
 1327 04a9 E504     		.2byte	0x4e5
 1328 04ab 2D040000 		.4byte	0x42d
 1329 04af 00       		.byte	0
 1330 04b0 12       		.uleb128 0x12
 1331 04b1 47030000 		.4byte	.LASF73
 1332 04b5 0B       		.byte	0xb
 1333 04b6 E604     		.2byte	0x4e6
 1334 04b8 AD000000 		.4byte	0xad
 1335 04bc 02       		.byte	0x2
 1336 04bd 0C       		.uleb128 0xc
 1337 04be 43523200 		.ascii	"CR2\000"
 1338 04c2 0B       		.byte	0xb
 1339 04c3 E704     		.2byte	0x4e7
 1340 04c5 2D040000 		.4byte	0x42d
 1341 04c9 04       		.byte	0x4
 1342 04ca 12       		.uleb128 0x12
 1343 04cb 51030000 		.4byte	.LASF74
 1344 04cf 0B       		.byte	0xb
 1345 04d0 E804     		.2byte	0x4e8
 1346 04d2 AD000000 		.4byte	0xad
 1347 04d6 06       		.byte	0x6
 1348 04d7 0C       		.uleb128 0xc
 1349 04d8 535200   		.ascii	"SR\000"
 1350 04db 0B       		.byte	0xb
 1351 04dc E904     		.2byte	0x4e9
 1352 04de 2D040000 		.4byte	0x42d
 1353 04e2 08       		.byte	0x8
 1354 04e3 12       		.uleb128 0x12
 1355 04e4 5B030000 		.4byte	.LASF75
ARM GAS  /var/folders/4k/6h5l9jl178sb4hslwv3xp1mr0000gn/T//ccnwyzoi.s 			page 25


 1356 04e8 0B       		.byte	0xb
 1357 04e9 EA04     		.2byte	0x4ea
 1358 04eb AD000000 		.4byte	0xad
 1359 04ef 0A       		.byte	0xa
 1360 04f0 0C       		.uleb128 0xc
 1361 04f1 445200   		.ascii	"DR\000"
 1362 04f4 0B       		.byte	0xb
 1363 04f5 EB04     		.2byte	0x4eb
 1364 04f7 2D040000 		.4byte	0x42d
 1365 04fb 0C       		.byte	0xc
 1366 04fc 12       		.uleb128 0x12
 1367 04fd 65030000 		.4byte	.LASF76
 1368 0501 0B       		.byte	0xb
 1369 0502 EC04     		.2byte	0x4ec
 1370 0504 AD000000 		.4byte	0xad
 1371 0508 0E       		.byte	0xe
 1372 0509 12       		.uleb128 0x12
 1373 050a 6B000000 		.4byte	.LASF77
 1374 050e 0B       		.byte	0xb
 1375 050f ED04     		.2byte	0x4ed
 1376 0511 2D040000 		.4byte	0x42d
 1377 0515 10       		.byte	0x10
 1378 0516 12       		.uleb128 0x12
 1379 0517 6F030000 		.4byte	.LASF78
 1380 051b 0B       		.byte	0xb
 1381 051c EE04     		.2byte	0x4ee
 1382 051e AD000000 		.4byte	0xad
 1383 0522 12       		.byte	0x12
 1384 0523 12       		.uleb128 0x12
 1385 0524 A2060000 		.4byte	.LASF79
 1386 0528 0B       		.byte	0xb
 1387 0529 EF04     		.2byte	0x4ef
 1388 052b 2D040000 		.4byte	0x42d
 1389 052f 14       		.byte	0x14
 1390 0530 12       		.uleb128 0x12
 1391 0531 5C050000 		.4byte	.LASF80
 1392 0535 0B       		.byte	0xb
 1393 0536 F004     		.2byte	0x4f0
 1394 0538 AD000000 		.4byte	0xad
 1395 053c 16       		.byte	0x16
 1396 053d 12       		.uleb128 0x12
 1397 053e 40030000 		.4byte	.LASF81
 1398 0542 0B       		.byte	0xb
 1399 0543 F104     		.2byte	0x4f1
 1400 0545 2D040000 		.4byte	0x42d
 1401 0549 18       		.byte	0x18
 1402 054a 12       		.uleb128 0x12
 1403 054b 80030000 		.4byte	.LASF82
 1404 054f 0B       		.byte	0xb
 1405 0550 F204     		.2byte	0x4f2
 1406 0552 AD000000 		.4byte	0xad
 1407 0556 1A       		.byte	0x1a
 1408 0557 12       		.uleb128 0x12
 1409 0558 DE000000 		.4byte	.LASF83
 1410 055c 0B       		.byte	0xb
 1411 055d F304     		.2byte	0x4f3
 1412 055f 2D040000 		.4byte	0x42d
ARM GAS  /var/folders/4k/6h5l9jl178sb4hslwv3xp1mr0000gn/T//ccnwyzoi.s 			page 26


 1413 0563 1C       		.byte	0x1c
 1414 0564 12       		.uleb128 0x12
 1415 0565 8A030000 		.4byte	.LASF84
 1416 0569 0B       		.byte	0xb
 1417 056a F404     		.2byte	0x4f4
 1418 056c AD000000 		.4byte	0xad
 1419 0570 1E       		.byte	0x1e
 1420 0571 12       		.uleb128 0x12
 1421 0572 BF020000 		.4byte	.LASF85
 1422 0576 0B       		.byte	0xb
 1423 0577 F504     		.2byte	0x4f5
 1424 0579 2D040000 		.4byte	0x42d
 1425 057d 20       		.byte	0x20
 1426 057e 12       		.uleb128 0x12
 1427 057f 94030000 		.4byte	.LASF86
 1428 0583 0B       		.byte	0xb
 1429 0584 F604     		.2byte	0x4f6
 1430 0586 AD000000 		.4byte	0xad
 1431 058a 22       		.byte	0x22
 1432 058b 00       		.byte	0
 1433 058c 13       		.uleb128 0x13
 1434 058d 91050000 		.4byte	.LASF87
 1435 0591 0B       		.byte	0xb
 1436 0592 F704     		.2byte	0x4f7
 1437 0594 9A040000 		.4byte	0x49a
 1438 0598 08       		.uleb128 0x8
 1439 0599 0C       		.byte	0xc
 1440 059a 0C       		.byte	0xc
 1441 059b DA       		.byte	0xda
 1442 059c DD050000 		.4byte	0x5dd
 1443 05a0 06       		.uleb128 0x6
 1444 05a1 3D000000 		.4byte	.LASF88
 1445 05a5 0C       		.byte	0xc
 1446 05a6 DB       		.byte	0xdb
 1447 05a7 DD050000 		.4byte	0x5dd
 1448 05ab 00       		.byte	0
 1449 05ac 06       		.uleb128 0x6
 1450 05ad 57050000 		.4byte	.LASF89
 1451 05b1 0C       		.byte	0xc
 1452 05b2 DC       		.byte	0xdc
 1453 05b3 E3050000 		.4byte	0x5e3
 1454 05b7 04       		.byte	0x4
 1455 05b8 06       		.uleb128 0x6
 1456 05b9 35020000 		.4byte	.LASF90
 1457 05bd 0C       		.byte	0xc
 1458 05be DD       		.byte	0xdd
 1459 05bf A2000000 		.4byte	0xa2
 1460 05c3 08       		.byte	0x8
 1461 05c4 06       		.uleb128 0x6
 1462 05c5 CD010000 		.4byte	.LASF91
 1463 05c9 0C       		.byte	0xc
 1464 05ca DF       		.byte	0xdf
 1465 05cb A2000000 		.4byte	0xa2
 1466 05cf 09       		.byte	0x9
 1467 05d0 06       		.uleb128 0x6
 1468 05d1 80000000 		.4byte	.LASF92
 1469 05d5 0C       		.byte	0xc
ARM GAS  /var/folders/4k/6h5l9jl178sb4hslwv3xp1mr0000gn/T//ccnwyzoi.s 			page 27


 1470 05d6 E0       		.byte	0xe0
 1471 05d7 A2000000 		.4byte	0xa2
 1472 05db 0A       		.byte	0xa
 1473 05dc 00       		.byte	0
 1474 05dd 09       		.uleb128 0x9
 1475 05de 04       		.byte	0x4
 1476 05df 8E040000 		.4byte	0x48e
 1477 05e3 09       		.uleb128 0x9
 1478 05e4 04       		.byte	0x4
 1479 05e5 31030000 		.4byte	0x331
 1480 05e9 03       		.uleb128 0x3
 1481 05ea C8030000 		.4byte	.LASF93
 1482 05ee 0C       		.byte	0xc
 1483 05ef E1       		.byte	0xe1
 1484 05f0 98050000 		.4byte	0x598
 1485 05f4 08       		.uleb128 0x8
 1486 05f5 04       		.byte	0x4
 1487 05f6 0D       		.byte	0xd
 1488 05f7 96       		.byte	0x96
 1489 05f8 15060000 		.4byte	0x615
 1490 05fc 07       		.uleb128 0x7
 1491 05fd 73657400 		.ascii	"set\000"
 1492 0601 0D       		.byte	0xd
 1493 0602 97       		.byte	0x97
 1494 0603 AD000000 		.4byte	0xad
 1495 0607 00       		.byte	0
 1496 0608 06       		.uleb128 0x6
 1497 0609 CE020000 		.4byte	.LASF94
 1498 060d 0D       		.byte	0xd
 1499 060e 98       		.byte	0x98
 1500 060f AD000000 		.4byte	0xad
 1501 0613 02       		.byte	0x2
 1502 0614 00       		.byte	0
 1503 0615 0E       		.uleb128 0xe
 1504 0616 04       		.byte	0x4
 1505 0617 0D       		.byte	0xd
 1506 0618 94       		.byte	0x94
 1507 0619 30060000 		.4byte	0x630
 1508 061d 14       		.uleb128 0x14
 1509 061e 5700     		.ascii	"W\000"
 1510 0620 0D       		.byte	0xd
 1511 0621 95       		.byte	0x95
 1512 0622 C3000000 		.4byte	0xc3
 1513 0626 14       		.uleb128 0x14
 1514 0627 4800     		.ascii	"H\000"
 1515 0629 0D       		.byte	0xd
 1516 062a 99       		.byte	0x99
 1517 062b F4050000 		.4byte	0x5f4
 1518 062f 00       		.byte	0
 1519 0630 08       		.uleb128 0x8
 1520 0631 28       		.byte	0x28
 1521 0632 0D       		.byte	0xd
 1522 0633 8C       		.byte	0x8c
 1523 0634 B1060000 		.4byte	0x6b1
 1524 0638 06       		.uleb128 0x6
 1525 0639 44000000 		.4byte	.LASF95
 1526 063d 0D       		.byte	0xd
ARM GAS  /var/folders/4k/6h5l9jl178sb4hslwv3xp1mr0000gn/T//ccnwyzoi.s 			page 28


 1527 063e 8E       		.byte	0x8e
 1528 063f 31030000 		.4byte	0x331
 1529 0643 00       		.byte	0
 1530 0644 06       		.uleb128 0x6
 1531 0645 19000000 		.4byte	.LASF96
 1532 0649 0D       		.byte	0xd
 1533 064a 8F       		.byte	0x8f
 1534 064b 31030000 		.4byte	0x331
 1535 064f 04       		.byte	0x4
 1536 0650 06       		.uleb128 0x6
 1537 0651 AC010000 		.4byte	.LASF97
 1538 0655 0D       		.byte	0xd
 1539 0656 90       		.byte	0x90
 1540 0657 31030000 		.4byte	0x331
 1541 065b 08       		.byte	0x8
 1542 065c 06       		.uleb128 0x6
 1543 065d 71000000 		.4byte	.LASF98
 1544 0661 0D       		.byte	0xd
 1545 0662 91       		.byte	0x91
 1546 0663 31030000 		.4byte	0x331
 1547 0667 0C       		.byte	0xc
 1548 0668 07       		.uleb128 0x7
 1549 0669 49445200 		.ascii	"IDR\000"
 1550 066d 0D       		.byte	0xd
 1551 066e 92       		.byte	0x92
 1552 066f 31030000 		.4byte	0x331
 1553 0673 10       		.byte	0x10
 1554 0674 07       		.uleb128 0x7
 1555 0675 4F445200 		.ascii	"ODR\000"
 1556 0679 0D       		.byte	0xd
 1557 067a 93       		.byte	0x93
 1558 067b 31030000 		.4byte	0x331
 1559 067f 14       		.byte	0x14
 1560 0680 06       		.uleb128 0x6
 1561 0681 D0000000 		.4byte	.LASF99
 1562 0685 0D       		.byte	0xd
 1563 0686 9A       		.byte	0x9a
 1564 0687 B1060000 		.4byte	0x6b1
 1565 068b 18       		.byte	0x18
 1566 068c 06       		.uleb128 0x6
 1567 068d 30020000 		.4byte	.LASF100
 1568 0691 0D       		.byte	0xd
 1569 0692 9B       		.byte	0x9b
 1570 0693 31030000 		.4byte	0x331
 1571 0697 1C       		.byte	0x1c
 1572 0698 06       		.uleb128 0x6
 1573 0699 3B030000 		.4byte	.LASF101
 1574 069d 0D       		.byte	0xd
 1575 069e 9C       		.byte	0x9c
 1576 069f 31030000 		.4byte	0x331
 1577 06a3 20       		.byte	0x20
 1578 06a4 06       		.uleb128 0x6
 1579 06a5 36030000 		.4byte	.LASF102
 1580 06a9 0D       		.byte	0xd
 1581 06aa 9D       		.byte	0x9d
 1582 06ab 31030000 		.4byte	0x331
 1583 06af 24       		.byte	0x24
ARM GAS  /var/folders/4k/6h5l9jl178sb4hslwv3xp1mr0000gn/T//ccnwyzoi.s 			page 29


 1584 06b0 00       		.byte	0
 1585 06b1 0D       		.uleb128 0xd
 1586 06b2 15060000 		.4byte	0x615
 1587 06b6 03       		.uleb128 0x3
 1588 06b7 99010000 		.4byte	.LASF103
 1589 06bb 0D       		.byte	0xd
 1590 06bc 9E       		.byte	0x9e
 1591 06bd 30060000 		.4byte	0x630
 1592 06c1 03       		.uleb128 0x3
 1593 06c2 34060000 		.4byte	.LASF104
 1594 06c6 0D       		.byte	0xd
 1595 06c7 FD       		.byte	0xfd
 1596 06c8 CC060000 		.4byte	0x6cc
 1597 06cc 09       		.uleb128 0x9
 1598 06cd 04       		.byte	0x4
 1599 06ce B6060000 		.4byte	0x6b6
 1600 06d2 09       		.uleb128 0x9
 1601 06d3 04       		.byte	0x4
 1602 06d4 D8060000 		.4byte	0x6d8
 1603 06d8 10       		.uleb128 0x10
 1604 06d9 E9050000 		.4byte	0x5e9
 1605 06dd 15       		.uleb128 0x15
 1606 06de 01       		.byte	0x1
 1607 06df 0E       		.byte	0xe
 1608 06e0 55       		.byte	0x55
 1609 06e1 04070000 		.4byte	0x704
 1610 06e5 16       		.uleb128 0x16
 1611 06e6 6D060000 		.4byte	.LASF105
 1612 06ea 00       		.sleb128 0
 1613 06eb 16       		.uleb128 0x16
 1614 06ec D5000000 		.4byte	.LASF106
 1615 06f0 01       		.sleb128 1
 1616 06f1 16       		.uleb128 0x16
 1617 06f2 61000000 		.4byte	.LASF107
 1618 06f6 02       		.sleb128 2
 1619 06f7 16       		.uleb128 0x16
 1620 06f8 2A000000 		.4byte	.LASF108
 1621 06fc 03       		.sleb128 3
 1622 06fd 16       		.uleb128 0x16
 1623 06fe A2050000 		.4byte	.LASF109
 1624 0702 04       		.sleb128 4
 1625 0703 00       		.byte	0
 1626 0704 03       		.uleb128 0x3
 1627 0705 C1050000 		.4byte	.LASF110
 1628 0709 0E       		.byte	0xe
 1629 070a 5B       		.byte	0x5b
 1630 070b DD060000 		.4byte	0x6dd
 1631 070f 13       		.uleb128 0x13
 1632 0710 87000000 		.4byte	.LASF111
 1633 0714 0F       		.byte	0xf
 1634 0715 E701     		.2byte	0x1e7
 1635 0717 1B070000 		.4byte	0x71b
 1636 071b 0B       		.uleb128 0xb
 1637 071c 87000000 		.4byte	.LASF111
 1638 0720 30       		.byte	0x30
 1639 0721 0F       		.byte	0xf
 1640 0722 0B02     		.2byte	0x20b
ARM GAS  /var/folders/4k/6h5l9jl178sb4hslwv3xp1mr0000gn/T//ccnwyzoi.s 			page 30


 1641 0724 9E070000 		.4byte	0x79e
 1642 0728 12       		.uleb128 0x12
 1643 0729 13010000 		.4byte	.LASF112
 1644 072d 0F       		.byte	0xf
 1645 072e 0F02     		.2byte	0x20f
 1646 0730 04070000 		.4byte	0x704
 1647 0734 00       		.byte	0
 1648 0735 12       		.uleb128 0x12
 1649 0736 AF050000 		.4byte	.LASF113
 1650 073a 0F       		.byte	0xf
 1651 073b 1302     		.2byte	0x213
 1652 073d 0B080000 		.4byte	0x80b
 1653 0741 04       		.byte	0x4
 1654 0742 12       		.uleb128 0x12
 1655 0743 FD050000 		.4byte	.LASF114
 1656 0747 0F       		.byte	0xf
 1657 0748 1802     		.2byte	0x218
 1658 074a 56020000 		.4byte	0x256
 1659 074e 08       		.byte	0x8
 1660 074f 12       		.uleb128 0x12
 1661 0750 A6030000 		.4byte	.LASF115
 1662 0754 0F       		.byte	0xf
 1663 0755 1F02     		.2byte	0x21f
 1664 0757 D5030000 		.4byte	0x3d5
 1665 075b 0C       		.byte	0xc
 1666 075c 0C       		.uleb128 0xc
 1667 075d 73706900 		.ascii	"spi\000"
 1668 0761 0F       		.byte	0xf
 1669 0762 2B02     		.2byte	0x22b
 1670 0764 16080000 		.4byte	0x816
 1671 0768 1C       		.byte	0x1c
 1672 0769 12       		.uleb128 0x12
 1673 076a 00000000 		.4byte	.LASF116
 1674 076e 0F       		.byte	0xf
 1675 076f 2F02     		.2byte	0x22f
 1676 0771 D2060000 		.4byte	0x6d2
 1677 0775 20       		.byte	0x20
 1678 0776 12       		.uleb128 0x12
 1679 0777 A6010000 		.4byte	.LASF117
 1680 077b 0F       		.byte	0xf
 1681 077c 3302     		.2byte	0x233
 1682 077e D2060000 		.4byte	0x6d2
 1683 0782 24       		.byte	0x24
 1684 0783 12       		.uleb128 0x12
 1685 0784 8F010000 		.4byte	.LASF118
 1686 0788 0F       		.byte	0xf
 1687 0789 3702     		.2byte	0x237
 1688 078b C3000000 		.4byte	0xc3
 1689 078f 28       		.byte	0x28
 1690 0790 12       		.uleb128 0x12
 1691 0791 1A030000 		.4byte	.LASF119
 1692 0795 0F       		.byte	0xf
 1693 0796 3B02     		.2byte	0x23b
 1694 0798 C3000000 		.4byte	0xc3
 1695 079c 2C       		.byte	0x2c
 1696 079d 00       		.byte	0
 1697 079e 13       		.uleb128 0x13
ARM GAS  /var/folders/4k/6h5l9jl178sb4hslwv3xp1mr0000gn/T//ccnwyzoi.s 			page 31


 1698 079f 05010000 		.4byte	.LASF120
 1699 07a3 0F       		.byte	0xf
 1700 07a4 EF01     		.2byte	0x1ef
 1701 07a6 AA070000 		.4byte	0x7aa
 1702 07aa 09       		.uleb128 0x9
 1703 07ab 04       		.byte	0x4
 1704 07ac B0070000 		.4byte	0x7b0
 1705 07b0 17       		.uleb128 0x17
 1706 07b1 BB070000 		.4byte	0x7bb
 1707 07b5 18       		.uleb128 0x18
 1708 07b6 BB070000 		.4byte	0x7bb
 1709 07ba 00       		.byte	0
 1710 07bb 09       		.uleb128 0x9
 1711 07bc 04       		.byte	0x4
 1712 07bd 0F070000 		.4byte	0x70f
 1713 07c1 11       		.uleb128 0x11
 1714 07c2 0C       		.byte	0xc
 1715 07c3 0F       		.byte	0xf
 1716 07c4 F401     		.2byte	0x1f4
 1717 07c6 FF070000 		.4byte	0x7ff
 1718 07ca 12       		.uleb128 0x12
 1719 07cb 88010000 		.4byte	.LASF121
 1720 07cf 0F       		.byte	0xf
 1721 07d0 F801     		.2byte	0x1f8
 1722 07d2 9E070000 		.4byte	0x79e
 1723 07d6 00       		.byte	0
 1724 07d7 12       		.uleb128 0x12
 1725 07d8 91000000 		.4byte	.LASF122
 1726 07dc 0F       		.byte	0xf
 1727 07dd FD01     		.2byte	0x1fd
 1728 07df C1060000 		.4byte	0x6c1
 1729 07e3 04       		.byte	0x4
 1730 07e4 12       		.uleb128 0x12
 1731 07e5 B2000000 		.4byte	.LASF123
 1732 07e9 0F       		.byte	0xf
 1733 07ea 0102     		.2byte	0x201
 1734 07ec AD000000 		.4byte	0xad
 1735 07f0 08       		.byte	0x8
 1736 07f1 0C       		.uleb128 0xc
 1737 07f2 63723100 		.ascii	"cr1\000"
 1738 07f6 0F       		.byte	0xf
 1739 07f7 0502     		.2byte	0x205
 1740 07f9 AD000000 		.4byte	0xad
 1741 07fd 0A       		.byte	0xa
 1742 07fe 00       		.byte	0
 1743 07ff 13       		.uleb128 0x13
 1744 0800 02070000 		.4byte	.LASF124
 1745 0804 0F       		.byte	0xf
 1746 0805 0602     		.2byte	0x206
 1747 0807 C1070000 		.4byte	0x7c1
 1748 080b 09       		.uleb128 0x9
 1749 080c 04       		.byte	0x4
 1750 080d 11080000 		.4byte	0x811
 1751 0811 10       		.uleb128 0x10
 1752 0812 FF070000 		.4byte	0x7ff
 1753 0816 09       		.uleb128 0x9
 1754 0817 04       		.byte	0x4
ARM GAS  /var/folders/4k/6h5l9jl178sb4hslwv3xp1mr0000gn/T//ccnwyzoi.s 			page 32


 1755 0818 8C050000 		.4byte	0x58c
 1756 081c 19       		.uleb128 0x19
 1757 081d 94020000 		.4byte	.LASF125
 1758 0821 01       		.byte	0x1
 1759 0822 44       		.byte	0x44
 1760 0823 00000000 		.4byte	.LFB118
 1761 0827 04000000 		.4byte	.LFE118-.LFB118
 1762 082b 01       		.uleb128 0x1
 1763 082c 9C       		.byte	0x9c
 1764 082d 3B080000 		.4byte	0x83b
 1765 0831 1A       		.uleb128 0x1a
 1766 0832 04000000 		.4byte	.LVL0
 1767 0836 CC0F0000 		.4byte	0xfcc
 1768 083a 00       		.byte	0
 1769 083b 19       		.uleb128 0x19
 1770 083c DB040000 		.4byte	.LASF126
 1771 0840 01       		.byte	0x1
 1772 0841 50       		.byte	0x50
 1773 0842 00000000 		.4byte	.LFB119
 1774 0846 10000000 		.4byte	.LFE119-.LFB119
 1775 084a 01       		.uleb128 0x1
 1776 084b 9C       		.byte	0x9c
 1777 084c 73080000 		.4byte	0x873
 1778 0850 1B       		.uleb128 0x1b
 1779 0851 BF060000 		.4byte	.LASF128
 1780 0855 01       		.byte	0x1
 1781 0856 50       		.byte	0x50
 1782 0857 BB070000 		.4byte	0x7bb
 1783 085b 00000000 		.4byte	.LLST0
 1784 085f 1C       		.uleb128 0x1c
 1785 0860 10000000 		.4byte	.LVL3
 1786 0864 D40F0000 		.4byte	0xfd4
 1787 0868 1D       		.uleb128 0x1d
 1788 0869 01       		.uleb128 0x1
 1789 086a 50       		.byte	0x50
 1790 086b 05       		.uleb128 0x5
 1791 086c F3       		.byte	0xf3
 1792 086d 01       		.uleb128 0x1
 1793 086e 50       		.byte	0x50
 1794 086f 23       		.byte	0x23
 1795 0870 0C       		.uleb128 0xc
 1796 0871 00       		.byte	0
 1797 0872 00       		.byte	0
 1798 0873 19       		.uleb128 0x19
 1799 0874 4E060000 		.4byte	.LASF127
 1800 0878 01       		.byte	0x1
 1801 0879 6B       		.byte	0x6b
 1802 087a 00000000 		.4byte	.LFB120
 1803 087e 1C000000 		.4byte	.LFE120-.LFB120
 1804 0882 01       		.uleb128 0x1
 1805 0883 9C       		.byte	0x9c
 1806 0884 E9080000 		.4byte	0x8e9
 1807 0888 1B       		.uleb128 0x1b
 1808 0889 BF060000 		.4byte	.LASF128
 1809 088d 01       		.byte	0x1
 1810 088e 6B       		.byte	0x6b
 1811 088f BB070000 		.4byte	0x7bb
ARM GAS  /var/folders/4k/6h5l9jl178sb4hslwv3xp1mr0000gn/T//ccnwyzoi.s 			page 33


 1812 0893 2E000000 		.4byte	.LLST1
 1813 0897 1B       		.uleb128 0x1b
 1814 0898 AF050000 		.4byte	.LASF113
 1815 089c 01       		.byte	0x1
 1816 089d 6B       		.byte	0x6b
 1817 089e 0B080000 		.4byte	0x80b
 1818 08a2 4C000000 		.4byte	.LLST2
 1819 08a6 1E       		.uleb128 0x1e
 1820 08a7 00000000 		.4byte	.Ldebug_ranges0+0
 1821 08ab BD080000 		.4byte	0x8bd
 1822 08af 1F       		.uleb128 0x1f
 1823 08b0 746D7000 		.ascii	"tmp\000"
 1824 08b4 01       		.byte	0x1
 1825 08b5 6F       		.byte	0x6f
 1826 08b6 C3000000 		.4byte	0xc3
 1827 08ba 01       		.uleb128 0x1
 1828 08bb 53       		.byte	0x53
 1829 08bc 00       		.byte	0
 1830 08bd 20       		.uleb128 0x20
 1831 08be 14000000 		.4byte	.LBB4
 1832 08c2 08000000 		.4byte	.LBE4-.LBB4
 1833 08c6 D8080000 		.4byte	0x8d8
 1834 08ca 1F       		.uleb128 0x1f
 1835 08cb 746D7000 		.ascii	"tmp\000"
 1836 08cf 01       		.byte	0x1
 1837 08d0 75       		.byte	0x75
 1838 08d1 C3000000 		.4byte	0xc3
 1839 08d5 01       		.uleb128 0x1
 1840 08d6 53       		.byte	0x53
 1841 08d7 00       		.byte	0
 1842 08d8 21       		.uleb128 0x21
 1843 08d9 10000000 		.4byte	.LVL5
 1844 08dd E50F0000 		.4byte	0xfe5
 1845 08e1 1D       		.uleb128 0x1d
 1846 08e2 01       		.uleb128 0x1
 1847 08e3 50       		.byte	0x50
 1848 08e4 02       		.uleb128 0x2
 1849 08e5 74       		.byte	0x74
 1850 08e6 00       		.sleb128 0
 1851 08e7 00       		.byte	0
 1852 08e8 00       		.byte	0
 1853 08e9 19       		.uleb128 0x19
 1854 08ea 35000000 		.4byte	.LASF129
 1855 08ee 01       		.byte	0x1
 1856 08ef 81       		.byte	0x81
 1857 08f0 00000000 		.4byte	.LFB121
 1858 08f4 20000000 		.4byte	.LFE121-.LFB121
 1859 08f8 01       		.uleb128 0x1
 1860 08f9 9C       		.byte	0x9c
 1861 08fa 64090000 		.4byte	0x964
 1862 08fe 1B       		.uleb128 0x1b
 1863 08ff BF060000 		.4byte	.LASF128
 1864 0903 01       		.byte	0x1
 1865 0904 81       		.byte	0x81
 1866 0905 BB070000 		.4byte	0x7bb
 1867 0909 6D000000 		.4byte	.LLST3
 1868 090d 1E       		.uleb128 0x1e
ARM GAS  /var/folders/4k/6h5l9jl178sb4hslwv3xp1mr0000gn/T//ccnwyzoi.s 			page 34


 1869 090e 18000000 		.4byte	.Ldebug_ranges0+0x18
 1870 0912 24090000 		.4byte	0x924
 1871 0916 1F       		.uleb128 0x1f
 1872 0917 746D7000 		.ascii	"tmp\000"
 1873 091b 01       		.byte	0x1
 1874 091c 85       		.byte	0x85
 1875 091d C3000000 		.4byte	0xc3
 1876 0921 01       		.uleb128 0x1
 1877 0922 53       		.byte	0x53
 1878 0923 00       		.byte	0
 1879 0924 20       		.uleb128 0x20
 1880 0925 18000000 		.4byte	.LBB7
 1881 0929 08000000 		.4byte	.LBE7-.LBB7
 1882 092d 3F090000 		.4byte	0x93f
 1883 0931 1F       		.uleb128 0x1f
 1884 0932 746D7000 		.ascii	"tmp\000"
 1885 0936 01       		.byte	0x1
 1886 0937 8B       		.byte	0x8b
 1887 0938 C3000000 		.4byte	0xc3
 1888 093c 01       		.uleb128 0x1
 1889 093d 53       		.byte	0x53
 1890 093e 00       		.byte	0
 1891 093f 22       		.uleb128 0x22
 1892 0940 0E000000 		.4byte	.LVL7
 1893 0944 F70F0000 		.4byte	0xff7
 1894 0948 53090000 		.4byte	0x953
 1895 094c 1D       		.uleb128 0x1d
 1896 094d 01       		.uleb128 0x1
 1897 094e 50       		.byte	0x50
 1898 094f 02       		.uleb128 0x2
 1899 0950 74       		.byte	0x74
 1900 0951 00       		.sleb128 0
 1901 0952 00       		.byte	0
 1902 0953 21       		.uleb128 0x21
 1903 0954 14000000 		.4byte	.LVL8
 1904 0958 09100000 		.4byte	0x1009
 1905 095c 1D       		.uleb128 0x1d
 1906 095d 01       		.uleb128 0x1
 1907 095e 50       		.byte	0x50
 1908 095f 02       		.uleb128 0x2
 1909 0960 74       		.byte	0x74
 1910 0961 00       		.sleb128 0
 1911 0962 00       		.byte	0
 1912 0963 00       		.byte	0
 1913 0964 19       		.uleb128 0x19
 1914 0965 57060000 		.4byte	.LASF130
 1915 0969 01       		.byte	0x1
 1916 096a 95       		.byte	0x95
 1917 096b 00000000 		.4byte	.LFB122
 1918 096f 14000000 		.4byte	.LFE122-.LFB122
 1919 0973 01       		.uleb128 0x1
 1920 0974 9C       		.byte	0x9c
 1921 0975 D0090000 		.4byte	0x9d0
 1922 0979 1B       		.uleb128 0x1b
 1923 097a BF060000 		.4byte	.LASF128
 1924 097e 01       		.byte	0x1
 1925 097f 95       		.byte	0x95
ARM GAS  /var/folders/4k/6h5l9jl178sb4hslwv3xp1mr0000gn/T//ccnwyzoi.s 			page 35


 1926 0980 BB070000 		.4byte	0x7bb
 1927 0984 8B000000 		.4byte	.LLST4
 1928 0988 20       		.uleb128 0x20
 1929 0989 02000000 		.4byte	.LBB8
 1930 098d 06000000 		.4byte	.LBE8-.LBB8
 1931 0991 A3090000 		.4byte	0x9a3
 1932 0995 1F       		.uleb128 0x1f
 1933 0996 746D7000 		.ascii	"tmp\000"
 1934 099a 01       		.byte	0x1
 1935 099b 99       		.byte	0x99
 1936 099c C3000000 		.4byte	0xc3
 1937 09a0 01       		.uleb128 0x1
 1938 09a1 53       		.byte	0x53
 1939 09a2 00       		.byte	0
 1940 09a3 20       		.uleb128 0x20
 1941 09a4 0C000000 		.4byte	.LBB9
 1942 09a8 08000000 		.4byte	.LBE9-.LBB9
 1943 09ac BE090000 		.4byte	0x9be
 1944 09b0 1F       		.uleb128 0x1f
 1945 09b1 746D7000 		.ascii	"tmp\000"
 1946 09b5 01       		.byte	0x1
 1947 09b6 9C       		.byte	0x9c
 1948 09b7 C3000000 		.4byte	0xc3
 1949 09bb 01       		.uleb128 0x1
 1950 09bc 53       		.byte	0x53
 1951 09bd 00       		.byte	0
 1952 09be 21       		.uleb128 0x21
 1953 09bf 0C000000 		.4byte	.LVL10
 1954 09c3 1B100000 		.4byte	0x101b
 1955 09c7 1D       		.uleb128 0x1d
 1956 09c8 01       		.uleb128 0x1
 1957 09c9 50       		.byte	0x50
 1958 09ca 03       		.uleb128 0x3
 1959 09cb F3       		.byte	0xf3
 1960 09cc 01       		.uleb128 0x1
 1961 09cd 50       		.byte	0x50
 1962 09ce 00       		.byte	0
 1963 09cf 00       		.byte	0
 1964 09d0 19       		.uleb128 0x19
 1965 09d1 D7010000 		.4byte	.LASF131
 1966 09d5 01       		.byte	0x1
 1967 09d6 A7       		.byte	0xa7
 1968 09d7 00000000 		.4byte	.LFB123
 1969 09db 14000000 		.4byte	.LFE123-.LFB123
 1970 09df 01       		.uleb128 0x1
 1971 09e0 9C       		.byte	0x9c
 1972 09e1 3C0A0000 		.4byte	0xa3c
 1973 09e5 1B       		.uleb128 0x1b
 1974 09e6 BF060000 		.4byte	.LASF128
 1975 09ea 01       		.byte	0x1
 1976 09eb A7       		.byte	0xa7
 1977 09ec BB070000 		.4byte	0x7bb
 1978 09f0 AC000000 		.4byte	.LLST5
 1979 09f4 20       		.uleb128 0x20
 1980 09f5 02000000 		.4byte	.LBB10
 1981 09f9 06000000 		.4byte	.LBE10-.LBB10
 1982 09fd 0F0A0000 		.4byte	0xa0f
ARM GAS  /var/folders/4k/6h5l9jl178sb4hslwv3xp1mr0000gn/T//ccnwyzoi.s 			page 36


 1983 0a01 1F       		.uleb128 0x1f
 1984 0a02 746D7000 		.ascii	"tmp\000"
 1985 0a06 01       		.byte	0x1
 1986 0a07 AB       		.byte	0xab
 1987 0a08 C3000000 		.4byte	0xc3
 1988 0a0c 01       		.uleb128 0x1
 1989 0a0d 53       		.byte	0x53
 1990 0a0e 00       		.byte	0
 1991 0a0f 20       		.uleb128 0x20
 1992 0a10 0C000000 		.4byte	.LBB11
 1993 0a14 08000000 		.4byte	.LBE11-.LBB11
 1994 0a18 2A0A0000 		.4byte	0xa2a
 1995 0a1c 1F       		.uleb128 0x1f
 1996 0a1d 746D7000 		.ascii	"tmp\000"
 1997 0a21 01       		.byte	0x1
 1998 0a22 AE       		.byte	0xae
 1999 0a23 C3000000 		.4byte	0xc3
 2000 0a27 01       		.uleb128 0x1
 2001 0a28 53       		.byte	0x53
 2002 0a29 00       		.byte	0
 2003 0a2a 21       		.uleb128 0x21
 2004 0a2b 0C000000 		.4byte	.LVL12
 2005 0a2f F70F0000 		.4byte	0xff7
 2006 0a33 1D       		.uleb128 0x1d
 2007 0a34 01       		.uleb128 0x1
 2008 0a35 50       		.byte	0x50
 2009 0a36 03       		.uleb128 0x3
 2010 0a37 F3       		.byte	0xf3
 2011 0a38 01       		.uleb128 0x1
 2012 0a39 50       		.byte	0x50
 2013 0a3a 00       		.byte	0
 2014 0a3b 00       		.byte	0
 2015 0a3c 19       		.uleb128 0x19
 2016 0a3d 71010000 		.4byte	.LASF132
 2017 0a41 01       		.byte	0x1
 2018 0a42 BE       		.byte	0xbe
 2019 0a43 00000000 		.4byte	.LFB124
 2020 0a47 18000000 		.4byte	.LFE124-.LFB124
 2021 0a4b 01       		.uleb128 0x1
 2022 0a4c 9C       		.byte	0x9c
 2023 0a4d BC0A0000 		.4byte	0xabc
 2024 0a51 1B       		.uleb128 0x1b
 2025 0a52 BF060000 		.4byte	.LASF128
 2026 0a56 01       		.byte	0x1
 2027 0a57 BE       		.byte	0xbe
 2028 0a58 BB070000 		.4byte	0x7bb
 2029 0a5c CD000000 		.4byte	.LLST6
 2030 0a60 23       		.uleb128 0x23
 2031 0a61 6E00     		.ascii	"n\000"
 2032 0a63 01       		.byte	0x1
 2033 0a64 BE       		.byte	0xbe
 2034 0a65 2C000000 		.4byte	0x2c
 2035 0a69 EE000000 		.4byte	.LLST7
 2036 0a6d 20       		.uleb128 0x20
 2037 0a6e 02000000 		.4byte	.LBB12
 2038 0a72 06000000 		.4byte	.LBE12-.LBB12
 2039 0a76 880A0000 		.4byte	0xa88
ARM GAS  /var/folders/4k/6h5l9jl178sb4hslwv3xp1mr0000gn/T//ccnwyzoi.s 			page 37


 2040 0a7a 1F       		.uleb128 0x1f
 2041 0a7b 746D7000 		.ascii	"tmp\000"
 2042 0a7f 01       		.byte	0x1
 2043 0a80 C2       		.byte	0xc2
 2044 0a81 C3000000 		.4byte	0xc3
 2045 0a85 01       		.uleb128 0x1
 2046 0a86 53       		.byte	0x53
 2047 0a87 00       		.byte	0
 2048 0a88 20       		.uleb128 0x20
 2049 0a89 10000000 		.4byte	.LBB13
 2050 0a8d 08000000 		.4byte	.LBE13-.LBB13
 2051 0a91 A30A0000 		.4byte	0xaa3
 2052 0a95 1F       		.uleb128 0x1f
 2053 0a96 746D7000 		.ascii	"tmp\000"
 2054 0a9a 01       		.byte	0x1
 2055 0a9b C5       		.byte	0xc5
 2056 0a9c C3000000 		.4byte	0xc3
 2057 0aa0 01       		.uleb128 0x1
 2058 0aa1 53       		.byte	0x53
 2059 0aa2 00       		.byte	0
 2060 0aa3 21       		.uleb128 0x21
 2061 0aa4 10000000 		.4byte	.LVL14
 2062 0aa8 2D100000 		.4byte	0x102d
 2063 0aac 1D       		.uleb128 0x1d
 2064 0aad 01       		.uleb128 0x1
 2065 0aae 51       		.byte	0x51
 2066 0aaf 03       		.uleb128 0x3
 2067 0ab0 F3       		.byte	0xf3
 2068 0ab1 01       		.uleb128 0x1
 2069 0ab2 51       		.byte	0x51
 2070 0ab3 1D       		.uleb128 0x1d
 2071 0ab4 01       		.uleb128 0x1
 2072 0ab5 50       		.byte	0x50
 2073 0ab6 03       		.uleb128 0x3
 2074 0ab7 F3       		.byte	0xf3
 2075 0ab8 01       		.uleb128 0x1
 2076 0ab9 50       		.byte	0x50
 2077 0aba 00       		.byte	0
 2078 0abb 00       		.byte	0
 2079 0abc 19       		.uleb128 0x19
 2080 0abd 91060000 		.4byte	.LASF133
 2081 0ac1 01       		.byte	0x1
 2082 0ac2 D9       		.byte	0xd9
 2083 0ac3 00000000 		.4byte	.LFB125
 2084 0ac7 1C000000 		.4byte	.LFE125-.LFB125
 2085 0acb 01       		.uleb128 0x1
 2086 0acc 9C       		.byte	0x9c
 2087 0acd 670B0000 		.4byte	0xb67
 2088 0ad1 1B       		.uleb128 0x1b
 2089 0ad2 BF060000 		.4byte	.LASF128
 2090 0ad6 01       		.byte	0x1
 2091 0ad7 D9       		.byte	0xd9
 2092 0ad8 BB070000 		.4byte	0x7bb
 2093 0adc 0F010000 		.4byte	.LLST8
 2094 0ae0 23       		.uleb128 0x23
 2095 0ae1 6E00     		.ascii	"n\000"
 2096 0ae3 01       		.byte	0x1
ARM GAS  /var/folders/4k/6h5l9jl178sb4hslwv3xp1mr0000gn/T//ccnwyzoi.s 			page 38


 2097 0ae4 D9       		.byte	0xd9
 2098 0ae5 2C000000 		.4byte	0x2c
 2099 0ae9 30010000 		.4byte	.LLST9
 2100 0aed 1B       		.uleb128 0x1b
 2101 0aee 14020000 		.4byte	.LASF134
 2102 0af2 01       		.byte	0x1
 2103 0af3 DA       		.byte	0xda
 2104 0af4 670B0000 		.4byte	0xb67
 2105 0af8 51010000 		.4byte	.LLST10
 2106 0afc 1B       		.uleb128 0x1b
 2107 0afd A5000000 		.4byte	.LASF135
 2108 0b01 01       		.byte	0x1
 2109 0b02 DA       		.byte	0xda
 2110 0b03 92020000 		.4byte	0x292
 2111 0b07 72010000 		.4byte	.LLST11
 2112 0b0b 20       		.uleb128 0x20
 2113 0b0c 04000000 		.4byte	.LBB14
 2114 0b10 06000000 		.4byte	.LBE14-.LBB14
 2115 0b14 260B0000 		.4byte	0xb26
 2116 0b18 1F       		.uleb128 0x1f
 2117 0b19 746D7000 		.ascii	"tmp\000"
 2118 0b1d 01       		.byte	0x1
 2119 0b1e DF       		.byte	0xdf
 2120 0b1f C3000000 		.4byte	0xc3
 2121 0b23 01       		.uleb128 0x1
 2122 0b24 53       		.byte	0x53
 2123 0b25 00       		.byte	0
 2124 0b26 20       		.uleb128 0x20
 2125 0b27 14000000 		.4byte	.LBB15
 2126 0b2b 08000000 		.4byte	.LBE15-.LBB15
 2127 0b2f 410B0000 		.4byte	0xb41
 2128 0b33 1F       		.uleb128 0x1f
 2129 0b34 746D7000 		.ascii	"tmp\000"
 2130 0b38 01       		.byte	0x1
 2131 0b39 E2       		.byte	0xe2
 2132 0b3a C3000000 		.4byte	0xc3
 2133 0b3e 01       		.uleb128 0x1
 2134 0b3f 53       		.byte	0x53
 2135 0b40 00       		.byte	0
 2136 0b41 21       		.uleb128 0x21
 2137 0b42 14000000 		.4byte	.LVL17
 2138 0b46 44100000 		.4byte	0x1044
 2139 0b4a 1D       		.uleb128 0x1d
 2140 0b4b 01       		.uleb128 0x1
 2141 0b4c 53       		.byte	0x53
 2142 0b4d 02       		.uleb128 0x2
 2143 0b4e 74       		.byte	0x74
 2144 0b4f 00       		.sleb128 0
 2145 0b50 1D       		.uleb128 0x1d
 2146 0b51 01       		.uleb128 0x1
 2147 0b52 52       		.byte	0x52
 2148 0b53 03       		.uleb128 0x3
 2149 0b54 F3       		.byte	0xf3
 2150 0b55 01       		.uleb128 0x1
 2151 0b56 52       		.byte	0x52
 2152 0b57 1D       		.uleb128 0x1d
 2153 0b58 01       		.uleb128 0x1
ARM GAS  /var/folders/4k/6h5l9jl178sb4hslwv3xp1mr0000gn/T//ccnwyzoi.s 			page 39


 2154 0b59 51       		.byte	0x51
 2155 0b5a 03       		.uleb128 0x3
 2156 0b5b F3       		.byte	0xf3
 2157 0b5c 01       		.uleb128 0x1
 2158 0b5d 51       		.byte	0x51
 2159 0b5e 1D       		.uleb128 0x1d
 2160 0b5f 01       		.uleb128 0x1
 2161 0b60 50       		.byte	0x50
 2162 0b61 03       		.uleb128 0x3
 2163 0b62 F3       		.byte	0xf3
 2164 0b63 01       		.uleb128 0x1
 2165 0b64 50       		.byte	0x50
 2166 0b65 00       		.byte	0
 2167 0b66 00       		.byte	0
 2168 0b67 09       		.uleb128 0x9
 2169 0b68 04       		.byte	0x4
 2170 0b69 6D0B0000 		.4byte	0xb6d
 2171 0b6d 24       		.uleb128 0x24
 2172 0b6e 19       		.uleb128 0x19
 2173 0b6f 3C020000 		.4byte	.LASF136
 2174 0b73 01       		.byte	0x1
 2175 0b74 F4       		.byte	0xf4
 2176 0b75 00000000 		.4byte	.LFB126
 2177 0b79 18000000 		.4byte	.LFE126-.LFB126
 2178 0b7d 01       		.uleb128 0x1
 2179 0b7e 9C       		.byte	0x9c
 2180 0b7f 040C0000 		.4byte	0xc04
 2181 0b83 1B       		.uleb128 0x1b
 2182 0b84 BF060000 		.4byte	.LASF128
 2183 0b88 01       		.byte	0x1
 2184 0b89 F4       		.byte	0xf4
 2185 0b8a BB070000 		.4byte	0x7bb
 2186 0b8e 90010000 		.4byte	.LLST12
 2187 0b92 23       		.uleb128 0x23
 2188 0b93 6E00     		.ascii	"n\000"
 2189 0b95 01       		.byte	0x1
 2190 0b96 F4       		.byte	0xf4
 2191 0b97 2C000000 		.4byte	0x2c
 2192 0b9b B1010000 		.4byte	.LLST13
 2193 0b9f 1B       		.uleb128 0x1b
 2194 0ba0 14020000 		.4byte	.LASF134
 2195 0ba4 01       		.byte	0x1
 2196 0ba5 F4       		.byte	0xf4
 2197 0ba6 670B0000 		.4byte	0xb67
 2198 0baa D2010000 		.4byte	.LLST14
 2199 0bae 20       		.uleb128 0x20
 2200 0baf 02000000 		.4byte	.LBB16
 2201 0bb3 06000000 		.4byte	.LBE16-.LBB16
 2202 0bb7 C90B0000 		.4byte	0xbc9
 2203 0bbb 1F       		.uleb128 0x1f
 2204 0bbc 746D7000 		.ascii	"tmp\000"
 2205 0bc0 01       		.byte	0x1
 2206 0bc1 F9       		.byte	0xf9
 2207 0bc2 C3000000 		.4byte	0xc3
 2208 0bc6 01       		.uleb128 0x1
 2209 0bc7 53       		.byte	0x53
 2210 0bc8 00       		.byte	0
ARM GAS  /var/folders/4k/6h5l9jl178sb4hslwv3xp1mr0000gn/T//ccnwyzoi.s 			page 40


 2211 0bc9 20       		.uleb128 0x20
 2212 0bca 10000000 		.4byte	.LBB17
 2213 0bce 08000000 		.4byte	.LBE17-.LBB17
 2214 0bd2 E40B0000 		.4byte	0xbe4
 2215 0bd6 1F       		.uleb128 0x1f
 2216 0bd7 746D7000 		.ascii	"tmp\000"
 2217 0bdb 01       		.byte	0x1
 2218 0bdc FC       		.byte	0xfc
 2219 0bdd C3000000 		.4byte	0xc3
 2220 0be1 01       		.uleb128 0x1
 2221 0be2 53       		.byte	0x53
 2222 0be3 00       		.byte	0
 2223 0be4 21       		.uleb128 0x21
 2224 0be5 10000000 		.4byte	.LVL19
 2225 0be9 65100000 		.4byte	0x1065
 2226 0bed 1D       		.uleb128 0x1d
 2227 0bee 01       		.uleb128 0x1
 2228 0bef 52       		.byte	0x52
 2229 0bf0 03       		.uleb128 0x3
 2230 0bf1 F3       		.byte	0xf3
 2231 0bf2 01       		.uleb128 0x1
 2232 0bf3 52       		.byte	0x52
 2233 0bf4 1D       		.uleb128 0x1d
 2234 0bf5 01       		.uleb128 0x1
 2235 0bf6 51       		.byte	0x51
 2236 0bf7 03       		.uleb128 0x3
 2237 0bf8 F3       		.byte	0xf3
 2238 0bf9 01       		.uleb128 0x1
 2239 0bfa 51       		.byte	0x51
 2240 0bfb 1D       		.uleb128 0x1d
 2241 0bfc 01       		.uleb128 0x1
 2242 0bfd 50       		.byte	0x50
 2243 0bfe 03       		.uleb128 0x3
 2244 0bff F3       		.byte	0xf3
 2245 0c00 01       		.uleb128 0x1
 2246 0c01 50       		.byte	0x50
 2247 0c02 00       		.byte	0
 2248 0c03 00       		.byte	0
 2249 0c04 25       		.uleb128 0x25
 2250 0c05 2B010000 		.4byte	.LASF137
 2251 0c09 01       		.byte	0x1
 2252 0c0a 0E01     		.2byte	0x10e
 2253 0c0c 00000000 		.4byte	.LFB127
 2254 0c10 18000000 		.4byte	.LFE127-.LFB127
 2255 0c14 01       		.uleb128 0x1
 2256 0c15 9C       		.byte	0x9c
 2257 0c16 A00C0000 		.4byte	0xca0
 2258 0c1a 26       		.uleb128 0x26
 2259 0c1b BF060000 		.4byte	.LASF128
 2260 0c1f 01       		.byte	0x1
 2261 0c20 0E01     		.2byte	0x10e
 2262 0c22 BB070000 		.4byte	0x7bb
 2263 0c26 F3010000 		.4byte	.LLST15
 2264 0c2a 27       		.uleb128 0x27
 2265 0c2b 6E00     		.ascii	"n\000"
 2266 0c2d 01       		.byte	0x1
 2267 0c2e 0E01     		.2byte	0x10e
ARM GAS  /var/folders/4k/6h5l9jl178sb4hslwv3xp1mr0000gn/T//ccnwyzoi.s 			page 41


 2268 0c30 2C000000 		.4byte	0x2c
 2269 0c34 14020000 		.4byte	.LLST16
 2270 0c38 26       		.uleb128 0x26
 2271 0c39 A5000000 		.4byte	.LASF135
 2272 0c3d 01       		.byte	0x1
 2273 0c3e 0E01     		.2byte	0x10e
 2274 0c40 92020000 		.4byte	0x292
 2275 0c44 35020000 		.4byte	.LLST17
 2276 0c48 20       		.uleb128 0x20
 2277 0c49 02000000 		.4byte	.LBB18
 2278 0c4d 06000000 		.4byte	.LBE18-.LBB18
 2279 0c51 640C0000 		.4byte	0xc64
 2280 0c55 28       		.uleb128 0x28
 2281 0c56 746D7000 		.ascii	"tmp\000"
 2282 0c5a 01       		.byte	0x1
 2283 0c5b 1301     		.2byte	0x113
 2284 0c5d C3000000 		.4byte	0xc3
 2285 0c61 01       		.uleb128 0x1
 2286 0c62 53       		.byte	0x53
 2287 0c63 00       		.byte	0
 2288 0c64 20       		.uleb128 0x20
 2289 0c65 10000000 		.4byte	.LBB19
 2290 0c69 08000000 		.4byte	.LBE19-.LBB19
 2291 0c6d 800C0000 		.4byte	0xc80
 2292 0c71 28       		.uleb128 0x28
 2293 0c72 746D7000 		.ascii	"tmp\000"
 2294 0c76 01       		.byte	0x1
 2295 0c77 1601     		.2byte	0x116
 2296 0c79 C3000000 		.4byte	0xc3
 2297 0c7d 01       		.uleb128 0x1
 2298 0c7e 53       		.byte	0x53
 2299 0c7f 00       		.byte	0
 2300 0c80 21       		.uleb128 0x21
 2301 0c81 10000000 		.4byte	.LVL21
 2302 0c85 81100000 		.4byte	0x1081
 2303 0c89 1D       		.uleb128 0x1d
 2304 0c8a 01       		.uleb128 0x1
 2305 0c8b 52       		.byte	0x52
 2306 0c8c 03       		.uleb128 0x3
 2307 0c8d F3       		.byte	0xf3
 2308 0c8e 01       		.uleb128 0x1
 2309 0c8f 52       		.byte	0x52
 2310 0c90 1D       		.uleb128 0x1d
 2311 0c91 01       		.uleb128 0x1
 2312 0c92 51       		.byte	0x51
 2313 0c93 03       		.uleb128 0x3
 2314 0c94 F3       		.byte	0xf3
 2315 0c95 01       		.uleb128 0x1
 2316 0c96 51       		.byte	0x51
 2317 0c97 1D       		.uleb128 0x1d
 2318 0c98 01       		.uleb128 0x1
 2319 0c99 50       		.byte	0x50
 2320 0c9a 03       		.uleb128 0x3
 2321 0c9b F3       		.byte	0xf3
 2322 0c9c 01       		.uleb128 0x1
 2323 0c9d 50       		.byte	0x50
 2324 0c9e 00       		.byte	0
ARM GAS  /var/folders/4k/6h5l9jl178sb4hslwv3xp1mr0000gn/T//ccnwyzoi.s 			page 42


 2325 0c9f 00       		.byte	0
 2326 0ca0 25       		.uleb128 0x25
 2327 0ca1 17060000 		.4byte	.LASF138
 2328 0ca5 01       		.byte	0x1
 2329 0ca6 2801     		.2byte	0x128
 2330 0ca8 00000000 		.4byte	.LFB128
 2331 0cac 2C000000 		.4byte	.LFE128-.LFB128
 2332 0cb0 01       		.uleb128 0x1
 2333 0cb1 9C       		.byte	0x9c
 2334 0cb2 330D0000 		.4byte	0xd33
 2335 0cb6 26       		.uleb128 0x26
 2336 0cb7 BF060000 		.4byte	.LASF128
 2337 0cbb 01       		.byte	0x1
 2338 0cbc 2801     		.2byte	0x128
 2339 0cbe BB070000 		.4byte	0x7bb
 2340 0cc2 56020000 		.4byte	.LLST18
 2341 0cc6 27       		.uleb128 0x27
 2342 0cc7 6E00     		.ascii	"n\000"
 2343 0cc9 01       		.byte	0x1
 2344 0cca 2801     		.2byte	0x128
 2345 0ccc 2C000000 		.4byte	0x2c
 2346 0cd0 82020000 		.4byte	.LLST19
 2347 0cd4 1E       		.uleb128 0x1e
 2348 0cd5 30000000 		.4byte	.Ldebug_ranges0+0x30
 2349 0cd9 EC0C0000 		.4byte	0xcec
 2350 0cdd 28       		.uleb128 0x28
 2351 0cde 746D7000 		.ascii	"tmp\000"
 2352 0ce2 01       		.byte	0x1
 2353 0ce3 2C01     		.2byte	0x12c
 2354 0ce5 C3000000 		.4byte	0xc3
 2355 0ce9 01       		.uleb128 0x1
 2356 0cea 53       		.byte	0x53
 2357 0ceb 00       		.byte	0
 2358 0cec 20       		.uleb128 0x20
 2359 0ced 1E000000 		.4byte	.LBB22
 2360 0cf1 0E000000 		.4byte	.LBE22-.LBB22
 2361 0cf5 080D0000 		.4byte	0xd08
 2362 0cf9 28       		.uleb128 0x28
 2363 0cfa 746D7000 		.ascii	"tmp\000"
 2364 0cfe 01       		.byte	0x1
 2365 0cff 3101     		.2byte	0x131
 2366 0d01 C3000000 		.4byte	0xc3
 2367 0d05 01       		.uleb128 0x1
 2368 0d06 53       		.byte	0x53
 2369 0d07 00       		.byte	0
 2370 0d08 22       		.uleb128 0x22
 2371 0d09 12000000 		.4byte	.LVL23
 2372 0d0d 2D100000 		.4byte	0x102d
 2373 0d11 230D0000 		.4byte	0xd23
 2374 0d15 1D       		.uleb128 0x1d
 2375 0d16 01       		.uleb128 0x1
 2376 0d17 51       		.byte	0x51
 2377 0d18 03       		.uleb128 0x3
 2378 0d19 F3       		.byte	0xf3
 2379 0d1a 01       		.uleb128 0x1
 2380 0d1b 51       		.byte	0x51
 2381 0d1c 1D       		.uleb128 0x1d
ARM GAS  /var/folders/4k/6h5l9jl178sb4hslwv3xp1mr0000gn/T//ccnwyzoi.s 			page 43


 2382 0d1d 01       		.uleb128 0x1
 2383 0d1e 50       		.byte	0x50
 2384 0d1f 02       		.uleb128 0x2
 2385 0d20 74       		.byte	0x74
 2386 0d21 00       		.sleb128 0
 2387 0d22 00       		.byte	0
 2388 0d23 21       		.uleb128 0x21
 2389 0d24 1E000000 		.4byte	.LVL24
 2390 0d28 9D100000 		.4byte	0x109d
 2391 0d2c 1D       		.uleb128 0x1d
 2392 0d2d 01       		.uleb128 0x1
 2393 0d2e 50       		.byte	0x50
 2394 0d2f 01       		.uleb128 0x1
 2395 0d30 32       		.byte	0x32
 2396 0d31 00       		.byte	0
 2397 0d32 00       		.byte	0
 2398 0d33 25       		.uleb128 0x25
 2399 0d34 A3020000 		.4byte	.LASF139
 2400 0d38 01       		.byte	0x1
 2401 0d39 4601     		.2byte	0x146
 2402 0d3b 00000000 		.4byte	.LFB129
 2403 0d3f 30000000 		.4byte	.LFE129-.LFB129
 2404 0d43 01       		.uleb128 0x1
 2405 0d44 9C       		.byte	0x9c
 2406 0d45 F70D0000 		.4byte	0xdf7
 2407 0d49 26       		.uleb128 0x26
 2408 0d4a BF060000 		.4byte	.LASF128
 2409 0d4e 01       		.byte	0x1
 2410 0d4f 4601     		.2byte	0x146
 2411 0d51 BB070000 		.4byte	0x7bb
 2412 0d55 A3020000 		.4byte	.LLST20
 2413 0d59 27       		.uleb128 0x27
 2414 0d5a 6E00     		.ascii	"n\000"
 2415 0d5c 01       		.byte	0x1
 2416 0d5d 4601     		.2byte	0x146
 2417 0d5f 2C000000 		.4byte	0x2c
 2418 0d63 CF020000 		.4byte	.LLST21
 2419 0d67 26       		.uleb128 0x26
 2420 0d68 14020000 		.4byte	.LASF134
 2421 0d6c 01       		.byte	0x1
 2422 0d6d 4701     		.2byte	0x147
 2423 0d6f 670B0000 		.4byte	0xb67
 2424 0d73 F0020000 		.4byte	.LLST22
 2425 0d77 26       		.uleb128 0x26
 2426 0d78 A5000000 		.4byte	.LASF135
 2427 0d7c 01       		.byte	0x1
 2428 0d7d 4701     		.2byte	0x147
 2429 0d7f 92020000 		.4byte	0x292
 2430 0d83 11030000 		.4byte	.LLST23
 2431 0d87 20       		.uleb128 0x20
 2432 0d88 06000000 		.4byte	.LBB23
 2433 0d8c 06000000 		.4byte	.LBE23-.LBB23
 2434 0d90 A30D0000 		.4byte	0xda3
 2435 0d94 28       		.uleb128 0x28
 2436 0d95 746D7000 		.ascii	"tmp\000"
 2437 0d99 01       		.byte	0x1
 2438 0d9a 4C01     		.2byte	0x14c
ARM GAS  /var/folders/4k/6h5l9jl178sb4hslwv3xp1mr0000gn/T//ccnwyzoi.s 			page 44


 2439 0d9c C3000000 		.4byte	0xc3
 2440 0da0 01       		.uleb128 0x1
 2441 0da1 53       		.byte	0x53
 2442 0da2 00       		.byte	0
 2443 0da3 20       		.uleb128 0x20
 2444 0da4 24000000 		.4byte	.LBB24
 2445 0da8 0C000000 		.4byte	.LBE24-.LBB24
 2446 0dac BF0D0000 		.4byte	0xdbf
 2447 0db0 28       		.uleb128 0x28
 2448 0db1 746D7000 		.ascii	"tmp\000"
 2449 0db5 01       		.byte	0x1
 2450 0db6 5201     		.2byte	0x152
 2451 0db8 C3000000 		.4byte	0xc3
 2452 0dbc 01       		.uleb128 0x1
 2453 0dbd 53       		.byte	0x53
 2454 0dbe 00       		.byte	0
 2455 0dbf 22       		.uleb128 0x22
 2456 0dc0 18000000 		.4byte	.LVL29
 2457 0dc4 44100000 		.4byte	0x1044
 2458 0dc8 E70D0000 		.4byte	0xde7
 2459 0dcc 1D       		.uleb128 0x1d
 2460 0dcd 01       		.uleb128 0x1
 2461 0dce 53       		.byte	0x53
 2462 0dcf 02       		.uleb128 0x2
 2463 0dd0 75       		.byte	0x75
 2464 0dd1 00       		.sleb128 0
 2465 0dd2 1D       		.uleb128 0x1d
 2466 0dd3 01       		.uleb128 0x1
 2467 0dd4 52       		.byte	0x52
 2468 0dd5 03       		.uleb128 0x3
 2469 0dd6 F3       		.byte	0xf3
 2470 0dd7 01       		.uleb128 0x1
 2471 0dd8 52       		.byte	0x52
 2472 0dd9 1D       		.uleb128 0x1d
 2473 0dda 01       		.uleb128 0x1
 2474 0ddb 51       		.byte	0x51
 2475 0ddc 03       		.uleb128 0x3
 2476 0ddd F3       		.byte	0xf3
 2477 0dde 01       		.uleb128 0x1
 2478 0ddf 51       		.byte	0x51
 2479 0de0 1D       		.uleb128 0x1d
 2480 0de1 01       		.uleb128 0x1
 2481 0de2 50       		.byte	0x50
 2482 0de3 02       		.uleb128 0x2
 2483 0de4 74       		.byte	0x74
 2484 0de5 00       		.sleb128 0
 2485 0de6 00       		.byte	0
 2486 0de7 21       		.uleb128 0x21
 2487 0de8 24000000 		.4byte	.LVL30
 2488 0dec 9D100000 		.4byte	0x109d
 2489 0df0 1D       		.uleb128 0x1d
 2490 0df1 01       		.uleb128 0x1
 2491 0df2 50       		.byte	0x50
 2492 0df3 01       		.uleb128 0x1
 2493 0df4 32       		.byte	0x32
 2494 0df5 00       		.byte	0
 2495 0df6 00       		.byte	0
ARM GAS  /var/folders/4k/6h5l9jl178sb4hslwv3xp1mr0000gn/T//ccnwyzoi.s 			page 45


 2496 0df7 25       		.uleb128 0x25
 2497 0df8 FA060000 		.4byte	.LASF140
 2498 0dfc 01       		.byte	0x1
 2499 0dfd 6501     		.2byte	0x165
 2500 0dff 00000000 		.4byte	.LFB130
 2501 0e03 2C000000 		.4byte	.LFE130-.LFB130
 2502 0e07 01       		.uleb128 0x1
 2503 0e08 9C       		.byte	0x9c
 2504 0e09 A10E0000 		.4byte	0xea1
 2505 0e0d 26       		.uleb128 0x26
 2506 0e0e BF060000 		.4byte	.LASF128
 2507 0e12 01       		.byte	0x1
 2508 0e13 6501     		.2byte	0x165
 2509 0e15 BB070000 		.4byte	0x7bb
 2510 0e19 3D030000 		.4byte	.LLST24
 2511 0e1d 27       		.uleb128 0x27
 2512 0e1e 6E00     		.ascii	"n\000"
 2513 0e20 01       		.byte	0x1
 2514 0e21 6501     		.2byte	0x165
 2515 0e23 2C000000 		.4byte	0x2c
 2516 0e27 69030000 		.4byte	.LLST25
 2517 0e2b 26       		.uleb128 0x26
 2518 0e2c 14020000 		.4byte	.LASF134
 2519 0e30 01       		.byte	0x1
 2520 0e31 6501     		.2byte	0x165
 2521 0e33 670B0000 		.4byte	0xb67
 2522 0e37 8A030000 		.4byte	.LLST26
 2523 0e3b 1E       		.uleb128 0x1e
 2524 0e3c 48000000 		.4byte	.Ldebug_ranges0+0x48
 2525 0e40 530E0000 		.4byte	0xe53
 2526 0e44 28       		.uleb128 0x28
 2527 0e45 746D7000 		.ascii	"tmp\000"
 2528 0e49 01       		.byte	0x1
 2529 0e4a 6901     		.2byte	0x169
 2530 0e4c C3000000 		.4byte	0xc3
 2531 0e50 01       		.uleb128 0x1
 2532 0e51 53       		.byte	0x53
 2533 0e52 00       		.byte	0
 2534 0e53 20       		.uleb128 0x20
 2535 0e54 1E000000 		.4byte	.LBB27
 2536 0e58 0E000000 		.4byte	.LBE27-.LBB27
 2537 0e5c 6F0E0000 		.4byte	0xe6f
 2538 0e60 28       		.uleb128 0x28
 2539 0e61 746D7000 		.ascii	"tmp\000"
 2540 0e65 01       		.byte	0x1
 2541 0e66 6E01     		.2byte	0x16e
 2542 0e68 C3000000 		.4byte	0xc3
 2543 0e6c 01       		.uleb128 0x1
 2544 0e6d 53       		.byte	0x53
 2545 0e6e 00       		.byte	0
 2546 0e6f 22       		.uleb128 0x22
 2547 0e70 12000000 		.4byte	.LVL33
 2548 0e74 65100000 		.4byte	0x1065
 2549 0e78 910E0000 		.4byte	0xe91
 2550 0e7c 1D       		.uleb128 0x1d
 2551 0e7d 01       		.uleb128 0x1
 2552 0e7e 52       		.byte	0x52
ARM GAS  /var/folders/4k/6h5l9jl178sb4hslwv3xp1mr0000gn/T//ccnwyzoi.s 			page 46


 2553 0e7f 03       		.uleb128 0x3
 2554 0e80 F3       		.byte	0xf3
 2555 0e81 01       		.uleb128 0x1
 2556 0e82 52       		.byte	0x52
 2557 0e83 1D       		.uleb128 0x1d
 2558 0e84 01       		.uleb128 0x1
 2559 0e85 51       		.byte	0x51
 2560 0e86 03       		.uleb128 0x3
 2561 0e87 F3       		.byte	0xf3
 2562 0e88 01       		.uleb128 0x1
 2563 0e89 51       		.byte	0x51
 2564 0e8a 1D       		.uleb128 0x1d
 2565 0e8b 01       		.uleb128 0x1
 2566 0e8c 50       		.byte	0x50
 2567 0e8d 02       		.uleb128 0x2
 2568 0e8e 74       		.byte	0x74
 2569 0e8f 00       		.sleb128 0
 2570 0e90 00       		.byte	0
 2571 0e91 21       		.uleb128 0x21
 2572 0e92 1E000000 		.4byte	.LVL34
 2573 0e96 9D100000 		.4byte	0x109d
 2574 0e9a 1D       		.uleb128 0x1d
 2575 0e9b 01       		.uleb128 0x1
 2576 0e9c 50       		.byte	0x50
 2577 0e9d 01       		.uleb128 0x1
 2578 0e9e 32       		.byte	0x32
 2579 0e9f 00       		.byte	0
 2580 0ea0 00       		.byte	0
 2581 0ea1 25       		.uleb128 0x25
 2582 0ea2 1A020000 		.4byte	.LASF141
 2583 0ea6 01       		.byte	0x1
 2584 0ea7 8101     		.2byte	0x181
 2585 0ea9 00000000 		.4byte	.LFB131
 2586 0ead 2C000000 		.4byte	.LFE131-.LFB131
 2587 0eb1 01       		.uleb128 0x1
 2588 0eb2 9C       		.byte	0x9c
 2589 0eb3 4B0F0000 		.4byte	0xf4b
 2590 0eb7 26       		.uleb128 0x26
 2591 0eb8 BF060000 		.4byte	.LASF128
 2592 0ebc 01       		.byte	0x1
 2593 0ebd 8101     		.2byte	0x181
 2594 0ebf BB070000 		.4byte	0x7bb
 2595 0ec3 AB030000 		.4byte	.LLST27
 2596 0ec7 27       		.uleb128 0x27
 2597 0ec8 6E00     		.ascii	"n\000"
 2598 0eca 01       		.byte	0x1
 2599 0ecb 8101     		.2byte	0x181
 2600 0ecd 2C000000 		.4byte	0x2c
 2601 0ed1 D7030000 		.4byte	.LLST28
 2602 0ed5 26       		.uleb128 0x26
 2603 0ed6 A5000000 		.4byte	.LASF135
 2604 0eda 01       		.byte	0x1
 2605 0edb 8101     		.2byte	0x181
 2606 0edd 92020000 		.4byte	0x292
 2607 0ee1 F8030000 		.4byte	.LLST29
 2608 0ee5 1E       		.uleb128 0x1e
 2609 0ee6 60000000 		.4byte	.Ldebug_ranges0+0x60
ARM GAS  /var/folders/4k/6h5l9jl178sb4hslwv3xp1mr0000gn/T//ccnwyzoi.s 			page 47


 2610 0eea FD0E0000 		.4byte	0xefd
 2611 0eee 28       		.uleb128 0x28
 2612 0eef 746D7000 		.ascii	"tmp\000"
 2613 0ef3 01       		.byte	0x1
 2614 0ef4 8601     		.2byte	0x186
 2615 0ef6 C3000000 		.4byte	0xc3
 2616 0efa 01       		.uleb128 0x1
 2617 0efb 53       		.byte	0x53
 2618 0efc 00       		.byte	0
 2619 0efd 20       		.uleb128 0x20
 2620 0efe 1E000000 		.4byte	.LBB30
 2621 0f02 0E000000 		.4byte	.LBE30-.LBB30
 2622 0f06 190F0000 		.4byte	0xf19
 2623 0f0a 28       		.uleb128 0x28
 2624 0f0b 746D7000 		.ascii	"tmp\000"
 2625 0f0f 01       		.byte	0x1
 2626 0f10 8C01     		.2byte	0x18c
 2627 0f12 C3000000 		.4byte	0xc3
 2628 0f16 01       		.uleb128 0x1
 2629 0f17 53       		.byte	0x53
 2630 0f18 00       		.byte	0
 2631 0f19 22       		.uleb128 0x22
 2632 0f1a 12000000 		.4byte	.LVL37
 2633 0f1e 81100000 		.4byte	0x1081
 2634 0f22 3B0F0000 		.4byte	0xf3b
 2635 0f26 1D       		.uleb128 0x1d
 2636 0f27 01       		.uleb128 0x1
 2637 0f28 52       		.byte	0x52
 2638 0f29 03       		.uleb128 0x3
 2639 0f2a F3       		.byte	0xf3
 2640 0f2b 01       		.uleb128 0x1
 2641 0f2c 52       		.byte	0x52
 2642 0f2d 1D       		.uleb128 0x1d
 2643 0f2e 01       		.uleb128 0x1
 2644 0f2f 51       		.byte	0x51
 2645 0f30 03       		.uleb128 0x3
 2646 0f31 F3       		.byte	0xf3
 2647 0f32 01       		.uleb128 0x1
 2648 0f33 51       		.byte	0x51
 2649 0f34 1D       		.uleb128 0x1d
 2650 0f35 01       		.uleb128 0x1
 2651 0f36 50       		.byte	0x50
 2652 0f37 02       		.uleb128 0x2
 2653 0f38 74       		.byte	0x74
 2654 0f39 00       		.sleb128 0
 2655 0f3a 00       		.byte	0
 2656 0f3b 21       		.uleb128 0x21
 2657 0f3c 1E000000 		.4byte	.LVL38
 2658 0f40 9D100000 		.4byte	0x109d
 2659 0f44 1D       		.uleb128 0x1d
 2660 0f45 01       		.uleb128 0x1
 2661 0f46 50       		.byte	0x50
 2662 0f47 01       		.uleb128 0x1
 2663 0f48 32       		.byte	0x32
 2664 0f49 00       		.byte	0
 2665 0f4a 00       		.byte	0
 2666 0f4b 25       		.uleb128 0x25
ARM GAS  /var/folders/4k/6h5l9jl178sb4hslwv3xp1mr0000gn/T//ccnwyzoi.s 			page 48


 2667 0f4c E7020000 		.4byte	.LASF142
 2668 0f50 01       		.byte	0x1
 2669 0f51 9C01     		.2byte	0x19c
 2670 0f53 00000000 		.4byte	.LFB132
 2671 0f57 06000000 		.4byte	.LFE132-.LFB132
 2672 0f5b 01       		.uleb128 0x1
 2673 0f5c 9C       		.byte	0x9c
 2674 0f5d 850F0000 		.4byte	0xf85
 2675 0f61 26       		.uleb128 0x26
 2676 0f62 BF060000 		.4byte	.LASF128
 2677 0f66 01       		.byte	0x1
 2678 0f67 9C01     		.2byte	0x19c
 2679 0f69 BB070000 		.4byte	0x7bb
 2680 0f6d 19040000 		.4byte	.LLST30
 2681 0f71 1C       		.uleb128 0x1c
 2682 0f72 06000000 		.4byte	.LVL42
 2683 0f76 AE100000 		.4byte	0x10ae
 2684 0f7a 1D       		.uleb128 0x1d
 2685 0f7b 01       		.uleb128 0x1
 2686 0f7c 50       		.byte	0x50
 2687 0f7d 05       		.uleb128 0x5
 2688 0f7e F3       		.byte	0xf3
 2689 0f7f 01       		.uleb128 0x1
 2690 0f80 50       		.byte	0x50
 2691 0f81 23       		.byte	0x23
 2692 0f82 0C       		.uleb128 0xc
 2693 0f83 00       		.byte	0
 2694 0f84 00       		.byte	0
 2695 0f85 25       		.uleb128 0x25
 2696 0f86 09060000 		.4byte	.LASF143
 2697 0f8a 01       		.byte	0x1
 2698 0f8b B001     		.2byte	0x1b0
 2699 0f8d 00000000 		.4byte	.LFB133
 2700 0f91 04000000 		.4byte	.LFE133-.LFB133
 2701 0f95 01       		.uleb128 0x1
 2702 0f96 9C       		.byte	0x9c
 2703 0f97 B50F0000 		.4byte	0xfb5
 2704 0f9b 26       		.uleb128 0x26
 2705 0f9c BF060000 		.4byte	.LASF128
 2706 0fa0 01       		.byte	0x1
 2707 0fa1 B001     		.2byte	0x1b0
 2708 0fa3 BB070000 		.4byte	0x7bb
 2709 0fa7 47040000 		.4byte	.LLST31
 2710 0fab 1A       		.uleb128 0x1a
 2711 0fac 04000000 		.4byte	.LVL44
 2712 0fb0 BF100000 		.4byte	0x10bf
 2713 0fb4 00       		.byte	0
 2714 0fb5 29       		.uleb128 0x29
 2715 0fb6 E3010000 		.4byte	.LASF144
 2716 0fba 09       		.byte	0x9
 2717 0fbb 6F       		.byte	0x6f
 2718 0fbc 93030000 		.4byte	0x393
 2719 0fc0 2A       		.uleb128 0x2a
 2720 0fc1 98000000 		.4byte	.LASF145
 2721 0fc5 10       		.byte	0x10
 2722 0fc6 9806     		.2byte	0x698
 2723 0fc8 32040000 		.4byte	0x432
ARM GAS  /var/folders/4k/6h5l9jl178sb4hslwv3xp1mr0000gn/T//ccnwyzoi.s 			page 49


 2724 0fcc 2B       		.uleb128 0x2b
 2725 0fcd E6000000 		.4byte	.LASF160
 2726 0fd1 0F       		.byte	0xf
 2727 0fd2 6102     		.2byte	0x261
 2728 0fd4 2C       		.uleb128 0x2c
 2729 0fd5 78060000 		.4byte	.LASF146
 2730 0fd9 0A       		.byte	0xa
 2731 0fda 38       		.byte	0x38
 2732 0fdb E50F0000 		.4byte	0xfe5
 2733 0fdf 18       		.uleb128 0x18
 2734 0fe0 27040000 		.4byte	0x427
 2735 0fe4 00       		.byte	0
 2736 0fe5 2D       		.uleb128 0x2d
 2737 0fe6 A9060000 		.4byte	.LASF147
 2738 0fea 0F       		.byte	0xf
 2739 0feb 6202     		.2byte	0x262
 2740 0fed F70F0000 		.4byte	0xff7
 2741 0ff1 18       		.uleb128 0x18
 2742 0ff2 BB070000 		.4byte	0x7bb
 2743 0ff6 00       		.byte	0
 2744 0ff7 2D       		.uleb128 0x2d
 2745 0ff8 03020000 		.4byte	.LASF148
 2746 0ffc 0F       		.byte	0xf
 2747 0ffd 6502     		.2byte	0x265
 2748 0fff 09100000 		.4byte	0x1009
 2749 1003 18       		.uleb128 0x18
 2750 1004 BB070000 		.4byte	0x7bb
 2751 1008 00       		.byte	0
 2752 1009 2D       		.uleb128 0x2d
 2753 100a DA020000 		.4byte	.LASF149
 2754 100e 0F       		.byte	0xf
 2755 100f 6302     		.2byte	0x263
 2756 1011 1B100000 		.4byte	0x101b
 2757 1015 18       		.uleb128 0x18
 2758 1016 BB070000 		.4byte	0x7bb
 2759 101a 00       		.byte	0
 2760 101b 2D       		.uleb128 0x2d
 2761 101c 3F060000 		.4byte	.LASF150
 2762 1020 0F       		.byte	0xf
 2763 1021 6402     		.2byte	0x264
 2764 1023 2D100000 		.4byte	0x102d
 2765 1027 18       		.uleb128 0x18
 2766 1028 BB070000 		.4byte	0x7bb
 2767 102c 00       		.byte	0
 2768 102d 2D       		.uleb128 0x2d
 2769 102e 82060000 		.4byte	.LASF151
 2770 1032 0F       		.byte	0xf
 2771 1033 6602     		.2byte	0x266
 2772 1035 44100000 		.4byte	0x1044
 2773 1039 18       		.uleb128 0x18
 2774 103a BB070000 		.4byte	0x7bb
 2775 103e 18       		.uleb128 0x18
 2776 103f 2C000000 		.4byte	0x2c
 2777 1043 00       		.byte	0
 2778 1044 2D       		.uleb128 0x2d
 2779 1045 3B010000 		.4byte	.LASF152
 2780 1049 0F       		.byte	0xf
ARM GAS  /var/folders/4k/6h5l9jl178sb4hslwv3xp1mr0000gn/T//ccnwyzoi.s 			page 50


 2781 104a 6702     		.2byte	0x267
 2782 104c 65100000 		.4byte	0x1065
 2783 1050 18       		.uleb128 0x18
 2784 1051 BB070000 		.4byte	0x7bb
 2785 1055 18       		.uleb128 0x18
 2786 1056 2C000000 		.4byte	0x2c
 2787 105a 18       		.uleb128 0x18
 2788 105b 670B0000 		.4byte	0xb67
 2789 105f 18       		.uleb128 0x18
 2790 1060 92020000 		.4byte	0x292
 2791 1064 00       		.byte	0
 2792 1065 2D       		.uleb128 0x2d
 2793 1066 E9010000 		.4byte	.LASF153
 2794 106a 0F       		.byte	0xf
 2795 106b 6902     		.2byte	0x269
 2796 106d 81100000 		.4byte	0x1081
 2797 1071 18       		.uleb128 0x18
 2798 1072 BB070000 		.4byte	0x7bb
 2799 1076 18       		.uleb128 0x18
 2800 1077 2C000000 		.4byte	0x2c
 2801 107b 18       		.uleb128 0x18
 2802 107c 670B0000 		.4byte	0xb67
 2803 1080 00       		.byte	0
 2804 1081 2D       		.uleb128 0x2d
 2805 1082 AF020000 		.4byte	.LASF154
 2806 1086 0F       		.byte	0xf
 2807 1087 6A02     		.2byte	0x26a
 2808 1089 9D100000 		.4byte	0x109d
 2809 108d 18       		.uleb128 0x18
 2810 108e BB070000 		.4byte	0x7bb
 2811 1092 18       		.uleb128 0x18
 2812 1093 2C000000 		.4byte	0x2c
 2813 1097 18       		.uleb128 0x18
 2814 1098 92020000 		.4byte	0x292
 2815 109c 00       		.byte	0
 2816 109d 2C       		.uleb128 0x2c
 2817 109e 3E050000 		.4byte	.LASF155
 2818 10a2 09       		.byte	0x9
 2819 10a3 93       		.byte	0x93
 2820 10a4 AE100000 		.4byte	0x10ae
 2821 10a8 18       		.uleb128 0x18
 2822 10a9 E0000000 		.4byte	0xe0
 2823 10ad 00       		.byte	0
 2824 10ae 2C       		.uleb128 0x2c
 2825 10af F5020000 		.4byte	.LASF156
 2826 10b3 0A       		.byte	0xa
 2827 10b4 39       		.byte	0x39
 2828 10b5 BF100000 		.4byte	0x10bf
 2829 10b9 18       		.uleb128 0x18
 2830 10ba 27040000 		.4byte	0x427
 2831 10be 00       		.byte	0
 2832 10bf 2E       		.uleb128 0x2e
 2833 10c0 B8000000 		.4byte	.LASF161
 2834 10c4 0A       		.byte	0xa
 2835 10c5 3D       		.byte	0x3d
 2836 10c6 27040000 		.4byte	0x427
 2837 10ca 00       		.byte	0
ARM GAS  /var/folders/4k/6h5l9jl178sb4hslwv3xp1mr0000gn/T//ccnwyzoi.s 			page 51


 2838              		.section	.debug_abbrev,"",%progbits
 2839              	.Ldebug_abbrev0:
 2840 0000 01       		.uleb128 0x1
 2841 0001 11       		.uleb128 0x11
 2842 0002 01       		.byte	0x1
 2843 0003 25       		.uleb128 0x25
 2844 0004 0E       		.uleb128 0xe
 2845 0005 13       		.uleb128 0x13
 2846 0006 0B       		.uleb128 0xb
 2847 0007 03       		.uleb128 0x3
 2848 0008 0E       		.uleb128 0xe
 2849 0009 1B       		.uleb128 0x1b
 2850 000a 0E       		.uleb128 0xe
 2851 000b 55       		.uleb128 0x55
 2852 000c 17       		.uleb128 0x17
 2853 000d 11       		.uleb128 0x11
 2854 000e 01       		.uleb128 0x1
 2855 000f 10       		.uleb128 0x10
 2856 0010 17       		.uleb128 0x17
 2857 0011 00       		.byte	0
 2858 0012 00       		.byte	0
 2859 0013 02       		.uleb128 0x2
 2860 0014 24       		.uleb128 0x24
 2861 0015 00       		.byte	0
 2862 0016 0B       		.uleb128 0xb
 2863 0017 0B       		.uleb128 0xb
 2864 0018 3E       		.uleb128 0x3e
 2865 0019 0B       		.uleb128 0xb
 2866 001a 03       		.uleb128 0x3
 2867 001b 08       		.uleb128 0x8
 2868 001c 00       		.byte	0
 2869 001d 00       		.byte	0
 2870 001e 03       		.uleb128 0x3
 2871 001f 16       		.uleb128 0x16
 2872 0020 00       		.byte	0
 2873 0021 03       		.uleb128 0x3
 2874 0022 0E       		.uleb128 0xe
 2875 0023 3A       		.uleb128 0x3a
 2876 0024 0B       		.uleb128 0xb
 2877 0025 3B       		.uleb128 0x3b
 2878 0026 0B       		.uleb128 0xb
 2879 0027 49       		.uleb128 0x49
 2880 0028 13       		.uleb128 0x13
 2881 0029 00       		.byte	0
 2882 002a 00       		.byte	0
 2883 002b 04       		.uleb128 0x4
 2884 002c 24       		.uleb128 0x24
 2885 002d 00       		.byte	0
 2886 002e 0B       		.uleb128 0xb
 2887 002f 0B       		.uleb128 0xb
 2888 0030 3E       		.uleb128 0x3e
 2889 0031 0B       		.uleb128 0xb
 2890 0032 03       		.uleb128 0x3
 2891 0033 0E       		.uleb128 0xe
 2892 0034 00       		.byte	0
 2893 0035 00       		.byte	0
 2894 0036 05       		.uleb128 0x5
ARM GAS  /var/folders/4k/6h5l9jl178sb4hslwv3xp1mr0000gn/T//ccnwyzoi.s 			page 52


 2895 0037 13       		.uleb128 0x13
 2896 0038 01       		.byte	0x1
 2897 0039 03       		.uleb128 0x3
 2898 003a 0E       		.uleb128 0xe
 2899 003b 0B       		.uleb128 0xb
 2900 003c 0B       		.uleb128 0xb
 2901 003d 3A       		.uleb128 0x3a
 2902 003e 0B       		.uleb128 0xb
 2903 003f 3B       		.uleb128 0x3b
 2904 0040 0B       		.uleb128 0xb
 2905 0041 01       		.uleb128 0x1
 2906 0042 13       		.uleb128 0x13
 2907 0043 00       		.byte	0
 2908 0044 00       		.byte	0
 2909 0045 06       		.uleb128 0x6
 2910 0046 0D       		.uleb128 0xd
 2911 0047 00       		.byte	0
 2912 0048 03       		.uleb128 0x3
 2913 0049 0E       		.uleb128 0xe
 2914 004a 3A       		.uleb128 0x3a
 2915 004b 0B       		.uleb128 0xb
 2916 004c 3B       		.uleb128 0x3b
 2917 004d 0B       		.uleb128 0xb
 2918 004e 49       		.uleb128 0x49
 2919 004f 13       		.uleb128 0x13
 2920 0050 38       		.uleb128 0x38
 2921 0051 0B       		.uleb128 0xb
 2922 0052 00       		.byte	0
 2923 0053 00       		.byte	0
 2924 0054 07       		.uleb128 0x7
 2925 0055 0D       		.uleb128 0xd
 2926 0056 00       		.byte	0
 2927 0057 03       		.uleb128 0x3
 2928 0058 08       		.uleb128 0x8
 2929 0059 3A       		.uleb128 0x3a
 2930 005a 0B       		.uleb128 0xb
 2931 005b 3B       		.uleb128 0x3b
 2932 005c 0B       		.uleb128 0xb
 2933 005d 49       		.uleb128 0x49
 2934 005e 13       		.uleb128 0x13
 2935 005f 38       		.uleb128 0x38
 2936 0060 0B       		.uleb128 0xb
 2937 0061 00       		.byte	0
 2938 0062 00       		.byte	0
 2939 0063 08       		.uleb128 0x8
 2940 0064 13       		.uleb128 0x13
 2941 0065 01       		.byte	0x1
 2942 0066 0B       		.uleb128 0xb
 2943 0067 0B       		.uleb128 0xb
 2944 0068 3A       		.uleb128 0x3a
 2945 0069 0B       		.uleb128 0xb
 2946 006a 3B       		.uleb128 0x3b
 2947 006b 0B       		.uleb128 0xb
 2948 006c 01       		.uleb128 0x1
 2949 006d 13       		.uleb128 0x13
 2950 006e 00       		.byte	0
 2951 006f 00       		.byte	0
ARM GAS  /var/folders/4k/6h5l9jl178sb4hslwv3xp1mr0000gn/T//ccnwyzoi.s 			page 53


 2952 0070 09       		.uleb128 0x9
 2953 0071 0F       		.uleb128 0xf
 2954 0072 00       		.byte	0
 2955 0073 0B       		.uleb128 0xb
 2956 0074 0B       		.uleb128 0xb
 2957 0075 49       		.uleb128 0x49
 2958 0076 13       		.uleb128 0x13
 2959 0077 00       		.byte	0
 2960 0078 00       		.byte	0
 2961 0079 0A       		.uleb128 0xa
 2962 007a 0F       		.uleb128 0xf
 2963 007b 00       		.byte	0
 2964 007c 0B       		.uleb128 0xb
 2965 007d 0B       		.uleb128 0xb
 2966 007e 00       		.byte	0
 2967 007f 00       		.byte	0
 2968 0080 0B       		.uleb128 0xb
 2969 0081 13       		.uleb128 0x13
 2970 0082 01       		.byte	0x1
 2971 0083 03       		.uleb128 0x3
 2972 0084 0E       		.uleb128 0xe
 2973 0085 0B       		.uleb128 0xb
 2974 0086 0B       		.uleb128 0xb
 2975 0087 3A       		.uleb128 0x3a
 2976 0088 0B       		.uleb128 0xb
 2977 0089 3B       		.uleb128 0x3b
 2978 008a 05       		.uleb128 0x5
 2979 008b 01       		.uleb128 0x1
 2980 008c 13       		.uleb128 0x13
 2981 008d 00       		.byte	0
 2982 008e 00       		.byte	0
 2983 008f 0C       		.uleb128 0xc
 2984 0090 0D       		.uleb128 0xd
 2985 0091 00       		.byte	0
 2986 0092 03       		.uleb128 0x3
 2987 0093 08       		.uleb128 0x8
 2988 0094 3A       		.uleb128 0x3a
 2989 0095 0B       		.uleb128 0xb
 2990 0096 3B       		.uleb128 0x3b
 2991 0097 05       		.uleb128 0x5
 2992 0098 49       		.uleb128 0x49
 2993 0099 13       		.uleb128 0x13
 2994 009a 38       		.uleb128 0x38
 2995 009b 0B       		.uleb128 0xb
 2996 009c 00       		.byte	0
 2997 009d 00       		.byte	0
 2998 009e 0D       		.uleb128 0xd
 2999 009f 35       		.uleb128 0x35
 3000 00a0 00       		.byte	0
 3001 00a1 49       		.uleb128 0x49
 3002 00a2 13       		.uleb128 0x13
 3003 00a3 00       		.byte	0
 3004 00a4 00       		.byte	0
 3005 00a5 0E       		.uleb128 0xe
 3006 00a6 17       		.uleb128 0x17
 3007 00a7 01       		.byte	0x1
 3008 00a8 0B       		.uleb128 0xb
ARM GAS  /var/folders/4k/6h5l9jl178sb4hslwv3xp1mr0000gn/T//ccnwyzoi.s 			page 54


 3009 00a9 0B       		.uleb128 0xb
 3010 00aa 3A       		.uleb128 0x3a
 3011 00ab 0B       		.uleb128 0xb
 3012 00ac 3B       		.uleb128 0x3b
 3013 00ad 0B       		.uleb128 0xb
 3014 00ae 01       		.uleb128 0x1
 3015 00af 13       		.uleb128 0x13
 3016 00b0 00       		.byte	0
 3017 00b1 00       		.byte	0
 3018 00b2 0F       		.uleb128 0xf
 3019 00b3 0D       		.uleb128 0xd
 3020 00b4 00       		.byte	0
 3021 00b5 03       		.uleb128 0x3
 3022 00b6 0E       		.uleb128 0xe
 3023 00b7 3A       		.uleb128 0x3a
 3024 00b8 0B       		.uleb128 0xb
 3025 00b9 3B       		.uleb128 0x3b
 3026 00ba 0B       		.uleb128 0xb
 3027 00bb 49       		.uleb128 0x49
 3028 00bc 13       		.uleb128 0x13
 3029 00bd 00       		.byte	0
 3030 00be 00       		.byte	0
 3031 00bf 10       		.uleb128 0x10
 3032 00c0 26       		.uleb128 0x26
 3033 00c1 00       		.byte	0
 3034 00c2 49       		.uleb128 0x49
 3035 00c3 13       		.uleb128 0x13
 3036 00c4 00       		.byte	0
 3037 00c5 00       		.byte	0
 3038 00c6 11       		.uleb128 0x11
 3039 00c7 13       		.uleb128 0x13
 3040 00c8 01       		.byte	0x1
 3041 00c9 0B       		.uleb128 0xb
 3042 00ca 0B       		.uleb128 0xb
 3043 00cb 3A       		.uleb128 0x3a
 3044 00cc 0B       		.uleb128 0xb
 3045 00cd 3B       		.uleb128 0x3b
 3046 00ce 05       		.uleb128 0x5
 3047 00cf 01       		.uleb128 0x1
 3048 00d0 13       		.uleb128 0x13
 3049 00d1 00       		.byte	0
 3050 00d2 00       		.byte	0
 3051 00d3 12       		.uleb128 0x12
 3052 00d4 0D       		.uleb128 0xd
 3053 00d5 00       		.byte	0
 3054 00d6 03       		.uleb128 0x3
 3055 00d7 0E       		.uleb128 0xe
 3056 00d8 3A       		.uleb128 0x3a
 3057 00d9 0B       		.uleb128 0xb
 3058 00da 3B       		.uleb128 0x3b
 3059 00db 05       		.uleb128 0x5
 3060 00dc 49       		.uleb128 0x49
 3061 00dd 13       		.uleb128 0x13
 3062 00de 38       		.uleb128 0x38
 3063 00df 0B       		.uleb128 0xb
 3064 00e0 00       		.byte	0
 3065 00e1 00       		.byte	0
ARM GAS  /var/folders/4k/6h5l9jl178sb4hslwv3xp1mr0000gn/T//ccnwyzoi.s 			page 55


 3066 00e2 13       		.uleb128 0x13
 3067 00e3 16       		.uleb128 0x16
 3068 00e4 00       		.byte	0
 3069 00e5 03       		.uleb128 0x3
 3070 00e6 0E       		.uleb128 0xe
 3071 00e7 3A       		.uleb128 0x3a
 3072 00e8 0B       		.uleb128 0xb
 3073 00e9 3B       		.uleb128 0x3b
 3074 00ea 05       		.uleb128 0x5
 3075 00eb 49       		.uleb128 0x49
 3076 00ec 13       		.uleb128 0x13
 3077 00ed 00       		.byte	0
 3078 00ee 00       		.byte	0
 3079 00ef 14       		.uleb128 0x14
 3080 00f0 0D       		.uleb128 0xd
 3081 00f1 00       		.byte	0
 3082 00f2 03       		.uleb128 0x3
 3083 00f3 08       		.uleb128 0x8
 3084 00f4 3A       		.uleb128 0x3a
 3085 00f5 0B       		.uleb128 0xb
 3086 00f6 3B       		.uleb128 0x3b
 3087 00f7 0B       		.uleb128 0xb
 3088 00f8 49       		.uleb128 0x49
 3089 00f9 13       		.uleb128 0x13
 3090 00fa 00       		.byte	0
 3091 00fb 00       		.byte	0
 3092 00fc 15       		.uleb128 0x15
 3093 00fd 04       		.uleb128 0x4
 3094 00fe 01       		.byte	0x1
 3095 00ff 0B       		.uleb128 0xb
 3096 0100 0B       		.uleb128 0xb
 3097 0101 3A       		.uleb128 0x3a
 3098 0102 0B       		.uleb128 0xb
 3099 0103 3B       		.uleb128 0x3b
 3100 0104 0B       		.uleb128 0xb
 3101 0105 01       		.uleb128 0x1
 3102 0106 13       		.uleb128 0x13
 3103 0107 00       		.byte	0
 3104 0108 00       		.byte	0
 3105 0109 16       		.uleb128 0x16
 3106 010a 28       		.uleb128 0x28
 3107 010b 00       		.byte	0
 3108 010c 03       		.uleb128 0x3
 3109 010d 0E       		.uleb128 0xe
 3110 010e 1C       		.uleb128 0x1c
 3111 010f 0D       		.uleb128 0xd
 3112 0110 00       		.byte	0
 3113 0111 00       		.byte	0
 3114 0112 17       		.uleb128 0x17
 3115 0113 15       		.uleb128 0x15
 3116 0114 01       		.byte	0x1
 3117 0115 27       		.uleb128 0x27
 3118 0116 19       		.uleb128 0x19
 3119 0117 01       		.uleb128 0x1
 3120 0118 13       		.uleb128 0x13
 3121 0119 00       		.byte	0
 3122 011a 00       		.byte	0
ARM GAS  /var/folders/4k/6h5l9jl178sb4hslwv3xp1mr0000gn/T//ccnwyzoi.s 			page 56


 3123 011b 18       		.uleb128 0x18
 3124 011c 05       		.uleb128 0x5
 3125 011d 00       		.byte	0
 3126 011e 49       		.uleb128 0x49
 3127 011f 13       		.uleb128 0x13
 3128 0120 00       		.byte	0
 3129 0121 00       		.byte	0
 3130 0122 19       		.uleb128 0x19
 3131 0123 2E       		.uleb128 0x2e
 3132 0124 01       		.byte	0x1
 3133 0125 3F       		.uleb128 0x3f
 3134 0126 19       		.uleb128 0x19
 3135 0127 03       		.uleb128 0x3
 3136 0128 0E       		.uleb128 0xe
 3137 0129 3A       		.uleb128 0x3a
 3138 012a 0B       		.uleb128 0xb
 3139 012b 3B       		.uleb128 0x3b
 3140 012c 0B       		.uleb128 0xb
 3141 012d 27       		.uleb128 0x27
 3142 012e 19       		.uleb128 0x19
 3143 012f 11       		.uleb128 0x11
 3144 0130 01       		.uleb128 0x1
 3145 0131 12       		.uleb128 0x12
 3146 0132 06       		.uleb128 0x6
 3147 0133 40       		.uleb128 0x40
 3148 0134 18       		.uleb128 0x18
 3149 0135 9742     		.uleb128 0x2117
 3150 0137 19       		.uleb128 0x19
 3151 0138 01       		.uleb128 0x1
 3152 0139 13       		.uleb128 0x13
 3153 013a 00       		.byte	0
 3154 013b 00       		.byte	0
 3155 013c 1A       		.uleb128 0x1a
 3156 013d 898201   		.uleb128 0x4109
 3157 0140 00       		.byte	0
 3158 0141 11       		.uleb128 0x11
 3159 0142 01       		.uleb128 0x1
 3160 0143 9542     		.uleb128 0x2115
 3161 0145 19       		.uleb128 0x19
 3162 0146 31       		.uleb128 0x31
 3163 0147 13       		.uleb128 0x13
 3164 0148 00       		.byte	0
 3165 0149 00       		.byte	0
 3166 014a 1B       		.uleb128 0x1b
 3167 014b 05       		.uleb128 0x5
 3168 014c 00       		.byte	0
 3169 014d 03       		.uleb128 0x3
 3170 014e 0E       		.uleb128 0xe
 3171 014f 3A       		.uleb128 0x3a
 3172 0150 0B       		.uleb128 0xb
 3173 0151 3B       		.uleb128 0x3b
 3174 0152 0B       		.uleb128 0xb
 3175 0153 49       		.uleb128 0x49
 3176 0154 13       		.uleb128 0x13
 3177 0155 02       		.uleb128 0x2
 3178 0156 17       		.uleb128 0x17
 3179 0157 00       		.byte	0
ARM GAS  /var/folders/4k/6h5l9jl178sb4hslwv3xp1mr0000gn/T//ccnwyzoi.s 			page 57


 3180 0158 00       		.byte	0
 3181 0159 1C       		.uleb128 0x1c
 3182 015a 898201   		.uleb128 0x4109
 3183 015d 01       		.byte	0x1
 3184 015e 11       		.uleb128 0x11
 3185 015f 01       		.uleb128 0x1
 3186 0160 9542     		.uleb128 0x2115
 3187 0162 19       		.uleb128 0x19
 3188 0163 31       		.uleb128 0x31
 3189 0164 13       		.uleb128 0x13
 3190 0165 00       		.byte	0
 3191 0166 00       		.byte	0
 3192 0167 1D       		.uleb128 0x1d
 3193 0168 8A8201   		.uleb128 0x410a
 3194 016b 00       		.byte	0
 3195 016c 02       		.uleb128 0x2
 3196 016d 18       		.uleb128 0x18
 3197 016e 9142     		.uleb128 0x2111
 3198 0170 18       		.uleb128 0x18
 3199 0171 00       		.byte	0
 3200 0172 00       		.byte	0
 3201 0173 1E       		.uleb128 0x1e
 3202 0174 0B       		.uleb128 0xb
 3203 0175 01       		.byte	0x1
 3204 0176 55       		.uleb128 0x55
 3205 0177 17       		.uleb128 0x17
 3206 0178 01       		.uleb128 0x1
 3207 0179 13       		.uleb128 0x13
 3208 017a 00       		.byte	0
 3209 017b 00       		.byte	0
 3210 017c 1F       		.uleb128 0x1f
 3211 017d 34       		.uleb128 0x34
 3212 017e 00       		.byte	0
 3213 017f 03       		.uleb128 0x3
 3214 0180 08       		.uleb128 0x8
 3215 0181 3A       		.uleb128 0x3a
 3216 0182 0B       		.uleb128 0xb
 3217 0183 3B       		.uleb128 0x3b
 3218 0184 0B       		.uleb128 0xb
 3219 0185 49       		.uleb128 0x49
 3220 0186 13       		.uleb128 0x13
 3221 0187 02       		.uleb128 0x2
 3222 0188 18       		.uleb128 0x18
 3223 0189 00       		.byte	0
 3224 018a 00       		.byte	0
 3225 018b 20       		.uleb128 0x20
 3226 018c 0B       		.uleb128 0xb
 3227 018d 01       		.byte	0x1
 3228 018e 11       		.uleb128 0x11
 3229 018f 01       		.uleb128 0x1
 3230 0190 12       		.uleb128 0x12
 3231 0191 06       		.uleb128 0x6
 3232 0192 01       		.uleb128 0x1
 3233 0193 13       		.uleb128 0x13
 3234 0194 00       		.byte	0
 3235 0195 00       		.byte	0
 3236 0196 21       		.uleb128 0x21
ARM GAS  /var/folders/4k/6h5l9jl178sb4hslwv3xp1mr0000gn/T//ccnwyzoi.s 			page 58


 3237 0197 898201   		.uleb128 0x4109
 3238 019a 01       		.byte	0x1
 3239 019b 11       		.uleb128 0x11
 3240 019c 01       		.uleb128 0x1
 3241 019d 31       		.uleb128 0x31
 3242 019e 13       		.uleb128 0x13
 3243 019f 00       		.byte	0
 3244 01a0 00       		.byte	0
 3245 01a1 22       		.uleb128 0x22
 3246 01a2 898201   		.uleb128 0x4109
 3247 01a5 01       		.byte	0x1
 3248 01a6 11       		.uleb128 0x11
 3249 01a7 01       		.uleb128 0x1
 3250 01a8 31       		.uleb128 0x31
 3251 01a9 13       		.uleb128 0x13
 3252 01aa 01       		.uleb128 0x1
 3253 01ab 13       		.uleb128 0x13
 3254 01ac 00       		.byte	0
 3255 01ad 00       		.byte	0
 3256 01ae 23       		.uleb128 0x23
 3257 01af 05       		.uleb128 0x5
 3258 01b0 00       		.byte	0
 3259 01b1 03       		.uleb128 0x3
 3260 01b2 08       		.uleb128 0x8
 3261 01b3 3A       		.uleb128 0x3a
 3262 01b4 0B       		.uleb128 0xb
 3263 01b5 3B       		.uleb128 0x3b
 3264 01b6 0B       		.uleb128 0xb
 3265 01b7 49       		.uleb128 0x49
 3266 01b8 13       		.uleb128 0x13
 3267 01b9 02       		.uleb128 0x2
 3268 01ba 17       		.uleb128 0x17
 3269 01bb 00       		.byte	0
 3270 01bc 00       		.byte	0
 3271 01bd 24       		.uleb128 0x24
 3272 01be 26       		.uleb128 0x26
 3273 01bf 00       		.byte	0
 3274 01c0 00       		.byte	0
 3275 01c1 00       		.byte	0
 3276 01c2 25       		.uleb128 0x25
 3277 01c3 2E       		.uleb128 0x2e
 3278 01c4 01       		.byte	0x1
 3279 01c5 3F       		.uleb128 0x3f
 3280 01c6 19       		.uleb128 0x19
 3281 01c7 03       		.uleb128 0x3
 3282 01c8 0E       		.uleb128 0xe
 3283 01c9 3A       		.uleb128 0x3a
 3284 01ca 0B       		.uleb128 0xb
 3285 01cb 3B       		.uleb128 0x3b
 3286 01cc 05       		.uleb128 0x5
 3287 01cd 27       		.uleb128 0x27
 3288 01ce 19       		.uleb128 0x19
 3289 01cf 11       		.uleb128 0x11
 3290 01d0 01       		.uleb128 0x1
 3291 01d1 12       		.uleb128 0x12
 3292 01d2 06       		.uleb128 0x6
 3293 01d3 40       		.uleb128 0x40
ARM GAS  /var/folders/4k/6h5l9jl178sb4hslwv3xp1mr0000gn/T//ccnwyzoi.s 			page 59


 3294 01d4 18       		.uleb128 0x18
 3295 01d5 9742     		.uleb128 0x2117
 3296 01d7 19       		.uleb128 0x19
 3297 01d8 01       		.uleb128 0x1
 3298 01d9 13       		.uleb128 0x13
 3299 01da 00       		.byte	0
 3300 01db 00       		.byte	0
 3301 01dc 26       		.uleb128 0x26
 3302 01dd 05       		.uleb128 0x5
 3303 01de 00       		.byte	0
 3304 01df 03       		.uleb128 0x3
 3305 01e0 0E       		.uleb128 0xe
 3306 01e1 3A       		.uleb128 0x3a
 3307 01e2 0B       		.uleb128 0xb
 3308 01e3 3B       		.uleb128 0x3b
 3309 01e4 05       		.uleb128 0x5
 3310 01e5 49       		.uleb128 0x49
 3311 01e6 13       		.uleb128 0x13
 3312 01e7 02       		.uleb128 0x2
 3313 01e8 17       		.uleb128 0x17
 3314 01e9 00       		.byte	0
 3315 01ea 00       		.byte	0
 3316 01eb 27       		.uleb128 0x27
 3317 01ec 05       		.uleb128 0x5
 3318 01ed 00       		.byte	0
 3319 01ee 03       		.uleb128 0x3
 3320 01ef 08       		.uleb128 0x8
 3321 01f0 3A       		.uleb128 0x3a
 3322 01f1 0B       		.uleb128 0xb
 3323 01f2 3B       		.uleb128 0x3b
 3324 01f3 05       		.uleb128 0x5
 3325 01f4 49       		.uleb128 0x49
 3326 01f5 13       		.uleb128 0x13
 3327 01f6 02       		.uleb128 0x2
 3328 01f7 17       		.uleb128 0x17
 3329 01f8 00       		.byte	0
 3330 01f9 00       		.byte	0
 3331 01fa 28       		.uleb128 0x28
 3332 01fb 34       		.uleb128 0x34
 3333 01fc 00       		.byte	0
 3334 01fd 03       		.uleb128 0x3
 3335 01fe 08       		.uleb128 0x8
 3336 01ff 3A       		.uleb128 0x3a
 3337 0200 0B       		.uleb128 0xb
 3338 0201 3B       		.uleb128 0x3b
 3339 0202 05       		.uleb128 0x5
 3340 0203 49       		.uleb128 0x49
 3341 0204 13       		.uleb128 0x13
 3342 0205 02       		.uleb128 0x2
 3343 0206 18       		.uleb128 0x18
 3344 0207 00       		.byte	0
 3345 0208 00       		.byte	0
 3346 0209 29       		.uleb128 0x29
 3347 020a 34       		.uleb128 0x34
 3348 020b 00       		.byte	0
 3349 020c 03       		.uleb128 0x3
 3350 020d 0E       		.uleb128 0xe
ARM GAS  /var/folders/4k/6h5l9jl178sb4hslwv3xp1mr0000gn/T//ccnwyzoi.s 			page 60


 3351 020e 3A       		.uleb128 0x3a
 3352 020f 0B       		.uleb128 0xb
 3353 0210 3B       		.uleb128 0x3b
 3354 0211 0B       		.uleb128 0xb
 3355 0212 49       		.uleb128 0x49
 3356 0213 13       		.uleb128 0x13
 3357 0214 3F       		.uleb128 0x3f
 3358 0215 19       		.uleb128 0x19
 3359 0216 3C       		.uleb128 0x3c
 3360 0217 19       		.uleb128 0x19
 3361 0218 00       		.byte	0
 3362 0219 00       		.byte	0
 3363 021a 2A       		.uleb128 0x2a
 3364 021b 34       		.uleb128 0x34
 3365 021c 00       		.byte	0
 3366 021d 03       		.uleb128 0x3
 3367 021e 0E       		.uleb128 0xe
 3368 021f 3A       		.uleb128 0x3a
 3369 0220 0B       		.uleb128 0xb
 3370 0221 3B       		.uleb128 0x3b
 3371 0222 05       		.uleb128 0x5
 3372 0223 49       		.uleb128 0x49
 3373 0224 13       		.uleb128 0x13
 3374 0225 3F       		.uleb128 0x3f
 3375 0226 19       		.uleb128 0x19
 3376 0227 3C       		.uleb128 0x3c
 3377 0228 19       		.uleb128 0x19
 3378 0229 00       		.byte	0
 3379 022a 00       		.byte	0
 3380 022b 2B       		.uleb128 0x2b
 3381 022c 2E       		.uleb128 0x2e
 3382 022d 00       		.byte	0
 3383 022e 3F       		.uleb128 0x3f
 3384 022f 19       		.uleb128 0x19
 3385 0230 03       		.uleb128 0x3
 3386 0231 0E       		.uleb128 0xe
 3387 0232 3A       		.uleb128 0x3a
 3388 0233 0B       		.uleb128 0xb
 3389 0234 3B       		.uleb128 0x3b
 3390 0235 05       		.uleb128 0x5
 3391 0236 27       		.uleb128 0x27
 3392 0237 19       		.uleb128 0x19
 3393 0238 3C       		.uleb128 0x3c
 3394 0239 19       		.uleb128 0x19
 3395 023a 00       		.byte	0
 3396 023b 00       		.byte	0
 3397 023c 2C       		.uleb128 0x2c
 3398 023d 2E       		.uleb128 0x2e
 3399 023e 01       		.byte	0x1
 3400 023f 3F       		.uleb128 0x3f
 3401 0240 19       		.uleb128 0x19
 3402 0241 03       		.uleb128 0x3
 3403 0242 0E       		.uleb128 0xe
 3404 0243 3A       		.uleb128 0x3a
 3405 0244 0B       		.uleb128 0xb
 3406 0245 3B       		.uleb128 0x3b
 3407 0246 0B       		.uleb128 0xb
ARM GAS  /var/folders/4k/6h5l9jl178sb4hslwv3xp1mr0000gn/T//ccnwyzoi.s 			page 61


 3408 0247 27       		.uleb128 0x27
 3409 0248 19       		.uleb128 0x19
 3410 0249 3C       		.uleb128 0x3c
 3411 024a 19       		.uleb128 0x19
 3412 024b 01       		.uleb128 0x1
 3413 024c 13       		.uleb128 0x13
 3414 024d 00       		.byte	0
 3415 024e 00       		.byte	0
 3416 024f 2D       		.uleb128 0x2d
 3417 0250 2E       		.uleb128 0x2e
 3418 0251 01       		.byte	0x1
 3419 0252 3F       		.uleb128 0x3f
 3420 0253 19       		.uleb128 0x19
 3421 0254 03       		.uleb128 0x3
 3422 0255 0E       		.uleb128 0xe
 3423 0256 3A       		.uleb128 0x3a
 3424 0257 0B       		.uleb128 0xb
 3425 0258 3B       		.uleb128 0x3b
 3426 0259 05       		.uleb128 0x5
 3427 025a 27       		.uleb128 0x27
 3428 025b 19       		.uleb128 0x19
 3429 025c 3C       		.uleb128 0x3c
 3430 025d 19       		.uleb128 0x19
 3431 025e 01       		.uleb128 0x1
 3432 025f 13       		.uleb128 0x13
 3433 0260 00       		.byte	0
 3434 0261 00       		.byte	0
 3435 0262 2E       		.uleb128 0x2e
 3436 0263 2E       		.uleb128 0x2e
 3437 0264 00       		.byte	0
 3438 0265 3F       		.uleb128 0x3f
 3439 0266 19       		.uleb128 0x19
 3440 0267 03       		.uleb128 0x3
 3441 0268 0E       		.uleb128 0xe
 3442 0269 3A       		.uleb128 0x3a
 3443 026a 0B       		.uleb128 0xb
 3444 026b 3B       		.uleb128 0x3b
 3445 026c 0B       		.uleb128 0xb
 3446 026d 27       		.uleb128 0x27
 3447 026e 19       		.uleb128 0x19
 3448 026f 49       		.uleb128 0x49
 3449 0270 13       		.uleb128 0x13
 3450 0271 3C       		.uleb128 0x3c
 3451 0272 19       		.uleb128 0x19
 3452 0273 00       		.byte	0
 3453 0274 00       		.byte	0
 3454 0275 00       		.byte	0
 3455              		.section	.debug_loc,"",%progbits
 3456              	.Ldebug_loc0:
 3457              	.LLST0:
 3458 0000 00000000 		.4byte	.LVL1
 3459 0004 0C000000 		.4byte	.LVL2
 3460 0008 0100     		.2byte	0x1
 3461 000a 50       		.byte	0x50
 3462 000b 0C000000 		.4byte	.LVL2
 3463 000f 0F000000 		.4byte	.LVL3-1
 3464 0013 0300     		.2byte	0x3
ARM GAS  /var/folders/4k/6h5l9jl178sb4hslwv3xp1mr0000gn/T//ccnwyzoi.s 			page 62


 3465 0015 70       		.byte	0x70
 3466 0016 74       		.sleb128 -12
 3467 0017 9F       		.byte	0x9f
 3468 0018 0F000000 		.4byte	.LVL3-1
 3469 001c 10000000 		.4byte	.LFE119
 3470 0020 0400     		.2byte	0x4
 3471 0022 F3       		.byte	0xf3
 3472 0023 01       		.uleb128 0x1
 3473 0024 50       		.byte	0x50
 3474 0025 9F       		.byte	0x9f
 3475 0026 00000000 		.4byte	0
 3476 002a 00000000 		.4byte	0
 3477              	.LLST1:
 3478 002e 00000000 		.4byte	.LVL4
 3479 0032 0F000000 		.4byte	.LVL5-1
 3480 0036 0100     		.2byte	0x1
 3481 0038 50       		.byte	0x50
 3482 0039 0F000000 		.4byte	.LVL5-1
 3483 003d 1C000000 		.4byte	.LFE120
 3484 0041 0100     		.2byte	0x1
 3485 0043 54       		.byte	0x54
 3486 0044 00000000 		.4byte	0
 3487 0048 00000000 		.4byte	0
 3488              	.LLST2:
 3489 004c 00000000 		.4byte	.LVL4
 3490 0050 0F000000 		.4byte	.LVL5-1
 3491 0054 0100     		.2byte	0x1
 3492 0056 51       		.byte	0x51
 3493 0057 0F000000 		.4byte	.LVL5-1
 3494 005b 1C000000 		.4byte	.LFE120
 3495 005f 0400     		.2byte	0x4
 3496 0061 F3       		.byte	0xf3
 3497 0062 01       		.uleb128 0x1
 3498 0063 51       		.byte	0x51
 3499 0064 9F       		.byte	0x9f
 3500 0065 00000000 		.4byte	0
 3501 0069 00000000 		.4byte	0
 3502              	.LLST3:
 3503 006d 00000000 		.4byte	.LVL6
 3504 0071 0D000000 		.4byte	.LVL7-1
 3505 0075 0100     		.2byte	0x1
 3506 0077 50       		.byte	0x50
 3507 0078 0D000000 		.4byte	.LVL7-1
 3508 007c 20000000 		.4byte	.LFE121
 3509 0080 0100     		.2byte	0x1
 3510 0082 54       		.byte	0x54
 3511 0083 00000000 		.4byte	0
 3512 0087 00000000 		.4byte	0
 3513              	.LLST4:
 3514 008b 00000000 		.4byte	.LVL9
 3515 008f 0B000000 		.4byte	.LVL10-1
 3516 0093 0100     		.2byte	0x1
 3517 0095 50       		.byte	0x50
 3518 0096 0B000000 		.4byte	.LVL10-1
 3519 009a 14000000 		.4byte	.LFE122
 3520 009e 0400     		.2byte	0x4
 3521 00a0 F3       		.byte	0xf3
ARM GAS  /var/folders/4k/6h5l9jl178sb4hslwv3xp1mr0000gn/T//ccnwyzoi.s 			page 63


 3522 00a1 01       		.uleb128 0x1
 3523 00a2 50       		.byte	0x50
 3524 00a3 9F       		.byte	0x9f
 3525 00a4 00000000 		.4byte	0
 3526 00a8 00000000 		.4byte	0
 3527              	.LLST5:
 3528 00ac 00000000 		.4byte	.LVL11
 3529 00b0 0B000000 		.4byte	.LVL12-1
 3530 00b4 0100     		.2byte	0x1
 3531 00b6 50       		.byte	0x50
 3532 00b7 0B000000 		.4byte	.LVL12-1
 3533 00bb 14000000 		.4byte	.LFE123
 3534 00bf 0400     		.2byte	0x4
 3535 00c1 F3       		.byte	0xf3
 3536 00c2 01       		.uleb128 0x1
 3537 00c3 50       		.byte	0x50
 3538 00c4 9F       		.byte	0x9f
 3539 00c5 00000000 		.4byte	0
 3540 00c9 00000000 		.4byte	0
 3541              	.LLST6:
 3542 00cd 00000000 		.4byte	.LVL13
 3543 00d1 0F000000 		.4byte	.LVL14-1
 3544 00d5 0100     		.2byte	0x1
 3545 00d7 50       		.byte	0x50
 3546 00d8 0F000000 		.4byte	.LVL14-1
 3547 00dc 18000000 		.4byte	.LFE124
 3548 00e0 0400     		.2byte	0x4
 3549 00e2 F3       		.byte	0xf3
 3550 00e3 01       		.uleb128 0x1
 3551 00e4 50       		.byte	0x50
 3552 00e5 9F       		.byte	0x9f
 3553 00e6 00000000 		.4byte	0
 3554 00ea 00000000 		.4byte	0
 3555              	.LLST7:
 3556 00ee 00000000 		.4byte	.LVL13
 3557 00f2 0F000000 		.4byte	.LVL14-1
 3558 00f6 0100     		.2byte	0x1
 3559 00f8 51       		.byte	0x51
 3560 00f9 0F000000 		.4byte	.LVL14-1
 3561 00fd 18000000 		.4byte	.LFE124
 3562 0101 0400     		.2byte	0x4
 3563 0103 F3       		.byte	0xf3
 3564 0104 01       		.uleb128 0x1
 3565 0105 51       		.byte	0x51
 3566 0106 9F       		.byte	0x9f
 3567 0107 00000000 		.4byte	0
 3568 010b 00000000 		.4byte	0
 3569              	.LLST8:
 3570 010f 00000000 		.4byte	.LVL15
 3571 0113 13000000 		.4byte	.LVL17-1
 3572 0117 0100     		.2byte	0x1
 3573 0119 50       		.byte	0x50
 3574 011a 13000000 		.4byte	.LVL17-1
 3575 011e 1C000000 		.4byte	.LFE125
 3576 0122 0400     		.2byte	0x4
 3577 0124 F3       		.byte	0xf3
 3578 0125 01       		.uleb128 0x1
ARM GAS  /var/folders/4k/6h5l9jl178sb4hslwv3xp1mr0000gn/T//ccnwyzoi.s 			page 64


 3579 0126 50       		.byte	0x50
 3580 0127 9F       		.byte	0x9f
 3581 0128 00000000 		.4byte	0
 3582 012c 00000000 		.4byte	0
 3583              	.LLST9:
 3584 0130 00000000 		.4byte	.LVL15
 3585 0134 13000000 		.4byte	.LVL17-1
 3586 0138 0100     		.2byte	0x1
 3587 013a 51       		.byte	0x51
 3588 013b 13000000 		.4byte	.LVL17-1
 3589 013f 1C000000 		.4byte	.LFE125
 3590 0143 0400     		.2byte	0x4
 3591 0145 F3       		.byte	0xf3
 3592 0146 01       		.uleb128 0x1
 3593 0147 51       		.byte	0x51
 3594 0148 9F       		.byte	0x9f
 3595 0149 00000000 		.4byte	0
 3596 014d 00000000 		.4byte	0
 3597              	.LLST10:
 3598 0151 00000000 		.4byte	.LVL15
 3599 0155 13000000 		.4byte	.LVL17-1
 3600 0159 0100     		.2byte	0x1
 3601 015b 52       		.byte	0x52
 3602 015c 13000000 		.4byte	.LVL17-1
 3603 0160 1C000000 		.4byte	.LFE125
 3604 0164 0400     		.2byte	0x4
 3605 0166 F3       		.byte	0xf3
 3606 0167 01       		.uleb128 0x1
 3607 0168 52       		.byte	0x52
 3608 0169 9F       		.byte	0x9f
 3609 016a 00000000 		.4byte	0
 3610 016e 00000000 		.4byte	0
 3611              	.LLST11:
 3612 0172 00000000 		.4byte	.LVL15
 3613 0176 06000000 		.4byte	.LVL16
 3614 017a 0100     		.2byte	0x1
 3615 017c 53       		.byte	0x53
 3616 017d 06000000 		.4byte	.LVL16
 3617 0181 1C000000 		.4byte	.LFE125
 3618 0185 0100     		.2byte	0x1
 3619 0187 54       		.byte	0x54
 3620 0188 00000000 		.4byte	0
 3621 018c 00000000 		.4byte	0
 3622              	.LLST12:
 3623 0190 00000000 		.4byte	.LVL18
 3624 0194 0F000000 		.4byte	.LVL19-1
 3625 0198 0100     		.2byte	0x1
 3626 019a 50       		.byte	0x50
 3627 019b 0F000000 		.4byte	.LVL19-1
 3628 019f 18000000 		.4byte	.LFE126
 3629 01a3 0400     		.2byte	0x4
 3630 01a5 F3       		.byte	0xf3
 3631 01a6 01       		.uleb128 0x1
 3632 01a7 50       		.byte	0x50
 3633 01a8 9F       		.byte	0x9f
 3634 01a9 00000000 		.4byte	0
 3635 01ad 00000000 		.4byte	0
ARM GAS  /var/folders/4k/6h5l9jl178sb4hslwv3xp1mr0000gn/T//ccnwyzoi.s 			page 65


 3636              	.LLST13:
 3637 01b1 00000000 		.4byte	.LVL18
 3638 01b5 0F000000 		.4byte	.LVL19-1
 3639 01b9 0100     		.2byte	0x1
 3640 01bb 51       		.byte	0x51
 3641 01bc 0F000000 		.4byte	.LVL19-1
 3642 01c0 18000000 		.4byte	.LFE126
 3643 01c4 0400     		.2byte	0x4
 3644 01c6 F3       		.byte	0xf3
 3645 01c7 01       		.uleb128 0x1
 3646 01c8 51       		.byte	0x51
 3647 01c9 9F       		.byte	0x9f
 3648 01ca 00000000 		.4byte	0
 3649 01ce 00000000 		.4byte	0
 3650              	.LLST14:
 3651 01d2 00000000 		.4byte	.LVL18
 3652 01d6 0F000000 		.4byte	.LVL19-1
 3653 01da 0100     		.2byte	0x1
 3654 01dc 52       		.byte	0x52
 3655 01dd 0F000000 		.4byte	.LVL19-1
 3656 01e1 18000000 		.4byte	.LFE126
 3657 01e5 0400     		.2byte	0x4
 3658 01e7 F3       		.byte	0xf3
 3659 01e8 01       		.uleb128 0x1
 3660 01e9 52       		.byte	0x52
 3661 01ea 9F       		.byte	0x9f
 3662 01eb 00000000 		.4byte	0
 3663 01ef 00000000 		.4byte	0
 3664              	.LLST15:
 3665 01f3 00000000 		.4byte	.LVL20
 3666 01f7 0F000000 		.4byte	.LVL21-1
 3667 01fb 0100     		.2byte	0x1
 3668 01fd 50       		.byte	0x50
 3669 01fe 0F000000 		.4byte	.LVL21-1
 3670 0202 18000000 		.4byte	.LFE127
 3671 0206 0400     		.2byte	0x4
 3672 0208 F3       		.byte	0xf3
 3673 0209 01       		.uleb128 0x1
 3674 020a 50       		.byte	0x50
 3675 020b 9F       		.byte	0x9f
 3676 020c 00000000 		.4byte	0
 3677 0210 00000000 		.4byte	0
 3678              	.LLST16:
 3679 0214 00000000 		.4byte	.LVL20
 3680 0218 0F000000 		.4byte	.LVL21-1
 3681 021c 0100     		.2byte	0x1
 3682 021e 51       		.byte	0x51
 3683 021f 0F000000 		.4byte	.LVL21-1
 3684 0223 18000000 		.4byte	.LFE127
 3685 0227 0400     		.2byte	0x4
 3686 0229 F3       		.byte	0xf3
 3687 022a 01       		.uleb128 0x1
 3688 022b 51       		.byte	0x51
 3689 022c 9F       		.byte	0x9f
 3690 022d 00000000 		.4byte	0
 3691 0231 00000000 		.4byte	0
 3692              	.LLST17:
ARM GAS  /var/folders/4k/6h5l9jl178sb4hslwv3xp1mr0000gn/T//ccnwyzoi.s 			page 66


 3693 0235 00000000 		.4byte	.LVL20
 3694 0239 0F000000 		.4byte	.LVL21-1
 3695 023d 0100     		.2byte	0x1
 3696 023f 52       		.byte	0x52
 3697 0240 0F000000 		.4byte	.LVL21-1
 3698 0244 18000000 		.4byte	.LFE127
 3699 0248 0400     		.2byte	0x4
 3700 024a F3       		.byte	0xf3
 3701 024b 01       		.uleb128 0x1
 3702 024c 52       		.byte	0x52
 3703 024d 9F       		.byte	0x9f
 3704 024e 00000000 		.4byte	0
 3705 0252 00000000 		.4byte	0
 3706              	.LLST18:
 3707 0256 00000000 		.4byte	.LVL22
 3708 025a 11000000 		.4byte	.LVL23-1
 3709 025e 0100     		.2byte	0x1
 3710 0260 50       		.byte	0x50
 3711 0261 11000000 		.4byte	.LVL23-1
 3712 0265 26000000 		.4byte	.LVL25
 3713 0269 0100     		.2byte	0x1
 3714 026b 54       		.byte	0x54
 3715 026c 26000000 		.4byte	.LVL25
 3716 0270 2C000000 		.4byte	.LFE128
 3717 0274 0400     		.2byte	0x4
 3718 0276 F3       		.byte	0xf3
 3719 0277 01       		.uleb128 0x1
 3720 0278 50       		.byte	0x50
 3721 0279 9F       		.byte	0x9f
 3722 027a 00000000 		.4byte	0
 3723 027e 00000000 		.4byte	0
 3724              	.LLST19:
 3725 0282 00000000 		.4byte	.LVL22
 3726 0286 11000000 		.4byte	.LVL23-1
 3727 028a 0100     		.2byte	0x1
 3728 028c 51       		.byte	0x51
 3729 028d 11000000 		.4byte	.LVL23-1
 3730 0291 2C000000 		.4byte	.LFE128
 3731 0295 0400     		.2byte	0x4
 3732 0297 F3       		.byte	0xf3
 3733 0298 01       		.uleb128 0x1
 3734 0299 51       		.byte	0x51
 3735 029a 9F       		.byte	0x9f
 3736 029b 00000000 		.4byte	0
 3737 029f 00000000 		.4byte	0
 3738              	.LLST20:
 3739 02a3 00000000 		.4byte	.LVL26
 3740 02a7 0E000000 		.4byte	.LVL28
 3741 02ab 0100     		.2byte	0x1
 3742 02ad 50       		.byte	0x50
 3743 02ae 0E000000 		.4byte	.LVL28
 3744 02b2 2C000000 		.4byte	.LVL31
 3745 02b6 0100     		.2byte	0x1
 3746 02b8 54       		.byte	0x54
 3747 02b9 2C000000 		.4byte	.LVL31
 3748 02bd 30000000 		.4byte	.LFE129
 3749 02c1 0400     		.2byte	0x4
ARM GAS  /var/folders/4k/6h5l9jl178sb4hslwv3xp1mr0000gn/T//ccnwyzoi.s 			page 67


 3750 02c3 F3       		.byte	0xf3
 3751 02c4 01       		.uleb128 0x1
 3752 02c5 50       		.byte	0x50
 3753 02c6 9F       		.byte	0x9f
 3754 02c7 00000000 		.4byte	0
 3755 02cb 00000000 		.4byte	0
 3756              	.LLST21:
 3757 02cf 00000000 		.4byte	.LVL26
 3758 02d3 17000000 		.4byte	.LVL29-1
 3759 02d7 0100     		.2byte	0x1
 3760 02d9 51       		.byte	0x51
 3761 02da 17000000 		.4byte	.LVL29-1
 3762 02de 30000000 		.4byte	.LFE129
 3763 02e2 0400     		.2byte	0x4
 3764 02e4 F3       		.byte	0xf3
 3765 02e5 01       		.uleb128 0x1
 3766 02e6 51       		.byte	0x51
 3767 02e7 9F       		.byte	0x9f
 3768 02e8 00000000 		.4byte	0
 3769 02ec 00000000 		.4byte	0
 3770              	.LLST22:
 3771 02f0 00000000 		.4byte	.LVL26
 3772 02f4 17000000 		.4byte	.LVL29-1
 3773 02f8 0100     		.2byte	0x1
 3774 02fa 52       		.byte	0x52
 3775 02fb 17000000 		.4byte	.LVL29-1
 3776 02ff 30000000 		.4byte	.LFE129
 3777 0303 0400     		.2byte	0x4
 3778 0305 F3       		.byte	0xf3
 3779 0306 01       		.uleb128 0x1
 3780 0307 52       		.byte	0x52
 3781 0308 9F       		.byte	0x9f
 3782 0309 00000000 		.4byte	0
 3783 030d 00000000 		.4byte	0
 3784              	.LLST23:
 3785 0311 00000000 		.4byte	.LVL26
 3786 0315 08000000 		.4byte	.LVL27
 3787 0319 0100     		.2byte	0x1
 3788 031b 53       		.byte	0x53
 3789 031c 08000000 		.4byte	.LVL27
 3790 0320 2C000000 		.4byte	.LVL31
 3791 0324 0100     		.2byte	0x1
 3792 0326 55       		.byte	0x55
 3793 0327 2C000000 		.4byte	.LVL31
 3794 032b 30000000 		.4byte	.LFE129
 3795 032f 0400     		.2byte	0x4
 3796 0331 F3       		.byte	0xf3
 3797 0332 01       		.uleb128 0x1
 3798 0333 53       		.byte	0x53
 3799 0334 9F       		.byte	0x9f
 3800 0335 00000000 		.4byte	0
 3801 0339 00000000 		.4byte	0
 3802              	.LLST24:
 3803 033d 00000000 		.4byte	.LVL32
 3804 0341 11000000 		.4byte	.LVL33-1
 3805 0345 0100     		.2byte	0x1
 3806 0347 50       		.byte	0x50
ARM GAS  /var/folders/4k/6h5l9jl178sb4hslwv3xp1mr0000gn/T//ccnwyzoi.s 			page 68


 3807 0348 11000000 		.4byte	.LVL33-1
 3808 034c 26000000 		.4byte	.LVL35
 3809 0350 0100     		.2byte	0x1
 3810 0352 54       		.byte	0x54
 3811 0353 26000000 		.4byte	.LVL35
 3812 0357 2C000000 		.4byte	.LFE130
 3813 035b 0400     		.2byte	0x4
 3814 035d F3       		.byte	0xf3
 3815 035e 01       		.uleb128 0x1
 3816 035f 50       		.byte	0x50
 3817 0360 9F       		.byte	0x9f
 3818 0361 00000000 		.4byte	0
 3819 0365 00000000 		.4byte	0
 3820              	.LLST25:
 3821 0369 00000000 		.4byte	.LVL32
 3822 036d 11000000 		.4byte	.LVL33-1
 3823 0371 0100     		.2byte	0x1
 3824 0373 51       		.byte	0x51
 3825 0374 11000000 		.4byte	.LVL33-1
 3826 0378 2C000000 		.4byte	.LFE130
 3827 037c 0400     		.2byte	0x4
 3828 037e F3       		.byte	0xf3
 3829 037f 01       		.uleb128 0x1
 3830 0380 51       		.byte	0x51
 3831 0381 9F       		.byte	0x9f
 3832 0382 00000000 		.4byte	0
 3833 0386 00000000 		.4byte	0
 3834              	.LLST26:
 3835 038a 00000000 		.4byte	.LVL32
 3836 038e 11000000 		.4byte	.LVL33-1
 3837 0392 0100     		.2byte	0x1
 3838 0394 52       		.byte	0x52
 3839 0395 11000000 		.4byte	.LVL33-1
 3840 0399 2C000000 		.4byte	.LFE130
 3841 039d 0400     		.2byte	0x4
 3842 039f F3       		.byte	0xf3
 3843 03a0 01       		.uleb128 0x1
 3844 03a1 52       		.byte	0x52
 3845 03a2 9F       		.byte	0x9f
 3846 03a3 00000000 		.4byte	0
 3847 03a7 00000000 		.4byte	0
 3848              	.LLST27:
 3849 03ab 00000000 		.4byte	.LVL36
 3850 03af 11000000 		.4byte	.LVL37-1
 3851 03b3 0100     		.2byte	0x1
 3852 03b5 50       		.byte	0x50
 3853 03b6 11000000 		.4byte	.LVL37-1
 3854 03ba 26000000 		.4byte	.LVL39
 3855 03be 0100     		.2byte	0x1
 3856 03c0 54       		.byte	0x54
 3857 03c1 26000000 		.4byte	.LVL39
 3858 03c5 2C000000 		.4byte	.LFE131
 3859 03c9 0400     		.2byte	0x4
 3860 03cb F3       		.byte	0xf3
 3861 03cc 01       		.uleb128 0x1
 3862 03cd 50       		.byte	0x50
 3863 03ce 9F       		.byte	0x9f
ARM GAS  /var/folders/4k/6h5l9jl178sb4hslwv3xp1mr0000gn/T//ccnwyzoi.s 			page 69


 3864 03cf 00000000 		.4byte	0
 3865 03d3 00000000 		.4byte	0
 3866              	.LLST28:
 3867 03d7 00000000 		.4byte	.LVL36
 3868 03db 11000000 		.4byte	.LVL37-1
 3869 03df 0100     		.2byte	0x1
 3870 03e1 51       		.byte	0x51
 3871 03e2 11000000 		.4byte	.LVL37-1
 3872 03e6 2C000000 		.4byte	.LFE131
 3873 03ea 0400     		.2byte	0x4
 3874 03ec F3       		.byte	0xf3
 3875 03ed 01       		.uleb128 0x1
 3876 03ee 51       		.byte	0x51
 3877 03ef 9F       		.byte	0x9f
 3878 03f0 00000000 		.4byte	0
 3879 03f4 00000000 		.4byte	0
 3880              	.LLST29:
 3881 03f8 00000000 		.4byte	.LVL36
 3882 03fc 11000000 		.4byte	.LVL37-1
 3883 0400 0100     		.2byte	0x1
 3884 0402 52       		.byte	0x52
 3885 0403 11000000 		.4byte	.LVL37-1
 3886 0407 2C000000 		.4byte	.LFE131
 3887 040b 0400     		.2byte	0x4
 3888 040d F3       		.byte	0xf3
 3889 040e 01       		.uleb128 0x1
 3890 040f 52       		.byte	0x52
 3891 0410 9F       		.byte	0x9f
 3892 0411 00000000 		.4byte	0
 3893 0415 00000000 		.4byte	0
 3894              	.LLST30:
 3895 0419 00000000 		.4byte	.LVL40
 3896 041d 02000000 		.4byte	.LVL41
 3897 0421 0100     		.2byte	0x1
 3898 0423 50       		.byte	0x50
 3899 0424 02000000 		.4byte	.LVL41
 3900 0428 05000000 		.4byte	.LVL42-1
 3901 042c 0300     		.2byte	0x3
 3902 042e 70       		.byte	0x70
 3903 042f 74       		.sleb128 -12
 3904 0430 9F       		.byte	0x9f
 3905 0431 05000000 		.4byte	.LVL42-1
 3906 0435 06000000 		.4byte	.LFE132
 3907 0439 0400     		.2byte	0x4
 3908 043b F3       		.byte	0xf3
 3909 043c 01       		.uleb128 0x1
 3910 043d 50       		.byte	0x50
 3911 043e 9F       		.byte	0x9f
 3912 043f 00000000 		.4byte	0
 3913 0443 00000000 		.4byte	0
 3914              	.LLST31:
 3915 0447 00000000 		.4byte	.LVL43
 3916 044b 03000000 		.4byte	.LVL44-1
 3917 044f 0100     		.2byte	0x1
 3918 0451 50       		.byte	0x50
 3919 0452 03000000 		.4byte	.LVL44-1
 3920 0456 04000000 		.4byte	.LFE133
ARM GAS  /var/folders/4k/6h5l9jl178sb4hslwv3xp1mr0000gn/T//ccnwyzoi.s 			page 70


 3921 045a 0400     		.2byte	0x4
 3922 045c F3       		.byte	0xf3
 3923 045d 01       		.uleb128 0x1
 3924 045e 50       		.byte	0x50
 3925 045f 9F       		.byte	0x9f
 3926 0460 00000000 		.4byte	0
 3927 0464 00000000 		.4byte	0
 3928              		.section	.debug_aranges,"",%progbits
 3929 0000 94000000 		.4byte	0x94
 3930 0004 0200     		.2byte	0x2
 3931 0006 00000000 		.4byte	.Ldebug_info0
 3932 000a 04       		.byte	0x4
 3933 000b 00       		.byte	0
 3934 000c 0000     		.2byte	0
 3935 000e 0000     		.2byte	0
 3936 0010 00000000 		.4byte	.LFB118
 3937 0014 04000000 		.4byte	.LFE118-.LFB118
 3938 0018 00000000 		.4byte	.LFB119
 3939 001c 10000000 		.4byte	.LFE119-.LFB119
 3940 0020 00000000 		.4byte	.LFB120
 3941 0024 1C000000 		.4byte	.LFE120-.LFB120
 3942 0028 00000000 		.4byte	.LFB121
 3943 002c 20000000 		.4byte	.LFE121-.LFB121
 3944 0030 00000000 		.4byte	.LFB122
 3945 0034 14000000 		.4byte	.LFE122-.LFB122
 3946 0038 00000000 		.4byte	.LFB123
 3947 003c 14000000 		.4byte	.LFE123-.LFB123
 3948 0040 00000000 		.4byte	.LFB124
 3949 0044 18000000 		.4byte	.LFE124-.LFB124
 3950 0048 00000000 		.4byte	.LFB125
 3951 004c 1C000000 		.4byte	.LFE125-.LFB125
 3952 0050 00000000 		.4byte	.LFB126
 3953 0054 18000000 		.4byte	.LFE126-.LFB126
 3954 0058 00000000 		.4byte	.LFB127
 3955 005c 18000000 		.4byte	.LFE127-.LFB127
 3956 0060 00000000 		.4byte	.LFB128
 3957 0064 2C000000 		.4byte	.LFE128-.LFB128
 3958 0068 00000000 		.4byte	.LFB129
 3959 006c 30000000 		.4byte	.LFE129-.LFB129
 3960 0070 00000000 		.4byte	.LFB130
 3961 0074 2C000000 		.4byte	.LFE130-.LFB130
 3962 0078 00000000 		.4byte	.LFB131
 3963 007c 2C000000 		.4byte	.LFE131-.LFB131
 3964 0080 00000000 		.4byte	.LFB132
 3965 0084 06000000 		.4byte	.LFE132-.LFB132
 3966 0088 00000000 		.4byte	.LFB133
 3967 008c 04000000 		.4byte	.LFE133-.LFB133
 3968 0090 00000000 		.4byte	0
 3969 0094 00000000 		.4byte	0
 3970              		.section	.debug_ranges,"",%progbits
 3971              	.Ldebug_ranges0:
 3972 0000 02000000 		.4byte	.LBB2
 3973 0004 04000000 		.4byte	.LBE2
 3974 0008 06000000 		.4byte	.LBB3
 3975 000c 0A000000 		.4byte	.LBE3
 3976 0010 00000000 		.4byte	0
 3977 0014 00000000 		.4byte	0
ARM GAS  /var/folders/4k/6h5l9jl178sb4hslwv3xp1mr0000gn/T//ccnwyzoi.s 			page 71


 3978 0018 02000000 		.4byte	.LBB5
 3979 001c 04000000 		.4byte	.LBE5
 3980 0020 06000000 		.4byte	.LBB6
 3981 0024 0A000000 		.4byte	.LBE6
 3982 0028 00000000 		.4byte	0
 3983 002c 00000000 		.4byte	0
 3984 0030 02000000 		.4byte	.LBB20
 3985 0034 04000000 		.4byte	.LBE20
 3986 0038 06000000 		.4byte	.LBB21
 3987 003c 0A000000 		.4byte	.LBE21
 3988 0040 00000000 		.4byte	0
 3989 0044 00000000 		.4byte	0
 3990 0048 02000000 		.4byte	.LBB25
 3991 004c 04000000 		.4byte	.LBE25
 3992 0050 06000000 		.4byte	.LBB26
 3993 0054 0A000000 		.4byte	.LBE26
 3994 0058 00000000 		.4byte	0
 3995 005c 00000000 		.4byte	0
 3996 0060 02000000 		.4byte	.LBB28
 3997 0064 04000000 		.4byte	.LBE28
 3998 0068 06000000 		.4byte	.LBB29
 3999 006c 0A000000 		.4byte	.LBE29
 4000 0070 00000000 		.4byte	0
 4001 0074 00000000 		.4byte	0
 4002 0078 00000000 		.4byte	.LFB118
 4003 007c 04000000 		.4byte	.LFE118
 4004 0080 00000000 		.4byte	.LFB119
 4005 0084 10000000 		.4byte	.LFE119
 4006 0088 00000000 		.4byte	.LFB120
 4007 008c 1C000000 		.4byte	.LFE120
 4008 0090 00000000 		.4byte	.LFB121
 4009 0094 20000000 		.4byte	.LFE121
 4010 0098 00000000 		.4byte	.LFB122
 4011 009c 14000000 		.4byte	.LFE122
 4012 00a0 00000000 		.4byte	.LFB123
 4013 00a4 14000000 		.4byte	.LFE123
 4014 00a8 00000000 		.4byte	.LFB124
 4015 00ac 18000000 		.4byte	.LFE124
 4016 00b0 00000000 		.4byte	.LFB125
 4017 00b4 1C000000 		.4byte	.LFE125
 4018 00b8 00000000 		.4byte	.LFB126
 4019 00bc 18000000 		.4byte	.LFE126
 4020 00c0 00000000 		.4byte	.LFB127
 4021 00c4 18000000 		.4byte	.LFE127
 4022 00c8 00000000 		.4byte	.LFB128
 4023 00cc 2C000000 		.4byte	.LFE128
 4024 00d0 00000000 		.4byte	.LFB129
 4025 00d4 30000000 		.4byte	.LFE129
 4026 00d8 00000000 		.4byte	.LFB130
 4027 00dc 2C000000 		.4byte	.LFE130
 4028 00e0 00000000 		.4byte	.LFB131
 4029 00e4 2C000000 		.4byte	.LFE131
 4030 00e8 00000000 		.4byte	.LFB132
 4031 00ec 06000000 		.4byte	.LFE132
 4032 00f0 00000000 		.4byte	.LFB133
 4033 00f4 04000000 		.4byte	.LFE133
 4034 00f8 00000000 		.4byte	0
ARM GAS  /var/folders/4k/6h5l9jl178sb4hslwv3xp1mr0000gn/T//ccnwyzoi.s 			page 72


 4035 00fc 00000000 		.4byte	0
 4036              		.section	.debug_line,"",%progbits
 4037              	.Ldebug_line0:
 4038 0000 BE040000 		.section	.debug_str,"MS",%progbits,1
 4038      02007803 
 4038      00000201 
 4038      FB0E0D00 
 4038      01010101 
 4039              	.LASF116:
 4040 0000 646D6172 		.ascii	"dmarx\000"
 4040      7800
 4041              	.LASF70:
 4042 0006 4D304152 		.ascii	"M0AR\000"
 4042      00
 4043              	.LASF2:
 4044 000b 73697A65 		.ascii	"size_t\000"
 4044      5F7400
 4045              	.LASF64:
 4046 0012 7264796D 		.ascii	"rdymsg\000"
 4046      736700
 4047              	.LASF96:
 4048 0019 4F545950 		.ascii	"OTYPER\000"
 4048      455200
 4049              	.LASF3:
 4050 0020 5F5F7569 		.ascii	"__uint8_t\000"
 4050      6E74385F 
 4050      7400
 4051              	.LASF108:
 4052 002a 5350495F 		.ascii	"SPI_ACTIVE\000"
 4052      41435449 
 4052      564500
 4053              	.LASF129:
 4054 0035 73706953 		.ascii	"spiStop\000"
 4054      746F7000 
 4055              	.LASF88:
 4056 003d 73747265 		.ascii	"stream\000"
 4056      616D00
 4057              	.LASF95:
 4058 0044 4D4F4445 		.ascii	"MODER\000"
 4058      5200
 4059              	.LASF13:
 4060 004a 6C6F6E67 		.ascii	"long long unsigned int\000"
 4060      206C6F6E 
 4060      6720756E 
 4060      7369676E 
 4060      65642069 
 4061              	.LASF107:
 4062 0061 5350495F 		.ascii	"SPI_READY\000"
 4062      52454144 
 4062      5900
 4063              	.LASF77:
 4064 006b 43524350 		.ascii	"CRCPR\000"
 4064      5200
 4065              	.LASF98:
 4066 0071 50555044 		.ascii	"PUPDR\000"
 4066      5200
 4067              	.LASF65:
ARM GAS  /var/folders/4k/6h5l9jl178sb4hslwv3xp1mr0000gn/T//ccnwyzoi.s 			page 73


 4068 0077 65786974 		.ascii	"exitcode\000"
 4068      636F6465 
 4068      00
 4069              	.LASF92:
 4070 0080 76656374 		.ascii	"vector\000"
 4070      6F7200
 4071              	.LASF111:
 4072 0087 53504944 		.ascii	"SPIDriver\000"
 4072      72697665 
 4072      7200
 4073              	.LASF122:
 4074 0091 7373706F 		.ascii	"ssport\000"
 4074      727400
 4075              	.LASF145:
 4076 0098 49544D5F 		.ascii	"ITM_RxBuffer\000"
 4076      52784275 
 4076      66666572 
 4076      00
 4077              	.LASF135:
 4078 00a5 72786275 		.ascii	"rxbuf\000"
 4078      6600
 4079              	.LASF30:
 4080 00ab 705F7072 		.ascii	"p_prio\000"
 4080      696F00
 4081              	.LASF123:
 4082 00b2 73737061 		.ascii	"sspad\000"
 4082      6400
 4083              	.LASF161:
 4084 00b8 63684D74 		.ascii	"chMtxUnlock\000"
 4084      78556E6C 
 4084      6F636B00 
 4085              	.LASF1:
 4086 00c4 7369676E 		.ascii	"signed char\000"
 4086      65642063 
 4086      68617200 
 4087              	.LASF99:
 4088 00d0 42535252 		.ascii	"BSRR\000"
 4088      00
 4089              	.LASF106:
 4090 00d5 5350495F 		.ascii	"SPI_STOP\000"
 4090      53544F50 
 4090      00
 4091              	.LASF83:
 4092 00de 49325343 		.ascii	"I2SCFGR\000"
 4092      46475200 
 4093              	.LASF160:
 4094 00e6 7370695F 		.ascii	"spi_lld_init\000"
 4094      6C6C645F 
 4094      696E6974 
 4094      00
 4095              	.LASF61:
 4096 00f3 6D5F7175 		.ascii	"m_queue\000"
 4096      65756500 
 4097              	.LASF22:
 4098 00fb 74736C69 		.ascii	"tslices_t\000"
 4098      6365735F 
 4098      7400
ARM GAS  /var/folders/4k/6h5l9jl178sb4hslwv3xp1mr0000gn/T//ccnwyzoi.s 			page 74


 4099              	.LASF120:
 4100 0105 73706963 		.ascii	"spicallback_t\000"
 4100      616C6C62 
 4100      61636B5F 
 4100      7400
 4101              	.LASF112:
 4102 0113 73746174 		.ascii	"state\000"
 4102      6500
 4103              	.LASF9:
 4104 0119 6C6F6E67 		.ascii	"long int\000"
 4104      20696E74 
 4104      00
 4105              	.LASF20:
 4106 0122 74737461 		.ascii	"tstate_t\000"
 4106      74655F74 
 4106      00
 4107              	.LASF137:
 4108 012b 73706953 		.ascii	"spiStartReceive\000"
 4108      74617274 
 4108      52656365 
 4108      69766500 
 4109              	.LASF152:
 4110 013b 7370695F 		.ascii	"spi_lld_exchange\000"
 4110      6C6C645F 
 4110      65786368 
 4110      616E6765 
 4110      00
 4111              	.LASF37:
 4112 014c 705F7265 		.ascii	"p_refs\000"
 4112      667300
 4113              	.LASF12:
 4114 0153 6C6F6E67 		.ascii	"long long int\000"
 4114      206C6F6E 
 4114      6720696E 
 4114      7400
 4115              	.LASF15:
 4116 0161 75696E74 		.ascii	"uint16_t\000"
 4116      31365F74 
 4116      00
 4117              	.LASF39:
 4118 016a 705F7469 		.ascii	"p_time\000"
 4118      6D6500
 4119              	.LASF132:
 4120 0171 73706953 		.ascii	"spiStartIgnore\000"
 4120      74617274 
 4120      49676E6F 
 4120      726500
 4121              	.LASF32:
 4122 0180 705F6E65 		.ascii	"p_newer\000"
 4122      77657200 
 4123              	.LASF121:
 4124 0188 656E645F 		.ascii	"end_cb\000"
 4124      636200
 4125              	.LASF118:
 4126 018f 7278646D 		.ascii	"rxdmamode\000"
 4126      616D6F64 
 4126      6500
ARM GAS  /var/folders/4k/6h5l9jl178sb4hslwv3xp1mr0000gn/T//ccnwyzoi.s 			page 75


 4127              	.LASF103:
 4128 0199 4750494F 		.ascii	"GPIO_TypeDef\000"
 4128      5F547970 
 4128      65446566 
 4128      00
 4129              	.LASF117:
 4130 01a6 646D6174 		.ascii	"dmatx\000"
 4130      7800
 4131              	.LASF97:
 4132 01ac 4F535045 		.ascii	"OSPEEDR\000"
 4132      45445200 
 4133              	.LASF56:
 4134 01b4 725F6E65 		.ascii	"r_newer\000"
 4134      77657200 
 4135              	.LASF46:
 4136 01bc 705F6D70 		.ascii	"p_mpool\000"
 4136      6F6F6C00 
 4137              	.LASF49:
 4138 01c4 72656761 		.ascii	"regarm_t\000"
 4138      726D5F74 
 4138      00
 4139              	.LASF91:
 4140 01cd 73656C66 		.ascii	"selfindex\000"
 4140      696E6465 
 4140      7800
 4141              	.LASF131:
 4142 01d7 73706955 		.ascii	"spiUnselect\000"
 4142      6E73656C 
 4142      65637400 
 4143              	.LASF144:
 4144 01e3 726C6973 		.ascii	"rlist\000"
 4144      7400
 4145              	.LASF153:
 4146 01e9 7370695F 		.ascii	"spi_lld_send\000"
 4146      6C6C645F 
 4146      73656E64 
 4146      00
 4147              	.LASF0:
 4148 01f6 756E7369 		.ascii	"unsigned int\000"
 4148      676E6564 
 4148      20696E74 
 4148      00
 4149              	.LASF148:
 4150 0203 7370695F 		.ascii	"spi_lld_unselect\000"
 4150      6C6C645F 
 4150      756E7365 
 4150      6C656374 
 4150      00
 4151              	.LASF134:
 4152 0214 74786275 		.ascii	"txbuf\000"
 4152      6600
 4153              	.LASF141:
 4154 021a 73706952 		.ascii	"spiReceive\000"
 4154      65636569 
 4154      766500
 4155              	.LASF41:
 4156 0225 705F6D73 		.ascii	"p_msgqueue\000"
ARM GAS  /var/folders/4k/6h5l9jl178sb4hslwv3xp1mr0000gn/T//ccnwyzoi.s 			page 76


 4156      67717565 
 4156      756500
 4157              	.LASF100:
 4158 0230 4C434B52 		.ascii	"LCKR\000"
 4158      00
 4159              	.LASF90:
 4160 0235 69736869 		.ascii	"ishift\000"
 4160      667400
 4161              	.LASF136:
 4162 023c 73706953 		.ascii	"spiStartSend\000"
 4162      74617274 
 4162      53656E64 
 4162      00
 4163              	.LASF51:
 4164 0249 636F6E74 		.ascii	"context\000"
 4164      65787400 
 4165              	.LASF7:
 4166 0251 73686F72 		.ascii	"short unsigned int\000"
 4166      7420756E 
 4166      7369676E 
 4166      65642069 
 4166      6E7400
 4167              	.LASF24:
 4168 0264 6D73675F 		.ascii	"msg_t\000"
 4168      7400
 4169              	.LASF19:
 4170 026a 746D6F64 		.ascii	"tmode_t\000"
 4170      655F7400 
 4171              	.LASF48:
 4172 0272 54687265 		.ascii	"ThreadsList\000"
 4172      6164734C 
 4172      69737400 
 4173              	.LASF25:
 4174 027e 6576656E 		.ascii	"eventmask_t\000"
 4174      746D6173 
 4174      6B5F7400 
 4175              	.LASF59:
 4176 028a 52656164 		.ascii	"ReadyList\000"
 4176      794C6973 
 4176      7400
 4177              	.LASF125:
 4178 0294 73706949 		.ascii	"spiInit\000"
 4178      6E697400 
 4179              	.LASF54:
 4180 029c 725F7072 		.ascii	"r_prio\000"
 4180      696F00
 4181              	.LASF139:
 4182 02a3 73706945 		.ascii	"spiExchange\000"
 4182      78636861 
 4182      6E676500 
 4183              	.LASF154:
 4184 02af 7370695F 		.ascii	"spi_lld_receive\000"
 4184      6C6C645F 
 4184      72656365 
 4184      69766500 
 4185              	.LASF85:
 4186 02bf 49325350 		.ascii	"I2SPR\000"
ARM GAS  /var/folders/4k/6h5l9jl178sb4hslwv3xp1mr0000gn/T//ccnwyzoi.s 			page 77


 4186      5200
 4187              	.LASF52:
 4188 02c5 73697A65 		.ascii	"sizetype\000"
 4188      74797065 
 4188      00
 4189              	.LASF94:
 4190 02ce 636C6561 		.ascii	"clear\000"
 4190      7200
 4191              	.LASF60:
 4192 02d4 4D757465 		.ascii	"Mutex\000"
 4192      7800
 4193              	.LASF149:
 4194 02da 7370695F 		.ascii	"spi_lld_stop\000"
 4194      6C6C645F 
 4194      73746F70 
 4194      00
 4195              	.LASF142:
 4196 02e7 73706941 		.ascii	"spiAcquireBus\000"
 4196      63717569 
 4196      72654275 
 4196      7300
 4197              	.LASF156:
 4198 02f5 63684D74 		.ascii	"chMtxLock\000"
 4198      784C6F63 
 4198      6B00
 4199              	.LASF33:
 4200 02ff 705F6F6C 		.ascii	"p_older\000"
 4200      64657200 
 4201              	.LASF55:
 4202 0307 725F6374 		.ascii	"r_ctx\000"
 4202      7800
 4203              	.LASF47:
 4204 030d 54687265 		.ascii	"ThreadsQueue\000"
 4204      61647351 
 4204      75657565 
 4204      00
 4205              	.LASF119:
 4206 031a 7478646D 		.ascii	"txdmamode\000"
 4206      616D6F64 
 4206      6500
 4207              	.LASF58:
 4208 0324 725F6375 		.ascii	"r_current\000"
 4208      7272656E 
 4208      7400
 4209              	.LASF57:
 4210 032e 725F6F6C 		.ascii	"r_older\000"
 4210      64657200 
 4211              	.LASF102:
 4212 0336 41465248 		.ascii	"AFRH\000"
 4212      00
 4213              	.LASF101:
 4214 033b 4146524C 		.ascii	"AFRL\000"
 4214      00
 4215              	.LASF81:
 4216 0340 54584352 		.ascii	"TXCRCR\000"
 4216      435200
 4217              	.LASF73:
ARM GAS  /var/folders/4k/6h5l9jl178sb4hslwv3xp1mr0000gn/T//ccnwyzoi.s 			page 78


 4218 0347 52455345 		.ascii	"RESERVED0\000"
 4218      52564544 
 4218      3000
 4219              	.LASF74:
 4220 0351 52455345 		.ascii	"RESERVED1\000"
 4220      52564544 
 4220      3100
 4221              	.LASF75:
 4222 035b 52455345 		.ascii	"RESERVED2\000"
 4222      52564544 
 4222      3200
 4223              	.LASF76:
 4224 0365 52455345 		.ascii	"RESERVED3\000"
 4224      52564544 
 4224      3300
 4225              	.LASF78:
 4226 036f 52455345 		.ascii	"RESERVED4\000"
 4226      52564544 
 4226      3400
 4227              	.LASF29:
 4228 0379 705F7072 		.ascii	"p_prev\000"
 4228      657600
 4229              	.LASF82:
 4230 0380 52455345 		.ascii	"RESERVED6\000"
 4230      52564544 
 4230      3600
 4231              	.LASF84:
 4232 038a 52455345 		.ascii	"RESERVED7\000"
 4232      52564544 
 4232      3700
 4233              	.LASF86:
 4234 0394 52455345 		.ascii	"RESERVED8\000"
 4234      52564544 
 4234      3800
 4235              	.LASF23:
 4236 039e 74707269 		.ascii	"tprio_t\000"
 4236      6F5F7400 
 4237              	.LASF115:
 4238 03a6 6D757465 		.ascii	"mutex\000"
 4238      7800
 4239              	.LASF18:
 4240 03ac 5F426F6F 		.ascii	"_Bool\000"
 4240      6C00
 4241              	.LASF16:
 4242 03b2 696E7433 		.ascii	"int32_t\000"
 4242      325F7400 
 4243              	.LASF4:
 4244 03ba 756E7369 		.ascii	"unsigned char\000"
 4244      676E6564 
 4244      20636861 
 4244      7200
 4245              	.LASF93:
 4246 03c8 73746D33 		.ascii	"stm32_dma_stream_t\000"
 4246      325F646D 
 4246      615F7374 
 4246      7265616D 
 4246      5F7400
ARM GAS  /var/folders/4k/6h5l9jl178sb4hslwv3xp1mr0000gn/T//ccnwyzoi.s 			page 79


 4247              	.LASF157:
 4248 03db 474E5520 		.ascii	"GNU C 4.8.3 20140228 (release) [ARM/embedded-4_8-br"
 4248      4320342E 
 4248      382E3320 
 4248      32303134 
 4248      30323238 
 4249 040e 616E6368 		.ascii	"anch revision 208322] -mcpu=cortex-m4 -mno-thumb-in"
 4249      20726576 
 4249      6973696F 
 4249      6E203230 
 4249      38333232 
 4250 0441 74657277 		.ascii	"terwork -mthumb -ggdb -O2 -fomit-frame-pointer -fal"
 4250      6F726B20 
 4250      2D6D7468 
 4250      756D6220 
 4250      2D676764 
 4251 0474 69676E2D 		.ascii	"ign-functions=16 -ffunction-sections -fdata-section"
 4251      66756E63 
 4251      74696F6E 
 4251      733D3136 
 4251      202D6666 
 4252 04a7 73202D66 		.ascii	"s -fno-common\000"
 4252      6E6F2D63 
 4252      6F6D6D6F 
 4252      6E00
 4253              	.LASF44:
 4254 04b5 705F6D74 		.ascii	"p_mtxlist\000"
 4254      786C6973 
 4254      7400
 4255              	.LASF5:
 4256 04bf 73686F72 		.ascii	"short int\000"
 4256      7420696E 
 4256      7400
 4257              	.LASF35:
 4258 04c9 705F7374 		.ascii	"p_state\000"
 4258      61746500 
 4259              	.LASF38:
 4260 04d1 705F7072 		.ascii	"p_preempt\000"
 4260      65656D70 
 4260      7400
 4261              	.LASF126:
 4262 04db 7370694F 		.ascii	"spiObjectInit\000"
 4262      626A6563 
 4262      74496E69 
 4262      7400
 4263              	.LASF67:
 4264 04e9 65776D61 		.ascii	"ewmask\000"
 4264      736B00
 4265              	.LASF28:
 4266 04f0 705F6E65 		.ascii	"p_next\000"
 4266      787400
 4267              	.LASF36:
 4268 04f7 705F666C 		.ascii	"p_flags\000"
 4268      61677300 
 4269              	.LASF27:
 4270 04ff 54687265 		.ascii	"Thread\000"
 4270      616400
ARM GAS  /var/folders/4k/6h5l9jl178sb4hslwv3xp1mr0000gn/T//ccnwyzoi.s 			page 80


 4271              	.LASF159:
 4272 0506 2F557365 		.ascii	"/Users/mikevanis/Documents/workspace/STM32_DCMI_CAM"
 4272      72732F6D 
 4272      696B6576 
 4272      616E6973 
 4272      2F446F63 
 4273 0539 4552412F 		.ascii	"ERA/\000"
 4273      00
 4274              	.LASF155:
 4275 053e 63685363 		.ascii	"chSchGoSleepS\000"
 4275      68476F53 
 4275      6C656570 
 4275      5300
 4276              	.LASF43:
 4277 054c 705F6570 		.ascii	"p_epending\000"
 4277      656E6469 
 4277      6E6700
 4278              	.LASF89:
 4279 0557 69666372 		.ascii	"ifcr\000"
 4279      00
 4280              	.LASF80:
 4281 055c 52455345 		.ascii	"RESERVED5\000"
 4281      52564544 
 4281      3500
 4282              	.LASF17:
 4283 0566 75696E74 		.ascii	"uint32_t\000"
 4283      33325F74 
 4283      00
 4284              	.LASF53:
 4285 056f 725F7175 		.ascii	"r_queue\000"
 4285      65756500 
 4286              	.LASF21:
 4287 0577 74726566 		.ascii	"trefs_t\000"
 4287      735F7400 
 4288              	.LASF11:
 4289 057f 6C6F6E67 		.ascii	"long unsigned int\000"
 4289      20756E73 
 4289      69676E65 
 4289      6420696E 
 4289      7400
 4290              	.LASF87:
 4291 0591 5350495F 		.ascii	"SPI_TypeDef\000"
 4291      54797065 
 4291      44656600 
 4292              	.LASF68:
 4293 059d 63686172 		.ascii	"char\000"
 4293      00
 4294              	.LASF109:
 4295 05a2 5350495F 		.ascii	"SPI_COMPLETE\000"
 4295      434F4D50 
 4295      4C455445 
 4295      00
 4296              	.LASF113:
 4297 05af 636F6E66 		.ascii	"config\000"
 4297      696700
 4298              	.LASF6:
 4299 05b6 5F5F7569 		.ascii	"__uint16_t\000"
ARM GAS  /var/folders/4k/6h5l9jl178sb4hslwv3xp1mr0000gn/T//ccnwyzoi.s 			page 81


 4299      6E743136 
 4299      5F7400
 4300              	.LASF110:
 4301 05c1 73706973 		.ascii	"spistate_t\000"
 4301      74617465 
 4301      5F7400
 4302              	.LASF63:
 4303 05cc 6D5F6E65 		.ascii	"m_next\000"
 4303      787400
 4304              	.LASF26:
 4305 05d3 73797374 		.ascii	"systime_t\000"
 4305      696D655F 
 4305      7400
 4306              	.LASF45:
 4307 05dd 705F7265 		.ascii	"p_realprio\000"
 4307      616C7072 
 4307      696F00
 4308              	.LASF8:
 4309 05e8 5F5F696E 		.ascii	"__int32_t\000"
 4309      7433325F 
 4309      7400
 4310              	.LASF10:
 4311 05f2 5F5F7569 		.ascii	"__uint32_t\000"
 4311      6E743332 
 4311      5F7400
 4312              	.LASF114:
 4313 05fd 74687265 		.ascii	"thread\000"
 4313      616400
 4314              	.LASF69:
 4315 0604 4E445452 		.ascii	"NDTR\000"
 4315      00
 4316              	.LASF143:
 4317 0609 73706952 		.ascii	"spiReleaseBus\000"
 4317      656C6561 
 4317      73654275 
 4317      7300
 4318              	.LASF138:
 4319 0617 73706949 		.ascii	"spiIgnore\000"
 4319      676E6F72 
 4319      6500
 4320              	.LASF72:
 4321 0621 444D415F 		.ascii	"DMA_Stream_TypeDef\000"
 4321      53747265 
 4321      616D5F54 
 4321      79706544 
 4321      656600
 4322              	.LASF104:
 4323 0634 696F706F 		.ascii	"ioportid_t\000"
 4323      72746964 
 4323      5F7400
 4324              	.LASF150:
 4325 063f 7370695F 		.ascii	"spi_lld_select\000"
 4325      6C6C645F 
 4325      73656C65 
 4325      637400
 4326              	.LASF127:
 4327 064e 73706953 		.ascii	"spiStart\000"
ARM GAS  /var/folders/4k/6h5l9jl178sb4hslwv3xp1mr0000gn/T//ccnwyzoi.s 			page 82


 4327      74617274 
 4327      00
 4328              	.LASF130:
 4329 0657 73706953 		.ascii	"spiSelect\000"
 4329      656C6563 
 4329      7400
 4330              	.LASF50:
 4331 0661 696E7463 		.ascii	"intctx\000"
 4331      747800
 4332              	.LASF71:
 4333 0668 4D314152 		.ascii	"M1AR\000"
 4333      00
 4334              	.LASF105:
 4335 066d 5350495F 		.ascii	"SPI_UNINIT\000"
 4335      554E494E 
 4335      495400
 4336              	.LASF146:
 4337 0678 63684D74 		.ascii	"chMtxInit\000"
 4337      78496E69 
 4337      7400
 4338              	.LASF151:
 4339 0682 7370695F 		.ascii	"spi_lld_ignore\000"
 4339      6C6C645F 
 4339      69676E6F 
 4339      726500
 4340              	.LASF133:
 4341 0691 73706953 		.ascii	"spiStartExchange\000"
 4341      74617274 
 4341      45786368 
 4341      616E6765 
 4341      00
 4342              	.LASF79:
 4343 06a2 52584352 		.ascii	"RXCRCR\000"
 4343      435200
 4344              	.LASF147:
 4345 06a9 7370695F 		.ascii	"spi_lld_start\000"
 4345      6C6C645F 
 4345      73746172 
 4345      7400
 4346              	.LASF14:
 4347 06b7 75696E74 		.ascii	"uint8_t\000"
 4347      385F7400 
 4348              	.LASF128:
 4349 06bf 73706970 		.ascii	"spip\000"
 4349      00
 4350              	.LASF158:
 4351 06c4 2E2E2F43 		.ascii	"../ChibiStudio/ChibiOS/os/hal/src/spi.c\000"
 4351      68696269 
 4351      53747564 
 4351      696F2F43 
 4351      68696269 
 4352              	.LASF66:
 4353 06ec 77746F62 		.ascii	"wtobjp\000"
 4353      6A7000
 4354              	.LASF34:
 4355 06f3 705F6E61 		.ascii	"p_name\000"
 4355      6D6500
ARM GAS  /var/folders/4k/6h5l9jl178sb4hslwv3xp1mr0000gn/T//ccnwyzoi.s 			page 83


 4356              	.LASF140:
 4357 06fa 73706953 		.ascii	"spiSend\000"
 4357      656E6400 
 4358              	.LASF124:
 4359 0702 53504943 		.ascii	"SPIConfig\000"
 4359      6F6E6669 
 4359      6700
 4360              	.LASF42:
 4361 070c 705F6D73 		.ascii	"p_msg\000"
 4361      6700
 4362              	.LASF62:
 4363 0712 6D5F6F77 		.ascii	"m_owner\000"
 4363      6E657200 
 4364              	.LASF31:
 4365 071a 705F6374 		.ascii	"p_ctx\000"
 4365      7800
 4366              	.LASF40:
 4367 0720 705F7761 		.ascii	"p_waiting\000"
 4367      6974696E 
 4367      6700
 4368              		.ident	"GCC: (GNU Tools for ARM Embedded Processors) 4.8.3 20140228 (release) [ARM/embedded-4_8-br
ARM GAS  /var/folders/4k/6h5l9jl178sb4hslwv3xp1mr0000gn/T//ccnwyzoi.s 			page 84


DEFINED SYMBOLS
                            *ABS*:0000000000000000 spi.c
/var/folders/4k/6h5l9jl178sb4hslwv3xp1mr0000gn/T//ccnwyzoi.s:19     .text.spiInit:0000000000000000 $t
/var/folders/4k/6h5l9jl178sb4hslwv3xp1mr0000gn/T//ccnwyzoi.s:25     .text.spiInit:0000000000000000 spiInit
/var/folders/4k/6h5l9jl178sb4hslwv3xp1mr0000gn/T//ccnwyzoi.s:40     .text.spiObjectInit:0000000000000000 $t
/var/folders/4k/6h5l9jl178sb4hslwv3xp1mr0000gn/T//ccnwyzoi.s:46     .text.spiObjectInit:0000000000000000 spiObjectInit
/var/folders/4k/6h5l9jl178sb4hslwv3xp1mr0000gn/T//ccnwyzoi.s:72     .text.spiStart:0000000000000000 $t
/var/folders/4k/6h5l9jl178sb4hslwv3xp1mr0000gn/T//ccnwyzoi.s:78     .text.spiStart:0000000000000000 spiStart
/var/folders/4k/6h5l9jl178sb4hslwv3xp1mr0000gn/T//ccnwyzoi.s:123    .text.spiStop:0000000000000000 $t
/var/folders/4k/6h5l9jl178sb4hslwv3xp1mr0000gn/T//ccnwyzoi.s:129    .text.spiStop:0000000000000000 spiStop
/var/folders/4k/6h5l9jl178sb4hslwv3xp1mr0000gn/T//ccnwyzoi.s:176    .text.spiSelect:0000000000000000 $t
/var/folders/4k/6h5l9jl178sb4hslwv3xp1mr0000gn/T//ccnwyzoi.s:182    .text.spiSelect:0000000000000000 spiSelect
/var/folders/4k/6h5l9jl178sb4hslwv3xp1mr0000gn/T//ccnwyzoi.s:217    .text.spiUnselect:0000000000000000 $t
/var/folders/4k/6h5l9jl178sb4hslwv3xp1mr0000gn/T//ccnwyzoi.s:223    .text.spiUnselect:0000000000000000 spiUnselect
/var/folders/4k/6h5l9jl178sb4hslwv3xp1mr0000gn/T//ccnwyzoi.s:258    .text.spiStartIgnore:0000000000000000 $t
/var/folders/4k/6h5l9jl178sb4hslwv3xp1mr0000gn/T//ccnwyzoi.s:264    .text.spiStartIgnore:0000000000000000 spiStartIgnore
/var/folders/4k/6h5l9jl178sb4hslwv3xp1mr0000gn/T//ccnwyzoi.s:301    .text.spiStartExchange:0000000000000000 $t
/var/folders/4k/6h5l9jl178sb4hslwv3xp1mr0000gn/T//ccnwyzoi.s:307    .text.spiStartExchange:0000000000000000 spiStartExchange
/var/folders/4k/6h5l9jl178sb4hslwv3xp1mr0000gn/T//ccnwyzoi.s:350    .text.spiStartSend:0000000000000000 $t
/var/folders/4k/6h5l9jl178sb4hslwv3xp1mr0000gn/T//ccnwyzoi.s:356    .text.spiStartSend:0000000000000000 spiStartSend
/var/folders/4k/6h5l9jl178sb4hslwv3xp1mr0000gn/T//ccnwyzoi.s:393    .text.spiStartReceive:0000000000000000 $t
/var/folders/4k/6h5l9jl178sb4hslwv3xp1mr0000gn/T//ccnwyzoi.s:399    .text.spiStartReceive:0000000000000000 spiStartReceive
/var/folders/4k/6h5l9jl178sb4hslwv3xp1mr0000gn/T//ccnwyzoi.s:436    .text.spiIgnore:0000000000000000 $t
/var/folders/4k/6h5l9jl178sb4hslwv3xp1mr0000gn/T//ccnwyzoi.s:442    .text.spiIgnore:0000000000000000 spiIgnore
/var/folders/4k/6h5l9jl178sb4hslwv3xp1mr0000gn/T//ccnwyzoi.s:490    .text.spiIgnore:0000000000000028 $d
/var/folders/4k/6h5l9jl178sb4hslwv3xp1mr0000gn/T//ccnwyzoi.s:496    .text.spiExchange:0000000000000000 $t
/var/folders/4k/6h5l9jl178sb4hslwv3xp1mr0000gn/T//ccnwyzoi.s:502    .text.spiExchange:0000000000000000 spiExchange
/var/folders/4k/6h5l9jl178sb4hslwv3xp1mr0000gn/T//ccnwyzoi.s:554    .text.spiExchange:000000000000002c $d
/var/folders/4k/6h5l9jl178sb4hslwv3xp1mr0000gn/T//ccnwyzoi.s:560    .text.spiSend:0000000000000000 $t
/var/folders/4k/6h5l9jl178sb4hslwv3xp1mr0000gn/T//ccnwyzoi.s:566    .text.spiSend:0000000000000000 spiSend
/var/folders/4k/6h5l9jl178sb4hslwv3xp1mr0000gn/T//ccnwyzoi.s:614    .text.spiSend:0000000000000028 $d
/var/folders/4k/6h5l9jl178sb4hslwv3xp1mr0000gn/T//ccnwyzoi.s:620    .text.spiReceive:0000000000000000 $t
/var/folders/4k/6h5l9jl178sb4hslwv3xp1mr0000gn/T//ccnwyzoi.s:626    .text.spiReceive:0000000000000000 spiReceive
/var/folders/4k/6h5l9jl178sb4hslwv3xp1mr0000gn/T//ccnwyzoi.s:674    .text.spiReceive:0000000000000028 $d
/var/folders/4k/6h5l9jl178sb4hslwv3xp1mr0000gn/T//ccnwyzoi.s:680    .text.spiAcquireBus:0000000000000000 $t
/var/folders/4k/6h5l9jl178sb4hslwv3xp1mr0000gn/T//ccnwyzoi.s:686    .text.spiAcquireBus:0000000000000000 spiAcquireBus
/var/folders/4k/6h5l9jl178sb4hslwv3xp1mr0000gn/T//ccnwyzoi.s:703    .text.spiReleaseBus:0000000000000000 $t
/var/folders/4k/6h5l9jl178sb4hslwv3xp1mr0000gn/T//ccnwyzoi.s:709    .text.spiReleaseBus:0000000000000000 spiReleaseBus
                     .debug_frame:0000000000000010 $d
/var/folders/4k/6h5l9jl178sb4hslwv3xp1mr0000gn/T//ccnwyzoi.s:495    .text.spiIgnore:000000000000002c $t
/var/folders/4k/6h5l9jl178sb4hslwv3xp1mr0000gn/T//ccnwyzoi.s:619    .text.spiSend:000000000000002c $t
/var/folders/4k/6h5l9jl178sb4hslwv3xp1mr0000gn/T//ccnwyzoi.s:679    .text.spiReceive:000000000000002c $t

UNDEFINED SYMBOLS
spi_lld_init
chMtxInit
spi_lld_start
spi_lld_unselect
spi_lld_stop
spi_lld_select
spi_lld_ignore
spi_lld_exchange
spi_lld_send
spi_lld_receive
chSchGoSleepS
rlist
chMtxLock
ARM GAS  /var/folders/4k/6h5l9jl178sb4hslwv3xp1mr0000gn/T//ccnwyzoi.s 			page 85


chMtxUnlock
