ARM GAS  /var/folders/4k/6h5l9jl178sb4hslwv3xp1mr0000gn/T//ccnwyzoi.s 			page 1


   1              		.syntax unified
   2              		.cpu cortex-m4
   3              		.fpu softvfp
   4              		.eabi_attribute 20, 1
   5              		.eabi_attribute 21, 1
   6              		.eabi_attribute 23, 3
   7              		.eabi_attribute 24, 1
   8              		.eabi_attribute 25, 1
   9              		.eabi_attribute 26, 1
  10              		.eabi_attribute 30, 2
  11              		.eabi_attribute 34, 1
  12              		.eabi_attribute 18, 4
  13              		.thumb
  14              		.file	"spi.c"
  15              		.text
  16              	.Ltext0:
  17              		.cfi_sections	.debug_frame
  18              		.section	.text.spiInit,"ax",%progbits
  19              		.align	2
  20              		.p2align 4,,15
  21              		.global	spiInit
  22              		.thumb
  23              		.thumb_func
  24              		.type	spiInit, %function
  25              	spiInit:
  26              	.LFB118:
  27              		.file 1 "../ChibiStudio/ChibiOS/os/hal/src/spi.c"
  28              		.loc 1 68 0
  29              		.cfi_startproc
  30              		@ args = 0, pretend = 0, frame = 0
  31              		@ frame_needed = 0, uses_anonymous_args = 0
  32              		@ link register save eliminated.
  33              		.loc 1 70 0
  34 0000 FFF7FEBF 		b	spi_lld_init
  35              	.LVL0:
  36              		.cfi_endproc
  37              	.LFE118:
  38              		.size	spiInit, .-spiInit
  39 0004 AFF30080 		.section	.text.spiObjectInit,"ax",%progbits
  39      AFF30080 
  39      AFF30080 
  40              		.align	2
  41              		.p2align 4,,15
  42              		.global	spiObjectInit
  43              		.thumb
  44              		.thumb_func
  45              		.type	spiObjectInit, %function
  46              	spiObjectInit:
  47              	.LFB119:
  48              		.loc 1 80 0
  49              		.cfi_startproc
  50              		@ args = 0, pretend = 0, frame = 0
  51              		@ frame_needed = 0, uses_anonymous_args = 0
  52              		@ link register save eliminated.
  53              	.LVL1:
  54              		.loc 1 83 0
  55 0000 0023     		movs	r3, #0
ARM GAS  /var/folders/4k/6h5l9jl178sb4hslwv3xp1mr0000gn/T//ccnwyzoi.s 			page 2


  56              		.loc 1 82 0
  57 0002 0122     		movs	r2, #1
  58 0004 0270     		strb	r2, [r0]
  59              		.loc 1 83 0
  60 0006 4360     		str	r3, [r0, #4]
  61              		.loc 1 85 0
  62 0008 8360     		str	r3, [r0, #8]
  63              		.loc 1 89 0
  64 000a 0C30     		adds	r0, r0, #12
  65              	.LVL2:
  66 000c FFF7FEBF 		b	chMtxInit
  67              	.LVL3:
  68              		.cfi_endproc
  69              	.LFE119:
  70              		.size	spiObjectInit, .-spiObjectInit
  71              		.section	.text.spiStart,"ax",%progbits
  72              		.align	2
  73              		.p2align 4,,15
  74              		.global	spiStart
  75              		.thumb
  76              		.thumb_func
  77              		.type	spiStart, %function
  78              	spiStart:
  79              	.LFB120:
  80              		.loc 1 107 0
  81              		.cfi_startproc
  82              		@ args = 0, pretend = 0, frame = 0
  83              		@ frame_needed = 0, uses_anonymous_args = 0
  84              	.LVL4:
  85 0000 10B5     		push	{r4, lr}
  86              		.cfi_def_cfa_offset 8
  87              		.cfi_offset 4, -8
  88              		.cfi_offset 14, -4
  89              	.LBB2:
  90              		.loc 1 111 0
  91 0002 2023     		movs	r3, #32
  92              	.LBE2:
  93              		.loc 1 107 0
  94 0004 0446     		mov	r4, r0
  95              	.LBB3:
  96              		.loc 1 111 0
  97              	@ 111 "../ChibiStudio/ChibiOS/os/hal/src/spi.c" 1
  98 0006 83F31188 		msr     BASEPRI, r3
  99              	@ 0 "" 2
 100              		.thumb
 101              	.LBE3:
 102              		.loc 1 114 0
 103 000a 4160     		str	r1, [r0, #4]
 104              		.loc 1 115 0
 105 000c FFF7FEFF 		bl	spi_lld_start
 106              	.LVL5:
 107              		.loc 1 116 0
 108 0010 0223     		movs	r3, #2
 109 0012 2370     		strb	r3, [r4]
 110              	.LBB4:
 111              		.loc 1 117 0
 112 0014 0023     		movs	r3, #0
ARM GAS  /var/folders/4k/6h5l9jl178sb4hslwv3xp1mr0000gn/T//ccnwyzoi.s 			page 3


 113              	@ 117 "../ChibiStudio/ChibiOS/os/hal/src/spi.c" 1
 114 0016 83F31188 		msr     BASEPRI, r3
 115              	@ 0 "" 2
 116              		.thumb
 117 001a 10BD     		pop	{r4, pc}
 118              	.LBE4:
 119              		.cfi_endproc
 120              	.LFE120:
 121              		.size	spiStart, .-spiStart
 122 001c AFF30080 		.section	.text.spiStop,"ax",%progbits
 123              		.align	2
 124              		.p2align 4,,15
 125              		.global	spiStop
 126              		.thumb
 127              		.thumb_func
 128              		.type	spiStop, %function
 129              	spiStop:
 130              	.LFB121:
 131              		.loc 1 129 0
 132              		.cfi_startproc
 133              		@ args = 0, pretend = 0, frame = 0
 134              		@ frame_needed = 0, uses_anonymous_args = 0
 135              	.LVL6:
 136 0000 10B5     		push	{r4, lr}
 137              		.cfi_def_cfa_offset 8
 138              		.cfi_offset 4, -8
 139              		.cfi_offset 14, -4
 140              	.LBB5:
 141              		.loc 1 133 0
 142 0002 2023     		movs	r3, #32
 143              	.LBE5:
 144              		.loc 1 129 0
 145 0004 0446     		mov	r4, r0
 146              	.LBB6:
 147              		.loc 1 133 0
 148              	@ 133 "../ChibiStudio/ChibiOS/os/hal/src/spi.c" 1
 149 0006 83F31188 		msr     BASEPRI, r3
 150              	@ 0 "" 2
 151              		.thumb
 152              	.LBE6:
 153              		.loc 1 136 0
 154 000a FFF7FEFF 		bl	spi_lld_unselect
 155              	.LVL7:
 156              		.loc 1 137 0
 157 000e 2046     		mov	r0, r4
 158 0010 FFF7FEFF 		bl	spi_lld_stop
 159              	.LVL8:
 160              		.loc 1 138 0
 161 0014 0123     		movs	r3, #1
 162 0016 2370     		strb	r3, [r4]
 163              	.LBB7:
 164              		.loc 1 139 0
 165 0018 0023     		movs	r3, #0
 166              	@ 139 "../ChibiStudio/ChibiOS/os/hal/src/spi.c" 1
 167 001a 83F31188 		msr     BASEPRI, r3
 168              	@ 0 "" 2
 169              		.thumb
ARM GAS  /var/folders/4k/6h5l9jl178sb4hslwv3xp1mr0000gn/T//ccnwyzoi.s 			page 4


 170 001e 10BD     		pop	{r4, pc}
 171              	.LBE7:
 172              		.cfi_endproc
 173              	.LFE121:
 174              		.size	spiStop, .-spiStop
 175              		.section	.text.spiSelect,"ax",%progbits
 176              		.align	2
 177              		.p2align 4,,15
 178              		.global	spiSelect
 179              		.thumb
 180              		.thumb_func
 181              		.type	spiSelect, %function
 182              	spiSelect:
 183              	.LFB122:
 184              		.loc 1 149 0
 185              		.cfi_startproc
 186              		@ args = 0, pretend = 0, frame = 0
 187              		@ frame_needed = 0, uses_anonymous_args = 0
 188              	.LVL9:
 189 0000 08B5     		push	{r3, lr}
 190              		.cfi_def_cfa_offset 8
 191              		.cfi_offset 3, -8
 192              		.cfi_offset 14, -4
 193              	.LBB8:
 194              		.loc 1 153 0
 195 0002 2023     		movs	r3, #32
 196              	@ 153 "../ChibiStudio/ChibiOS/os/hal/src/spi.c" 1
 197 0004 83F31188 		msr     BASEPRI, r3
 198              	@ 0 "" 2
 199              		.thumb
 200              	.LBE8:
 201              		.loc 1 155 0
 202 0008 FFF7FEFF 		bl	spi_lld_select
 203              	.LVL10:
 204              	.LBB9:
 205              		.loc 1 156 0
 206 000c 0023     		movs	r3, #0
 207              	@ 156 "../ChibiStudio/ChibiOS/os/hal/src/spi.c" 1
 208 000e 83F31188 		msr     BASEPRI, r3
 209              	@ 0 "" 2
 210              		.thumb
 211 0012 08BD     		pop	{r3, pc}
 212              	.LBE9:
 213              		.cfi_endproc
 214              	.LFE122:
 215              		.size	spiSelect, .-spiSelect
 216 0014 AFF30080 		.section	.text.spiUnselect,"ax",%progbits
 216      AFF30080 
 216      AFF30080 
 217              		.align	2
 218              		.p2align 4,,15
 219              		.global	spiUnselect
 220              		.thumb
 221              		.thumb_func
 222              		.type	spiUnselect, %function
 223              	spiUnselect:
 224              	.LFB123:
ARM GAS  /var/folders/4k/6h5l9jl178sb4hslwv3xp1mr0000gn/T//ccnwyzoi.s 			page 5


 225              		.loc 1 167 0
 226              		.cfi_startproc
 227              		@ args = 0, pretend = 0, frame = 0
 228              		@ frame_needed = 0, uses_anonymous_args = 0
 229              	.LVL11:
 230 0000 08B5     		push	{r3, lr}
 231              		.cfi_def_cfa_offset 8
 232              		.cfi_offset 3, -8
 233              		.cfi_offset 14, -4
 234              	.LBB10:
 235              		.loc 1 171 0
 236 0002 2023     		movs	r3, #32
 237              	@ 171 "../ChibiStudio/ChibiOS/os/hal/src/spi.c" 1
 238 0004 83F31188 		msr     BASEPRI, r3
 239              	@ 0 "" 2
 240              		.thumb
 241              	.LBE10:
 242              		.loc 1 173 0
 243 0008 FFF7FEFF 		bl	spi_lld_unselect
 244              	.LVL12:
 245              	.LBB11:
 246              		.loc 1 174 0
 247 000c 0023     		movs	r3, #0
 248              	@ 174 "../ChibiStudio/ChibiOS/os/hal/src/spi.c" 1
 249 000e 83F31188 		msr     BASEPRI, r3
 250              	@ 0 "" 2
 251              		.thumb
 252 0012 08BD     		pop	{r3, pc}
 253              	.LBE11:
 254              		.cfi_endproc
 255              	.LFE123:
 256              		.size	spiUnselect, .-spiUnselect
 257 0014 AFF30080 		.section	.text.spiStartIgnore,"ax",%progbits
 257      AFF30080 
 257      AFF30080 
 258              		.align	2
 259              		.p2align 4,,15
 260              		.global	spiStartIgnore
 261              		.thumb
 262              		.thumb_func
 263              		.type	spiStartIgnore, %function
 264              	spiStartIgnore:
 265              	.LFB124:
 266              		.loc 1 190 0
 267              		.cfi_startproc
 268              		@ args = 0, pretend = 0, frame = 0
 269              		@ frame_needed = 0, uses_anonymous_args = 0
 270              	.LVL13:
 271 0000 08B5     		push	{r3, lr}
 272              		.cfi_def_cfa_offset 8
 273              		.cfi_offset 3, -8
 274              		.cfi_offset 14, -4
 275              	.LBB12:
 276              		.loc 1 194 0
 277 0002 2023     		movs	r3, #32
 278              	@ 194 "../ChibiStudio/ChibiOS/os/hal/src/spi.c" 1
 279 0004 83F31188 		msr     BASEPRI, r3
ARM GAS  /var/folders/4k/6h5l9jl178sb4hslwv3xp1mr0000gn/T//ccnwyzoi.s 			page 6


 280              	@ 0 "" 2
 281              		.thumb
 282              	.LBE12:
 283              		.loc 1 196 0
 284 0008 0323     		movs	r3, #3
 285 000a 0370     		strb	r3, [r0]
 286 000c FFF7FEFF 		bl	spi_lld_ignore
 287              	.LVL14:
 288              	.LBB13:
 289              		.loc 1 197 0
 290 0010 0023     		movs	r3, #0
 291              	@ 197 "../ChibiStudio/ChibiOS/os/hal/src/spi.c" 1
 292 0012 83F31188 		msr     BASEPRI, r3
 293              	@ 0 "" 2
 294              		.thumb
 295 0016 08BD     		pop	{r3, pc}
 296              	.LBE13:
 297              		.cfi_endproc
 298              	.LFE124:
 299              		.size	spiStartIgnore, .-spiStartIgnore
 300 0018 AFF30080 		.section	.text.spiStartExchange,"ax",%progbits
 300      AFF30080 
 301              		.align	2
 302              		.p2align 4,,15
 303              		.global	spiStartExchange
 304              		.thumb
 305              		.thumb_func
 306              		.type	spiStartExchange, %function
 307              	spiStartExchange:
 308              	.LFB125:
 309              		.loc 1 218 0
 310              		.cfi_startproc
 311              		@ args = 0, pretend = 0, frame = 0
 312              		@ frame_needed = 0, uses_anonymous_args = 0
 313              	.LVL15:
 314 0000 38B5     		push	{r3, r4, r5, lr}
 315              		.cfi_def_cfa_offset 16
 316              		.cfi_offset 3, -16
 317              		.cfi_offset 4, -12
 318              		.cfi_offset 5, -8
 319              		.cfi_offset 14, -4
 320              		.loc 1 218 0
 321 0002 1C46     		mov	r4, r3
 322              	.LBB14:
 323              		.loc 1 223 0
 324 0004 2023     		movs	r3, #32
 325              	.LVL16:
 326              	@ 223 "../ChibiStudio/ChibiOS/os/hal/src/spi.c" 1
 327 0006 83F31188 		msr     BASEPRI, r3
 328              	@ 0 "" 2
 329              		.thumb
 330              	.LBE14:
 331              		.loc 1 225 0
 332 000a 0325     		movs	r5, #3
 333 000c 2346     		mov	r3, r4
 334 000e 0570     		strb	r5, [r0]
 335 0010 FFF7FEFF 		bl	spi_lld_exchange
ARM GAS  /var/folders/4k/6h5l9jl178sb4hslwv3xp1mr0000gn/T//ccnwyzoi.s 			page 7


 336              	.LVL17:
 337              	.LBB15:
 338              		.loc 1 226 0
 339 0014 0023     		movs	r3, #0
 340              	@ 226 "../ChibiStudio/ChibiOS/os/hal/src/spi.c" 1
 341 0016 83F31188 		msr     BASEPRI, r3
 342              	@ 0 "" 2
 343              		.thumb
 344 001a 38BD     		pop	{r3, r4, r5, pc}
 345              	.LBE15:
 346              		.cfi_endproc
 347              	.LFE125:
 348              		.size	spiStartExchange, .-spiStartExchange
 349 001c AFF30080 		.section	.text.spiStartSend,"ax",%progbits
 350              		.align	2
 351              		.p2align 4,,15
 352              		.global	spiStartSend
 353              		.thumb
 354              		.thumb_func
 355              		.type	spiStartSend, %function
 356              	spiStartSend:
 357              	.LFB126:
 358              		.loc 1 244 0
 359              		.cfi_startproc
 360              		@ args = 0, pretend = 0, frame = 0
 361              		@ frame_needed = 0, uses_anonymous_args = 0
 362              	.LVL18:
 363 0000 08B5     		push	{r3, lr}
 364              		.cfi_def_cfa_offset 8
 365              		.cfi_offset 3, -8
 366              		.cfi_offset 14, -4
 367              	.LBB16:
 368              		.loc 1 249 0
 369 0002 2023     		movs	r3, #32
 370              	@ 249 "../ChibiStudio/ChibiOS/os/hal/src/spi.c" 1
 371 0004 83F31188 		msr     BASEPRI, r3
 372              	@ 0 "" 2
 373              		.thumb
 374              	.LBE16:
 375              		.loc 1 251 0
 376 0008 0323     		movs	r3, #3
 377 000a 0370     		strb	r3, [r0]
 378 000c FFF7FEFF 		bl	spi_lld_send
 379              	.LVL19:
 380              	.LBB17:
 381              		.loc 1 252 0
 382 0010 0023     		movs	r3, #0
 383              	@ 252 "../ChibiStudio/ChibiOS/os/hal/src/spi.c" 1
 384 0012 83F31188 		msr     BASEPRI, r3
 385              	@ 0 "" 2
 386              		.thumb
 387 0016 08BD     		pop	{r3, pc}
 388              	.LBE17:
 389              		.cfi_endproc
 390              	.LFE126:
 391              		.size	spiStartSend, .-spiStartSend
 392 0018 AFF30080 		.section	.text.spiStartReceive,"ax",%progbits
ARM GAS  /var/folders/4k/6h5l9jl178sb4hslwv3xp1mr0000gn/T//ccnwyzoi.s 			page 8


 392      AFF30080 
 393              		.align	2
 394              		.p2align 4,,15
 395              		.global	spiStartReceive
 396              		.thumb
 397              		.thumb_func
 398              		.type	spiStartReceive, %function
 399              	spiStartReceive:
 400              	.LFB127:
 401              		.loc 1 270 0
 402              		.cfi_startproc
 403              		@ args = 0, pretend = 0, frame = 0
 404              		@ frame_needed = 0, uses_anonymous_args = 0
 405              	.LVL20:
 406 0000 08B5     		push	{r3, lr}
 407              		.cfi_def_cfa_offset 8
 408              		.cfi_offset 3, -8
 409              		.cfi_offset 14, -4
 410              	.LBB18:
 411              		.loc 1 275 0
 412 0002 2023     		movs	r3, #32
 413              	@ 275 "../ChibiStudio/ChibiOS/os/hal/src/spi.c" 1
 414 0004 83F31188 		msr     BASEPRI, r3
 415              	@ 0 "" 2
 416              		.thumb
 417              	.LBE18:
 418              		.loc 1 277 0
 419 0008 0323     		movs	r3, #3
 420 000a 0370     		strb	r3, [r0]
 421 000c FFF7FEFF 		bl	spi_lld_receive
 422              	.LVL21:
 423              	.LBB19:
 424              		.loc 1 278 0
 425 0010 0023     		movs	r3, #0
 426              	@ 278 "../ChibiStudio/ChibiOS/os/hal/src/spi.c" 1
 427 0012 83F31188 		msr     BASEPRI, r3
 428              	@ 0 "" 2
 429              		.thumb
 430 0016 08BD     		pop	{r3, pc}
 431              	.LBE19:
 432              		.cfi_endproc
 433              	.LFE127:
 434              		.size	spiStartReceive, .-spiStartReceive
 435 0018 AFF30080 		.section	.text.spiIgnore,"ax",%progbits
 435      AFF30080 
 436              		.align	2
 437              		.p2align 4,,15
 438              		.global	spiIgnore
 439              		.thumb
 440              		.thumb_func
 441              		.type	spiIgnore, %function
 442              	spiIgnore:
 443              	.LFB128:
 444              		.loc 1 296 0
 445              		.cfi_startproc
 446              		@ args = 0, pretend = 0, frame = 0
 447              		@ frame_needed = 0, uses_anonymous_args = 0
ARM GAS  /var/folders/4k/6h5l9jl178sb4hslwv3xp1mr0000gn/T//ccnwyzoi.s 			page 9


 448              	.LVL22:
 449 0000 10B5     		push	{r4, lr}
 450              		.cfi_def_cfa_offset 8
 451              		.cfi_offset 4, -8
 452              		.cfi_offset 14, -4
 453              	.LBB20:
 454              		.loc 1 300 0
 455 0002 2023     		movs	r3, #32
 456              	.LBE20:
 457              		.loc 1 296 0
 458 0004 0446     		mov	r4, r0
 459              	.LBB21:
 460              		.loc 1 300 0
 461              	@ 300 "../ChibiStudio/ChibiOS/os/hal/src/spi.c" 1
 462 0006 83F31188 		msr     BASEPRI, r3
 463              	@ 0 "" 2
 464              		.thumb
 465              	.LBE21:
 466              		.loc 1 303 0
 467 000a 0323     		movs	r3, #3
 468 000c 0370     		strb	r3, [r0]
 469 000e FFF7FEFF 		bl	spi_lld_ignore
 470              	.LVL23:
 471              		.loc 1 304 0
 472 0012 054B     		ldr	r3, .L12
 473 0014 9B69     		ldr	r3, [r3, #24]
 474 0016 A360     		str	r3, [r4, #8]
 475 0018 0220     		movs	r0, #2
 476 001a FFF7FEFF 		bl	chSchGoSleepS
 477              	.LVL24:
 478              	.LBB22:
 479              		.loc 1 305 0
 480 001e 0023     		movs	r3, #0
 481              	@ 305 "../ChibiStudio/ChibiOS/os/hal/src/spi.c" 1
 482 0020 83F31188 		msr     BASEPRI, r3
 483              	@ 0 "" 2
 484              		.thumb
 485 0024 10BD     		pop	{r4, pc}
 486              	.LVL25:
 487              	.L13:
 488 0026 00BF     		.align	2
 489              	.L12:
 490 0028 00000000 		.word	rlist
 491              	.LBE22:
 492              		.cfi_endproc
 493              	.LFE128:
 494              		.size	spiIgnore, .-spiIgnore
 495 002c AFF30080 		.section	.text.spiExchange,"ax",%progbits
 496              		.align	2
 497              		.p2align 4,,15
 498              		.global	spiExchange
 499              		.thumb
 500              		.thumb_func
 501              		.type	spiExchange, %function
 502              	spiExchange:
 503              	.LFB129:
 504              		.loc 1 327 0
ARM GAS  /var/folders/4k/6h5l9jl178sb4hslwv3xp1mr0000gn/T//ccnwyzoi.s 			page 10


 505              		.cfi_startproc
 506              		@ args = 0, pretend = 0, frame = 0
 507              		@ frame_needed = 0, uses_anonymous_args = 0
 508              	.LVL26:
 509 0000 38B5     		push	{r3, r4, r5, lr}
 510              		.cfi_def_cfa_offset 16
 511              		.cfi_offset 3, -16
 512              		.cfi_offset 4, -12
 513              		.cfi_offset 5, -8
 514              		.cfi_offset 14, -4
 515              		.loc 1 327 0
 516 0002 1D46     		mov	r5, r3
 517 0004 0446     		mov	r4, r0
 518              	.LBB23:
 519              		.loc 1 332 0
 520 0006 2023     		movs	r3, #32
 521              	.LVL27:
 522              	@ 332 "../ChibiStudio/ChibiOS/os/hal/src/spi.c" 1
 523 0008 83F31188 		msr     BASEPRI, r3
 524              	@ 0 "" 2
 525              		.thumb
 526              	.LBE23:
 527              		.loc 1 336 0
 528 000c 0320     		movs	r0, #3
 529              	.LVL28:
 530 000e 2B46     		mov	r3, r5
 531 0010 2070     		strb	r0, [r4]
 532 0012 2046     		mov	r0, r4
 533 0014 FFF7FEFF 		bl	spi_lld_exchange
 534              	.LVL29:
 535              		.loc 1 337 0
 536 0018 044B     		ldr	r3, .L15
 537 001a 9B69     		ldr	r3, [r3, #24]
 538 001c A360     		str	r3, [r4, #8]
 539 001e 0220     		movs	r0, #2
 540 0020 FFF7FEFF 		bl	chSchGoSleepS
 541              	.LVL30:
 542              	.LBB24:
 543              		.loc 1 338 0
 544 0024 0023     		movs	r3, #0
 545              	@ 338 "../ChibiStudio/ChibiOS/os/hal/src/spi.c" 1
 546 0026 83F31188 		msr     BASEPRI, r3
 547              	@ 0 "" 2
 548              		.thumb
 549 002a 38BD     		pop	{r3, r4, r5, pc}
 550              	.LVL31:
 551              	.L16:
 552              		.align	2
 553              	.L15:
 554 002c 00000000 		.word	rlist
 555              	.LBE24:
 556              		.cfi_endproc
 557              	.LFE129:
 558              		.size	spiExchange, .-spiExchange
 559              		.section	.text.spiSend,"ax",%progbits
 560              		.align	2
 561              		.p2align 4,,15
ARM GAS  /var/folders/4k/6h5l9jl178sb4hslwv3xp1mr0000gn/T//ccnwyzoi.s 			page 11


 562              		.global	spiSend
 563              		.thumb
 564              		.thumb_func
 565              		.type	spiSend, %function
 566              	spiSend:
 567              	.LFB130:
 568              		.loc 1 357 0
 569              		.cfi_startproc
 570              		@ args = 0, pretend = 0, frame = 0
 571              		@ frame_needed = 0, uses_anonymous_args = 0
 572              	.LVL32:
 573 0000 10B5     		push	{r4, lr}
 574              		.cfi_def_cfa_offset 8
 575              		.cfi_offset 4, -8
 576              		.cfi_offset 14, -4
 577              	.LBB25:
 578              		.loc 1 361 0
 579 0002 2023     		movs	r3, #32
 580              	.LBE25:
 581              		.loc 1 357 0
 582 0004 0446     		mov	r4, r0
 583              	.LBB26:
 584              		.loc 1 361 0
 585              	@ 361 "../ChibiStudio/ChibiOS/os/hal/src/spi.c" 1
 586 0006 83F31188 		msr     BASEPRI, r3
 587              	@ 0 "" 2
 588              		.thumb
 589              	.LBE26:
 590              		.loc 1 364 0
 591 000a 0323     		movs	r3, #3
 592 000c 0370     		strb	r3, [r0]
 593 000e FFF7FEFF 		bl	spi_lld_send
 594              	.LVL33:
 595              		.loc 1 365 0
 596 0012 054B     		ldr	r3, .L18
 597 0014 9B69     		ldr	r3, [r3, #24]
 598 0016 A360     		str	r3, [r4, #8]
 599 0018 0220     		movs	r0, #2
 600 001a FFF7FEFF 		bl	chSchGoSleepS
 601              	.LVL34:
 602              	.LBB27:
 603              		.loc 1 366 0
 604 001e 0023     		movs	r3, #0
 605              	@ 366 "../ChibiStudio/ChibiOS/os/hal/src/spi.c" 1
 606 0020 83F31188 		msr     BASEPRI, r3
 607              	@ 0 "" 2
 608              		.thumb
 609 0024 10BD     		pop	{r4, pc}
 610              	.LVL35:
 611              	.L19:
 612 0026 00BF     		.align	2
 613              	.L18:
 614 0028 00000000 		.word	rlist
 615              	.LBE27:
 616              		.cfi_endproc
 617              	.LFE130:
 618              		.size	spiSend, .-spiSend
ARM GAS  /var/folders/4k/6h5l9jl178sb4hslwv3xp1mr0000gn/T//ccnwyzoi.s 			page 12


 619 002c AFF30080 		.section	.text.spiReceive,"ax",%progbits
 620              		.align	2
 621              		.p2align 4,,15
 622              		.global	spiReceive
 623              		.thumb
 624              		.thumb_func
 625              		.type	spiReceive, %function
 626              	spiReceive:
 627              	.LFB131:
 628              		.loc 1 385 0
 629              		.cfi_startproc
 630              		@ args = 0, pretend = 0, frame = 0
 631              		@ frame_needed = 0, uses_anonymous_args = 0
 632              	.LVL36:
 633 0000 10B5     		push	{r4, lr}
 634              		.cfi_def_cfa_offset 8
 635              		.cfi_offset 4, -8
 636              		.cfi_offset 14, -4
 637              	.LBB28:
 638              		.loc 1 390 0
 639 0002 2023     		movs	r3, #32
 640              	.LBE28:
 641              		.loc 1 385 0
 642 0004 0446     		mov	r4, r0
 643              	.LBB29:
 644              		.loc 1 390 0
 645              	@ 390 "../ChibiStudio/ChibiOS/os/hal/src/spi.c" 1
 646 0006 83F31188 		msr     BASEPRI, r3
 647              	@ 0 "" 2
 648              		.thumb
 649              	.LBE29:
 650              		.loc 1 394 0
 651 000a 0323     		movs	r3, #3
 652 000c 0370     		strb	r3, [r0]
 653 000e FFF7FEFF 		bl	spi_lld_receive
 654              	.LVL37:
 655              		.loc 1 395 0
 656 0012 054B     		ldr	r3, .L21
 657 0014 9B69     		ldr	r3, [r3, #24]
 658 0016 A360     		str	r3, [r4, #8]
 659 0018 0220     		movs	r0, #2
 660 001a FFF7FEFF 		bl	chSchGoSleepS
 661              	.LVL38:
 662              	.LBB30:
 663              		.loc 1 396 0
 664 001e 0023     		movs	r3, #0
 665              	@ 396 "../ChibiStudio/ChibiOS/os/hal/src/spi.c" 1
 666 0020 83F31188 		msr     BASEPRI, r3
 667              	@ 0 "" 2
 668              		.thumb
 669 0024 10BD     		pop	{r4, pc}
 670              	.LVL39:
 671              	.L22:
 672 0026 00BF     		.align	2
 673              	.L21:
 674 0028 00000000 		.word	rlist
 675              	.LBE30:
ARM GAS  /var/folders/4k/6h5l9jl178sb4hslwv3xp1mr0000gn/T//ccnwyzoi.s 			page 13


 676              		.cfi_endproc
 677              	.LFE131:
 678              		.size	spiReceive, .-spiReceive
 679 002c AFF30080 		.section	.text.spiAcquireBus,"ax",%progbits
 680              		.align	2
 681              		.p2align 4,,15
 682              		.global	spiAcquireBus
 683              		.thumb
 684              		.thumb_func
 685              		.type	spiAcquireBus, %function
 686              	spiAcquireBus:
 687              	.LFB132:
 688              		.loc 1 412 0
 689              		.cfi_startproc
 690              		@ args = 0, pretend = 0, frame = 0
 691              		@ frame_needed = 0, uses_anonymous_args = 0
 692              		@ link register save eliminated.
 693              	.LVL40:
 694              		.loc 1 417 0
 695 0000 0C30     		adds	r0, r0, #12
 696              	.LVL41:
 697 0002 FFF7FEBF 		b	chMtxLock
 698              	.LVL42:
 699              		.cfi_endproc
 700              	.LFE132:
 701              		.size	spiAcquireBus, .-spiAcquireBus
 702 0006 00BFAFF3 		.section	.text.spiReleaseBus,"ax",%progbits
 702      0080AFF3 
 702      0080
 703              		.align	2
 704              		.p2align 4,,15
 705              		.global	spiReleaseBus
 706              		.thumb
 707              		.thumb_func
 708              		.type	spiReleaseBus, %function
 709              	spiReleaseBus:
 710              	.LFB133:
 711              		.loc 1 432 0
 712              		.cfi_startproc
 713              		@ args = 0, pretend = 0, frame = 0
 714              		@ frame_needed = 0, uses_anonymous_args = 0
 715              		@ link register save eliminated.
 716              	.LVL43:
 717              		.loc 1 438 0
 718 0000 FFF7FEBF 		b	chMtxUnlock
 719              	.LVL44:
 720              		.cfi_endproc
 721              	.LFE133:
 722              		.size	spiReleaseBus, .-spiReleaseBus
 723 0004 AFF30080 		.text
 723      AFF30080 
 723      AFF30080 
 724              	.Letext0:
 725              		.file 2 "/Users/mikevanis/Documents/workspace/gcc-arm-none-eabi-4_8-2014q1/lib/gcc/arm-none-eabi/4
 726              		.file 3 "/Users/mikevanis/Documents/workspace/gcc-arm-none-eabi-4_8-2014q1/arm-none-eabi/include/m
 727              		.file 4 "/Users/mikevanis/Documents/workspace/gcc-arm-none-eabi-4_8-2014q1/arm-none-eabi/include/s
 728              		.file 5 "../ChibiStudio/ChibiOS/os/ports/GCC/ARMCMx/chtypes.h"
ARM GAS  /var/folders/4k/6h5l9jl178sb4hslwv3xp1mr0000gn/T//ccnwyzoi.s 			page 14


 729              		.file 6 "../ChibiStudio/ChibiOS/os/kernel/include/chlists.h"
 730              		.file 7 "../ChibiStudio/ChibiOS/os/kernel/include/chthreads.h"
 731              		.file 8 "../ChibiStudio/ChibiOS/os/ports/GCC/ARMCMx/chcore_v7m.h"
 732              		.file 9 "../ChibiStudio/ChibiOS/os/kernel/include/chschd.h"
 733              		.file 10 "../ChibiStudio/ChibiOS/os/kernel/include/chmtx.h"
 734              		.file 11 "../ChibiStudio/ChibiOS/os/hal/platforms/STM32F4xx/stm32f4xx.h"
 735              		.file 12 "../ChibiStudio/ChibiOS/os/hal/platforms/STM32F4xx/stm32_dma.h"
 736              		.file 13 "../ChibiStudio/ChibiOS/os/hal/platforms/STM32/GPIOv2/pal_lld.h"
 737              		.file 14 "../ChibiStudio/ChibiOS/os/hal/include/spi.h"
 738              		.file 15 "../ChibiStudio/ChibiOS/os/hal/platforms/STM32/SPIv1/spi_lld.h"
 739              		.file 16 "../ChibiStudio/ChibiOS/os/ports/common/ARMCMx/CMSIS/include/core_cm4.h"